文件：adc.c        编译器版本 HGASM 0202 页次1


   1  0000              ; Generated by holtek-gcc v3.19, Fri May 23 10:39:35 2025
   2  0000              ; 
   3  0000              ; Configuration:
   4  0000              ;       with long instruction
   5  0000              ;       Multi-ROM, Multi-RAM
   6  0000              ;       bits_per_rom_unit:16
   7  0000              ;       with mp1
   8  0000              ;       with tbhp, address(0x9)
   9  0000              ;          Use tabrd-const
  10  0000              ;       
  11  0000              ; SFR address of long-instruction arch:
  12  0000              ;    mp0 = -1,1,0
  13  0000              ;    mp1 = 4,3,2
  14  0000              ;    mp2 = 14,13,12
  15  0000              ;    tbp = 9,7,8
  16  0000              ;    acc = 5
  17  0000              ;    pcl = 6
  18  0000              ;    status = 10
  19  0000              ;    bp = 11
  20  0000              ;    intc = 32
  21  0000              ;       
  22  0000              ;       
  23  0000              ; use 'tabrdc' instead of 'tabrd'
  24  0000              ;       
  25  0000              
  26  0000              #pragma translator "holtek-gcc 4.6.4" "3.19" "build 20130711"
  27  0000              ; Rebuild 718
  28  0000              
  29  0000              ir equ [2]
  30  0000              mp equ [3]
  31  0000              sbp equ [4]
  32  0000              acc equ [5]
  33  0000              bp equ [11]
  34  0000              tblp equ [7]
  35  0000              tbhp equ [9]
  36  0000              status equ [10]
  37  0000              c equ [10].0
  38  0000              ac equ [10].1
  39  0000              z equ [10].2
  40  0000              ov equ [10].3
  41  0000              cz equ [10].6
  42  0000              sc equ [10].7
  43  0000              intc equ [32]
  44  0000              mduwr0 equ [59h]
  45  0000              mduwr1 equ [5ah]
  46  0000              mduwr2 equ [5bh]
  47  0000              mduwr3 equ [5ch]
  48  0000              mduwr4 equ [5dh]
  49  0000              mduwr5 equ [5eh]
  50  0000              mduwrctrl equ [5fh]
  51  0000              
  52  0000              extern ra:byte
  53  0000              extern rb:byte
  54  0000              extern rc:byte
  55  0000              extern rd:byte
  56  0000              extern re:byte
  57  0000              extern rf:byte
  58  0000              extern rg:byte
  59  0000              extern rh:byte
文件：adc.ASM      编译器版本 HGASM 0202 页次2

  60  0000              extern _Crom2Prom:near
  61  0000              extern _Crom2PromNext:near
  62  0000              
  63  0000              RAMBANK 0 @BITDATASEC, @BITDATASEC1
  64  0000              @HCCINIT	.section 'data'
  65  0000              @HCCINIT0	.section 'data'
  66  0000              @BITDATASEC	 .section 'data'
  67  0000              @BITDATASEC1	 .section 'data'
  68  0000              
  69  0000              #pragma debug scope 1 1
  70  0000              	extern __DELAY3:near
  71  0000              	extern __DELAYX3:near
  72  0000              	extern __DELAYX6:near
  73  0000              	extern __DELAYY5:near
  74  0000              	extern __DELAYY3:near
  75  0000              	extern _builtin_holtek_delay_2:byte
  76  0000              ___pgac1 equ [97]
  77  0000              ___adcr0 equ [102]
  78  0000              ___intc0 equ [32]
  79  0000              ___adcr1 equ [103]
  80  0000              public _fun_ADCStart
  81  0000              #pragma debug scope 2 1

  66  0000              #line 66 "c:\users\longshuangmin\desktop\worke_space\g-501\g-501\adc.c"
  66  0000              _fun_ADCStart .section 'code'
  66  0000              _fun_ADCStart proc
  67  0000              #line 67 "c:\users\longshuangmin\desktop\worke_space\g-501\g-501\adc.c"
  67  0000  3761        	clr [97].6
  68  0001              #line 68 "c:\users\longshuangmin\desktop\worke_space\g-501\g-501\adc.c"
  68  0001  36E6        	clr [102].5
  68  0002  3766        	clr [102].6
  69  0003              #line 69 "c:\users\longshuangmin\desktop\worke_space\g-501\g-501\adc.c"
  69  0003  3720        	clr [32].6
  69  0004  31A0        	set [32].3
  69  0005  3020        	set [32].0
  70  0006              #line 70 "c:\users\longshuangmin\desktop\worke_space\g-501\g-501\adc.c"
  70  0006  37E6        	clr [102].7
  70  0007  33E6        	set [102].7
  70  0008  37E6        	clr [102].7
  70  0009  3567        	clr [103].2
  70  000A  34E7        	clr [103].1
  71  000B              #line 71 "c:\users\longshuangmin\desktop\worke_space\g-501\g-501\adc.c"
  71  000B  1F00     E  	clr _SDKADCSourceData[4]
  72  000C              #line 72 "c:\users\longshuangmin\desktop\worke_space\g-501\g-501\adc.c"
  72  000C  3400     E  	clr _SDKADCSourceData[5].0
  72  000D  0003        	ret
  72  000E              _fun_ADCStart endp
  72  000E              #line 72 "c:\users\longshuangmin\desktop\worke_space\g-501\g-501\adc.c"
  72  000E              #pragma debug scope 1 1
  72  000E              public _fun_ADCStop
  72  000E              #pragma debug scope 3 1
  81  000E              #line 81 "c:\users\longshuangmin\desktop\worke_space\g-501\g-501\adc.c"
  81  0000              _fun_ADCStop .section 'code'
  81  0000              _fun_ADCStop proc
  82  0000              #line 82 "c:\users\longshuangmin\desktop\worke_space\g-501\g-501\adc.c"
  82  0000  3400     E  	clr _SDKADCSourceData[5].0
  83  0001              #line 83 "c:\users\longshuangmin\desktop\worke_space\g-501\g-501\adc.c"
  83  0001  1F00     E  	clr _SDKADCSourceData[4]
  84  0002              #line 84 "c:\users\longshuangmin\desktop\worke_space\g-501\g-501\adc.c"
  84  0002  32E6        	set [102].5
文件：adc.c        编译器版本 HGASM 0202 页次3

  84  0003  3366        	set [102].6
  84  0004  0003        	ret
  84  0005              _fun_ADCStop endp
  84  0005              #line 84 "c:\users\longshuangmin\desktop\worke_space\g-501\g-501\adc.c"
  84  0005              #pragma debug scope 1 1
  84  0005              ___bswc2 equ [127]
  84  0005              ___gsc1 equ [111]
  84  0005              ___gsc2 equ [112]
  84  0005              public _fun_StripModuleAllOpen
  84  0005              #pragma debug scope 4 1
  94  0005              #line 94 "c:\users\longshuangmin\desktop\worke_space\g-501\g-501\adc.c"
  94  0000              _fun_StripModuleAllOpen .section 'code'
  94  0000              _fun_StripModuleAllOpen proc
  95  0000              #line 95 "c:\users\longshuangmin\desktop\worke_space\g-501\g-501\adc.c"
  95  0000  357F        	clr [127].2
  96  0001              #line 96 "c:\users\longshuangmin\desktop\worke_space\g-501\g-501\adc.c"
  96  0001  347F        	clr [127].0
  97  0002              #line 97 "c:\users\longshuangmin\desktop\worke_space\g-501\g-501\adc.c"
  97  0002  34FF        	clr [127].1
  99  0003              #line 99 "c:\users\longshuangmin\desktop\worke_space\g-501\g-501\adc.c"
  99  0003  366F        	clr [111].4
 100  0004              #line 100 "c:\users\longshuangmin\desktop\worke_space\g-501\g-501\adc.c"
 100  0004  36EF        	clr [111].5
 101  0005              #line 101 "c:\users\longshuangmin\desktop\worke_space\g-501\g-501\adc.c"
 101  0005  346F        	clr [111].0
 102  0006              #line 102 "c:\users\longshuangmin\desktop\worke_space\g-501\g-501\adc.c"
 102  0006  34EF        	clr [111].1
 103  0007              #line 103 "c:\users\longshuangmin\desktop\worke_space\g-501\g-501\adc.c"
 103  0007  36EF        	clr [111].5
 104  0008              #line 104 "c:\users\longshuangmin\desktop\worke_space\g-501\g-501\adc.c"
 104  0008  37EF        	clr [111].7
 106  0009              #line 106 "c:\users\longshuangmin\desktop\worke_space\g-501\g-501\adc.c"
 106  0009  36F0        	clr [112].5
 106  000A  3670        	clr [112].4
 106  000B  35F0        	clr [112].3
 106  000C  0003        	ret
 106  000D              _fun_StripModuleAllOpen endp
 106  000D              #line 106 "c:\users\longshuangmin\desktop\worke_space\g-501\g-501\adc.c"
 106  000D              #pragma debug scope 1 1
 106  000D              public _fun_StripModuleAllOpen2
 106  000D              #pragma debug scope 5 1
 117  000D              #line 117 "c:\users\longshuangmin\desktop\worke_space\g-501\g-501\adc.c"
 117  0000              _fun_StripModuleAllOpen2 .section 'code'
 117  0000              _fun_StripModuleAllOpen2 proc
 118  0000              #line 118 "c:\users\longshuangmin\desktop\worke_space\g-501\g-501\adc.c"
 118  0000              	fcall _fun_StripModuleAllOpen
 119  0007              #line 119 "c:\users\longshuangmin\desktop\worke_space\g-501\g-501\adc.c"
 119  0007  3570        	clr [112].2
 119  0008  34F0        	clr [112].1
 119  0009  3470        	clr [112].0
 119  000A  0003        	ret
 119  000B              _fun_StripModuleAllOpen2 endp
 119  000B              #line 119 "c:\users\longshuangmin\desktop\worke_space\g-501\g-501\adc.c"
 119  000B              #pragma debug scope 1 1
 119  000B              ___gsc3 equ [113]
 119  000B              ___opa1c equ [109]
 119  000B              ___pac equ [21]
 119  000B              ___papu equ [22]
 119  000B              ___pgacs equ [98]
 119  000B              ___pgac0 equ [96]
文件：adc.c        编译器版本 HGASM 0202 页次4

 119  000B              ___adcs equ [104]
 119  000B              public _InitADC_Op1n1_Op1s1
 119  000B              #pragma debug scope 6 1
 126  000B              #line 126 "c:\users\longshuangmin\desktop\worke_space\g-501\g-501\adc.c"
 126  0000              _InitADC_Op1n1_Op1s1 .section 'code'
 126  0000              _InitADC_Op1n1_Op1s1 proc
 131  0000              #line 131 "c:\users\longshuangmin\desktop\worke_space\g-501\g-501\adc.c"
 131  0000              	fcall _fun_StripModuleAllOpen
 136  0007              #line 136 "c:\users\longshuangmin\desktop\worke_space\g-501\g-501\adc.c"
 136  0007  3170        	set [112].2
 136  0008  34F0        	clr [112].1
 136  0009  3470        	clr [112].0
 141  000A              #line 141 "c:\users\longshuangmin\desktop\worke_space\g-501\g-501\adc.c"
 141  000A  326F        	set [111].4
 142  000B              #line 142 "c:\users\longshuangmin\desktop\worke_space\g-501\g-501\adc.c"
 142  000B  30EF        	set [111].1
 143  000C              #line 143 "c:\users\longshuangmin\desktop\worke_space\g-501\g-501\adc.c"
 143  000C  34F1        	clr [113].1
 143  000D  3071        	set [113].0
 145  000E              #line 145 "c:\users\longshuangmin\desktop\worke_space\g-501\g-501\adc.c"
 145  000E  32ED        	set [109].5
 147  000F              #line 147 "c:\users\longshuangmin\desktop\worke_space\g-501\g-501\adc.c"
 147  000F  3195        	set [21].3
 148  0010              #line 148 "c:\users\longshuangmin\desktop\worke_space\g-501\g-501\adc.c"
 148  0010  3596        	clr [22].3
 150  0011              #line 150 "c:\users\longshuangmin\desktop\worke_space\g-501\g-501\adc.c"
 150  0011  3616        	clr [22].4
 151  0012              #line 151 "c:\users\longshuangmin\desktop\worke_space\g-501\g-501\adc.c"
 151  0012  3215        	set [21].4
 175  0013              #line 175 "c:\users\longshuangmin\desktop\worke_space\g-501\g-501\adc.c"
 175  0013  33E2        	set [98].7
 175  0014  3762        	clr [98].6
 175  0015  36E2        	clr [98].5
 175  0016  3662        	clr [98].4
 177  0017              #line 177 "c:\users\longshuangmin\desktop\worke_space\g-501\g-501\adc.c"
 177  0017  31E2        	set [98].3
 177  0018  3562        	clr [98].2
 177  0019  34E2        	clr [98].1
 177  001A  3462        	clr [98].0
 178  001B              #line 178 "c:\users\longshuangmin\desktop\worke_space\g-501\g-501\adc.c"
 178  001B  3760        	clr [96].6
 178  001C  36E0        	clr [96].5
 179  001D              #line 179 "c:\users\longshuangmin\desktop\worke_space\g-501\g-501\adc.c"
 179  001D  33E0        	set [96].7
 179  001E  33E1        	set [97].7
 181  001F              #line 181 "c:\users\longshuangmin\desktop\worke_space\g-501\g-501\adc.c"
 181  001F  3660        	clr [96].4
 181  0020  35E0        	clr [96].3
 182  0021              #line 182 "c:\users\longshuangmin\desktop\worke_space\g-501\g-501\adc.c"
 182  0021  35E1        	clr [97].3
 182  0022  3561        	clr [97].2
 182  0023  34E1        	clr [97].1
 187  0024              #line 187 "c:\users\longshuangmin\desktop\worke_space\g-501\g-501\adc.c"
 187  0024  0F1F        	mov a,31
 187  0025  00E8        	mov [104],a
 187  0026  37E7        	clr [103].7
 187  0027  3367        	set [103].6
 187  0028  36E7        	clr [103].5
 187  0029  3266        	set [102].4
 187  002A  35E6        	clr [102].3
文件：adc.c        编译器版本 HGASM 0202 页次5

 187  002B  3566        	clr [102].2
 187  002C  0003        	ret
 187  002D              _InitADC_Op1n1_Op1s1 endp
 187  002D              #line 187 "c:\users\longshuangmin\desktop\worke_space\g-501\g-501\adc.c"
 187  002D              #pragma debug scope 1 1
 187  002D              public _InitADC_Op1n2_Op1s0
 187  002D              #pragma debug scope 7 1
 193  002D              #line 193 "c:\users\longshuangmin\desktop\worke_space\g-501\g-501\adc.c"
 193  0000              _InitADC_Op1n2_Op1s0 .section 'code'
 193  0000              _InitADC_Op1n2_Op1s0 proc
 198  0000              #line 198 "c:\users\longshuangmin\desktop\worke_space\g-501\g-501\adc.c"
 198  0000              	fcall _fun_StripModuleAllOpen
 199  0007              #line 199 "c:\users\longshuangmin\desktop\worke_space\g-501\g-501\adc.c"
 199  0007  366F        	clr [111].4
 200  0008              #line 200 "c:\users\longshuangmin\desktop\worke_space\g-501\g-501\adc.c"
 200  0008  37EF        	clr [111].7
 203  0009              #line 203 "c:\users\longshuangmin\desktop\worke_space\g-501\g-501\adc.c"
 203  0009  3170        	set [112].2
 203  000A  34F0        	clr [112].1
 203  000B  3470        	clr [112].0
 205  000C              #line 205 "c:\users\longshuangmin\desktop\worke_space\g-501\g-501\adc.c"
 205  000C  32EF        	set [111].5
 206  000D              #line 206 "c:\users\longshuangmin\desktop\worke_space\g-501\g-501\adc.c"
 206  000D  306F        	set [111].0
 207  000E              #line 207 "c:\users\longshuangmin\desktop\worke_space\g-501\g-501\adc.c"
 207  000E  34F1        	clr [113].1
 207  000F  3071        	set [113].0
 209  0010              #line 209 "c:\users\longshuangmin\desktop\worke_space\g-501\g-501\adc.c"
 209  0010  32ED        	set [109].5
 210  0011              #line 210 "c:\users\longshuangmin\desktop\worke_space\g-501\g-501\adc.c"
 210  0011  3195        	set [21].3
 211  0012              #line 211 "c:\users\longshuangmin\desktop\worke_space\g-501\g-501\adc.c"
 211  0012  3596        	clr [22].3
 213  0013              #line 213 "c:\users\longshuangmin\desktop\worke_space\g-501\g-501\adc.c"
 213  0013  3616        	clr [22].4
 214  0014              #line 214 "c:\users\longshuangmin\desktop\worke_space\g-501\g-501\adc.c"
 214  0014  3215        	set [21].4
 236  0015              #line 236 "c:\users\longshuangmin\desktop\worke_space\g-501\g-501\adc.c"
 236  0015  33E2        	set [98].7
 236  0016  3762        	clr [98].6
 236  0017  36E2        	clr [98].5
 236  0018  3262        	set [98].4
 238  0019              #line 238 "c:\users\longshuangmin\desktop\worke_space\g-501\g-501\adc.c"
 238  0019  35E2        	clr [98].3
 238  001A  3162        	set [98].2
 238  001B  30E2        	set [98].1
 238  001C  3062        	set [98].0
 239  001D              #line 239 "c:\users\longshuangmin\desktop\worke_space\g-501\g-501\adc.c"
 239  001D  3760        	clr [96].6
 239  001E  36E0        	clr [96].5
 240  001F              #line 240 "c:\users\longshuangmin\desktop\worke_space\g-501\g-501\adc.c"
 240  001F  33E0        	set [96].7
 240  0020  33E1        	set [97].7
 242  0021              #line 242 "c:\users\longshuangmin\desktop\worke_space\g-501\g-501\adc.c"
 242  0021  3660        	clr [96].4
 242  0022  35E0        	clr [96].3
 243  0023              #line 243 "c:\users\longshuangmin\desktop\worke_space\g-501\g-501\adc.c"
 243  0023  35E1        	clr [97].3
 243  0024  3561        	clr [97].2
 243  0025  34E1        	clr [97].1
文件：adc.c        编译器版本 HGASM 0202 页次6

 248  0026              #line 248 "c:\users\longshuangmin\desktop\worke_space\g-501\g-501\adc.c"
 248  0026  0F1F        	mov a,31
 248  0027  00E8        	mov [104],a
 248  0028  37E7        	clr [103].7
 248  0029  3767        	clr [103].6
 248  002A  36E7        	clr [103].5
 248  002B  3266        	set [102].4
 248  002C  31E6        	set [102].3
 248  002D  3166        	set [102].2
 248  002E  0003        	ret
 248  002F              _InitADC_Op1n2_Op1s0 endp
 248  002F              #line 248 "c:\users\longshuangmin\desktop\worke_space\g-501\g-501\adc.c"
 248  002F              #pragma debug scope 1 1
 248  002F              public _InitADC_Op1n1_Avss
 248  002F              #pragma debug scope 8 1
 253  002F              #line 253 "c:\users\longshuangmin\desktop\worke_space\g-501\g-501\adc.c"
 253  0000              _InitADC_Op1n1_Avss .section 'code'
 253  0000              _InitADC_Op1n1_Avss proc
 258  0000              #line 258 "c:\users\longshuangmin\desktop\worke_space\g-501\g-501\adc.c"
 258  0000              	fcall _fun_StripModuleAllOpen
 259  0007              #line 259 "c:\users\longshuangmin\desktop\worke_space\g-501\g-501\adc.c"
 259  0007  36EF        	clr [111].5
 260  0008              #line 260 "c:\users\longshuangmin\desktop\worke_space\g-501\g-501\adc.c"
 260  0008  37EF        	clr [111].7
 262  0009              #line 262 "c:\users\longshuangmin\desktop\worke_space\g-501\g-501\adc.c"
 262  0009  32F0        	set [112].5
 262  000A  3670        	clr [112].4
 262  000B  35F0        	clr [112].3
 263  000C              #line 263 "c:\users\longshuangmin\desktop\worke_space\g-501\g-501\adc.c"
 263  000C  3170        	set [112].2
 263  000D  34F0        	clr [112].1
 263  000E  3470        	clr [112].0
 265  000F              #line 265 "c:\users\longshuangmin\desktop\worke_space\g-501\g-501\adc.c"
 265  000F  326F        	set [111].4
 266  0010              #line 266 "c:\users\longshuangmin\desktop\worke_space\g-501\g-501\adc.c"
 266  0010  30EF        	set [111].1
 267  0011              #line 267 "c:\users\longshuangmin\desktop\worke_space\g-501\g-501\adc.c"
 267  0011  34F1        	clr [113].1
 267  0012  3071        	set [113].0
 269  0013              #line 269 "c:\users\longshuangmin\desktop\worke_space\g-501\g-501\adc.c"
 269  0013  3195        	set [21].3
 270  0014              #line 270 "c:\users\longshuangmin\desktop\worke_space\g-501\g-501\adc.c"
 270  0014  3596        	clr [22].3
 272  0015              #line 272 "c:\users\longshuangmin\desktop\worke_space\g-501\g-501\adc.c"
 272  0015  3616        	clr [22].4
 273  0016              #line 273 "c:\users\longshuangmin\desktop\worke_space\g-501\g-501\adc.c"
 273  0016  3215        	set [21].4
 297  0017              #line 297 "c:\users\longshuangmin\desktop\worke_space\g-501\g-501\adc.c"
 297  0017  32ED        	set [109].5
 302  0018              #line 302 "c:\users\longshuangmin\desktop\worke_space\g-501\g-501\adc.c"
 302  0018  33E2        	set [98].7
 302  0019  3762        	clr [98].6
 302  001A  32E2        	set [98].5
 302  001B  3262        	set [98].4
 304  001C              #line 304 "c:\users\longshuangmin\desktop\worke_space\g-501\g-501\adc.c"
 304  001C  31E2        	set [98].3
 304  001D  3562        	clr [98].2
 304  001E  34E2        	clr [98].1
 304  001F  3462        	clr [98].0
 305  0020              #line 305 "c:\users\longshuangmin\desktop\worke_space\g-501\g-501\adc.c"
文件：adc.c        编译器版本 HGASM 0202 页次7

 305  0020  3760        	clr [96].6
 305  0021  36E0        	clr [96].5
 306  0022              #line 306 "c:\users\longshuangmin\desktop\worke_space\g-501\g-501\adc.c"
 306  0022  33E0        	set [96].7
 306  0023  33E1        	set [97].7
 308  0024              #line 308 "c:\users\longshuangmin\desktop\worke_space\g-501\g-501\adc.c"
 308  0024  3660        	clr [96].4
 308  0025  35E0        	clr [96].3
 309  0026              #line 309 "c:\users\longshuangmin\desktop\worke_space\g-501\g-501\adc.c"
 309  0026  35E1        	clr [97].3
 309  0027  3561        	clr [97].2
 309  0028  34E1        	clr [97].1
 314  0029              #line 314 "c:\users\longshuangmin\desktop\worke_space\g-501\g-501\adc.c"
 314  0029  0F1F        	mov a,31
 314  002A  00E8        	mov [104],a
 314  002B  37E7        	clr [103].7
 314  002C  3767        	clr [103].6
 314  002D  36E7        	clr [103].5
 314  002E  3266        	set [102].4
 314  002F  31E6        	set [102].3
 314  0030  3166        	set [102].2
 314  0031  0003        	ret
 314  0032              _InitADC_Op1n1_Avss endp
 314  0032              #line 314 "c:\users\longshuangmin\desktop\worke_space\g-501\g-501\adc.c"
 314  0032              #pragma debug scope 1 1
 314  0032              public _InitADC_Op1n2_Avss
 314  0032              #pragma debug scope 9 1
 319  0032              #line 319 "c:\users\longshuangmin\desktop\worke_space\g-501\g-501\adc.c"
 319  0000              _InitADC_Op1n2_Avss .section 'code'
 319  0000              _InitADC_Op1n2_Avss proc
 324  0000              #line 324 "c:\users\longshuangmin\desktop\worke_space\g-501\g-501\adc.c"
 324  0000              	fcall _fun_StripModuleAllOpen
 325  0007              #line 325 "c:\users\longshuangmin\desktop\worke_space\g-501\g-501\adc.c"
 325  0007  366F        	clr [111].4
 326  0008              #line 326 "c:\users\longshuangmin\desktop\worke_space\g-501\g-501\adc.c"
 326  0008  37EF        	clr [111].7
 329  0009              #line 329 "c:\users\longshuangmin\desktop\worke_space\g-501\g-501\adc.c"
 329  0009  3170        	set [112].2
 329  000A  34F0        	clr [112].1
 329  000B  3470        	clr [112].0
 331  000C              #line 331 "c:\users\longshuangmin\desktop\worke_space\g-501\g-501\adc.c"
 331  000C  32EF        	set [111].5
 332  000D              #line 332 "c:\users\longshuangmin\desktop\worke_space\g-501\g-501\adc.c"
 332  000D  306F        	set [111].0
 333  000E              #line 333 "c:\users\longshuangmin\desktop\worke_space\g-501\g-501\adc.c"
 333  000E  34F1        	clr [113].1
 333  000F  3071        	set [113].0
 335  0010              #line 335 "c:\users\longshuangmin\desktop\worke_space\g-501\g-501\adc.c"
 335  0010  32ED        	set [109].5
 340  0011              #line 340 "c:\users\longshuangmin\desktop\worke_space\g-501\g-501\adc.c"
 340  0011  33E2        	set [98].7
 340  0012  3762        	clr [98].6
 340  0013  32E2        	set [98].5
 340  0014  3262        	set [98].4
 342  0015              #line 342 "c:\users\longshuangmin\desktop\worke_space\g-501\g-501\adc.c"
 342  0015  35E2        	clr [98].3
 342  0016  3162        	set [98].2
 342  0017  30E2        	set [98].1
 342  0018  3062        	set [98].0
 343  0019              #line 343 "c:\users\longshuangmin\desktop\worke_space\g-501\g-501\adc.c"
文件：adc.c        编译器版本 HGASM 0202 页次8

 343  0019  3760        	clr [96].6
 343  001A  36E0        	clr [96].5
 344  001B              #line 344 "c:\users\longshuangmin\desktop\worke_space\g-501\g-501\adc.c"
 344  001B  33E0        	set [96].7
 344  001C  33E1        	set [97].7
 346  001D              #line 346 "c:\users\longshuangmin\desktop\worke_space\g-501\g-501\adc.c"
 346  001D  3660        	clr [96].4
 346  001E  35E0        	clr [96].3
 347  001F              #line 347 "c:\users\longshuangmin\desktop\worke_space\g-501\g-501\adc.c"
 347  001F  35E1        	clr [97].3
 347  0020  3561        	clr [97].2
 347  0021  34E1        	clr [97].1
 352  0022              #line 352 "c:\users\longshuangmin\desktop\worke_space\g-501\g-501\adc.c"
 352  0022  0F1F        	mov a,31
 352  0023  00E8        	mov [104],a
 352  0024  37E7        	clr [103].7
 352  0025  3767        	clr [103].6
 352  0026  36E7        	clr [103].5
 352  0027  3266        	set [102].4
 352  0028  31E6        	set [102].3
 352  0029  3166        	set [102].2
 352  002A  0003        	ret
 352  002B              _InitADC_Op1n2_Avss endp
 352  002B              #line 352 "c:\users\longshuangmin\desktop\worke_space\g-501\g-501\adc.c"
 352  002B              #pragma debug scope 1 1
 352  002B              ___pcc equ [40]
 352  002B              ___pc equ [39]
 352  002B              ___pa equ [20]
 352  002B              ___opa2c equ [110]
 352  002B              public _InitADC_Op2n_Op2o
 352  002B              #pragma debug scope 10 1
 357  002B              #line 357 "c:\users\longshuangmin\desktop\worke_space\g-501\g-501\adc.c"
 357  0000              _InitADC_Op2n_Op2o .section 'code'
 357  0000              _InitADC_Op2n_Op2o proc
 359  0000              #line 359 "c:\users\longshuangmin\desktop\worke_space\g-501\g-501\adc.c"
 359  0000              	fcall _fun_StripModuleAllOpen2
 360  0007              #line 360 "c:\users\longshuangmin\desktop\worke_space\g-501\g-501\adc.c"
 360  0007  366F        	clr [111].4
 361  0008              #line 361 "c:\users\longshuangmin\desktop\worke_space\g-501\g-501\adc.c"
 361  0008  36EF        	clr [111].5
 362  0009              #line 362 "c:\users\longshuangmin\desktop\worke_space\g-501\g-501\adc.c"
 362  0009  346F        	clr [111].0
 363  000A              #line 363 "c:\users\longshuangmin\desktop\worke_space\g-501\g-501\adc.c"
 363  000A  34EF        	clr [111].1
 370  000B              #line 370 "c:\users\longshuangmin\desktop\worke_space\g-501\g-501\adc.c"
 370  000B  34A8        	clr [40].1
 371  000C              #line 371 "c:\users\longshuangmin\desktop\worke_space\g-501\g-501\adc.c"
 371  000C  30A7        	set [39].1
 373  000D              #line 373 "c:\users\longshuangmin\desktop\worke_space\g-501\g-501\adc.c"
 373  000D  3594        	clr [20].3
 374  000E              #line 374 "c:\users\longshuangmin\desktop\worke_space\g-501\g-501\adc.c"
 374  000E  3595        	clr [21].3
 377  000F              #line 377 "c:\users\longshuangmin\desktop\worke_space\g-501\g-501\adc.c"
 377  000F  33EF        	set [111].7
 378  0010              #line 378 "c:\users\longshuangmin\desktop\worke_space\g-501\g-501\adc.c"
 378  0010  336F        	set [111].6
 379  0011              #line 379 "c:\users\longshuangmin\desktop\worke_space\g-501\g-501\adc.c"
 379  0011  35F1        	clr [113].3
 379  0012  3171        	set [113].2
 382  0013              #line 382 "c:\users\longshuangmin\desktop\worke_space\g-501\g-501\adc.c"
文件：adc.c        编译器版本 HGASM 0202 页次9

 382  0013  32EE        	set [110].5
 385  0014              #line 385 "c:\users\longshuangmin\desktop\worke_space\g-501\g-501\adc.c"
 385  0014  33E2        	set [98].7
 385  0015  3762        	clr [98].6
 385  0016  32E2        	set [98].5
 385  0017  3662        	clr [98].4
 386  0018              #line 386 "c:\users\longshuangmin\desktop\worke_space\g-501\g-501\adc.c"
 386  0018  31E2        	set [98].3
 386  0019  3562        	clr [98].2
 386  001A  34E2        	clr [98].1
 386  001B  3062        	set [98].0
 387  001C              #line 387 "c:\users\longshuangmin\desktop\worke_space\g-501\g-501\adc.c"
 387  001C  3760        	clr [96].6
 387  001D  36E0        	clr [96].5
 388  001E              #line 388 "c:\users\longshuangmin\desktop\worke_space\g-501\g-501\adc.c"
 388  001E  33E0        	set [96].7
 388  001F  33E1        	set [97].7
 390  0020              #line 390 "c:\users\longshuangmin\desktop\worke_space\g-501\g-501\adc.c"
 390  0020  3660        	clr [96].4
 390  0021  35E0        	clr [96].3
 391  0022              #line 391 "c:\users\longshuangmin\desktop\worke_space\g-501\g-501\adc.c"
 391  0022  35E1        	clr [97].3
 391  0023  3561        	clr [97].2
 391  0024  34E1        	clr [97].1
 396  0025              #line 396 "c:\users\longshuangmin\desktop\worke_space\g-501\g-501\adc.c"
 396  0025  0F1F        	mov a,31
 396  0026  00E8        	mov [104],a
 396  0027  37E7        	clr [103].7
 396  0028  3767        	clr [103].6
 396  0029  36E7        	clr [103].5
 396  002A  3266        	set [102].4
 396  002B  31E6        	set [102].3
 396  002C  3166        	set [102].2
 396  002D  0003        	ret
 396  002E              _InitADC_Op2n_Op2o endp
 396  002E              #line 396 "c:\users\longshuangmin\desktop\worke_space\g-501\g-501\adc.c"
 396  002E              #pragma debug scope 1 1
 396  002E              public _InitADC_Op2n_Avss
 396  002E              #pragma debug scope 11 1
 401  002E              #line 401 "c:\users\longshuangmin\desktop\worke_space\g-501\g-501\adc.c"
 401  0000              _InitADC_Op2n_Avss .section 'code'
 401  0000              _InitADC_Op2n_Avss proc
 403  0000              #line 403 "c:\users\longshuangmin\desktop\worke_space\g-501\g-501\adc.c"
 403  0000              	fcall _fun_StripModuleAllOpen
 404  0007              #line 404 "c:\users\longshuangmin\desktop\worke_space\g-501\g-501\adc.c"
 404  0007  366F        	clr [111].4
 405  0008              #line 405 "c:\users\longshuangmin\desktop\worke_space\g-501\g-501\adc.c"
 405  0008  36EF        	clr [111].5
 406  0009              #line 406 "c:\users\longshuangmin\desktop\worke_space\g-501\g-501\adc.c"
 406  0009  346F        	clr [111].0
 407  000A              #line 407 "c:\users\longshuangmin\desktop\worke_space\g-501\g-501\adc.c"
 407  000A  34EF        	clr [111].1
 411  000B              #line 411 "c:\users\longshuangmin\desktop\worke_space\g-501\g-501\adc.c"
 411  000B  3170        	set [112].2
 411  000C  34F0        	clr [112].1
 411  000D  3470        	clr [112].0
 413  000E              #line 413 "c:\users\longshuangmin\desktop\worke_space\g-501\g-501\adc.c"
 413  000E  33EF        	set [111].7
 414  000F              #line 414 "c:\users\longshuangmin\desktop\worke_space\g-501\g-501\adc.c"
 414  000F  336F        	set [111].6
文件：adc.c        编译器版本 HGASM 0202 页次10

 415  0010              #line 415 "c:\users\longshuangmin\desktop\worke_space\g-501\g-501\adc.c"
 415  0010  35F1        	clr [113].3
 415  0011  3171        	set [113].2
 417  0012              #line 417 "c:\users\longshuangmin\desktop\worke_space\g-501\g-501\adc.c"
 417  0012  3195        	set [21].3
 418  0013              #line 418 "c:\users\longshuangmin\desktop\worke_space\g-501\g-501\adc.c"
 418  0013  3596        	clr [22].3
 420  0014              #line 420 "c:\users\longshuangmin\desktop\worke_space\g-501\g-501\adc.c"
 420  0014  3616        	clr [22].4
 421  0015              #line 421 "c:\users\longshuangmin\desktop\worke_space\g-501\g-501\adc.c"
 421  0015  3215        	set [21].4
 444  0016              #line 444 "c:\users\longshuangmin\desktop\worke_space\g-501\g-501\adc.c"
 444  0016  32EE        	set [110].5
 447  0017              #line 447 "c:\users\longshuangmin\desktop\worke_space\g-501\g-501\adc.c"
 447  0017  33E2        	set [98].7
 447  0018  3762        	clr [98].6
 447  0019  32E2        	set [98].5
 447  001A  3262        	set [98].4
 448  001B              #line 448 "c:\users\longshuangmin\desktop\worke_space\g-501\g-501\adc.c"
 448  001B  31E2        	set [98].3
 448  001C  3562        	clr [98].2
 448  001D  34E2        	clr [98].1
 448  001E  3062        	set [98].0
 449  001F              #line 449 "c:\users\longshuangmin\desktop\worke_space\g-501\g-501\adc.c"
 449  001F  3760        	clr [96].6
 449  0020  36E0        	clr [96].5
 450  0021              #line 450 "c:\users\longshuangmin\desktop\worke_space\g-501\g-501\adc.c"
 450  0021  33E0        	set [96].7
 450  0022  33E1        	set [97].7
 452  0023              #line 452 "c:\users\longshuangmin\desktop\worke_space\g-501\g-501\adc.c"
 452  0023  3660        	clr [96].4
 452  0024  35E0        	clr [96].3
 453  0025              #line 453 "c:\users\longshuangmin\desktop\worke_space\g-501\g-501\adc.c"
 453  0025  35E1        	clr [97].3
 453  0026  3561        	clr [97].2
 453  0027  34E1        	clr [97].1
 458  0028              #line 458 "c:\users\longshuangmin\desktop\worke_space\g-501\g-501\adc.c"
 458  0028  0F1F        	mov a,31
 458  0029  00E8        	mov [104],a
 458  002A  37E7        	clr [103].7
 458  002B  3767        	clr [103].6
 458  002C  36E7        	clr [103].5
 458  002D  3266        	set [102].4
 458  002E  31E6        	set [102].3
 458  002F  3166        	set [102].2
 458  0030  0003        	ret
 458  0031              _InitADC_Op2n_Avss endp
 458  0031              #line 458 "c:\users\longshuangmin\desktop\worke_space\g-501\g-501\adc.c"
 458  0031              #pragma debug scope 1 1
 458  0031              ___pcs0 equ [343]
 458  0031              public _Measurement_Temp
 458  0031              #pragma debug scope 12 1
 465  0031              #line 465 "c:\users\longshuangmin\desktop\worke_space\g-501\g-501\adc.c"
 465  0000              _Measurement_Temp .section 'code'
 465  0000              _Measurement_Temp proc
 465  0000  0008[           local _Measurement_Temp_2 db 8 dup(?)	; 0,8
            00
            ]
 465  0008              #pragma debug variable 8 12 _Measurement_Temp_2+7 "count"
 465  0008              #pragma debug variable 8 12 _Measurement_Temp_2+6 "temp"
文件：adc.c        编译器版本 HGASM 0202 页次11

 465  0008              #pragma debug variable 12 12 _Measurement_Temp_2+4 "adc_buf"
 465  0008              #pragma debug variable 12 12 _Measurement_Temp_2+2 "Ibuf0"
 465  0008              #pragma debug variable 12 12 _Measurement_Temp_2+0 "Ibuf1"
 471  0008              #line 471 "c:\users\longshuangmin\desktop\worke_space\g-501\g-501\adc.c"
 471  0000  0F01        	mov a,1
 471  0001  0080     E  	mov _fun_DACVREFInit_2[0],a
 471  0002  1F00     E  	clr _fun_DACVREFInit_2[1]
 471  0003              	fcall _fun_DACVREFInit
 474  000A              #line 474 "c:\users\longshuangmin\desktop\worke_space\g-501\g-501\adc.c"
 474  000A  0F30        	mov a,48
 474  000B  85D7 0001   	lorm a,[343]
 493  000D              #line 493 "c:\users\longshuangmin\desktop\worke_space\g-501\g-501\adc.c"
 493  000D  33E2        	set [98].7
 493  000E  3762        	clr [98].6
 493  000F  32E2        	set [98].5
 493  0010  3262        	set [98].4
 494  0011              #line 494 "c:\users\longshuangmin\desktop\worke_space\g-501\g-501\adc.c"
 494  0011  35E2        	clr [98].3
 494  0012  3562        	clr [98].2
 494  0013  34E2        	clr [98].1
 494  0014  3462        	clr [98].0
 496  0015              #line 496 "c:\users\longshuangmin\desktop\worke_space\g-501\g-501\adc.c"
 496  0015  3760        	clr [96].6
 496  0016  36E0        	clr [96].5
 498  0017              #line 498 "c:\users\longshuangmin\desktop\worke_space\g-501\g-501\adc.c"
 498  0017  33E0        	set [96].7
 498  0018  33E1        	set [97].7
 501  0019              #line 501 "c:\users\longshuangmin\desktop\worke_space\g-501\g-501\adc.c"
 501  0019  3660        	clr [96].4
 501  001A  35E0        	clr [96].3
 503  001B              #line 503 "c:\users\longshuangmin\desktop\worke_space\g-501\g-501\adc.c"
 503  001B  35E1        	clr [97].3
 503  001C  3561        	clr [97].2
 503  001D  34E1        	clr [97].1
 508  001E              #line 508 "c:\users\longshuangmin\desktop\worke_space\g-501\g-501\adc.c"
 508  001E  0F1F        	mov a,31
 508  001F  00E8        	mov [104],a
 508  0020  37E7        	clr [103].7
 508  0021  3767        	clr [103].6
 508  0022  36E7        	clr [103].5
 508  0023  3266        	set [102].4
 508  0024  31E6        	set [102].3
 508  0025  3166        	set [102].2
 510  0026              #line 510 "c:\users\longshuangmin\desktop\worke_space\g-501\g-501\adc.c"
 510  0026  1F00     R  	clr _Measurement_Temp_2[7]
 510  0027              _L12:
 510  0027              #line 510 "c:\users\longshuangmin\desktop\worke_space\g-501\g-501\adc.c"
 510  0027  0F31        	mov a,49
 510  0028  0200     R  	sub a,_Measurement_Temp_2[7]
 510  0029  380A        	snz c
 510  002A  2800     R  	jmp _L24
 512  002B              #line 512 "c:\users\longshuangmin\desktop\worke_space\g-501\g-501\adc.c"
 512  002B              ;# 512 "c:\users\longshuangmin\desktop\worke_space\g-501\g-501\adc.c" 1
 512  002B  0001        	clr wdt
 513  002C              #line 513 "c:\users\longshuangmin\desktop\worke_space\g-501\g-501\adc.c"
 513  002C              ;# 513 "c:\users\longshuangmin\desktop\worke_space\g-501\g-501\adc.c" 1
 513  002C              	IF 1000>263690
 513  002C              ;# 513 "c:\users\longshuangmin\desktop\worke_space\g-501\g-501\adc.c" 1
 513  002C              	ERRMESSAGE 'the value 1000of the argument exceeds the maxinum 263690'
 513  002C              	ENDIF
文件：adc.c        编译器版本 HGASM 0202 页次12

 513  002C              ;# 513 "c:\users\longshuangmin\desktop\worke_space\g-501\g-501\adc.c" 1
 513  002C              	IF 1000<0
 513  002C              ;# 513 "c:\users\longshuangmin\desktop\worke_space\g-501\g-501\adc.c" 1
 513  002C              	ERRMESSAGE 'the value 1000 of the argument exceeds the mininum 0'
 513  002C              	ENDIF
 513  002C              ;# 513 "c:\users\longshuangmin\desktop\worke_space\g-501\g-501\adc.c" 1
 513  002C              	IF 1000==0
 513  002C              ;# 513 "c:\users\longshuangmin\desktop\worke_space\g-501\g-501\adc.c" 1
 513  002C              	JMP $
 513  002C              	ENDIF
 513  002C              ;# 513 "c:\users\longshuangmin\desktop\worke_space\g-501\g-501\adc.c" 1
 513  002C              	IF (1000>=1) AND (1000<( 4 + __PBP__ * 2))
 513  002C              ;# 513 "c:\users\longshuangmin\desktop\worke_space\g-501\g-501\adc.c" 1
 513  002C              	NOP
 513  002C              	ENDIF
 513  002C              ;# 513 "c:\users\longshuangmin\desktop\worke_space\g-501\g-501\adc.c" 1
 513  002C              	IF (1000>=2) AND (1000<( 4 + __PBP__ * 2))
 513  002C              ;# 513 "c:\users\longshuangmin\desktop\worke_space\g-501\g-501\adc.c" 1
 513  002C              	NOP
 513  002C              	ENDIF
 513  002C              ;# 513 "c:\users\longshuangmin\desktop\worke_space\g-501\g-501\adc.c" 1
 513  002C              	IF (1000>=3) AND (1000<( 4 + __PBP__ * 2))
 513  002C              ;# 513 "c:\users\longshuangmin\desktop\worke_space\g-501\g-501\adc.c" 1
 513  002C              	NOP
 513  002C              	ENDIF
 513  002C              ;# 513 "c:\users\longshuangmin\desktop\worke_space\g-501\g-501\adc.c" 1
 513  002C              	IF (1000>=4) AND (1000<( 4 + __PBP__ * 2)) AND ( __PBP__ > 0 )
 513  002C              ;# 513 "c:\users\longshuangmin\desktop\worke_space\g-501\g-501\adc.c" 1
 513  002C              	NOP
 513  002C              	ENDIF
 513  002C              ;# 513 "c:\users\longshuangmin\desktop\worke_space\g-501\g-501\adc.c" 1
 513  002C              	IF (1000>=5) AND (1000<( 4 + __PBP__ * 2)) AND ( __PBP__ > 0 )
 513  002C              ;# 513 "c:\users\longshuangmin\desktop\worke_space\g-501\g-501\adc.c" 1
 513  002C              	NOP
 513  002C              	ENDIF
 513  002C              ;# 513 "c:\users\longshuangmin\desktop\worke_space\g-501\g-501\adc.c" 1
 513  002C              	IF (1000>=6) AND (1000<( 4 + __PBP__ * 2))  AND ( __PBP__ > 1 )
 513  002C              ;# 513 "c:\users\longshuangmin\desktop\worke_space\g-501\g-501\adc.c" 1
 513  002C              	NOP
 513  002C              	ENDIF
 513  002C              ;# 513 "c:\users\longshuangmin\desktop\worke_space\g-501\g-501\adc.c" 1
 513  002C              	IF (1000>=7) AND (1000<( 4 + __PBP__ * 2))  AND ( __PBP__ > 1 )
 513  002C              ;# 513 "c:\users\longshuangmin\desktop\worke_space\g-501\g-501\adc.c" 1
 513  002C              	NOP
 513  002C              	ENDIF
 513  002C              ;# 513 "c:\users\longshuangmin\desktop\worke_space\g-501\g-501\adc.c" 1
 513  002C              	IF (1000>=8) AND (1000<( 4 + __PBP__ * 2))  AND ( __PBP__ > 2 )
 513  002C              ;# 513 "c:\users\longshuangmin\desktop\worke_space\g-501\g-501\adc.c" 1
 513  002C              	NOP
 513  002C              	ENDIF
 513  002C              ;# 513 "c:\users\longshuangmin\desktop\worke_space\g-501\g-501\adc.c" 1
 513  002C              	IF (1000==9)  AND ( __PBP__ > 2 )
 513  002C              ;# 513 "c:\users\longshuangmin\desktop\worke_space\g-501\g-501\adc.c" 1
 513  002C              	NOP
 513  002C              	ENDIF
 513  002C              ;# 513 "c:\users\longshuangmin\desktop\worke_space\g-501\g-501\adc.c" 1
 513  002C              	IF (1000< ( 8 + __PBP__ * 2)) AND (1000>( 3 + __PBP__ * 2))
 513  002C              ;# 513 "c:\users\longshuangmin\desktop\worke_space\g-501\g-501\adc.c" 1
 513  002C              	fcall __DELAY3 + ( 7 + __PBP__ * 2) -1000
 513  002C              	ENDIF
文件：adc.c        编译器版本 HGASM 0202 页次13

 513  002C              ;# 513 "c:\users\longshuangmin\desktop\worke_space\g-501\g-501\adc.c" 1
 513  002C              	IF (1000< ( 0404h + __PBP__ * 2)) AND (1000>( 7 + __PBP__ * 2))
 513  002C              ;# 513 "c:\users\longshuangmin\desktop\worke_space\g-501\g-501\adc.c" 1
 513  002C  0FF7        	MOV A,(1000-( 4 + __PBP__ * 2))/4
 513  002D              ;# 513 "c:\users\longshuangmin\desktop\worke_space\g-501\g-501\adc.c" 1
 513  002D              	fcall __DELAYX3 + 3 -((1000-( 4 + __PBP__ * 2)) MOD 4) 
 513  0034              	ENDIF
 513  0034              ;# 513 "c:\users\longshuangmin\desktop\worke_space\g-501\g-501\adc.c" 1
 513  0034              	IF (1000< ( 040bh + __PBP__ * 2)) AND (1000> ( 0403h + __PBP__ * 2))
 513  0034              ;# 513 "c:\users\longshuangmin\desktop\worke_space\g-501\g-501\adc.c" 1
 513  0034              	MOV A,0 
 513  0034              ;# 513 "c:\users\longshuangmin\desktop\worke_space\g-501\g-501\adc.c" 1
 513  0034              	fcall __DELAYX6 + ( 040ah + __PBP__ * 2) -1000
 513  0034              	ENDIF
 513  0034              ;# 513 "c:\users\longshuangmin\desktop\worke_space\g-501\g-501\adc.c" 1
 513  0034              	IF (1000 >= ( 040bh + __PBP__ * 2)) AND ((((1000-( 9 + __PBP__ * 2))%0402h)/4+1)>256)
 513  0034              ;# 513 "c:\users\longshuangmin\desktop\worke_space\g-501\g-501\adc.c" 1
 513  0034              	MOV A,(1000-( 9 + __PBP__ * 2))/0402h
 513  0034              ;# 513 "c:\users\longshuangmin\desktop\worke_space\g-501\g-501\adc.c" 1
 513  0034              	MOV _builtin_holtek_delay_2,A
 513  0034              ;# 513 "c:\users\longshuangmin\desktop\worke_space\g-501\g-501\adc.c" 1
 513  0034              	MOV A,0
 513  0034              ;# 513 "c:\users\longshuangmin\desktop\worke_space\g-501\g-501\adc.c" 1
 513  0034              	fcall __DELAYY5 +5- (((1000-( 9 + __PBP__ * 2))%0402h)%6) 
 513  0034              	ENDIF
 513  0034              ;# 513 "c:\users\longshuangmin\desktop\worke_space\g-501\g-501\adc.c" 1
 513  0034              	IF (1000 >= ( 040bh + __PBP__ * 2)) AND ((((1000-( 9 + __PBP__ * 2))%0402h)/4+1)<=256)
 513  0034              ;# 513 "c:\users\longshuangmin\desktop\worke_space\g-501\g-501\adc.c" 1
 513  0034              	MOV A,(1000-( 9 + __PBP__ * 2))/0402h
 513  0034              ;# 513 "c:\users\longshuangmin\desktop\worke_space\g-501\g-501\adc.c" 1
 513  0034              	MOV _builtin_holtek_delay_2,A
 513  0034              ;# 513 "c:\users\longshuangmin\desktop\worke_space\g-501\g-501\adc.c" 1
 513  0034              	MOV A,((1000-( 9 + __PBP__ * 2))%0402h)/4+1
 513  0034              ;# 513 "c:\users\longshuangmin\desktop\worke_space\g-501\g-501\adc.c" 1
 513  0034              	fcall __DELAYY3 +3-(((1000-( 9 + __PBP__ * 2))%0402h)%4) 
 513  0034              	ENDIF
 510  0034              #line 510 "c:\users\longshuangmin\desktop\worke_space\g-501\g-501\adc.c"
 510  0034  1480     R  	inc _Measurement_Temp_2[7]
 510  0035  2800     R  	jmp _L12
 510  0036              _L24:
 517  0036              #line 517 "c:\users\longshuangmin\desktop\worke_space\g-501\g-501\adc.c"
 517  0036              	fcall _fun_ADCStart
 520  003D              #line 520 "c:\users\longshuangmin\desktop\worke_space\g-501\g-501\adc.c"
 520  003D  0F01        	mov a,1
 520  003E  0080     R  	mov _Measurement_Temp_2[6],a
 520  003F              _L14:
 521  003F              #line 521 "c:\users\longshuangmin\desktop\worke_space\g-501\g-501\adc.c"
 521  003F  1E00     R  	snz _Measurement_Temp_2[6]
 521  0040  2800     R  	jmp _L25
 523  0041              #line 523 "c:\users\longshuangmin\desktop\worke_space\g-501\g-501\adc.c"
 523  0041  3800     E  	snz _SDKADCSourceData[5].0
 523  0042  2800     R  	jmp _L15
 524  0043              #line 524 "c:\users\longshuangmin\desktop\worke_space\g-501\g-501\adc.c"
 524  0043  1F00     R  	clr _Measurement_Temp_2[6]
 524  0044              _L15:
 525  0044              #line 525 "c:\users\longshuangmin\desktop\worke_space\g-501\g-501\adc.c"
 525  0044              ;# 525 "c:\users\longshuangmin\desktop\worke_space\g-501\g-501\adc.c" 1
 525  0044  0001        	clr wdt
 525  0045  2800     R  	jmp _L14
 525  0046              _L25:
文件：adc.c        编译器版本 HGASM 0202 页次14

 528  0046              #line 528 "c:\users\longshuangmin\desktop\worke_space\g-501\g-501\adc.c"
 528  0046              	fcall _fun_ADCStop
 530  004D              #line 530 "c:\users\longshuangmin\desktop\worke_space\g-501\g-501\adc.c"
 530  004D  0700     E  	mov a,_SDKADCSourceData[0]
 530  004E  0080     E  	mov rd,a
 530  004F  0700     E  	mov a,_SDKADCSourceData[1]
 530  0050  0080     E  	mov re,a
 530  0051  0700     E  	mov a,_SDKADCSourceData[2]
 530  0052  0080     E  	mov rf,a
 530  0053  0700     E  	mov a,_SDKADCSourceData[3]
 530  0054  0080     E  	mov rg,a
 530  0055  0700     E  	mov a,rf
 530  0056  0080     E  	mov rd,a
 530  0057  0700     E  	mov a,rg
 530  0058  0080     E  	mov re,a
 530  0059  1F00     E  	clr rg
 530  005A  3C00     E  	sz re.7
 530  005B  1F80     E  	set rg
 530  005C  1F00     E  	clr rf
 530  005D  3C00     E  	sz re.7
 530  005E  1F80     E  	set rf
 530  005F  0700     E  	mov a,rd
 530  0060  0080     R  	mov _Measurement_Temp_2[4],a
 530  0061  0700     E  	mov a,re
 530  0062  0080     R  	mov _Measurement_Temp_2[5],a
 533  0063              #line 533 "c:\users\longshuangmin\desktop\worke_space\g-501\g-501\adc.c"
 533  0063  1F00     R  	clr _Measurement_Temp_2[7]
 533  0064              _L17:
 533  0064  0F33        	mov a,51
 533  0065  0200     R  	sub a,_Measurement_Temp_2[7]
 533  0066  380A        	snz c
 533  0067  2800     R  	jmp _L18
 535  0068              #line 535 "c:\users\longshuangmin\desktop\worke_space\g-501\g-501\adc.c"
 535  0068  0700     R  	mov a,_Measurement_Temp_2[7]
 535  0069  0080     E  	mov rb,a
 535  006A  1F00     E  	clr rc
 535  006B  340A        	clr c
 535  006C  1A80     E  	rlc rb
 535  006D  1A80     E  	rlc rc
 535  006E  0F00     R  	mov a,low offset _R103KT_TABLE
 535  006F  0300     E  	add a,rb
 535  0070  0083        	mov mp,a
 535  0071  0F00     R  	mov a,high offset _R103KT_TABLE
 535  0072  1300     E  	adc a,rc
 535  0073  0084        	mov sbp,a
 535  0074              	fcall _Crom2Prom
 535  007B  0080     E  	mov rb,a
 535  007C              	fcall _Crom2PromNext
 535  0083  0080     E  	mov rc,a
 535  0084  0700     E  	mov a,rb
 535  0085  0200     R  	sub a,_Measurement_Temp_2[4]
 535  0086  0700     E  	mov a,rc
 535  0087  1200     R  	sbc a,_Measurement_Temp_2[5]
 535  0088  380A        	snz c
 535  0089  2800     R  	jmp _L18
 533  008A              #line 533 "c:\users\longshuangmin\desktop\worke_space\g-501\g-501\adc.c"
 533  008A  1480     R  	inc _Measurement_Temp_2[7]
 533  008B  2800     R  	jmp _L17
 533  008C              _L18:
 543  008C              #line 543 "c:\users\longshuangmin\desktop\worke_space\g-501\g-501\adc.c"
文件：adc.c        编译器版本 HGASM 0202 页次15

 543  008C  0FFF        	mov a,255
 543  008D  0300     R  	add a,_Measurement_Temp_2[7]
 543  008E  0080     E  	mov rb,a
 543  008F  0FFF        	mov a,255
 543  0090  1F00     E  	clr rc
 543  0091  1380     E  	adcm a,rc
 543  0092  340A        	clr c
 543  0093  1A80     E  	rlc rb
 543  0094  1A80     E  	rlc rc
 543  0095  0F00     R  	mov a,low offset _R103KT_TABLE
 543  0096  0300     E  	add a,rb
 543  0097  0083        	mov mp,a
 543  0098  0F00     R  	mov a,high offset _R103KT_TABLE
 543  0099  1300     E  	adc a,rc
 543  009A  0084        	mov sbp,a
 543  009B              	fcall _Crom2Prom
 543  00A2  0080     E  	mov rb,a
 543  00A3              	fcall _Crom2PromNext
 543  00AA  0080     E  	mov rc,a
 543  00AB  0700     E  	mov a,rb
 543  00AC  0200     R  	sub a,_Measurement_Temp_2[4]
 543  00AD  0080     E  	mov rd,a
 543  00AE  0700     E  	mov a,rc
 543  00AF  1200     R  	sbc a,_Measurement_Temp_2[5]
 543  00B0  0080     E  	mov re,a
 543  00B1  0700     E  	mov a,rd
 543  00B2  0080     R  	mov _Measurement_Temp_2[2],a
 543  00B3  0700     E  	mov a,re
 543  00B4  0080     R  	mov _Measurement_Temp_2[3],a
 544  00B5              #line 544 "c:\users\longshuangmin\desktop\worke_space\g-501\g-501\adc.c"
 544  00B5  0FFF        	mov a,255
 544  00B6  0300     R  	add a,_Measurement_Temp_2[7]
 544  00B7  0080     E  	mov rb,a
 544  00B8  0FFF        	mov a,255
 544  00B9  1F00     E  	clr rc
 544  00BA  1380     E  	adcm a,rc
 544  00BB  340A        	clr c
 544  00BC  1A00     E  	rlca rb
 544  00BD  0080     E  	mov rd,a
 544  00BE  1A00     E  	rlca rc
 544  00BF  0080     E  	mov re,a
 544  00C0  0700     R  	mov a,_Measurement_Temp_2[7]
 544  00C1  0080     E  	mov rb,a
 544  00C2  1F00     E  	clr rc
 544  00C3  340A        	clr c
 544  00C4  1A80     E  	rlc rb
 544  00C5  1A80     E  	rlc rc
 544  00C6  0F00     R  	mov a,low offset _R103KT_TABLE
 544  00C7  0300     E  	add a,rd
 544  00C8  0083        	mov mp,a
 544  00C9  0F00     R  	mov a,high offset _R103KT_TABLE
 544  00CA  1300     E  	adc a,re
 544  00CB  0084        	mov sbp,a
 544  00CC              	fcall _Crom2Prom
 544  00D3  0080     E  	mov rd,a
 544  00D4              	fcall _Crom2PromNext
 544  00DB  0080     E  	mov re,a
 544  00DC  0F00     R  	mov a,low offset _R103KT_TABLE
 544  00DD  0300     E  	add a,rb
 544  00DE  0083        	mov mp,a
文件：adc.c        编译器版本 HGASM 0202 页次16

 544  00DF  0F00     R  	mov a,high offset _R103KT_TABLE
 544  00E0  1300     E  	adc a,rc
 544  00E1  0084        	mov sbp,a
 544  00E2              	fcall _Crom2Prom
 544  00E9  0080     E  	mov rb,a
 544  00EA              	fcall _Crom2PromNext
 544  00F1  0080     E  	mov rc,a
 544  00F2  0700     E  	mov a,rd
 544  00F3  0200     E  	sub a,rb
 544  00F4  0080     E  	mov rf,a
 544  00F5  0700     E  	mov a,re
 544  00F6  1200     E  	sbc a,rc
 544  00F7  0080     E  	mov rg,a
 544  00F8  0700     E  	mov a,rf
 544  00F9  0080     R  	mov _Measurement_Temp_2[0],a
 544  00FA  0700     E  	mov a,rg
 544  00FB  0080     R  	mov _Measurement_Temp_2[1],a
 545  00FC              #line 545 "c:\users\longshuangmin\desktop\worke_space\g-501\g-501\adc.c"
 545  00FC  1B20        	rrca intc
 545  00FD  3420        	clr intc.0
 545  00FE  0700     R  	mov a,_Measurement_Temp_2[2]
 545  00FF  00D9        	mov mduwr0,a
 545  0100  0F64        	mov a,100
 545  0101  00DD        	mov mduwr4,a
 545  0102  0700     R  	mov a,_Measurement_Temp_2[3]
 545  0103  00DA        	mov mduwr1,a
 545  0104  0F00        	mov a,0
 545  0105  00DE        	mov mduwr5,a
 545  0106  0F06        	mov a,6
 545  0107              _LI1:
 545  0107  1785        	sdz acc
 545  0108  2800     R  	jmp _LI1
 545  0109  0759        	mov a,mduwr0
 545  010A  0080     R  	mov _Measurement_Temp_2[2],a
 545  010B  075A        	mov a,mduwr1
 545  010C  0080     R  	mov _Measurement_Temp_2[3],a
 545  010D  3C0A        	sz c
 545  010E  3020        	set intc.0
 546  010F              #line 546 "c:\users\longshuangmin\desktop\worke_space\g-501\g-501\adc.c"
 546  010F  1B20        	rrca intc
 546  0110  3420        	clr intc.0
 546  0111  0700     R  	mov a,_Measurement_Temp_2[2]
 546  0112  00D9        	mov mduwr0,a
 546  0113  0700     R  	mov a,_Measurement_Temp_2[3]
 546  0114  00DA        	mov mduwr1,a
 546  0115  0700     R  	mov a,_Measurement_Temp_2[0]
 546  0116  00DD        	mov mduwr4,a
 546  0117  0700     R  	mov a,_Measurement_Temp_2[1]
 546  0118  00DE        	mov mduwr5,a
 546  0119  0F06        	mov a,6
 546  011A              _LI2:
 546  011A  1785        	sdz acc
 546  011B  2800     R  	jmp _LI2
 546  011C  0759        	mov a,mduwr0
 546  011D  0080     R  	mov _Measurement_Temp_2[2],a
 546  011E  075A        	mov a,mduwr1
 546  011F  0080     R  	mov _Measurement_Temp_2[3],a
 546  0120  3C0A        	sz c
 546  0121  3020        	set intc.0
 547  0122              #line 547 "c:\users\longshuangmin\desktop\worke_space\g-501\g-501\adc.c"
文件：adc.c        编译器版本 HGASM 0202 页次17

 547  0122  0FFF        	mov a,255
 547  0123  0300     R  	add a,_Measurement_Temp_2[7]
 547  0124  0080     E  	mov rb,a
 547  0125  0FFF        	mov a,255
 547  0126  1F00     E  	clr rc
 547  0127  1380     E  	adcm a,rc
 547  0128  1B20        	rrca intc
 547  0129  3420        	clr intc.0
 547  012A  0700     E  	mov a,rb
 547  012B  00D9        	mov mduwr0,a
 547  012C  0F64        	mov a,100
 547  012D  00DD        	mov mduwr4,a
 547  012E  0700     E  	mov a,rc
 547  012F  00DA        	mov mduwr1,a
 547  0130  0F00        	mov a,0
 547  0131  00DE        	mov mduwr5,a
 547  0132  0F06        	mov a,6
 547  0133              _LI3:
 547  0133  1785        	sdz acc
 547  0134  2800     R  	jmp _LI3
 547  0135  0759        	mov a,mduwr0
 547  0136  0080     R  	mov _Measurement_Temp_2[0],a
 547  0137  075A        	mov a,mduwr1
 547  0138  0080     R  	mov _Measurement_Temp_2[1],a
 547  0139  3C0A        	sz c
 547  013A  3020        	set intc.0
 548  013B              #line 548 "c:\users\longshuangmin\desktop\worke_space\g-501\g-501\adc.c"
 548  013B  0700     R  	mov a,_Measurement_Temp_2[0]
 548  013C  0380     R  	addm a,_Measurement_Temp_2[2]
 548  013D  0700     R  	mov a,_Measurement_Temp_2[1]
 548  013E  1380     R  	adcm a,_Measurement_Temp_2[3]
 549  013F              #line 549 "c:\users\longshuangmin\desktop\worke_space\g-501\g-501\adc.c"
 549  013F  0F05        	mov a,5
 549  0140  0380     R  	addm a,_Measurement_Temp_2[2]
 549  0141  0F00        	mov a,0
 549  0142  1380     R  	adcm a,_Measurement_Temp_2[3]
 550  0143              #line 550 "c:\users\longshuangmin\desktop\worke_space\g-501\g-501\adc.c"
 550  0143  1B20        	rrca intc
 550  0144  3420        	clr intc.0
 550  0145  0700     R  	mov a,_Measurement_Temp_2[2]
 550  0146  00D9        	mov mduwr0,a
 550  0147  0700     R  	mov a,_Measurement_Temp_2[3]
 550  0148  00DA        	mov mduwr1,a
 550  0149  0F0A        	mov a,10
 550  014A  00DD        	mov mduwr4,a
 550  014B  0F00        	mov a,0
 550  014C  00DE        	mov mduwr5,a
 550  014D  0F06        	mov a,6
 550  014E              _LI4:
 550  014E  1785        	sdz acc
 550  014F  2800     R  	jmp _LI4
 550  0150  0759        	mov a,mduwr0
 550  0151  0080     R  	mov _Measurement_Temp_2[2],a
 550  0152  075A        	mov a,mduwr1
 550  0153  0080     R  	mov _Measurement_Temp_2[3],a
 550  0154  3C0A        	sz c
 550  0155  3020        	set intc.0
 555  0156              #line 555 "c:\users\longshuangmin\desktop\worke_space\g-501\g-501\adc.c"
 555  0156  0700     R  	mov a,_Measurement_Temp_2[2]
 555  0157  0080     E  	mov ra,a
文件：adc.c        编译器版本 HGASM 0202 页次18

 555  0158  0700     R  	mov a,_Measurement_Temp_2[3]
 555  0159  0080     E  	mov rb,a
 555  015A  0003        	ret
 555  015B              _Measurement_Temp endp
 555  015B              #line 555 "c:\users\longshuangmin\desktop\worke_space\g-501\g-501\adc.c"
 555  015B              #pragma debug scope 1 1
 555  015B              public _Measurement_Battery
 555  015B              #pragma debug scope 13 1
 559  015B              #line 559 "c:\users\longshuangmin\desktop\worke_space\g-501\g-501\adc.c"
 559  0000              _Measurement_Battery .section 'code'
 559  0000              _Measurement_Battery proc
 559  0000  0002[           local _Measurement_Battery_2 db 2 dup(?)	; 0,2
            00
            ]
 559  0002              #pragma debug variable 12 13 _Measurement_Battery_2+0 "adc_buf"
 565  0002              #line 565 "c:\users\longshuangmin\desktop\worke_space\g-501\g-501\adc.c"
 565  0000  0F01        	mov a,1
 565  0001  0080     E  	mov _fun_DACVREFInit_2[0],a
 565  0002  1F00     E  	clr _fun_DACVREFInit_2[1]
 565  0003              	fcall _fun_DACVREFInit
 570  000A              #line 570 "c:\users\longshuangmin\desktop\worke_space\g-501\g-501\adc.c"
 570  000A  0FC0        	mov a,192
 570  000B  85D7 0001   	lorm a,[343]
 589  000D              #line 589 "c:\users\longshuangmin\desktop\worke_space\g-501\g-501\adc.c"
 589  000D  37E2        	clr [98].7
 589  000E  3762        	clr [98].6
 589  000F  36E2        	clr [98].5
 589  0010  3662        	clr [98].4
 590  0011              #line 590 "c:\users\longshuangmin\desktop\worke_space\g-501\g-501\adc.c"
 590  0011  31E2        	set [98].3
 590  0012  3562        	clr [98].2
 590  0013  30E2        	set [98].1
 590  0014  3062        	set [98].0
 592  0015              #line 592 "c:\users\longshuangmin\desktop\worke_space\g-501\g-501\adc.c"
 592  0015  3261        	set [97].4
 593  0016              #line 593 "c:\users\longshuangmin\desktop\worke_space\g-501\g-501\adc.c"
 593  0016  32E1        	set [97].5
 595  0017              #line 595 "c:\users\longshuangmin\desktop\worke_space\g-501\g-501\adc.c"
 595  0017  3760        	clr [96].6
 595  0018  36E0        	clr [96].5
 597  0019              #line 597 "c:\users\longshuangmin\desktop\worke_space\g-501\g-501\adc.c"
 597  0019  33E0        	set [96].7
 597  001A  33E1        	set [97].7
 600  001B              #line 600 "c:\users\longshuangmin\desktop\worke_space\g-501\g-501\adc.c"
 600  001B  3660        	clr [96].4
 600  001C  35E0        	clr [96].3
 602  001D              #line 602 "c:\users\longshuangmin\desktop\worke_space\g-501\g-501\adc.c"
 602  001D  35E1        	clr [97].3
 602  001E  3561        	clr [97].2
 602  001F  34E1        	clr [97].1
 607  0020              #line 607 "c:\users\longshuangmin\desktop\worke_space\g-501\g-501\adc.c"
 607  0020  0F1F        	mov a,31
 607  0021  00E8        	mov [104],a
 607  0022  37E7        	clr [103].7
 607  0023  3767        	clr [103].6
 607  0024  36E7        	clr [103].5
 607  0025  3266        	set [102].4
 607  0026  35E6        	clr [102].3
 607  0027  3166        	set [102].2
 607  0028  0FF4        	mov a,-12
文件：adc.c        编译器版本 HGASM 0202 页次19

 607  0029  0080     E  	mov rb,a
 607  002A  0F01        	mov a,1
 607  002B  0080     E  	mov rc,a
 607  002C              _L28:
 612  002C              #line 612 "c:\users\longshuangmin\desktop\worke_space\g-501\g-501\adc.c"
 612  002C              ;# 612 "c:\users\longshuangmin\desktop\worke_space\g-501\g-501\adc.c" 1
 612  002C  0001        	clr wdt
 613  002D              #line 613 "c:\users\longshuangmin\desktop\worke_space\g-501\g-501\adc.c"
 613  002D              ;# 613 "c:\users\longshuangmin\desktop\worke_space\g-501\g-501\adc.c" 1
 613  002D              	IF 1000>263690
 613  002D              ;# 613 "c:\users\longshuangmin\desktop\worke_space\g-501\g-501\adc.c" 1
 613  002D              	ERRMESSAGE 'the value 1000of the argument exceeds the maxinum 263690'
 613  002D              	ENDIF
 613  002D              ;# 613 "c:\users\longshuangmin\desktop\worke_space\g-501\g-501\adc.c" 1
 613  002D              	IF 1000<0
 613  002D              ;# 613 "c:\users\longshuangmin\desktop\worke_space\g-501\g-501\adc.c" 1
 613  002D              	ERRMESSAGE 'the value 1000 of the argument exceeds the mininum 0'
 613  002D              	ENDIF
 613  002D              ;# 613 "c:\users\longshuangmin\desktop\worke_space\g-501\g-501\adc.c" 1
 613  002D              	IF 1000==0
 613  002D              ;# 613 "c:\users\longshuangmin\desktop\worke_space\g-501\g-501\adc.c" 1
 613  002D              	JMP $
 613  002D              	ENDIF
 613  002D              ;# 613 "c:\users\longshuangmin\desktop\worke_space\g-501\g-501\adc.c" 1
 613  002D              	IF (1000>=1) AND (1000<( 4 + __PBP__ * 2))
 613  002D              ;# 613 "c:\users\longshuangmin\desktop\worke_space\g-501\g-501\adc.c" 1
 613  002D              	NOP
 613  002D              	ENDIF
 613  002D              ;# 613 "c:\users\longshuangmin\desktop\worke_space\g-501\g-501\adc.c" 1
 613  002D              	IF (1000>=2) AND (1000<( 4 + __PBP__ * 2))
 613  002D              ;# 613 "c:\users\longshuangmin\desktop\worke_space\g-501\g-501\adc.c" 1
 613  002D              	NOP
 613  002D              	ENDIF
 613  002D              ;# 613 "c:\users\longshuangmin\desktop\worke_space\g-501\g-501\adc.c" 1
 613  002D              	IF (1000>=3) AND (1000<( 4 + __PBP__ * 2))
 613  002D              ;# 613 "c:\users\longshuangmin\desktop\worke_space\g-501\g-501\adc.c" 1
 613  002D              	NOP
 613  002D              	ENDIF
 613  002D              ;# 613 "c:\users\longshuangmin\desktop\worke_space\g-501\g-501\adc.c" 1
 613  002D              	IF (1000>=4) AND (1000<( 4 + __PBP__ * 2)) AND ( __PBP__ > 0 )
 613  002D              ;# 613 "c:\users\longshuangmin\desktop\worke_space\g-501\g-501\adc.c" 1
 613  002D              	NOP
 613  002D              	ENDIF
 613  002D              ;# 613 "c:\users\longshuangmin\desktop\worke_space\g-501\g-501\adc.c" 1
 613  002D              	IF (1000>=5) AND (1000<( 4 + __PBP__ * 2)) AND ( __PBP__ > 0 )
 613  002D              ;# 613 "c:\users\longshuangmin\desktop\worke_space\g-501\g-501\adc.c" 1
 613  002D              	NOP
 613  002D              	ENDIF
 613  002D              ;# 613 "c:\users\longshuangmin\desktop\worke_space\g-501\g-501\adc.c" 1
 613  002D              	IF (1000>=6) AND (1000<( 4 + __PBP__ * 2))  AND ( __PBP__ > 1 )
 613  002D              ;# 613 "c:\users\longshuangmin\desktop\worke_space\g-501\g-501\adc.c" 1
 613  002D              	NOP
 613  002D              	ENDIF
 613  002D              ;# 613 "c:\users\longshuangmin\desktop\worke_space\g-501\g-501\adc.c" 1
 613  002D              	IF (1000>=7) AND (1000<( 4 + __PBP__ * 2))  AND ( __PBP__ > 1 )
 613  002D              ;# 613 "c:\users\longshuangmin\desktop\worke_space\g-501\g-501\adc.c" 1
 613  002D              	NOP
 613  002D              	ENDIF
 613  002D              ;# 613 "c:\users\longshuangmin\desktop\worke_space\g-501\g-501\adc.c" 1
 613  002D              	IF (1000>=8) AND (1000<( 4 + __PBP__ * 2))  AND ( __PBP__ > 2 )
文件：adc.c        编译器版本 HGASM 0202 页次20

 613  002D              ;# 613 "c:\users\longshuangmin\desktop\worke_space\g-501\g-501\adc.c" 1
 613  002D              	NOP
 613  002D              	ENDIF
 613  002D              ;# 613 "c:\users\longshuangmin\desktop\worke_space\g-501\g-501\adc.c" 1
 613  002D              	IF (1000==9)  AND ( __PBP__ > 2 )
 613  002D              ;# 613 "c:\users\longshuangmin\desktop\worke_space\g-501\g-501\adc.c" 1
 613  002D              	NOP
 613  002D              	ENDIF
 613  002D              ;# 613 "c:\users\longshuangmin\desktop\worke_space\g-501\g-501\adc.c" 1
 613  002D              	IF (1000< ( 8 + __PBP__ * 2)) AND (1000>( 3 + __PBP__ * 2))
 613  002D              ;# 613 "c:\users\longshuangmin\desktop\worke_space\g-501\g-501\adc.c" 1
 613  002D              	fcall __DELAY3 + ( 7 + __PBP__ * 2) -1000
 613  002D              	ENDIF
 613  002D              ;# 613 "c:\users\longshuangmin\desktop\worke_space\g-501\g-501\adc.c" 1
 613  002D              	IF (1000< ( 0404h + __PBP__ * 2)) AND (1000>( 7 + __PBP__ * 2))
 613  002D              ;# 613 "c:\users\longshuangmin\desktop\worke_space\g-501\g-501\adc.c" 1
 613  002D  0FF7        	MOV A,(1000-( 4 + __PBP__ * 2))/4
 613  002E              ;# 613 "c:\users\longshuangmin\desktop\worke_space\g-501\g-501\adc.c" 1
 613  002E              	fcall __DELAYX3 + 3 -((1000-( 4 + __PBP__ * 2)) MOD 4) 
 613  0035              	ENDIF
 613  0035              ;# 613 "c:\users\longshuangmin\desktop\worke_space\g-501\g-501\adc.c" 1
 613  0035              	IF (1000< ( 040bh + __PBP__ * 2)) AND (1000> ( 0403h + __PBP__ * 2))
 613  0035              ;# 613 "c:\users\longshuangmin\desktop\worke_space\g-501\g-501\adc.c" 1
 613  0035              	MOV A,0 
 613  0035              ;# 613 "c:\users\longshuangmin\desktop\worke_space\g-501\g-501\adc.c" 1
 613  0035              	fcall __DELAYX6 + ( 040ah + __PBP__ * 2) -1000
 613  0035              	ENDIF
 613  0035              ;# 613 "c:\users\longshuangmin\desktop\worke_space\g-501\g-501\adc.c" 1
 613  0035              	IF (1000 >= ( 040bh + __PBP__ * 2)) AND ((((1000-( 9 + __PBP__ * 2))%0402h)/4+1)>256)
 613  0035              ;# 613 "c:\users\longshuangmin\desktop\worke_space\g-501\g-501\adc.c" 1
 613  0035              	MOV A,(1000-( 9 + __PBP__ * 2))/0402h
 613  0035              ;# 613 "c:\users\longshuangmin\desktop\worke_space\g-501\g-501\adc.c" 1
 613  0035              	MOV _builtin_holtek_delay_2,A
 613  0035              ;# 613 "c:\users\longshuangmin\desktop\worke_space\g-501\g-501\adc.c" 1
 613  0035              	MOV A,0
 613  0035              ;# 613 "c:\users\longshuangmin\desktop\worke_space\g-501\g-501\adc.c" 1
 613  0035              	fcall __DELAYY5 +5- (((1000-( 9 + __PBP__ * 2))%0402h)%6) 
 613  0035              	ENDIF
 613  0035              ;# 613 "c:\users\longshuangmin\desktop\worke_space\g-501\g-501\adc.c" 1
 613  0035              	IF (1000 >= ( 040bh + __PBP__ * 2)) AND ((((1000-( 9 + __PBP__ * 2))%0402h)/4+1)<=256)
 613  0035              ;# 613 "c:\users\longshuangmin\desktop\worke_space\g-501\g-501\adc.c" 1
 613  0035              	MOV A,(1000-( 9 + __PBP__ * 2))/0402h
 613  0035              ;# 613 "c:\users\longshuangmin\desktop\worke_space\g-501\g-501\adc.c" 1
 613  0035              	MOV _builtin_holtek_delay_2,A
 613  0035              ;# 613 "c:\users\longshuangmin\desktop\worke_space\g-501\g-501\adc.c" 1
 613  0035              	MOV A,((1000-( 9 + __PBP__ * 2))%0402h)/4+1
 613  0035              ;# 613 "c:\users\longshuangmin\desktop\worke_space\g-501\g-501\adc.c" 1
 613  0035              	fcall __DELAYY3 +3-(((1000-( 9 + __PBP__ * 2))%0402h)%4) 
 613  0035              	ENDIF
 613  0035  0FFF        	mov a,255
 613  0036  0380     E  	addm a,rb
 613  0037  0FFF        	mov a,255
 613  0038  1380     E  	adcm a,rc
 610  0039              #line 610 "c:\users\longshuangmin\desktop\worke_space\g-501\g-501\adc.c"
 610  0039  0700     E  	mov a,rb
 610  003A  0500     E  	or a,rc
 610  003B  390A        	snz z
 610  003C  2800     R  	jmp _L28
 617  003D              #line 617 "c:\users\longshuangmin\desktop\worke_space\g-501\g-501\adc.c"
 617  003D              	fcall _fun_ADCStart
文件：adc.c        编译器版本 HGASM 0202 页次21

 617  0044              _L30:
 625  0044              #line 625 "c:\users\longshuangmin\desktop\worke_space\g-501\g-501\adc.c"
 625  0044              ;# 625 "c:\users\longshuangmin\desktop\worke_space\g-501\g-501\adc.c" 1
 625  0044  0001        	clr wdt
 621  0045              #line 621 "c:\users\longshuangmin\desktop\worke_space\g-501\g-501\adc.c"
 621  0045  3800     E  	snz _SDKADCSourceData[5].0
 621  0046  2800     R  	jmp _L30
 628  0047              #line 628 "c:\users\longshuangmin\desktop\worke_space\g-501\g-501\adc.c"
 628  0047  3661        	clr [97].4
 629  0048              #line 629 "c:\users\longshuangmin\desktop\worke_space\g-501\g-501\adc.c"
 629  0048  36E1        	clr [97].5
 631  0049              #line 631 "c:\users\longshuangmin\desktop\worke_space\g-501\g-501\adc.c"
 631  0049              	fcall _fun_ADCStop
 638  0050              #line 638 "c:\users\longshuangmin\desktop\worke_space\g-501\g-501\adc.c"
 638  0050  0F3F        	mov a,63
 638  0051  86D7 0001   	landm a,[343]
 642  0053              #line 642 "c:\users\longshuangmin\desktop\worke_space\g-501\g-501\adc.c"
 642  0053  0700     E  	mov a,_SDKADCSourceData[0]
 642  0054  0080     E  	mov rd,a
 642  0055  0700     E  	mov a,_SDKADCSourceData[1]
 642  0056  0080     E  	mov re,a
 642  0057  0700     E  	mov a,_SDKADCSourceData[2]
 642  0058  0080     E  	mov rf,a
 642  0059  0700     E  	mov a,_SDKADCSourceData[3]
 642  005A  0080     E  	mov rg,a
 642  005B  0700     E  	mov a,rf
 642  005C  0080     E  	mov rd,a
 642  005D  0700     E  	mov a,rg
 642  005E  0080     E  	mov re,a
 642  005F  1F00     E  	clr rg
 642  0060  3C00     E  	sz re.7
 642  0061  1F80     E  	set rg
 642  0062  1F00     E  	clr rf
 642  0063  3C00     E  	sz re.7
 642  0064  1F80     E  	set rf
 642  0065  0700     E  	mov a,rd
 642  0066  0080     R  	mov _Measurement_Battery_2[0],a
 642  0067  0700     E  	mov a,re
 642  0068  0080     R  	mov _Measurement_Battery_2[1],a
 672  0069              #line 672 "c:\users\longshuangmin\desktop\worke_space\g-501\g-501\adc.c"
 672  0069  0700     R  	mov a,_Measurement_Battery_2[0]
 672  006A  0080     E  	mov ra,a
 672  006B  0700     R  	mov a,_Measurement_Battery_2[1]
 672  006C  0080     E  	mov rb,a
 672  006D  0003        	ret
 672  006E              _Measurement_Battery endp
 672  006E              #line 672 "c:\users\longshuangmin\desktop\worke_space\g-501\g-501\adc.c"
 672  006E              #pragma debug scope 1 1
 672  006E              public _Measurement_Daco
 672  006E              #pragma debug scope 14 1
 676  006E              #line 676 "c:\users\longshuangmin\desktop\worke_space\g-501\g-501\adc.c"
 676  0000              _Measurement_Daco .section 'code'
 676  0000              _Measurement_Daco proc
 676  0000  0002[           local _Measurement_Daco_2 db 2 dup(?)	; 0,2
            00
            ]
 676  0002              #pragma debug variable 12 14 _Measurement_Daco_2+0 "Ibuf0"
 684  0002              #line 684 "c:\users\longshuangmin\desktop\worke_space\g-501\g-501\adc.c"
 684  0000  0F01        	mov a,1
 684  0001  0080     E  	mov _fun_DACVREFInit_2[0],a
文件：adc.c        编译器版本 HGASM 0202 页次22

 684  0002  1F00     E  	clr _fun_DACVREFInit_2[1]
 684  0003              	fcall _fun_DACVREFInit
 687  000A              #line 687 "c:\users\longshuangmin\desktop\worke_space\g-501\g-501\adc.c"
 687  000A  35E2        	clr [98].3
 687  000B  3562        	clr [98].2
 687  000C  30E2        	set [98].1
 687  000D  3062        	set [98].0
 688  000E              #line 688 "c:\users\longshuangmin\desktop\worke_space\g-501\g-501\adc.c"
 688  000E  33E2        	set [98].7
 688  000F  3762        	clr [98].6
 688  0010  32E2        	set [98].5
 688  0011  3262        	set [98].4
 690  0012              #line 690 "c:\users\longshuangmin\desktop\worke_space\g-501\g-501\adc.c"
 690  0012  3760        	clr [96].6
 690  0013  36E0        	clr [96].5
 691  0014              #line 691 "c:\users\longshuangmin\desktop\worke_space\g-501\g-501\adc.c"
 691  0014  33E0        	set [96].7
 691  0015  33E1        	set [97].7
 693  0016              #line 693 "c:\users\longshuangmin\desktop\worke_space\g-501\g-501\adc.c"
 693  0016  3660        	clr [96].4
 693  0017  35E0        	clr [96].3
 694  0018              #line 694 "c:\users\longshuangmin\desktop\worke_space\g-501\g-501\adc.c"
 694  0018  35E1        	clr [97].3
 694  0019  3561        	clr [97].2
 694  001A  34E1        	clr [97].1
 699  001B              #line 699 "c:\users\longshuangmin\desktop\worke_space\g-501\g-501\adc.c"
 699  001B  0F1F        	mov a,31
 699  001C  00E8        	mov [104],a
 699  001D  37E7        	clr [103].7
 699  001E  3767        	clr [103].6
 699  001F  36E7        	clr [103].5
 699  0020  3266        	set [102].4
 699  0021  31E6        	set [102].3
 699  0022  3166        	set [102].2
 700  0023              #line 700 "c:\users\longshuangmin\desktop\worke_space\g-501\g-501\adc.c"
 700  0023              	fcall _fun_ADCStart
 701  002A              #line 701 "c:\users\longshuangmin\desktop\worke_space\g-501\g-501\adc.c"
 701  002A  3000     E  	set _Flag7[0].0
 701  002B              _L33:
 708  002B              #line 708 "c:\users\longshuangmin\desktop\worke_space\g-501\g-501\adc.c"
 708  002B              ;# 708 "c:\users\longshuangmin\desktop\worke_space\g-501\g-501\adc.c" 1
 708  002B  0001        	clr wdt
 704  002C              #line 704 "c:\users\longshuangmin\desktop\worke_space\g-501\g-501\adc.c"
 704  002C  3800     E  	snz _SDKADCSourceData[5].0
 704  002D  2800     R  	jmp _L33
 712  002E              #line 712 "c:\users\longshuangmin\desktop\worke_space\g-501\g-501\adc.c"
 712  002E              	fcall _fun_ADCStop
 714  0035              #line 714 "c:\users\longshuangmin\desktop\worke_space\g-501\g-501\adc.c"
 714  0035  0700     E  	mov a,_SDKADCSourceData[0]
 714  0036  0080     E  	mov rd,a
 714  0037  0700     E  	mov a,_SDKADCSourceData[1]
 714  0038  0080     E  	mov re,a
 714  0039  0700     E  	mov a,_SDKADCSourceData[2]
 714  003A  0080     E  	mov rf,a
 714  003B  0700     E  	mov a,_SDKADCSourceData[3]
 714  003C  0080     E  	mov rg,a
 714  003D  0700     E  	mov a,rf
 714  003E  0080     E  	mov rd,a
 714  003F  0700     E  	mov a,rg
 714  0040  0080     E  	mov re,a
文件：adc.c        编译器版本 HGASM 0202 页次23

 714  0041  1F00     E  	clr rg
 714  0042  3C00     E  	sz re.7
 714  0043  1F80     E  	set rg
 714  0044  1F00     E  	clr rf
 714  0045  3C00     E  	sz re.7
 714  0046  1F80     E  	set rf
 714  0047  0700     E  	mov a,rd
 714  0048  0080     R  	mov _Measurement_Daco_2[0],a
 714  0049  0700     E  	mov a,re
 714  004A  0080     R  	mov _Measurement_Daco_2[1],a
 719  004B              #line 719 "c:\users\longshuangmin\desktop\worke_space\g-501\g-501\adc.c"
 719  004B  0700     R  	mov a,_Measurement_Daco_2[0]
 719  004C  0080     E  	mov ra,a
 719  004D  0700     R  	mov a,_Measurement_Daco_2[1]
 719  004E  0080     E  	mov rb,a
 719  004F  0003        	ret
 719  0050              _Measurement_Daco endp
 719  0050              #line 719 "c:\users\longshuangmin\desktop\worke_space\g-501\g-501\adc.c"
 719  0050              #pragma debug scope 1 1
 719  0050              public _Measurement_Op1n1_Op1s1
 719  0050              #pragma debug scope 15 1
 787  0050              #line 787 "c:\users\longshuangmin\desktop\worke_space\g-501\g-501\adc.c"
 787  0000              _Measurement_Op1n1_Op1s1 .section 'code'
 787  0000              _Measurement_Op1n1_Op1s1 proc
 787  0000  0002[           local _Measurement_Op1n1_Op1s1_2 db 2 dup(?)	; 0,2
            00
            ]
 787  0002              #pragma debug variable 12 15 _Measurement_Op1n1_Op1s1_2+0 "Ibuf0"
 794  0002              #line 794 "c:\users\longshuangmin\desktop\worke_space\g-501\g-501\adc.c"
 794  0000              	fcall _InitADC_Op1n1_Op1s1
 797  0007              #line 797 "c:\users\longshuangmin\desktop\worke_space\g-501\g-501\adc.c"
 797  0007              	fcall _fun_ADCStart
 798  000E              #line 798 "c:\users\longshuangmin\desktop\worke_space\g-501\g-501\adc.c"
 798  000E  3000     E  	set _Flag7[0].0
 798  000F              _L36:
 805  000F              #line 805 "c:\users\longshuangmin\desktop\worke_space\g-501\g-501\adc.c"
 805  000F              ;# 805 "c:\users\longshuangmin\desktop\worke_space\g-501\g-501\adc.c" 1
 805  000F  0001        	clr wdt
 801  0010              #line 801 "c:\users\longshuangmin\desktop\worke_space\g-501\g-501\adc.c"
 801  0010  3800     E  	snz _SDKADCSourceData[5].0
 801  0011  2800     R  	jmp _L36
 809  0012              #line 809 "c:\users\longshuangmin\desktop\worke_space\g-501\g-501\adc.c"
 809  0012              	fcall _fun_ADCStop
 811  0019              #line 811 "c:\users\longshuangmin\desktop\worke_space\g-501\g-501\adc.c"
 811  0019  0700     E  	mov a,_SDKADCSourceData[0]
 811  001A  0080     E  	mov rd,a
 811  001B  0700     E  	mov a,_SDKADCSourceData[1]
 811  001C  0080     E  	mov re,a
 811  001D  0700     E  	mov a,_SDKADCSourceData[2]
 811  001E  0080     E  	mov rf,a
 811  001F  0700     E  	mov a,_SDKADCSourceData[3]
 811  0020  0080     E  	mov rg,a
 811  0021  0700     E  	mov a,rf
 811  0022  0080     E  	mov rd,a
 811  0023  0700     E  	mov a,rg
 811  0024  0080     E  	mov re,a
 811  0025  1F00     E  	clr rg
 811  0026  3C00     E  	sz re.7
 811  0027  1F80     E  	set rg
 811  0028  1F00     E  	clr rf
文件：adc.c        编译器版本 HGASM 0202 页次24

 811  0029  3C00     E  	sz re.7
 811  002A  1F80     E  	set rf
 811  002B  0700     E  	mov a,rd
 811  002C  0080     R  	mov _Measurement_Op1n1_Op1s1_2[0],a
 811  002D  0700     E  	mov a,re
 811  002E  0080     R  	mov _Measurement_Op1n1_Op1s1_2[1],a
 814  002F              #line 814 "c:\users\longshuangmin\desktop\worke_space\g-501\g-501\adc.c"
 814  002F  0700     R  	mov a,_Measurement_Op1n1_Op1s1_2[0]
 814  0030  0080     E  	mov ra,a
 814  0031  0700     R  	mov a,_Measurement_Op1n1_Op1s1_2[1]
 814  0032  0080     E  	mov rb,a
 814  0033  0003        	ret
 814  0034              _Measurement_Op1n1_Op1s1 endp
 814  0034              #line 814 "c:\users\longshuangmin\desktop\worke_space\g-501\g-501\adc.c"
 814  0034              #pragma debug scope 1 1
 814  0034              ___bswc0 equ [125]
 814  0034              ___bswc1 equ [126]
 814  0034              public _Set_HCT_Adc_Channel
 814  0034              #pragma debug scope 16 1
 888  0034              #line 888 "c:\users\longshuangmin\desktop\worke_space\g-501\g-501\adc.c"
 888  0000              _Set_HCT_Adc_Channel .section 'code'
 888  0000              _Set_HCT_Adc_Channel proc
 888  0000  00              local _Set_HCT_Adc_Channel_2 db 1 dup(?)	; 0,1
 888  0000  0080     R  	mov _Set_HCT_Adc_Channel_2[0],a
 888  0001              #pragma debug variable 8 16 _Set_HCT_Adc_Channel_2+0 "mode"
 889  0001              #line 889 "c:\users\longshuangmin\desktop\worke_space\g-501\g-501\adc.c"
 889  0001              	fcall _fun_ADCStop
 890  0008              #line 890 "c:\users\longshuangmin\desktop\worke_space\g-501\g-501\adc.c"
 890  0008  0700     R  	mov a,_Set_HCT_Adc_Channel_2[0]
 890  0009  0A00        	sub a,0
 890  000A  3D0A        	sz z
 890  000B  2800     R  	jmp _L39
 890  000C  0A01        	sub a,(1)-(0)
 890  000D  3D0A        	sz z
 890  000E  2800     R  	jmp _L40
 890  000F              #line 890 "c:\users\longshuangmin\desktop\worke_space\g-501\g-501\adc.c"
 890  000F  0700     R  	mov a,_Set_HCT_Adc_Channel_2[0]
 890  0010  0A02        	sub a,2
 890  0011  3D0A        	sz z
 890  0012  2800     R  	jmp _L41
 890  0013  0A01        	sub a,(3)-(2)
 890  0014  3D0A        	sz z
 890  0015  2800     R  	jmp _L42
 890  0016  0700     R  	mov a,_Set_HCT_Adc_Channel_2[0]
 890  0017  0A04        	sub a,4
 890  0018  3D0A        	sz z
 890  0019  2800     R  	jmp _L43
 890  001A  0A01        	sub a,(5)-(4)
 890  001B  3D0A        	sz z
 890  001C  2800     R  	jmp _L44
 890  001D  0700     R  	mov a,_Set_HCT_Adc_Channel_2[0]
 890  001E  0A06        	sub a,6
 890  001F  3D0A        	sz z
 890  0020  2800     R  	jmp _L45
 890  0021  0700     R  	mov a,_Set_HCT_Adc_Channel_2[0]
 890  0022  0A07        	sub a,7
 890  0023  390A        	snz z
 890  0024  2800     R  	jmp _L37
1068  0025              #line 1068 "c:\users\longshuangmin\desktop\worke_space\g-501\g-501\adc.c"
1068  0025  35FF        	clr [127].3
文件：adc.c        编译器版本 HGASM 0202 页次25

1069  0026              #line 1069 "c:\users\longshuangmin\desktop\worke_space\g-501\g-501\adc.c"
1069  0026  327F        	set [127].4
1069  0027  2800     R  	jmp _L49
1069  0028              _L39:
 895  0028              #line 895 "c:\users\longshuangmin\desktop\worke_space\g-501\g-501\adc.c"
 895  0028  317F        	set [127].2
 896  0029              #line 896 "c:\users\longshuangmin\desktop\worke_space\g-501\g-501\adc.c"
 896  0029  31FF        	set [127].3
 897  002A              #line 897 "c:\users\longshuangmin\desktop\worke_space\g-501\g-501\adc.c"
 897  002A  367F        	clr [127].4
 898  002B              #line 898 "c:\users\longshuangmin\desktop\worke_space\g-501\g-501\adc.c"
 898  002B  0F24        	mov a,36
 898  002C  00FD        	mov [125],a
 898  002D  2800     R  	jmp _L53
 898  002E              _L40:
 941  002E              #line 941 "c:\users\longshuangmin\desktop\worke_space\g-501\g-501\adc.c"
 941  002E  317F        	set [127].2
 942  002F              #line 942 "c:\users\longshuangmin\desktop\worke_space\g-501\g-501\adc.c"
 942  002F  31FF        	set [127].3
 943  0030              #line 943 "c:\users\longshuangmin\desktop\worke_space\g-501\g-501\adc.c"
 943  0030  367F        	clr [127].4
 944  0031              #line 944 "c:\users\longshuangmin\desktop\worke_space\g-501\g-501\adc.c"
 944  0031  0F24        	mov a,36
 944  0032  00FD        	mov [125],a
 944  0033  2800     R  	jmp _L50
 944  0034              _L41:
 959  0034              #line 959 "c:\users\longshuangmin\desktop\worke_space\g-501\g-501\adc.c"
 959  0034  317F        	set [127].2
 960  0035              #line 960 "c:\users\longshuangmin\desktop\worke_space\g-501\g-501\adc.c"
 960  0035  31FF        	set [127].3
 961  0036              #line 961 "c:\users\longshuangmin\desktop\worke_space\g-501\g-501\adc.c"
 961  0036  367F        	clr [127].4
 961  0037  2800     R  	jmp _L52
 961  0038              _L42:
1005  0038              #line 1005 "c:\users\longshuangmin\desktop\worke_space\g-501\g-501\adc.c"
1005  0038  317F        	set [127].2
1006  0039              #line 1006 "c:\users\longshuangmin\desktop\worke_space\g-501\g-501\adc.c"
1006  0039  31FF        	set [127].3
1007  003A              #line 1007 "c:\users\longshuangmin\desktop\worke_space\g-501\g-501\adc.c"
1007  003A  367F        	clr [127].4
1007  003B  2800     R  	jmp _L49
1007  003C              _L43:
1023  003C              #line 1023 "c:\users\longshuangmin\desktop\worke_space\g-501\g-501\adc.c"
1023  003C  35FF        	clr [127].3
1024  003D              #line 1024 "c:\users\longshuangmin\desktop\worke_space\g-501\g-501\adc.c"
1024  003D  327F        	set [127].4
1025  003E              #line 1025 "c:\users\longshuangmin\desktop\worke_space\g-501\g-501\adc.c"
1025  003E  0F21        	mov a,33
1025  003F  00FD        	mov [125],a
1025  0040              _L53:
1025  0040  1F7E        	clr [126]
1025  0041  2800     R  	jmp _L51
1025  0042              _L44:
1038  0042              #line 1038 "c:\users\longshuangmin\desktop\worke_space\g-501\g-501\adc.c"
1038  0042  35FF        	clr [127].3
1039  0043              #line 1039 "c:\users\longshuangmin\desktop\worke_space\g-501\g-501\adc.c"
1039  0043  327F        	set [127].4
1040  0044              #line 1040 "c:\users\longshuangmin\desktop\worke_space\g-501\g-501\adc.c"
1040  0044  0F21        	mov a,33
1040  0045  00FD        	mov [125],a
文件：adc.c        编译器版本 HGASM 0202 页次26

1040  0046              _L50:
1040  0046  1F7E        	clr [126]
1040  0047  2800     R  	jmp _L47
1040  0048              _L45:
1053  0048              #line 1053 "c:\users\longshuangmin\desktop\worke_space\g-501\g-501\adc.c"
1053  0048  35FF        	clr [127].3
1054  0049              #line 1054 "c:\users\longshuangmin\desktop\worke_space\g-501\g-501\adc.c"
1054  0049  327F        	set [127].4
1054  004A              _L52:
1055  004A              #line 1055 "c:\users\longshuangmin\desktop\worke_space\g-501\g-501\adc.c"
1055  004A  0F10        	mov a,16
1055  004B  00FD        	mov [125],a
1055  004C  0F02        	mov a,2
1055  004D  00FE        	mov [126],a
1055  004E              _L51:
1056  004E              #line 1056 "c:\users\longshuangmin\desktop\worke_space\g-501\g-501\adc.c"
1056  004E  37E2        	clr [98].7
1056  004F  3362        	set [98].6
1056  0050  36E2        	clr [98].5
1056  0051  3262        	set [98].4
1057  0052              #line 1057 "c:\users\longshuangmin\desktop\worke_space\g-501\g-501\adc.c"
1057  0052  35E2        	clr [98].3
1057  0053  3162        	set [98].2
1057  0054  34E2        	clr [98].1
1057  0055  3062        	set [98].0
1057  0056  2800     R  	jmp _L48
1057  0057              _L49:
1070  0057              #line 1070 "c:\users\longshuangmin\desktop\worke_space\g-501\g-501\adc.c"
1070  0057  0F10        	mov a,16
1070  0058  00FD        	mov [125],a
1070  0059  0F02        	mov a,2
1070  005A  00FE        	mov [126],a
1070  005B              _L47:
1071  005B              #line 1071 "c:\users\longshuangmin\desktop\worke_space\g-501\g-501\adc.c"
1071  005B  37E2        	clr [98].7
1071  005C  3362        	set [98].6
1071  005D  32E2        	set [98].5
1071  005E  3662        	clr [98].4
1072  005F              #line 1072 "c:\users\longshuangmin\desktop\worke_space\g-501\g-501\adc.c"
1072  005F  35E2        	clr [98].3
1072  0060  3162        	set [98].2
1072  0061  30E2        	set [98].1
1072  0062  3462        	clr [98].0
1072  0063              _L48:
1074  0063              #line 1074 "c:\users\longshuangmin\desktop\worke_space\g-501\g-501\adc.c"
1074  0063  0F1F        	mov a,31
1074  0064  00E8        	mov [104],a
1074  0065  37E7        	clr [103].7
1074  0066  3367        	set [103].6
1074  0067  36E7        	clr [103].5
1074  0068  3266        	set [102].4
1074  0069  35E6        	clr [102].3
1074  006A  3566        	clr [102].2
1075  006B              #line 1075 "c:\users\longshuangmin\desktop\worke_space\g-501\g-501\adc.c"
1075  006B              	fcall _fun_ADCStart
1075  0072              _L37:
1075  0072  0003        	ret
1075  0073              _Set_HCT_Adc_Channel endp
1075  0073              #line 1075 "c:\users\longshuangmin\desktop\worke_space\g-501\g-501\adc.c"
1075  0073              #pragma debug scope 1 1
文件：adc.c        编译器版本 HGASM 0202 页次27

1075  0073              public _Impedance_Compute
1075  0073              #pragma debug scope 17 1
1249  0073              #line 1249 "c:\users\longshuangmin\desktop\worke_space\g-501\g-501\adc.c"
1249  0000              _Impedance_Compute .section 'code'
1249  0000              _Impedance_Compute proc
1249  0000              public _Impedance_Compute_2
1249  0000  0022[           local _Impedance_Compute_2 db 34 dup(?)	; 2,32
            00
            ]
1249  0022              #pragma debug pointer 42 11 17
1249  0022              #pragma debug pointer 42 11 17
1249  0022              #pragma debug variable 42 17 _Impedance_Compute_2+0 "bimBuf"
1249  0022              #pragma debug variable 29 17 _Impedance_Compute_2+26 "RF1_RE"
1249  0022              #pragma debug variable 29 17 _Impedance_Compute_2+22 "RF1_I"
1249  0022              #pragma debug variable 29 17 _Impedance_Compute_2+18 "RX1_RE"
1249  0022              #pragma debug variable 29 17 _Impedance_Compute_2+14 "RX1_I"
1249  0022              #pragma debug variable 29 17 _Impedance_Compute_2+10 "Ibuf0"
1249  0022              #pragma debug variable 29 17 _Impedance_Compute_2+6 "Ibuf1"
1249  0022              #pragma debug variable 29 17 _Impedance_Compute_2+2 "Impedance"
1253  0022              #line 1253 "c:\users\longshuangmin\desktop\worke_space\g-501\g-501\adc.c"
1253  0000  0700     R  	mov a,_Impedance_Compute_2[0]
1253  0001  0080     E  	mov rb,a
1253  0002  0700     R  	mov a,_Impedance_Compute_2[1]
1253  0003  0080     E  	mov rc,a
1253  0004  0700     E  	mov a,rb
1253  0005  0083        	mov mp,a
1253  0006  0700     E  	mov a,rc
1253  0007  0084        	mov sbp,a
1253  0008              	fcall _Crom2Prom
1253  000F  0080     E  	mov rd,a
1253  0010              	fcall _Crom2PromNext
1253  0017  0080     E  	mov re,a
1253  0018  0700     E  	mov a,re
1253  0019  0080     E  	mov _builtin_holtek_mant1[1],a
1253  001A  0700     E  	mov a,rd
1253  001B  0080     E  	mov _builtin_holtek_mant1[0],a
1253  001C              	fcall _builtin_holtek_itod
1253  0023  0700     E  	mov a,_builtin_holtek_mant12p[0]
1253  0024  0080     R  	mov _Impedance_Compute_2[29],a
1253  0025  0700     E  	mov a,_builtin_holtek_mant1[2]
1253  0026  0080     R  	mov _Impedance_Compute_2[28],a
1253  0027  0700     E  	mov a,_builtin_holtek_mant1[1]
1253  0028  0080     R  	mov _Impedance_Compute_2[27],a
1253  0029  0700     E  	mov a,_builtin_holtek_mant1[0]
1253  002A  0080     R  	mov _Impedance_Compute_2[26],a
1254  002B              #line 1254 "c:\users\longshuangmin\desktop\worke_space\g-501\g-501\adc.c"
1254  002B  0F02        	mov a,2
1254  002C  0300     E  	add a,rb
1254  002D  0083        	mov mp,a
1254  002E  0F00        	mov a,0
1254  002F  1300     E  	adc a,rc
1254  0030  0084        	mov sbp,a
1254  0031              	fcall _Crom2Prom
1254  0038  0080     E  	mov rd,a
1254  0039              	fcall _Crom2PromNext
1254  0040  0080     E  	mov re,a
1254  0041  0700     E  	mov a,re
1254  0042  0080     E  	mov _builtin_holtek_mant1[1],a
1254  0043  0700     E  	mov a,rd
1254  0044  0080     E  	mov _builtin_holtek_mant1[0],a
文件：adc.c        编译器版本 HGASM 0202 页次28

1254  0045              	fcall _builtin_holtek_itod
1254  004C  0700     E  	mov a,_builtin_holtek_mant12p[0]
1254  004D  0080     R  	mov _Impedance_Compute_2[25],a
1254  004E  0700     E  	mov a,_builtin_holtek_mant1[2]
1254  004F  0080     R  	mov _Impedance_Compute_2[24],a
1254  0050  0700     E  	mov a,_builtin_holtek_mant1[1]
1254  0051  0080     R  	mov _Impedance_Compute_2[23],a
1254  0052  0700     E  	mov a,_builtin_holtek_mant1[0]
1254  0053  0080     R  	mov _Impedance_Compute_2[22],a
1255  0054              #line 1255 "c:\users\longshuangmin\desktop\worke_space\g-501\g-501\adc.c"
1255  0054  0F04        	mov a,4
1255  0055  0300     E  	add a,rb
1255  0056  0083        	mov mp,a
1255  0057  0F00        	mov a,0
1255  0058  1300     E  	adc a,rc
1255  0059  0084        	mov sbp,a
1255  005A              	fcall _Crom2Prom
1255  0061  0080     E  	mov rd,a
1255  0062              	fcall _Crom2PromNext
1255  0069  0080     E  	mov re,a
1255  006A  0700     E  	mov a,re
1255  006B  0080     E  	mov _builtin_holtek_mant1[1],a
1255  006C  0700     E  	mov a,rd
1255  006D  0080     E  	mov _builtin_holtek_mant1[0],a
1255  006E              	fcall _builtin_holtek_itod
1255  0075  0700     E  	mov a,_builtin_holtek_mant12p[0]
1255  0076  0080     R  	mov _Impedance_Compute_2[21],a
1255  0077  0700     E  	mov a,_builtin_holtek_mant1[2]
1255  0078  0080     R  	mov _Impedance_Compute_2[20],a
1255  0079  0700     E  	mov a,_builtin_holtek_mant1[1]
1255  007A  0080     R  	mov _Impedance_Compute_2[19],a
1255  007B  0700     E  	mov a,_builtin_holtek_mant1[0]
1255  007C  0080     R  	mov _Impedance_Compute_2[18],a
1256  007D              #line 1256 "c:\users\longshuangmin\desktop\worke_space\g-501\g-501\adc.c"
1256  007D  0F06        	mov a,6
1256  007E  0300     E  	add a,rb
1256  007F  0083        	mov mp,a
1256  0080  0F00        	mov a,0
1256  0081  1300     E  	adc a,rc
1256  0082  0084        	mov sbp,a
1256  0083              	fcall _Crom2Prom
1256  008A  0080     E  	mov rb,a
1256  008B              	fcall _Crom2PromNext
1256  0092  0080     E  	mov rc,a
1256  0093  0700     E  	mov a,rc
1256  0094  0080     E  	mov _builtin_holtek_mant1[1],a
1256  0095  0700     E  	mov a,rb
1256  0096  0080     E  	mov _builtin_holtek_mant1[0],a
1256  0097              	fcall _builtin_holtek_itod
1256  009E  0700     E  	mov a,_builtin_holtek_mant12p[0]
1256  009F  0080     R  	mov _Impedance_Compute_2[17],a
1256  00A0  0700     E  	mov a,_builtin_holtek_mant1[2]
1256  00A1  0080     R  	mov _Impedance_Compute_2[16],a
1256  00A2  0700     E  	mov a,_builtin_holtek_mant1[1]
1256  00A3  0080     R  	mov _Impedance_Compute_2[15],a
1256  00A4  0700     E  	mov a,_builtin_holtek_mant1[0]
1256  00A5  0080     R  	mov _Impedance_Compute_2[14],a
1259  00A6              #line 1259 "c:\users\longshuangmin\desktop\worke_space\g-501\g-501\adc.c"
1259  00A6  0700     R  	mov a,_Impedance_Compute_2[26]
1259  00A7  0080     E  	mov _pow_2[0],a
文件：adc.c        编译器版本 HGASM 0202 页次29

1259  00A8  0700     R  	mov a,_Impedance_Compute_2[27]
1259  00A9  0080     E  	mov _pow_2[1],a
1259  00AA  0700     R  	mov a,_Impedance_Compute_2[28]
1259  00AB  0080     E  	mov _pow_2[2],a
1259  00AC  0700     R  	mov a,_Impedance_Compute_2[29]
1259  00AD  0080     E  	mov _pow_2[3],a
1259  00AE  1F00     E  	clr _pow_2[4]
1259  00AF  1F00     E  	clr _pow_2[5]
1259  00B0  1F00     E  	clr _pow_2[6]
1259  00B1  0F40        	mov a,64
1259  00B2  0080     E  	mov _pow_2[7],a
1259  00B3              	fcall _pow
1259  00BA  0700     E  	mov a,ra
1259  00BB  0080     R  	mov _Impedance_Compute_2[10],a
1259  00BC  0700     E  	mov a,rb
1259  00BD  0080     R  	mov _Impedance_Compute_2[11],a
1259  00BE  0700     E  	mov a,rc
1259  00BF  0080     R  	mov _Impedance_Compute_2[12],a
1259  00C0  0700     E  	mov a,rd
1259  00C1  0080     R  	mov _Impedance_Compute_2[13],a
1260  00C2              #line 1260 "c:\users\longshuangmin\desktop\worke_space\g-501\g-501\adc.c"
1260  00C2  0700     R  	mov a,_Impedance_Compute_2[10]
1260  00C3  0080     R  	mov _Impedance_Compute_2[30],a
1260  00C4  0700     R  	mov a,_Impedance_Compute_2[11]
1260  00C5  0080     R  	mov _Impedance_Compute_2[31],a
1260  00C6  0700     R  	mov a,_Impedance_Compute_2[12]
1260  00C7  0080     R  	mov _Impedance_Compute_2[32],a
1260  00C8  0700     R  	mov a,_Impedance_Compute_2[13]
1260  00C9  0080     R  	mov _Impedance_Compute_2[33],a
1260  00CA  0700     R  	mov a,_Impedance_Compute_2[22]
1260  00CB  0080     E  	mov _pow_2[0],a
1260  00CC  0700     R  	mov a,_Impedance_Compute_2[23]
1260  00CD  0080     E  	mov _pow_2[1],a
1260  00CE  0700     R  	mov a,_Impedance_Compute_2[24]
1260  00CF  0080     E  	mov _pow_2[2],a
1260  00D0  0700     R  	mov a,_Impedance_Compute_2[25]
1260  00D1  0080     E  	mov _pow_2[3],a
1260  00D2  1F00     E  	clr _pow_2[4]
1260  00D3  1F00     E  	clr _pow_2[5]
1260  00D4  1F00     E  	clr _pow_2[6]
1260  00D5  0F40        	mov a,64
1260  00D6  0080     E  	mov _pow_2[7],a
1260  00D7              	fcall _pow
1260  00DE  0700     R  	mov a,_Impedance_Compute_2[33]
1260  00DF  0080     E  	mov _builtin_holtek_mant12p[0],a
1260  00E0  0700     R  	mov a,_Impedance_Compute_2[32]
1260  00E1  0080     E  	mov _builtin_holtek_mant1[2],a
1260  00E2  0700     R  	mov a,_Impedance_Compute_2[31]
1260  00E3  0080     E  	mov _builtin_holtek_mant1[1],a
1260  00E4  0700     R  	mov a,_Impedance_Compute_2[30]
1260  00E5  0080     E  	mov _builtin_holtek_mant1[0],a
1260  00E6  0700     E  	mov a,rd
1260  00E7  0080     E  	mov _builtin_holtek_mant12p[1],a
1260  00E8  0700     E  	mov a,rc
1260  00E9  0080     E  	mov _builtin_holtek_mant2[2],a
1260  00EA  0700     E  	mov a,rb
1260  00EB  0080     E  	mov _builtin_holtek_mant2[1],a
1260  00EC  0700     E  	mov a,ra
1260  00ED  0080     E  	mov _builtin_holtek_mant2[0],a
1260  00EE              	fcall _builtin_holtek_dtadd
文件：adc.c        编译器版本 HGASM 0202 页次30

1260  00F5  0700     E  	mov a,_builtin_holtek_mant12p[0]
1260  00F6  0080     R  	mov _Impedance_Compute_2[13],a
1260  00F7  0700     E  	mov a,_builtin_holtek_mant1[2]
1260  00F8  0080     R  	mov _Impedance_Compute_2[12],a
1260  00F9  0700     E  	mov a,_builtin_holtek_mant1[1]
1260  00FA  0080     R  	mov _Impedance_Compute_2[11],a
1260  00FB  0700     E  	mov a,_builtin_holtek_mant1[0]
1260  00FC  0080     R  	mov _Impedance_Compute_2[10],a
1261  00FD              #line 1261 "c:\users\longshuangmin\desktop\worke_space\g-501\g-501\adc.c"
1261  00FD  0700     R  	mov a,_Impedance_Compute_2[10]
1261  00FE  0080     E  	mov _sqrt_2[0],a
1261  00FF  0700     R  	mov a,_Impedance_Compute_2[11]
1261  0100  0080     E  	mov _sqrt_2[1],a
1261  0101  0700     R  	mov a,_Impedance_Compute_2[12]
1261  0102  0080     E  	mov _sqrt_2[2],a
1261  0103  0700     R  	mov a,_Impedance_Compute_2[13]
1261  0104  0080     E  	mov _sqrt_2[3],a
1261  0105              	fcall _sqrt
1261  010C  0700     E  	mov a,ra
1261  010D  0080     R  	mov _Impedance_Compute_2[10],a
1261  010E  0700     E  	mov a,rb
1261  010F  0080     R  	mov _Impedance_Compute_2[11],a
1261  0110  0700     E  	mov a,rc
1261  0111  0080     R  	mov _Impedance_Compute_2[12],a
1261  0112  0700     E  	mov a,rd
1261  0113  0080     R  	mov _Impedance_Compute_2[13],a
1264  0114              #line 1264 "c:\users\longshuangmin\desktop\worke_space\g-501\g-501\adc.c"
1264  0114  0700     R  	mov a,_Impedance_Compute_2[18]
1264  0115  0080     E  	mov _pow_2[0],a
1264  0116  0700     R  	mov a,_Impedance_Compute_2[19]
1264  0117  0080     E  	mov _pow_2[1],a
1264  0118  0700     R  	mov a,_Impedance_Compute_2[20]
1264  0119  0080     E  	mov _pow_2[2],a
1264  011A  0700     R  	mov a,_Impedance_Compute_2[21]
1264  011B  0080     E  	mov _pow_2[3],a
1264  011C  1F00     E  	clr _pow_2[4]
1264  011D  1F00     E  	clr _pow_2[5]
1264  011E  1F00     E  	clr _pow_2[6]
1264  011F  0F40        	mov a,64
1264  0120  0080     E  	mov _pow_2[7],a
1264  0121              	fcall _pow
1264  0128  0700     E  	mov a,ra
1264  0129  0080     R  	mov _Impedance_Compute_2[6],a
1264  012A  0700     E  	mov a,rb
1264  012B  0080     R  	mov _Impedance_Compute_2[7],a
1264  012C  0700     E  	mov a,rc
1264  012D  0080     R  	mov _Impedance_Compute_2[8],a
1264  012E  0700     E  	mov a,rd
1264  012F  0080     R  	mov _Impedance_Compute_2[9],a
1265  0130              #line 1265 "c:\users\longshuangmin\desktop\worke_space\g-501\g-501\adc.c"
1265  0130  0700     R  	mov a,_Impedance_Compute_2[6]
1265  0131  0080     R  	mov _Impedance_Compute_2[30],a
1265  0132  0700     R  	mov a,_Impedance_Compute_2[7]
1265  0133  0080     R  	mov _Impedance_Compute_2[31],a
1265  0134  0700     R  	mov a,_Impedance_Compute_2[8]
1265  0135  0080     R  	mov _Impedance_Compute_2[32],a
1265  0136  0700     R  	mov a,_Impedance_Compute_2[9]
1265  0137  0080     R  	mov _Impedance_Compute_2[33],a
1265  0138  0700     R  	mov a,_Impedance_Compute_2[14]
1265  0139  0080     E  	mov _pow_2[0],a
文件：adc.c        编译器版本 HGASM 0202 页次31

1265  013A  0700     R  	mov a,_Impedance_Compute_2[15]
1265  013B  0080     E  	mov _pow_2[1],a
1265  013C  0700     R  	mov a,_Impedance_Compute_2[16]
1265  013D  0080     E  	mov _pow_2[2],a
1265  013E  0700     R  	mov a,_Impedance_Compute_2[17]
1265  013F  0080     E  	mov _pow_2[3],a
1265  0140  1F00     E  	clr _pow_2[4]
1265  0141  1F00     E  	clr _pow_2[5]
1265  0142  1F00     E  	clr _pow_2[6]
1265  0143  0F40        	mov a,64
1265  0144  0080     E  	mov _pow_2[7],a
1265  0145              	fcall _pow
1265  014C  0700     R  	mov a,_Impedance_Compute_2[33]
1265  014D  0080     E  	mov _builtin_holtek_mant12p[0],a
1265  014E  0700     R  	mov a,_Impedance_Compute_2[32]
1265  014F  0080     E  	mov _builtin_holtek_mant1[2],a
1265  0150  0700     R  	mov a,_Impedance_Compute_2[31]
1265  0151  0080     E  	mov _builtin_holtek_mant1[1],a
1265  0152  0700     R  	mov a,_Impedance_Compute_2[30]
1265  0153  0080     E  	mov _builtin_holtek_mant1[0],a
1265  0154  0700     E  	mov a,rd
1265  0155  0080     E  	mov _builtin_holtek_mant12p[1],a
1265  0156  0700     E  	mov a,rc
1265  0157  0080     E  	mov _builtin_holtek_mant2[2],a
1265  0158  0700     E  	mov a,rb
1265  0159  0080     E  	mov _builtin_holtek_mant2[1],a
1265  015A  0700     E  	mov a,ra
1265  015B  0080     E  	mov _builtin_holtek_mant2[0],a
1265  015C              	fcall _builtin_holtek_dtadd
1265  0163  0700     E  	mov a,_builtin_holtek_mant12p[0]
1265  0164  0080     R  	mov _Impedance_Compute_2[9],a
1265  0165  0700     E  	mov a,_builtin_holtek_mant1[2]
1265  0166  0080     R  	mov _Impedance_Compute_2[8],a
1265  0167  0700     E  	mov a,_builtin_holtek_mant1[1]
1265  0168  0080     R  	mov _Impedance_Compute_2[7],a
1265  0169  0700     E  	mov a,_builtin_holtek_mant1[0]
1265  016A  0080     R  	mov _Impedance_Compute_2[6],a
1266  016B              #line 1266 "c:\users\longshuangmin\desktop\worke_space\g-501\g-501\adc.c"
1266  016B  0700     R  	mov a,_Impedance_Compute_2[6]
1266  016C  0080     E  	mov _sqrt_2[0],a
1266  016D  0700     R  	mov a,_Impedance_Compute_2[7]
1266  016E  0080     E  	mov _sqrt_2[1],a
1266  016F  0700     R  	mov a,_Impedance_Compute_2[8]
1266  0170  0080     E  	mov _sqrt_2[2],a
1266  0171  0700     R  	mov a,_Impedance_Compute_2[9]
1266  0172  0080     E  	mov _sqrt_2[3],a
1266  0173              	fcall _sqrt
1266  017A  0700     E  	mov a,ra
1266  017B  0080     R  	mov _Impedance_Compute_2[6],a
1266  017C  0700     E  	mov a,rb
1266  017D  0080     R  	mov _Impedance_Compute_2[7],a
1266  017E  0700     E  	mov a,rc
1266  017F  0080     R  	mov _Impedance_Compute_2[8],a
1266  0180  0700     E  	mov a,rd
1266  0181  0080     R  	mov _Impedance_Compute_2[9],a
1268  0182              #line 1268 "c:\users\longshuangmin\desktop\worke_space\g-501\g-501\adc.c"
1268  0182  0700     R  	mov a,_Impedance_Compute_2[9]
1268  0183  0080     E  	mov _builtin_holtek_mant12p[0],a
1268  0184  0700     R  	mov a,_Impedance_Compute_2[8]
1268  0185  0080     E  	mov _builtin_holtek_mant1[2],a
文件：adc.c        编译器版本 HGASM 0202 页次32

1268  0186  0700     R  	mov a,_Impedance_Compute_2[7]
1268  0187  0080     E  	mov _builtin_holtek_mant1[1],a
1268  0188  0700     R  	mov a,_Impedance_Compute_2[6]
1268  0189  0080     E  	mov _builtin_holtek_mant1[0],a
1268  018A  0700     R  	mov a,_Impedance_Compute_2[13]
1268  018B  0080     E  	mov _builtin_holtek_mant12p[1],a
1268  018C  0700     R  	mov a,_Impedance_Compute_2[12]
1268  018D  0080     E  	mov _builtin_holtek_mant2[2],a
1268  018E  0700     R  	mov a,_Impedance_Compute_2[11]
1268  018F  0080     E  	mov _builtin_holtek_mant2[1],a
1268  0190  0700     R  	mov a,_Impedance_Compute_2[10]
1268  0191  0080     E  	mov _builtin_holtek_mant2[0],a
1268  0192              	fcall _builtin_holtek_dtdiv
1268  0199  0700     E  	mov a,_builtin_holtek_mant12p[0]
1268  019A  0080     R  	mov _Impedance_Compute_2[5],a
1268  019B  0700     E  	mov a,_builtin_holtek_mant1[2]
1268  019C  0080     R  	mov _Impedance_Compute_2[4],a
1268  019D  0700     E  	mov a,_builtin_holtek_mant1[1]
1268  019E  0080     R  	mov _Impedance_Compute_2[3],a
1268  019F  0700     E  	mov a,_builtin_holtek_mant1[0]
1268  01A0  0080     R  	mov _Impedance_Compute_2[2],a
1269  01A1              #line 1269 "c:\users\longshuangmin\desktop\worke_space\g-501\g-501\adc.c"
1269  01A1  0700     R  	mov a,_Impedance_Compute_2[5]
1269  01A2  0080     E  	mov _builtin_holtek_mant12p[0],a
1269  01A3  0700     R  	mov a,_Impedance_Compute_2[4]
1269  01A4  0080     E  	mov _builtin_holtek_mant1[2],a
1269  01A5  0700     R  	mov a,_Impedance_Compute_2[3]
1269  01A6  0080     E  	mov _builtin_holtek_mant1[1],a
1269  01A7  0700     R  	mov a,_Impedance_Compute_2[2]
1269  01A8  0080     E  	mov _builtin_holtek_mant1[0],a
1269  01A9  0F40        	mov a,64
1269  01AA  0080     E  	mov _builtin_holtek_mant12p[1],a
1269  01AB  0F51        	mov a,81
1269  01AC  0080     E  	mov _builtin_holtek_mant2[2],a
1269  01AD  0FEB        	mov a,235
1269  01AE  0080     E  	mov _builtin_holtek_mant2[1],a
1269  01AF  0F85        	mov a,133
1269  01B0  0080     E  	mov _builtin_holtek_mant2[0],a
1269  01B1              	fcall _builtin_holtek_dtmul
1269  01B8  0700     E  	mov a,_builtin_holtek_mant12p[0]
1269  01B9  0080     R  	mov _Impedance_Compute_2[5],a
1269  01BA  0700     E  	mov a,_builtin_holtek_mant1[2]
1269  01BB  0080     R  	mov _Impedance_Compute_2[4],a
1269  01BC  0700     E  	mov a,_builtin_holtek_mant1[1]
1269  01BD  0080     R  	mov _Impedance_Compute_2[3],a
1269  01BE  0700     E  	mov a,_builtin_holtek_mant1[0]
1269  01BF  0080     R  	mov _Impedance_Compute_2[2],a
1277  01C0              #line 1277 "c:\users\longshuangmin\desktop\worke_space\g-501\g-501\adc.c"
1277  01C0  0700     R  	mov a,_Impedance_Compute_2[2]
1277  01C1  0080     E  	mov ra,a
1277  01C2  0700     R  	mov a,_Impedance_Compute_2[3]
1277  01C3  0080     E  	mov rb,a
1277  01C4  0700     R  	mov a,_Impedance_Compute_2[4]
1277  01C5  0080     E  	mov rc,a
1277  01C6  0700     R  	mov a,_Impedance_Compute_2[5]
1277  01C7  0080     E  	mov rd,a
1277  01C8  0003        	ret
1277  01C9              _Impedance_Compute endp
1277  01C9              #line 1277 "c:\users\longshuangmin\desktop\worke_space\g-501\g-501\adc.c"
1277  01C9              #pragma debug scope 1 1
文件：adc.c        编译器版本 HGASM 0202 页次33

1277  01C9              public _atan2
1277  01C9              #pragma debug scope 18 1
1281  01C9              #line 1281 "c:\users\longshuangmin\desktop\worke_space\g-501\g-501\adc.c"
1281  0000              _atan2 .section 'code'
1281  0000              _atan2 proc
1281  0000              public _atan2_2
1281  0000  000C[           local _atan2_2 db 12 dup(?)	; 8,4
            00
            ]
1281  000C              #pragma debug variable 29 18 _atan2_2+0 "y"
1281  000C              #pragma debug variable 29 18 _atan2_2+4 "x"
1283  000C              #line 1283 "c:\users\longshuangmin\desktop\worke_space\g-501\g-501\adc.c"
1283  0000  0700     R  	mov a,_atan2_2[4]
1283  0001  0080     E  	mov _fabs_2[0],a
1283  0002  0700     R  	mov a,_atan2_2[5]
1283  0003  0080     E  	mov _fabs_2[1],a
1283  0004  0700     R  	mov a,_atan2_2[6]
1283  0005  0080     E  	mov _fabs_2[2],a
1283  0006  0700     R  	mov a,_atan2_2[7]
1283  0007  0080     E  	mov _fabs_2[3],a
1283  0008              	fcall _fabs
1283  000F  0700     E  	mov a,ra
1283  0010  0080     R  	mov _atan2_2[8],a
1283  0011  0700     E  	mov a,rb
1283  0012  0080     R  	mov _atan2_2[9],a
1283  0013  0700     E  	mov a,rc
1283  0014  0080     R  	mov _atan2_2[10],a
1283  0015  0700     E  	mov a,rd
1283  0016  0080     R  	mov _atan2_2[11],a
1283  0017  0700     R  	mov a,_atan2_2[0]
1283  0018  0080     E  	mov _fabs_2[0],a
1283  0019  0700     R  	mov a,_atan2_2[1]
1283  001A  0080     E  	mov _fabs_2[1],a
1283  001B  0700     R  	mov a,_atan2_2[2]
1283  001C  0080     E  	mov _fabs_2[2],a
1283  001D  0700     R  	mov a,_atan2_2[3]
1283  001E  0080     E  	mov _fabs_2[3],a
1283  001F              	fcall _fabs
1283  0026  0700     R  	mov a,_atan2_2[11]
1283  0027  0080     E  	mov _builtin_holtek_mant12p[0],a
1283  0028  0700     R  	mov a,_atan2_2[10]
1283  0029  0080     E  	mov _builtin_holtek_mant1[2],a
1283  002A  0700     R  	mov a,_atan2_2[9]
1283  002B  0080     E  	mov _builtin_holtek_mant1[1],a
1283  002C  0700     R  	mov a,_atan2_2[8]
1283  002D  0080     E  	mov _builtin_holtek_mant1[0],a
1283  002E  0700     E  	mov a,rd
1283  002F  0080     E  	mov _builtin_holtek_mant12p[1],a
1283  0030  0700     E  	mov a,rc
1283  0031  0080     E  	mov _builtin_holtek_mant2[2],a
1283  0032  0700     E  	mov a,rb
1283  0033  0080     E  	mov _builtin_holtek_mant2[1],a
1283  0034  0700     E  	mov a,ra
1283  0035  0080     E  	mov _builtin_holtek_mant2[0],a
1283  0036              	fcall _builtin_holtek_dtsub
1283  003D  3800     E  	snz _builtin_holtek_mant12p[0].7
1283  003E  2800     R  	jmp _L65
1283  003F  2800     R  	jmp _L73
1283  0040              _L65:
1285  0040              #line 1285 "c:\users\longshuangmin\desktop\worke_space\g-501\g-501\adc.c"
文件：adc.c        编译器版本 HGASM 0202 页次34

1285  0040  0700     R  	mov a,_atan2_2[3]
1285  0041  0080     E  	mov _builtin_holtek_mant12p[0],a
1285  0042  0700     R  	mov a,_atan2_2[2]
1285  0043  0080     E  	mov _builtin_holtek_mant1[2],a
1285  0044  0700     R  	mov a,_atan2_2[1]
1285  0045  0080     E  	mov _builtin_holtek_mant1[1],a
1285  0046  0700     R  	mov a,_atan2_2[0]
1285  0047  0080     E  	mov _builtin_holtek_mant1[0],a
1285  0048  0700     R  	mov a,_atan2_2[7]
1285  0049  0080     E  	mov _builtin_holtek_mant12p[1],a
1285  004A  0700     R  	mov a,_atan2_2[6]
1285  004B  0080     E  	mov _builtin_holtek_mant2[2],a
1285  004C  0700     R  	mov a,_atan2_2[5]
1285  004D  0080     E  	mov _builtin_holtek_mant2[1],a
1285  004E  0700     R  	mov a,_atan2_2[4]
1285  004F  0080     E  	mov _builtin_holtek_mant2[0],a
1285  0050              	fcall _builtin_holtek_dtdiv
1285  0057  0700     E  	mov a,_builtin_holtek_mant12p[0]
1285  0058  0080     E  	mov _atan_2[3],a
1285  0059  0700     E  	mov a,_builtin_holtek_mant1[2]
1285  005A  0080     E  	mov _atan_2[2],a
1285  005B  0700     E  	mov a,_builtin_holtek_mant1[1]
1285  005C  0080     E  	mov _atan_2[1],a
1285  005D  0700     E  	mov a,_builtin_holtek_mant1[0]
1285  005E  0080     E  	mov _atan_2[0],a
1285  005F              	fcall _atan
1285  0066  0700     E  	mov a,rd
1285  0067  0080     E  	mov rg,a
1285  0068  0700     E  	mov a,rc
1285  0069  0080     E  	mov rf,a
1285  006A  0700     E  	mov a,rb
1285  006B  0080     E  	mov re,a
1285  006C  0700     E  	mov a,ra
1285  006D  0080     E  	mov rd,a
1286  006E              #line 1286 "c:\users\longshuangmin\desktop\worke_space\g-501\g-501\adc.c"
1286  006E  0700     R  	mov a,_atan2_2[7]
1286  006F  0080     E  	mov _builtin_holtek_mant12p[0],a
1286  0070  0700     R  	mov a,_atan2_2[6]
1286  0071  0080     E  	mov _builtin_holtek_mant1[2],a
1286  0072  0700     R  	mov a,_atan2_2[5]
1286  0073  0080     E  	mov _builtin_holtek_mant1[1],a
1286  0074  0700     R  	mov a,_atan2_2[4]
1286  0075  0080     E  	mov _builtin_holtek_mant1[0],a
1286  0076  0F00        	mov a,0
1286  0077  0080     E  	mov _builtin_holtek_mant12p[1],a
1286  0078  0F00        	mov a,0
1286  0079  0080     E  	mov _builtin_holtek_mant2[2],a
1286  007A  0F00        	mov a,0
1286  007B  0080     E  	mov _builtin_holtek_mant2[1],a
1286  007C  0F00        	mov a,0
1286  007D  0080     E  	mov _builtin_holtek_mant2[0],a
1286  007E              	fcall _builtin_holtek_dtsub
1286  0085  3C00     E  	sz _builtin_holtek_mant12p[0].7
1286  0086  2800     R  	jmp _L66
1286  0087  2800     R  	jmp _L58
1286  0088              _L66:
1288  0088              #line 1288 "c:\users\longshuangmin\desktop\worke_space\g-501\g-501\adc.c"
1288  0088  0700     R  	mov a,_atan2_2[3]
1288  0089  0080     E  	mov _builtin_holtek_mant12p[0],a
1288  008A  0700     R  	mov a,_atan2_2[2]
文件：adc.c        编译器版本 HGASM 0202 页次35

1288  008B  0080     E  	mov _builtin_holtek_mant1[2],a
1288  008C  0700     R  	mov a,_atan2_2[1]
1288  008D  0080     E  	mov _builtin_holtek_mant1[1],a
1288  008E  0700     R  	mov a,_atan2_2[0]
1288  008F  0080     E  	mov _builtin_holtek_mant1[0],a
1288  0090  0F00        	mov a,0
1288  0091  0080     E  	mov _builtin_holtek_mant12p[1],a
1288  0092  0F00        	mov a,0
1288  0093  0080     E  	mov _builtin_holtek_mant2[2],a
1288  0094  0F00        	mov a,0
1288  0095  0080     E  	mov _builtin_holtek_mant2[1],a
1288  0096  0F00        	mov a,0
1288  0097  0080     E  	mov _builtin_holtek_mant2[0],a
1288  0098              	fcall _builtin_holtek_dtsub
1288  009F  3800     E  	snz _builtin_holtek_mant12p[0].7
1288  00A0  2800     R  	jmp _L67
1291  00A1              #line 1291 "c:\users\longshuangmin\desktop\worke_space\g-501\g-501\adc.c"
1291  00A1  0700     E  	mov a,rg
1291  00A2  0080     E  	mov _builtin_holtek_mant12p[0],a
1291  00A3  0700     E  	mov a,rf
1291  00A4  0080     E  	mov _builtin_holtek_mant1[2],a
1291  00A5  0700     E  	mov a,re
1291  00A6  0080     E  	mov _builtin_holtek_mant1[1],a
1291  00A7  0700     E  	mov a,rd
1291  00A8  0080     E  	mov _builtin_holtek_mant1[0],a
1291  00A9  0F40        	mov a,64
1291  00AA  0080     E  	mov _builtin_holtek_mant12p[1],a
1291  00AB  0F49        	mov a,73
1291  00AC  0080     E  	mov _builtin_holtek_mant2[2],a
1291  00AD  0F0F        	mov a,15
1291  00AE  0080     E  	mov _builtin_holtek_mant2[1],a
1291  00AF  0FDB        	mov a,219
1291  00B0  0080     E  	mov _builtin_holtek_mant2[0],a
1291  00B1              	fcall _builtin_holtek_dtsub
1291  00B8  0700     E  	mov a,_builtin_holtek_mant12p[0]
1291  00B9  0080     E  	mov rg,a
1291  00BA  0700     E  	mov a,_builtin_holtek_mant1[2]
1291  00BB  0080     E  	mov rf,a
1291  00BC  0700     E  	mov a,_builtin_holtek_mant1[1]
1291  00BD  0080     E  	mov re,a
1291  00BE  0700     E  	mov a,_builtin_holtek_mant1[0]
1291  00BF  0080     E  	mov rd,a
1291  00C0  2800     R  	jmp _L58
1291  00C1              _L67:
1289  00C1              #line 1289 "c:\users\longshuangmin\desktop\worke_space\g-501\g-501\adc.c"
1289  00C1  0700     E  	mov a,rg
1289  00C2  0080     E  	mov _builtin_holtek_mant12p[0],a
1289  00C3  0700     E  	mov a,rf
1289  00C4  0080     E  	mov _builtin_holtek_mant1[2],a
1289  00C5  0700     E  	mov a,re
1289  00C6  0080     E  	mov _builtin_holtek_mant1[1],a
1289  00C7  0700     E  	mov a,rd
1289  00C8  0080     E  	mov _builtin_holtek_mant1[0],a
1289  00C9  0F40        	mov a,64
1289  00CA  0080     E  	mov _builtin_holtek_mant12p[1],a
1289  00CB  0F49        	mov a,73
1289  00CC  0080     E  	mov _builtin_holtek_mant2[2],a
1289  00CD  0F0F        	mov a,15
1289  00CE  0080     E  	mov _builtin_holtek_mant2[1],a
1289  00CF  0FDB        	mov a,219
文件：adc.c        编译器版本 HGASM 0202 页次36

1289  00D0  0080     E  	mov _builtin_holtek_mant2[0],a
1289  00D1              	fcall _builtin_holtek_dtadd
1289  00D8  0700     E  	mov a,_builtin_holtek_mant12p[0]
1289  00D9  0080     E  	mov rg,a
1289  00DA  0700     E  	mov a,_builtin_holtek_mant1[2]
1289  00DB  0080     E  	mov rf,a
1289  00DC  0700     E  	mov a,_builtin_holtek_mant1[1]
1289  00DD  0080     E  	mov re,a
1289  00DE  0700     E  	mov a,_builtin_holtek_mant1[0]
1289  00DF  0080     E  	mov rd,a
1289  00E0  2800     R  	jmp _L58
1289  00E1              _L73:
1295  00E1              #line 1295 "c:\users\longshuangmin\desktop\worke_space\g-501\g-501\adc.c"
1295  00E1  0700     R  	mov a,_atan2_2[7]
1295  00E2  0080     E  	mov _builtin_holtek_mant12p[0],a
1295  00E3  0700     R  	mov a,_atan2_2[6]
1295  00E4  0080     E  	mov _builtin_holtek_mant1[2],a
1295  00E5  0700     R  	mov a,_atan2_2[5]
1295  00E6  0080     E  	mov _builtin_holtek_mant1[1],a
1295  00E7  0700     R  	mov a,_atan2_2[4]
1295  00E8  0080     E  	mov _builtin_holtek_mant1[0],a
1295  00E9  0700     R  	mov a,_atan2_2[3]
1295  00EA  0080     E  	mov _builtin_holtek_mant12p[1],a
1295  00EB  0700     R  	mov a,_atan2_2[2]
1295  00EC  0080     E  	mov _builtin_holtek_mant2[2],a
1295  00ED  0700     R  	mov a,_atan2_2[1]
1295  00EE  0080     E  	mov _builtin_holtek_mant2[1],a
1295  00EF  0700     R  	mov a,_atan2_2[0]
1295  00F0  0080     E  	mov _builtin_holtek_mant2[0],a
1295  00F1              	fcall _builtin_holtek_dtdiv
1295  00F8  0700     E  	mov a,_builtin_holtek_mant12p[0]
1295  00F9  0080     E  	mov _atan_2[3],a
1295  00FA  0700     E  	mov a,_builtin_holtek_mant1[2]
1295  00FB  0080     E  	mov _atan_2[2],a
1295  00FC  0700     E  	mov a,_builtin_holtek_mant1[1]
1295  00FD  0080     E  	mov _atan_2[1],a
1295  00FE  0700     E  	mov a,_builtin_holtek_mant1[0]
1295  00FF  0080     E  	mov _atan_2[0],a
1295  0100              	fcall _atan
1296  0107              #line 1296 "c:\users\longshuangmin\desktop\worke_space\g-501\g-501\adc.c"
1296  0107  0700     R  	mov a,_atan2_2[3]
1296  0108  0080     E  	mov _builtin_holtek_mant12p[0],a
1296  0109  0700     R  	mov a,_atan2_2[2]
1296  010A  0080     E  	mov _builtin_holtek_mant1[2],a
1296  010B  0700     R  	mov a,_atan2_2[1]
1296  010C  0080     E  	mov _builtin_holtek_mant1[1],a
1296  010D  0700     R  	mov a,_atan2_2[0]
1296  010E  0080     E  	mov _builtin_holtek_mant1[0],a
1296  010F  0F00        	mov a,0
1296  0110  0080     E  	mov _builtin_holtek_mant12p[1],a
1296  0111  0F00        	mov a,0
1296  0112  0080     E  	mov _builtin_holtek_mant2[2],a
1296  0113  0F00        	mov a,0
1296  0114  0080     E  	mov _builtin_holtek_mant2[1],a
1296  0115  0F00        	mov a,0
1296  0116  0080     E  	mov _builtin_holtek_mant2[0],a
1296  0117              	fcall _builtin_holtek_dtsub
1296  011E  3C00     E  	sz _builtin_holtek_mant12p[0].7
1296  011F  2800     R  	jmp _L68
1299  0120              #line 1299 "c:\users\longshuangmin\desktop\worke_space\g-501\g-501\adc.c"
文件：adc.c        编译器版本 HGASM 0202 页次37

1299  0120  0FDB        	mov a,-37
1299  0121  0080     E  	mov re,a
1299  0122  0F0F        	mov a,15
1299  0123  0080     E  	mov rf,a
1299  0124  0FC9        	mov a,-55
1299  0125  0080     E  	mov rg,a
1299  0126  0F3F        	mov a,63
1299  0127  0080     E  	mov rh,a
1299  0128  0700     E  	mov a,rh
1299  0129  0080     E  	mov _builtin_holtek_mant12p[0],a
1299  012A  0700     E  	mov a,rg
1299  012B  0080     E  	mov _builtin_holtek_mant1[2],a
1299  012C  0700     E  	mov a,rf
1299  012D  0080     E  	mov _builtin_holtek_mant1[1],a
1299  012E  0700     E  	mov a,re
1299  012F  0080     E  	mov _builtin_holtek_mant1[0],a
1299  0130  0700     E  	mov a,rd
1299  0131  0080     E  	mov _builtin_holtek_mant12p[1],a
1299  0132  0700     E  	mov a,rc
1299  0133  0080     E  	mov _builtin_holtek_mant2[2],a
1299  0134  0700     E  	mov a,rb
1299  0135  0080     E  	mov _builtin_holtek_mant2[1],a
1299  0136  0700     E  	mov a,ra
1299  0137  0080     E  	mov _builtin_holtek_mant2[0],a
1299  0138              	fcall _builtin_holtek_dtsub
1299  013F  0700     E  	mov a,_builtin_holtek_mant12p[0]
1299  0140  0080     E  	mov rg,a
1299  0141  0700     E  	mov a,_builtin_holtek_mant1[2]
1299  0142  0080     E  	mov rf,a
1299  0143  0700     E  	mov a,_builtin_holtek_mant1[1]
1299  0144  0080     E  	mov re,a
1299  0145  0700     E  	mov a,_builtin_holtek_mant1[0]
1299  0146  0080     E  	mov rd,a
1299  0147  2800     R  	jmp _L58
1299  0148              _L68:
1295  0148              #line 1295 "c:\users\longshuangmin\desktop\worke_space\g-501\g-501\adc.c"
1295  0148  0700     E  	mov a,rd
1295  0149  0080     E  	mov rg,a
1295  014A  0700     E  	mov a,rc
1295  014B  0080     E  	mov rf,a
1295  014C  0700     E  	mov a,rb
1295  014D  0080     E  	mov re,a
1295  014E  0700     E  	mov a,ra
1295  014F  0080     E  	mov rd,a
1295  0150  0700     E  	mov a,rf
1295  0151  0500     E  	or a,rg
1295  0152  0F80        	mov a,80h
1295  0153  390A        	snz z
1295  0154  0480     E  	xorm a,rg
1297  0155              #line 1297 "c:\users\longshuangmin\desktop\worke_space\g-501\g-501\adc.c"
1297  0155  0700     E  	mov a,rg
1297  0156  0080     E  	mov _builtin_holtek_mant12p[0],a
1297  0157  0700     E  	mov a,rf
1297  0158  0080     E  	mov _builtin_holtek_mant1[2],a
1297  0159  0700     E  	mov a,re
1297  015A  0080     E  	mov _builtin_holtek_mant1[1],a
1297  015B  0700     E  	mov a,rd
1297  015C  0080     E  	mov _builtin_holtek_mant1[0],a
1297  015D  0F3F        	mov a,63
1297  015E  0080     E  	mov _builtin_holtek_mant12p[1],a
文件：adc.c        编译器版本 HGASM 0202 页次38

1297  015F  0FC9        	mov a,201
1297  0160  0080     E  	mov _builtin_holtek_mant2[2],a
1297  0161  0F0F        	mov a,15
1297  0162  0080     E  	mov _builtin_holtek_mant2[1],a
1297  0163  0FDB        	mov a,219
1297  0164  0080     E  	mov _builtin_holtek_mant2[0],a
1297  0165              	fcall _builtin_holtek_dtsub
1297  016C  0700     E  	mov a,_builtin_holtek_mant12p[0]
1297  016D  0080     E  	mov rg,a
1297  016E  0700     E  	mov a,_builtin_holtek_mant1[2]
1297  016F  0080     E  	mov rf,a
1297  0170  0700     E  	mov a,_builtin_holtek_mant1[1]
1297  0171  0080     E  	mov re,a
1297  0172  0700     E  	mov a,_builtin_holtek_mant1[0]
1297  0173  0080     E  	mov rd,a
1297  0174              _L58:
1302  0174              #line 1302 "c:\users\longshuangmin\desktop\worke_space\g-501\g-501\adc.c"
1302  0174  0700     E  	mov a,rd
1302  0175  0080     E  	mov ra,a
1302  0176  0700     E  	mov a,re
1302  0177  0080     E  	mov rb,a
1302  0178  0700     E  	mov a,rf
1302  0179  0080     E  	mov rc,a
1302  017A  0700     E  	mov a,rg
1302  017B  0080     E  	mov rd,a
1302  017C  0003        	ret
1302  017D              _atan2 endp
1302  017D              #line 1302 "c:\users\longshuangmin\desktop\worke_space\g-501\g-501\adc.c"
1302  017D              #pragma debug scope 1 1
1302  017D              public _ADCtoCurrent_Convert
1302  017D              #pragma debug scope 19 1
1307  017D              #line 1307 "c:\users\longshuangmin\desktop\worke_space\g-501\g-501\adc.c"
1307  0000              _ADCtoCurrent_Convert .section 'code'
1307  0000              _ADCtoCurrent_Convert proc
1307  0000              public _ADCtoCurrent_Convert_2
1307  0000  000C[           local _ADCtoCurrent_Convert_2 db 12 dup(?)	; 8,4
            00
            ]
1307  000C              #pragma debug variable 13 19 _ADCtoCurrent_Convert_2+0 "AdcCount"
1307  000C              #pragma debug variable 29 19 _ADCtoCurrent_Convert_2+4 "Res"
1307  000C              #pragma debug variable 29 19 _ADCtoCurrent_Convert_2+8 "Lbuf0"
1310  000C              #line 1310 "c:\users\longshuangmin\desktop\worke_space\g-501\g-501\adc.c"
1310  0000  3C00     R  	sz _ADCtoCurrent_Convert_2[3].7
1310  0001  2800     R  	jmp _L75
1312  0002              #line 1312 "c:\users\longshuangmin\desktop\worke_space\g-501\g-501\adc.c"
1312  0002  0700     R  	mov a,_ADCtoCurrent_Convert_2[0]
1312  0003  0080     E  	mov _builtin_holtek_mulsi3_2[0],a
1312  0004  0700     R  	mov a,_ADCtoCurrent_Convert_2[1]
1312  0005  0080     E  	mov _builtin_holtek_mulsi3_2[1],a
1312  0006  0700     R  	mov a,_ADCtoCurrent_Convert_2[2]
1312  0007  0080     E  	mov _builtin_holtek_mulsi3_2[2],a
1312  0008  0700     R  	mov a,_ADCtoCurrent_Convert_2[3]
1312  0009  0080     E  	mov _builtin_holtek_mulsi3_2[3],a
1312  000A  0FD0        	mov a,208
1312  000B  0080     E  	mov _builtin_holtek_mulsi3_2[4],a
1312  000C  0F07        	mov a,7
1312  000D  0080     E  	mov _builtin_holtek_mulsi3_2[5],a
1312  000E  0F00        	mov a,0
1312  000F  0080     E  	mov _builtin_holtek_mulsi3_2[6],a
1312  0010  0F00        	mov a,0
文件：adc.c        编译器版本 HGASM 0202 页次39

1312  0011  0080     E  	mov _builtin_holtek_mulsi3_2[7],a
1312  0012              	fcall _builtin_holtek_mulsi3
1312  0019  0700     E  	mov a,_builtin_holtek_mulsi3_2[8]
1312  001A  0080     E  	mov rd,a
1312  001B  0700     E  	mov a,_builtin_holtek_mulsi3_2[9]
1312  001C  0080     E  	mov re,a
1312  001D  0700     E  	mov a,_builtin_holtek_mulsi3_2[10]
1312  001E  0080     E  	mov rf,a
1312  001F  0700     E  	mov a,_builtin_holtek_mulsi3_2[11]
1312  0020  0080     E  	mov rg,a
1312  0021  0700     E  	mov a,rg
1312  0022  0080     E  	mov _builtin_holtek_mant12p[0],a
1312  0023  0700     E  	mov a,rf
1312  0024  0080     E  	mov _builtin_holtek_mant1[2],a
1312  0025  0700     E  	mov a,re
1312  0026  0080     E  	mov _builtin_holtek_mant1[1],a
1312  0027  0700     E  	mov a,rd
1312  0028  0080     E  	mov _builtin_holtek_mant1[0],a
1312  0029              	fcall _builtin_holtek_ltod
1312  0030  0700     E  	mov a,_builtin_holtek_mant12p[0]
1312  0031  0080     R  	mov _ADCtoCurrent_Convert_2[11],a
1312  0032  0700     E  	mov a,_builtin_holtek_mant1[2]
1312  0033  0080     R  	mov _ADCtoCurrent_Convert_2[10],a
1312  0034  0700     E  	mov a,_builtin_holtek_mant1[1]
1312  0035  0080     R  	mov _ADCtoCurrent_Convert_2[9],a
1312  0036  0700     E  	mov a,_builtin_holtek_mant1[0]
1312  0037  0080     R  	mov _ADCtoCurrent_Convert_2[8],a
1313  0038              #line 1313 "c:\users\longshuangmin\desktop\worke_space\g-501\g-501\adc.c"
1313  0038  0700     R  	mov a,_ADCtoCurrent_Convert_2[11]
1313  0039  0080     E  	mov _builtin_holtek_mant12p[0],a
1313  003A  0700     R  	mov a,_ADCtoCurrent_Convert_2[10]
1313  003B  0080     E  	mov _builtin_holtek_mant1[2],a
1313  003C  0700     R  	mov a,_ADCtoCurrent_Convert_2[9]
1313  003D  0080     E  	mov _builtin_holtek_mant1[1],a
1313  003E  0700     R  	mov a,_ADCtoCurrent_Convert_2[8]
1313  003F  0080     E  	mov _builtin_holtek_mant1[0],a
1313  0040  0F38        	mov a,56
1313  0041  0080     E  	mov _builtin_holtek_mant12p[1],a
1313  0042  0F00        	mov a,0
1313  0043  0080     E  	mov _builtin_holtek_mant2[2],a
1313  0044  0F00        	mov a,0
1313  0045  0080     E  	mov _builtin_holtek_mant2[1],a
1313  0046  0F00        	mov a,0
1313  0047  0080     E  	mov _builtin_holtek_mant2[0],a
1313  0048              	fcall _builtin_holtek_dtmul
1313  004F  0700     E  	mov a,_builtin_holtek_mant12p[0]
1313  0050  0080     R  	mov _ADCtoCurrent_Convert_2[11],a
1313  0051  0700     E  	mov a,_builtin_holtek_mant1[2]
1313  0052  0080     R  	mov _ADCtoCurrent_Convert_2[10],a
1313  0053  0700     E  	mov a,_builtin_holtek_mant1[1]
1313  0054  0080     R  	mov _ADCtoCurrent_Convert_2[9],a
1313  0055  0700     E  	mov a,_builtin_holtek_mant1[0]
1313  0056  0080     R  	mov _ADCtoCurrent_Convert_2[8],a
1314  0057              #line 1314 "c:\users\longshuangmin\desktop\worke_space\g-501\g-501\adc.c"
1314  0057  0700     R  	mov a,_ADCtoCurrent_Convert_2[11]
1314  0058  0080     E  	mov _builtin_holtek_mant12p[0],a
1314  0059  0700     R  	mov a,_ADCtoCurrent_Convert_2[10]
1314  005A  0080     E  	mov _builtin_holtek_mant1[2],a
1314  005B  0700     R  	mov a,_ADCtoCurrent_Convert_2[9]
1314  005C  0080     E  	mov _builtin_holtek_mant1[1],a
文件：adc.c        编译器版本 HGASM 0202 页次40

1314  005D  0700     R  	mov a,_ADCtoCurrent_Convert_2[8]
1314  005E  0080     E  	mov _builtin_holtek_mant1[0],a
1314  005F  0F44        	mov a,68
1314  0060  0080     E  	mov _builtin_holtek_mant12p[1],a
1314  0061  0F7A        	mov a,122
1314  0062  0080     E  	mov _builtin_holtek_mant2[2],a
1314  0063  0F00        	mov a,0
1314  0064  0080     E  	mov _builtin_holtek_mant2[1],a
1314  0065  0F00        	mov a,0
1314  0066  0080     E  	mov _builtin_holtek_mant2[0],a
1314  0067              	fcall _builtin_holtek_dtmul
1314  006E  0700     E  	mov a,_builtin_holtek_mant12p[0]
1314  006F  0080     R  	mov _ADCtoCurrent_Convert_2[11],a
1314  0070  0700     E  	mov a,_builtin_holtek_mant1[2]
1314  0071  0080     R  	mov _ADCtoCurrent_Convert_2[10],a
1314  0072  0700     E  	mov a,_builtin_holtek_mant1[1]
1314  0073  0080     R  	mov _ADCtoCurrent_Convert_2[9],a
1314  0074  0700     E  	mov a,_builtin_holtek_mant1[0]
1314  0075  0080     R  	mov _ADCtoCurrent_Convert_2[8],a
1315  0076              #line 1315 "c:\users\longshuangmin\desktop\worke_space\g-501\g-501\adc.c"
1315  0076  0700     R  	mov a,_ADCtoCurrent_Convert_2[11]
1315  0077  0080     E  	mov _builtin_holtek_mant12p[0],a
1315  0078  0700     R  	mov a,_ADCtoCurrent_Convert_2[10]
1315  0079  0080     E  	mov _builtin_holtek_mant1[2],a
1315  007A  0700     R  	mov a,_ADCtoCurrent_Convert_2[9]
1315  007B  0080     E  	mov _builtin_holtek_mant1[1],a
1315  007C  0700     R  	mov a,_ADCtoCurrent_Convert_2[8]
1315  007D  0080     E  	mov _builtin_holtek_mant1[0],a
1315  007E  0700     R  	mov a,_ADCtoCurrent_Convert_2[7]
1315  007F  0080     E  	mov _builtin_holtek_mant12p[1],a
1315  0080  0700     R  	mov a,_ADCtoCurrent_Convert_2[6]
1315  0081  0080     E  	mov _builtin_holtek_mant2[2],a
1315  0082  0700     R  	mov a,_ADCtoCurrent_Convert_2[5]
1315  0083  0080     E  	mov _builtin_holtek_mant2[1],a
1315  0084  0700     R  	mov a,_ADCtoCurrent_Convert_2[4]
1315  0085  0080     E  	mov _builtin_holtek_mant2[0],a
1315  0086              	fcall _builtin_holtek_dtdiv
1315  008D  0700     E  	mov a,_builtin_holtek_mant12p[0]
1315  008E  0080     R  	mov _ADCtoCurrent_Convert_2[11],a
1315  008F  0700     E  	mov a,_builtin_holtek_mant1[2]
1315  0090  0080     R  	mov _ADCtoCurrent_Convert_2[10],a
1315  0091  0700     E  	mov a,_builtin_holtek_mant1[1]
1315  0092  0080     R  	mov _ADCtoCurrent_Convert_2[9],a
1315  0093  0700     E  	mov a,_builtin_holtek_mant1[0]
1315  0094  0080     R  	mov _ADCtoCurrent_Convert_2[8],a
1315  0095  2800     R  	jmp _L76
1315  0096              _L75:
1318  0096              #line 1318 "c:\users\longshuangmin\desktop\worke_space\g-501\g-501\adc.c"
1318  0096  1F00     R  	clr _ADCtoCurrent_Convert_2[8]
1318  0097  1F00     R  	clr _ADCtoCurrent_Convert_2[9]
1318  0098  1F00     R  	clr _ADCtoCurrent_Convert_2[10]
1318  0099  1F00     R  	clr _ADCtoCurrent_Convert_2[11]
1318  009A              _L76:
1322  009A              #line 1322 "c:\users\longshuangmin\desktop\worke_space\g-501\g-501\adc.c"
1322  009A  0700     R  	mov a,_ADCtoCurrent_Convert_2[8]
1322  009B  0080     E  	mov ra,a
1322  009C  0700     R  	mov a,_ADCtoCurrent_Convert_2[9]
1322  009D  0080     E  	mov rb,a
1322  009E  0700     R  	mov a,_ADCtoCurrent_Convert_2[10]
1322  009F  0080     E  	mov rc,a
文件：adc.c        编译器版本 HGASM 0202 页次41

1322  00A0  0700     R  	mov a,_ADCtoCurrent_Convert_2[11]
1322  00A1  0080     E  	mov rd,a
1322  00A2  0003        	ret
1322  00A3              _ADCtoCurrent_Convert endp
1322  00A3              #line 1322 "c:\users\longshuangmin\desktop\worke_space\g-501\g-501\adc.c"
1322  00A3              #pragma debug scope 1 1
1322  00A3              public _Current_to_AD_Convert
1322  00A3              #pragma debug scope 20 1
1325  00A3              #line 1325 "c:\users\longshuangmin\desktop\worke_space\g-501\g-501\adc.c"
1325  0000              _Current_to_AD_Convert .section 'code'
1325  0000              _Current_to_AD_Convert proc
1325  0000              public _Current_to_AD_Convert_2
1325  0000  000A[           local _Current_to_AD_Convert_2 db 10 dup(?)	; 6,4
            00
            ]
1325  000A              #pragma debug variable 12 20 _Current_to_AD_Convert_2+0 "Current"
1325  000A              #pragma debug variable 29 20 _Current_to_AD_Convert_2+2 "Res"
1325  000A              #pragma debug variable 29 20 _Current_to_AD_Convert_2+6 "Lbuf0"
1329  000A              #line 1329 "c:\users\longshuangmin\desktop\worke_space\g-501\g-501\adc.c"
1329  0000  0700     R  	mov a,_Current_to_AD_Convert_2[1]
1329  0001  0080     E  	mov _builtin_holtek_mant1[1],a
1329  0002  0700     R  	mov a,_Current_to_AD_Convert_2[0]
1329  0003  0080     E  	mov _builtin_holtek_mant1[0],a
1329  0004  3400     E  	clr _builtin_holtek_signs.0
1329  0005              	fcall _builtin_holtek_uitod
1329  000C  0700     E  	mov a,_builtin_holtek_mant12p[0]
1329  000D  0080     R  	mov _Current_to_AD_Convert_2[9],a
1329  000E  0700     E  	mov a,_builtin_holtek_mant1[2]
1329  000F  0080     R  	mov _Current_to_AD_Convert_2[8],a
1329  0010  0700     E  	mov a,_builtin_holtek_mant1[1]
1329  0011  0080     R  	mov _Current_to_AD_Convert_2[7],a
1329  0012  0700     E  	mov a,_builtin_holtek_mant1[0]
1329  0013  0080     R  	mov _Current_to_AD_Convert_2[6],a
1330  0014              #line 1330 "c:\users\longshuangmin\desktop\worke_space\g-501\g-501\adc.c"
1330  0014  0700     R  	mov a,_Current_to_AD_Convert_2[9]
1330  0015  0080     E  	mov _builtin_holtek_mant12p[0],a
1330  0016  0700     R  	mov a,_Current_to_AD_Convert_2[8]
1330  0017  0080     E  	mov _builtin_holtek_mant1[2],a
1330  0018  0700     R  	mov a,_Current_to_AD_Convert_2[7]
1330  0019  0080     E  	mov _builtin_holtek_mant1[1],a
1330  001A  0700     R  	mov a,_Current_to_AD_Convert_2[6]
1330  001B  0080     E  	mov _builtin_holtek_mant1[0],a
1330  001C  0700     R  	mov a,_Current_to_AD_Convert_2[5]
1330  001D  0080     E  	mov _builtin_holtek_mant12p[1],a
1330  001E  0700     R  	mov a,_Current_to_AD_Convert_2[4]
1330  001F  0080     E  	mov _builtin_holtek_mant2[2],a
1330  0020  0700     R  	mov a,_Current_to_AD_Convert_2[3]
1330  0021  0080     E  	mov _builtin_holtek_mant2[1],a
1330  0022  0700     R  	mov a,_Current_to_AD_Convert_2[2]
1330  0023  0080     E  	mov _builtin_holtek_mant2[0],a
1330  0024              	fcall _builtin_holtek_dtmul
1330  002B  0700     E  	mov a,_builtin_holtek_mant12p[0]
1330  002C  0080     R  	mov _Current_to_AD_Convert_2[9],a
1330  002D  0700     E  	mov a,_builtin_holtek_mant1[2]
1330  002E  0080     R  	mov _Current_to_AD_Convert_2[8],a
1330  002F  0700     E  	mov a,_builtin_holtek_mant1[1]
1330  0030  0080     R  	mov _Current_to_AD_Convert_2[7],a
1330  0031  0700     E  	mov a,_builtin_holtek_mant1[0]
1330  0032  0080     R  	mov _Current_to_AD_Convert_2[6],a
1331  0033              #line 1331 "c:\users\longshuangmin\desktop\worke_space\g-501\g-501\adc.c"
文件：adc.c        编译器版本 HGASM 0202 页次42

1331  0033  0700     R  	mov a,_Current_to_AD_Convert_2[9]
1331  0034  0080     E  	mov _builtin_holtek_mant12p[0],a
1331  0035  0700     R  	mov a,_Current_to_AD_Convert_2[8]
1331  0036  0080     E  	mov _builtin_holtek_mant1[2],a
1331  0037  0700     R  	mov a,_Current_to_AD_Convert_2[7]
1331  0038  0080     E  	mov _builtin_holtek_mant1[1],a
1331  0039  0700     R  	mov a,_Current_to_AD_Convert_2[6]
1331  003A  0080     E  	mov _builtin_holtek_mant1[0],a
1331  003B  0F3C        	mov a,60
1331  003C  0080     E  	mov _builtin_holtek_mant12p[1],a
1331  003D  0F86        	mov a,134
1331  003E  0080     E  	mov _builtin_holtek_mant2[2],a
1331  003F  0F37        	mov a,55
1331  0040  0080     E  	mov _builtin_holtek_mant2[1],a
1331  0041  0FBD        	mov a,189
1331  0042  0080     E  	mov _builtin_holtek_mant2[0],a
1331  0043              	fcall _builtin_holtek_dtmul
1331  004A  0700     E  	mov a,_builtin_holtek_mant12p[0]
1331  004B  0080     R  	mov _Current_to_AD_Convert_2[9],a
1331  004C  0700     E  	mov a,_builtin_holtek_mant1[2]
1331  004D  0080     R  	mov _Current_to_AD_Convert_2[8],a
1331  004E  0700     E  	mov a,_builtin_holtek_mant1[1]
1331  004F  0080     R  	mov _Current_to_AD_Convert_2[7],a
1331  0050  0700     E  	mov a,_builtin_holtek_mant1[0]
1331  0051  0080     R  	mov _Current_to_AD_Convert_2[6],a
1332  0052              #line 1332 "c:\users\longshuangmin\desktop\worke_space\g-501\g-501\adc.c"
1332  0052  0700     R  	mov a,_Current_to_AD_Convert_2[9]
1332  0053  0080     E  	mov _builtin_holtek_mant12p[0],a
1332  0054  0700     R  	mov a,_Current_to_AD_Convert_2[8]
1332  0055  0080     E  	mov _builtin_holtek_mant1[2],a
1332  0056  0700     R  	mov a,_Current_to_AD_Convert_2[7]
1332  0057  0080     E  	mov _builtin_holtek_mant1[1],a
1332  0058  0700     R  	mov a,_Current_to_AD_Convert_2[6]
1332  0059  0080     E  	mov _builtin_holtek_mant1[0],a
1332  005A  0F00        	mov a,0
1332  005B  0080     E  	mov _builtin_holtek_mant12p[1],a
1332  005C  0F00        	mov a,0
1332  005D  0080     E  	mov _builtin_holtek_mant2[2],a
1332  005E  0F00        	mov a,0
1332  005F  0080     E  	mov _builtin_holtek_mant2[1],a
1332  0060  0F00        	mov a,0
1332  0061  0080     E  	mov _builtin_holtek_mant2[0],a
1332  0062              	fcall _builtin_holtek_dtsub
1332  0069  3C00     E  	sz _builtin_holtek_mant12p[0].7
1332  006A  2800     R  	jmp _L80
1332  006B  2800     R  	jmp _L78
1332  006C              _L80:
1333  006C              #line 1333 "c:\users\longshuangmin\desktop\worke_space\g-501\g-501\adc.c"
1333  006C  1F00     R  	clr _Current_to_AD_Convert_2[6]
1333  006D  1F00     R  	clr _Current_to_AD_Convert_2[7]
1333  006E  1F00     R  	clr _Current_to_AD_Convert_2[8]
1333  006F  1F00     R  	clr _Current_to_AD_Convert_2[9]
1333  0070              _L78:
1336  0070              #line 1336 "c:\users\longshuangmin\desktop\worke_space\g-501\g-501\adc.c"
1336  0070  0700     R  	mov a,_Current_to_AD_Convert_2[9]
1336  0071  0080     E  	mov _builtin_holtek_mant12p[0],a
1336  0072  0700     R  	mov a,_Current_to_AD_Convert_2[8]
1336  0073  0080     E  	mov _builtin_holtek_mant1[2],a
1336  0074  0700     R  	mov a,_Current_to_AD_Convert_2[7]
1336  0075  0080     E  	mov _builtin_holtek_mant1[1],a
文件：adc.c        编译器版本 HGASM 0202 页次43

1336  0076  0700     R  	mov a,_Current_to_AD_Convert_2[6]
1336  0077  0080     E  	mov _builtin_holtek_mant1[0],a
1336  0078              	fcall _builtin_holtek_dtol
1336  007F  0700     E  	mov a,_builtin_holtek_mant12p[0]
1336  0080  0080     E  	mov rd,a
1336  0081  0700     E  	mov a,_builtin_holtek_mant1[2]
1336  0082  0080     E  	mov rc,a
1336  0083  0700     E  	mov a,_builtin_holtek_mant1[1]
1336  0084  0080     E  	mov rb,a
1336  0085  0700     E  	mov a,_builtin_holtek_mant1[0]
1336  0086  0080     E  	mov ra,a
1336  0087  0003        	ret
1336  0088              _Current_to_AD_Convert endp
1336  0088              #line 1336 "c:\users\longshuangmin\desktop\worke_space\g-501\g-501\adc.c"
1336  0088              #pragma debug scope 1 1
1336  0088              public _R103KT_TABLE
1336  0000              @crom	.section 'crom'
   3  0000              #line 3 "c:\users\longshuangmin\desktop\worke_space\g-501\g-501\adc.c"
   3  0000              @crom	.section	'crom'
   3  0000              _R103KT_TABLE:
   3  0000              #pragma debug array 43 12 51 1
   3  0000              #pragma debug array 43 12 51 1
   3  0000              #pragma debug variable 43 1 _R103KT_TABLE "R103KT_TABLE"
   3  0000  2F30        	dc 12080
   3  0001  2DE8        	dc 11752
   3  0002  2CA6        	dc 11430
   3  0003  2B6A        	dc 11114
   3  0004  2A34        	dc 10804
   3  0005  2905        	dc 10501
   3  0006  27DB        	dc 10203
   3  0007  26B8        	dc 9912
   3  0008  259B        	dc 9627
   3  0009  2485        	dc 9349
   3  000A  2375        	dc 9077
   3  000B  226C        	dc 8812
   3  000C  2169        	dc 8553
   3  000D  206D        	dc 8301
   3  000E  1F76        	dc 8054
   3  000F  1E87        	dc 7815
   3  0010  1D9D        	dc 7581
   3  0011  1CBA        	dc 7354
   3  0012  1BDD        	dc 7133
   3  0013  1B05        	dc 6917
   3  0014  1A34        	dc 6708
   3  0015  1969        	dc 6505
   3  0016  18A3        	dc 6307
   3  0017  17E3        	dc 6115
   3  0018  1729        	dc 5929
   3  0019  1674        	dc 5748
   3  001A  15C5        	dc 5573
   3  001B  151B        	dc 5403
   3  001C  1476        	dc 5238
   3  001D  13D5        	dc 5077
   3  001E  133A        	dc 4922
   3  001F  12A4        	dc 4772
   3  0020  1212        	dc 4626
   3  0021  1184        	dc 4484
   3  0022  10FC        	dc 4348
   3  0023  1077        	dc 4215
   3  0024  0FF7        	dc 4087
文件：adc.c        编译器版本 HGASM 0202 页次44

   3  0025  0F7A        	dc 3962
   3  0026  0F02        	dc 3842
   3  0027  0E8D        	dc 3725
   3  0028  0E1C        	dc 3612
   3  0029  0DAF        	dc 3503
   3  002A  0D45        	dc 3397
   3  002B  0CDF        	dc 3295
   3  002C  0C7C        	dc 3196
   3  002D  0C1B        	dc 3099
   3  002E  0BBF        	dc 3007
   3  002F  0B65        	dc 2917
   3  0030  0B0E        	dc 2830
   3  0031  0ABA        	dc 2746
   3  0032  0A68        	dc 2664
   3  0033              #pragma debug struct_end
   3  0033              #pragma debug struct_end
   3  0033              #pragma debug union_end
   3  0033              #pragma debug union_end
   3  0033              #pragma debug variable 45 1 ___pa "__pa" 1
   3  0033              #pragma debug struct_end
   3  0033              #pragma debug struct_end
   3  0033              #pragma debug union_end
   3  0033              #pragma debug union_end
   3  0033              #pragma debug variable 47 1 ___pac "__pac" 1
   3  0033              #pragma debug struct_end
   3  0033              #pragma debug struct_end
   3  0033              #pragma debug union_end
   3  0033              #pragma debug union_end
   3  0033              #pragma debug variable 49 1 ___papu "__papu" 1
   3  0033              #pragma debug struct_end
   3  0033              #pragma debug struct_end
   3  0033              #pragma debug union_end
   3  0033              #pragma debug union_end
   3  0033              #pragma debug variable 51 1 ___intc0 "__intc0" 1
   3  0033              #pragma debug struct_end
   3  0033              #pragma debug struct_end
   3  0033              #pragma debug union_end
   3  0033              #pragma debug union_end
   3  0033              #pragma debug variable 53 1 ___pc "__pc" 1
   3  0033              #pragma debug struct_end
   3  0033              #pragma debug struct_end
   3  0033              #pragma debug union_end
   3  0033              #pragma debug union_end
   3  0033              #pragma debug variable 55 1 ___pcc "__pcc" 1
   3  0033              #pragma debug struct_end
   3  0033              #pragma debug struct_end
   3  0033              #pragma debug union_end
   3  0033              #pragma debug union_end
   3  0033              #pragma debug variable 57 1 ___pgac0 "__pgac0" 1
   3  0033              #pragma debug struct_end
   3  0033              #pragma debug struct_end
   3  0033              #pragma debug union_end
   3  0033              #pragma debug union_end
   3  0033              #pragma debug variable 59 1 ___pgac1 "__pgac1" 1
   3  0033              #pragma debug struct_end
   3  0033              #pragma debug struct_end
   3  0033              #pragma debug union_end
   3  0033              #pragma debug union_end
   3  0033              #pragma debug variable 61 1 ___pgacs "__pgacs" 1
   3  0033              #pragma debug struct_end
文件：adc.c        编译器版本 HGASM 0202 页次45

   3  0033              #pragma debug struct_end
   3  0033              #pragma debug union_end
   3  0033              #pragma debug union_end
   3  0033              #pragma debug variable 63 1 ___adcr0 "__adcr0" 1
   3  0033              #pragma debug struct_end
   3  0033              #pragma debug struct_end
   3  0033              #pragma debug union_end
   3  0033              #pragma debug union_end
   3  0033              #pragma debug variable 65 1 ___adcr1 "__adcr1" 1
   3  0033              #pragma debug struct_end
   3  0033              #pragma debug struct_end
   3  0033              #pragma debug union_end
   3  0033              #pragma debug union_end
   3  0033              #pragma debug variable 67 1 ___adcs "__adcs" 1
   3  0033              #pragma debug struct_end
   3  0033              #pragma debug struct_end
   3  0033              #pragma debug union_end
   3  0033              #pragma debug union_end
   3  0033              #pragma debug variable 69 1 ___opa1c "__opa1c" 1
   3  0033              #pragma debug struct_end
   3  0033              #pragma debug struct_end
   3  0033              #pragma debug union_end
   3  0033              #pragma debug union_end
   3  0033              #pragma debug variable 71 1 ___opa2c "__opa2c" 1
   3  0033              #pragma debug struct_end
   3  0033              #pragma debug struct_end
   3  0033              #pragma debug union_end
   3  0033              #pragma debug union_end
   3  0033              #pragma debug variable 73 1 ___gsc1 "__gsc1" 1
   3  0033              #pragma debug struct_end
   3  0033              #pragma debug struct_end
   3  0033              #pragma debug union_end
   3  0033              #pragma debug union_end
   3  0033              #pragma debug variable 75 1 ___gsc2 "__gsc2" 1
   3  0033              #pragma debug struct_end
   3  0033              #pragma debug struct_end
   3  0033              #pragma debug union_end
   3  0033              #pragma debug union_end
   3  0033              #pragma debug variable 77 1 ___gsc3 "__gsc3" 1
   3  0033              #pragma debug struct_end
   3  0033              #pragma debug struct_end
   3  0033              #pragma debug union_end
   3  0033              #pragma debug union_end
   3  0033              #pragma debug variable 79 1 ___bswc0 "__bswc0" 1
   3  0033              #pragma debug struct_end
   3  0033              #pragma debug struct_end
   3  0033              #pragma debug union_end
   3  0033              #pragma debug union_end
   3  0033              #pragma debug variable 81 1 ___bswc1 "__bswc1" 1
   3  0033              #pragma debug struct_end
   3  0033              #pragma debug struct_end
   3  0033              #pragma debug union_end
   3  0033              #pragma debug union_end
   3  0033              #pragma debug variable 83 1 ___bswc2 "__bswc2" 1
   3  0033              #pragma debug struct_end
   3  0033              #pragma debug struct_end
   3  0033              #pragma debug union_end
   3  0033              #pragma debug union_end
   3  0033              #pragma debug variable 85 1 ___pcs0 "__pcs0" 1
   3  0033              
文件：adc.c        编译器版本 HGASM 0202 页次46

   3  0033              ; output external variables
   3  0033              extern _Flag7:byte
   3  0033              extern _SDKADCSourceData:byte
   3  0033              extern _fun_DACVREFInit_2:byte
   3  0033              extern _fun_DACVREFInit:near
   3  0033              extern _builtin_holtek_mant1:byte
   3  0033              extern _builtin_holtek_mant12p:byte
   3  0033              extern _builtin_holtek_itod:near
   3  0033              extern _pow_2:byte
   3  0033              extern _pow:near
   3  0033              extern _builtin_holtek_mant2:byte
   3  0033              extern _builtin_holtek_dtadd:near
   3  0033              extern _sqrt_2:byte
   3  0033              extern _sqrt:near
   3  0033              extern _builtin_holtek_dtdiv:near
   3  0033              extern _builtin_holtek_dtmul:near
   3  0033              extern _fabs_2:byte
   3  0033              extern _fabs:near
   3  0033              extern _builtin_holtek_dtsub:near
   3  0033              extern _atan_2:byte
   3  0033              extern _atan:near
   3  0033              extern _builtin_holtek_mulsi3_2:byte
   3  0033              extern _builtin_holtek_mulsi3:near
   3  0033              extern _builtin_holtek_ltod:near
   3  0033              extern _builtin_holtek_signs:byte
   3  0033              extern _builtin_holtek_uitod:near
   3  0033              extern _builtin_holtek_dtol:near
   3  0033              
   3  0033              ; 
   3  0033              ; Generated by holtek-gcc v3.19, Fri May 23 10:39:35 2025
   3  0033              ; Rebuild 718
   3  0033              ; end of file


        0 Errors, 0