文件：beep.c       编译器版本 HGASM 0202 页次1


   1  0000              ; Generated by holtek-gcc v3.19, Fri May 23 10:39:36 2025
   2  0000              ; 
   3  0000              ; Configuration:
   4  0000              ;       with long instruction
   5  0000              ;       Multi-ROM, Multi-RAM
   6  0000              ;       bits_per_rom_unit:16
   7  0000              ;       with mp1
   8  0000              ;       with tbhp, address(0x9)
   9  0000              ;          Use tabrd-const
  10  0000              ;       
  11  0000              ; SFR address of long-instruction arch:
  12  0000              ;    mp0 = -1,1,0
  13  0000              ;    mp1 = 4,3,2
  14  0000              ;    mp2 = 14,13,12
  15  0000              ;    tbp = 9,7,8
  16  0000              ;    acc = 5
  17  0000              ;    pcl = 6
  18  0000              ;    status = 10
  19  0000              ;    bp = 11
  20  0000              ;    intc = 32
  21  0000              ;       
  22  0000              ;       
  23  0000              ; use 'tabrdc' instead of 'tabrd'
  24  0000              ;       
  25  0000              
  26  0000              #pragma translator "holtek-gcc 4.6.4" "3.19" "build 20130711"
  27  0000              ; Rebuild 718
  28  0000              
  29  0000              ir equ [2]
  30  0000              mp equ [3]
  31  0000              sbp equ [4]
  32  0000              acc equ [5]
  33  0000              bp equ [11]
  34  0000              tblp equ [7]
  35  0000              tbhp equ [9]
  36  0000              status equ [10]
  37  0000              c equ [10].0
  38  0000              ac equ [10].1
  39  0000              z equ [10].2
  40  0000              ov equ [10].3
  41  0000              cz equ [10].6
  42  0000              sc equ [10].7
  43  0000              intc equ [32]
  44  0000              mduwr0 equ [59h]
  45  0000              mduwr1 equ [5ah]
  46  0000              mduwr2 equ [5bh]
  47  0000              mduwr3 equ [5ch]
  48  0000              mduwr4 equ [5dh]
  49  0000              mduwr5 equ [5eh]
  50  0000              mduwrctrl equ [5fh]
  51  0000              
  52  0000              extern ra:byte
  53  0000              extern rb:byte
  54  0000              extern rc:byte
  55  0000              extern rd:byte
  56  0000              extern re:byte
  57  0000              extern rf:byte
  58  0000              extern rg:byte
  59  0000              extern rh:byte
文件：beep.ASM     编译器版本 HGASM 0202 页次2

  60  0000              extern _Crom2Prom:near
  61  0000              extern _Crom2PromNext:near
  62  0000              
  63  0000              RAMBANK 0 @BITDATASEC, @BITDATASEC1
  64  0000              @HCCINIT	.section 'data'
  65  0000              @HCCINIT0	.section 'data'
  66  0000              @BITDATASEC	 .section 'data'
  67  0000              @BITDATASEC1	 .section 'data'
  68  0000              
  69  0000              #pragma debug scope 1 1
  70  0000              	extern __DELAY3:near
  71  0000              	extern __DELAYX3:near
  72  0000              	extern __DELAYX6:near
  73  0000              	extern __DELAYY5:near
  74  0000              	extern __DELAYY3:near
  75  0000              	extern _builtin_holtek_delay_2:byte
  76  0000              ___stmc0 equ [73]
  77  0000              public _BeepReset
  78  0000              #pragma debug scope 2 1

   5  0000              #line 5 "c:\users\longshuangmin\desktop\worke_space\g-501\g-501\beep.c"
   5  0000              _BeepReset .section 'code'
   5  0000              _BeepReset proc
   6  0000              #line 6 "c:\users\longshuangmin\desktop\worke_space\g-501\g-501\beep.c"
   6  0000  35C9        	clr [73].3
   7  0001              #line 7 "c:\users\longshuangmin\desktop\worke_space\g-501\g-501\beep.c"
   7  0001  3400     E  	clr _Flag4[0].1
   8  0002              #line 8 "c:\users\longshuangmin\desktop\worke_space\g-501\g-501\beep.c"
   8  0002  3400     E  	clr _Flag4[0].2
   9  0003              #line 9 "c:\users\longshuangmin\desktop\worke_space\g-501\g-501\beep.c"
   9  0003  3400     E  	clr _Flag4[0].3
  10  0004              #line 10 "c:\users\longshuangmin\desktop\worke_space\g-501\g-501\beep.c"
  10  0004  1F00     E  	clr _M_Beep_Cnt[0]
  10  0005  1F00     E  	clr _M_Beep_Cnt[1]
  10  0006  0003        	ret
  10  0007              _BeepReset endp
  10  0007              #line 10 "c:\users\longshuangmin\desktop\worke_space\g-501\g-501\beep.c"
  10  0007              #pragma debug scope 1 1
  10  0007              ___pbs0 equ [341]
  10  0007              ___stmal equ [77]
  10  0007              ___stmah equ [78]
  10  0007              public _Short_beep
  10  0007              #pragma debug scope 3 1
  14  0007              #line 14 "c:\users\longshuangmin\desktop\worke_space\g-501\g-501\beep.c"
  14  0000              _Short_beep .section 'code'
  14  0000              _Short_beep proc
  15  0000              #line 15 "c:\users\longshuangmin\desktop\worke_space\g-501\g-501\beep.c"
  15  0000  B555 0001   	lclr [341].2
  16  0002              #line 16 "c:\users\longshuangmin\desktop\worke_space\g-501\g-501\beep.c"
  16  0002  B1D5 0001   	lset [341].3
  17  0004              #line 17 "c:\users\longshuangmin\desktop\worke_space\g-501\g-501\beep.c"
  17  0004  35C9        	clr [73].3
  18  0005              #line 18 "c:\users\longshuangmin\desktop\worke_space\g-501\g-501\beep.c"
  18  0005  0FFA        	mov a,250
  18  0006  00CD        	mov [77],a
  19  0007              #line 19 "c:\users\longshuangmin\desktop\worke_space\g-501\g-501\beep.c"
  19  0007  1F4E        	clr [78]
  20  0008              #line 20 "c:\users\longshuangmin\desktop\worke_space\g-501\g-501\beep.c"
  20  0008  31C9        	set [73].3
  21  0009              #line 21 "c:\users\longshuangmin\desktop\worke_space\g-501\g-501\beep.c"
文件：beep.c       编译器版本 HGASM 0202 页次3

  21  0009  0F64        	mov a,100
  21  000A  0080     E  	mov _delay_ms_2[0],a
  21  000B  1F00     E  	clr _delay_ms_2[1]
  21  000C              	fcall _delay_ms
  22  0013              #line 22 "c:\users\longshuangmin\desktop\worke_space\g-501\g-501\beep.c"
  22  0013  35C9        	clr [73].3
  22  0014  0003        	ret
  22  0015              _Short_beep endp
  22  0015              #line 22 "c:\users\longshuangmin\desktop\worke_space\g-501\g-501\beep.c"
  22  0015              #pragma debug scope 1 1
  22  0015              public _BeepProcess
  22  0015              #pragma debug scope 4 1
  26  0015              #line 26 "c:\users\longshuangmin\desktop\worke_space\g-501\g-501\beep.c"
  26  0000              _BeepProcess .section 'code'
  26  0000              _BeepProcess proc
  70  0000              #line 70 "c:\users\longshuangmin\desktop\worke_space\g-501\g-501\beep.c"
  70  0000  3800     E  	snz _Flag4[0].1
  70  0001  2800     R  	jmp _L4
  72  0002              #line 72 "c:\users\longshuangmin\desktop\worke_space\g-501\g-501\beep.c"
  72  0002  0F01        	mov a,1
  72  0003  0300     E  	add a,_M_Beep_Cnt[0]
  72  0004  0080     E  	mov rb,a
  72  0005  0F00        	mov a,0
  72  0006  1300     E  	adc a,_M_Beep_Cnt[1]
  72  0007  0080     E  	mov rc,a
  72  0008  0700     E  	mov a,rb
  72  0009  0080     E  	mov _M_Beep_Cnt[0],a
  72  000A  0700     E  	mov a,rc
  72  000B  0080     E  	mov _M_Beep_Cnt[1],a
  73  000C              #line 73 "c:\users\longshuangmin\desktop\worke_space\g-501\g-501\beep.c"
  73  000C  0700     E  	mov a,rb
  73  000D  0C01        	xor a,1
  73  000E  0500     E  	or a,rc
  73  000F  3D0A        	sz z
  73  0010  2800     R  	jmp _L28
  82  0011              #line 82 "c:\users\longshuangmin\desktop\worke_space\g-501\g-501\beep.c"
  82  0011  0F09        	mov a,9
  82  0012  0200     E  	sub a,rb
  82  0013  0F00        	mov a,0
  82  0014  1200     E  	sbc a,rc
  82  0015  3C0A        	sz c
  82  0016  2800     R  	jmp _L6
  84  0017              #line 84 "c:\users\longshuangmin\desktop\worke_space\g-501\g-501\beep.c"
  84  0017  35C9        	clr [73].3
  85  0018              #line 85 "c:\users\longshuangmin\desktop\worke_space\g-501\g-501\beep.c"
  85  0018  3400     E  	clr _Flag4[0].1
  85  0019  2800     R  	jmp _L27
  85  001A              _L4:
  89  001A              #line 89 "c:\users\longshuangmin\desktop\worke_space\g-501\g-501\beep.c"
  89  001A  3800     E  	snz _Flag4[0].2
  89  001B  2800     R  	jmp _L8
  91  001C              #line 91 "c:\users\longshuangmin\desktop\worke_space\g-501\g-501\beep.c"
  91  001C  0F01        	mov a,1
  91  001D  0300     E  	add a,_M_Beep_Cnt[0]
  91  001E  0080     E  	mov rb,a
  91  001F  0F00        	mov a,0
  91  0020  1300     E  	adc a,_M_Beep_Cnt[1]
  91  0021  0080     E  	mov rc,a
  91  0022  0700     E  	mov a,rb
  91  0023  0080     E  	mov _M_Beep_Cnt[0],a
文件：beep.c       编译器版本 HGASM 0202 页次4

  91  0024  0700     E  	mov a,rc
  91  0025  0080     E  	mov _M_Beep_Cnt[1],a
  92  0026              #line 92 "c:\users\longshuangmin\desktop\worke_space\g-501\g-501\beep.c"
  92  0026  0700     E  	mov a,rb
  92  0027  0C01        	xor a,1
  92  0028  0500     E  	or a,rc
  92  0029  3D0A        	sz z
  92  002A  2800     R  	jmp _L28
 101  002B              #line 101 "c:\users\longshuangmin\desktop\worke_space\g-501\g-501\beep.c"
 101  002B  0700     E  	mov a,rb
 101  002C  0C0A        	xor a,10
 101  002D  0500     E  	or a,rc
 101  002E  390A        	snz z
 101  002F  2800     R  	jmp _L10
 103  0030              #line 103 "c:\users\longshuangmin\desktop\worke_space\g-501\g-501\beep.c"
 103  0030  35C9        	clr [73].3
 103  0031  2800     R  	jmp _L6
 103  0032              _L10:
 105  0032              #line 105 "c:\users\longshuangmin\desktop\worke_space\g-501\g-501\beep.c"
 105  0032  0700     E  	mov a,rb
 105  0033  0C14        	xor a,20
 105  0034  0500     E  	or a,rc
 105  0035  3D0A        	sz z
 105  0036  2800     R  	jmp _L28
 114  0037              #line 114 "c:\users\longshuangmin\desktop\worke_space\g-501\g-501\beep.c"
 114  0037  0700     E  	mov a,rb
 114  0038  0C1E        	xor a,30
 114  0039  0500     E  	or a,rc
 114  003A  390A        	snz z
 114  003B  2800     R  	jmp _L6
 116  003C              #line 116 "c:\users\longshuangmin\desktop\worke_space\g-501\g-501\beep.c"
 116  003C  35C9        	clr [73].3
 117  003D              #line 117 "c:\users\longshuangmin\desktop\worke_space\g-501\g-501\beep.c"
 117  003D  3400     E  	clr _Flag4[0].2
 117  003E  2800     R  	jmp _L27
 117  003F              _L8:
 121  003F              #line 121 "c:\users\longshuangmin\desktop\worke_space\g-501\g-501\beep.c"
 121  003F  3800     E  	snz _Flag4[0].3
 121  0040  2800     R  	jmp _L6
 123  0041              #line 123 "c:\users\longshuangmin\desktop\worke_space\g-501\g-501\beep.c"
 123  0041  0F01        	mov a,1
 123  0042  0300     E  	add a,_M_Beep_Cnt[0]
 123  0043  0080     E  	mov rb,a
 123  0044  0F00        	mov a,0
 123  0045  1300     E  	adc a,_M_Beep_Cnt[1]
 123  0046  0080     E  	mov rc,a
 123  0047  0700     E  	mov a,rb
 123  0048  0080     E  	mov _M_Beep_Cnt[0],a
 123  0049  0700     E  	mov a,rc
 123  004A  0080     E  	mov _M_Beep_Cnt[1],a
 124  004B              #line 124 "c:\users\longshuangmin\desktop\worke_space\g-501\g-501\beep.c"
 124  004B  0700     E  	mov a,rb
 124  004C  0C01        	xor a,1
 124  004D  0500     E  	or a,rc
 124  004E  390A        	snz z
 124  004F  2800     R  	jmp _L13
 124  0050              _L28:
 126  0050              #line 126 "c:\users\longshuangmin\desktop\worke_space\g-501\g-501\beep.c"
 126  0050  B555 0001   	lclr [341].2
 127  0052              #line 127 "c:\users\longshuangmin\desktop\worke_space\g-501\g-501\beep.c"
文件：beep.c       编译器版本 HGASM 0202 页次5

 127  0052  B1D5 0001   	lset [341].3
 128  0054              #line 128 "c:\users\longshuangmin\desktop\worke_space\g-501\g-501\beep.c"
 128  0054  35C9        	clr [73].3
 129  0055              #line 129 "c:\users\longshuangmin\desktop\worke_space\g-501\g-501\beep.c"
 129  0055  0FFA        	mov a,250
 129  0056  00CD        	mov [77],a
 130  0057              #line 130 "c:\users\longshuangmin\desktop\worke_space\g-501\g-501\beep.c"
 130  0057  1F4E        	clr [78]
 131  0058              #line 131 "c:\users\longshuangmin\desktop\worke_space\g-501\g-501\beep.c"
 131  0058  31C9        	set [73].3
 131  0059  2800     R  	jmp _L6
 131  005A              _L13:
 133  005A              #line 133 "c:\users\longshuangmin\desktop\worke_space\g-501\g-501\beep.c"
 133  005A  0F1D        	mov a,29
 133  005B  0200     E  	sub a,rb
 133  005C  0F00        	mov a,0
 133  005D  1200     E  	sbc a,rc
 133  005E  3C0A        	sz c
 133  005F  2800     R  	jmp _L6
 135  0060              #line 135 "c:\users\longshuangmin\desktop\worke_space\g-501\g-501\beep.c"
 135  0060  35C9        	clr [73].3
 136  0061              #line 136 "c:\users\longshuangmin\desktop\worke_space\g-501\g-501\beep.c"
 136  0061  3400     E  	clr _Flag4[0].3
 136  0062              _L27:
 137  0062              #line 137 "c:\users\longshuangmin\desktop\worke_space\g-501\g-501\beep.c"
 137  0062  1F00     E  	clr _M_Beep_Cnt[0]
 137  0063  1F00     E  	clr _M_Beep_Cnt[1]
 137  0064              _L6:
 150  0064              #line 150 "c:\users\longshuangmin\desktop\worke_space\g-501\g-501\beep.c"
 150  0064  3800     E  	snz _Flag4[0].4
 150  0065  2800     R  	jmp _L3
 152  0066              #line 152 "c:\users\longshuangmin\desktop\worke_space\g-501\g-501\beep.c"
 152  0066  0F01        	mov a,1
 152  0067  0300     E  	add a,_M_Beep_Cnt[0]
 152  0068  0080     E  	mov rb,a
 152  0069  0F00        	mov a,0
 152  006A  1300     E  	adc a,_M_Beep_Cnt[1]
 152  006B  0080     E  	mov rc,a
 152  006C  0700     E  	mov a,rb
 152  006D  0080     E  	mov _M_Beep_Cnt[0],a
 152  006E  0700     E  	mov a,rc
 152  006F  0080     E  	mov _M_Beep_Cnt[1],a
 153  0070              #line 153 "c:\users\longshuangmin\desktop\worke_space\g-501\g-501\beep.c"
 153  0070  0700     E  	mov a,rb
 153  0071  0C01        	xor a,1
 153  0072  0500     E  	or a,rc
 153  0073  3D0A        	sz z
 153  0074  2800     R  	jmp _L31
 162  0075              #line 162 "c:\users\longshuangmin\desktop\worke_space\g-501\g-501\beep.c"
 162  0075  0700     E  	mov a,rb
 162  0076  0C14        	xor a,20
 162  0077  0500     E  	or a,rc
 162  0078  3D0A        	sz z
 162  0079  2800     R  	jmp _L30
 166  007A              #line 166 "c:\users\longshuangmin\desktop\worke_space\g-501\g-501\beep.c"
 166  007A  0700     E  	mov a,rb
 166  007B  0C19        	xor a,25
 166  007C  0500     E  	or a,rc
 166  007D  3D0A        	sz z
 166  007E  2800     R  	jmp _L31
文件：beep.c       编译器版本 HGASM 0202 页次6

 175  007F              #line 175 "c:\users\longshuangmin\desktop\worke_space\g-501\g-501\beep.c"
 175  007F  0700     E  	mov a,rb
 175  0080  0C2D        	xor a,45
 175  0081  0500     E  	or a,rc
 175  0082  3D0A        	sz z
 175  0083  2800     R  	jmp _L30
 179  0084              #line 179 "c:\users\longshuangmin\desktop\worke_space\g-501\g-501\beep.c"
 179  0084  0700     E  	mov a,rb
 179  0085  0C32        	xor a,50
 179  0086  0500     E  	or a,rc
 179  0087  390A        	snz z
 179  0088  2800     R  	jmp _L20
 179  0089              _L31:
 181  0089              #line 181 "c:\users\longshuangmin\desktop\worke_space\g-501\g-501\beep.c"
 181  0089  B555 0001   	lclr [341].2
 182  008B              #line 182 "c:\users\longshuangmin\desktop\worke_space\g-501\g-501\beep.c"
 182  008B  B1D5 0001   	lset [341].3
 183  008D              #line 183 "c:\users\longshuangmin\desktop\worke_space\g-501\g-501\beep.c"
 183  008D  35C9        	clr [73].3
 184  008E              #line 184 "c:\users\longshuangmin\desktop\worke_space\g-501\g-501\beep.c"
 184  008E  0F7D        	mov a,125
 184  008F  00CD        	mov [77],a
 185  0090              #line 185 "c:\users\longshuangmin\desktop\worke_space\g-501\g-501\beep.c"
 185  0090  1F4E        	clr [78]
 186  0091              #line 186 "c:\users\longshuangmin\desktop\worke_space\g-501\g-501\beep.c"
 186  0091  31C9        	set [73].3
 186  0092  2800     R  	jmp _L3
 186  0093              _L20:
 188  0093              #line 188 "c:\users\longshuangmin\desktop\worke_space\g-501\g-501\beep.c"
 188  0093  0700     E  	mov a,rb
 188  0094  0C46        	xor a,70
 188  0095  0500     E  	or a,rc
 188  0096  390A        	snz z
 188  0097  2800     R  	jmp _L21
 188  0098              _L30:
 190  0098              #line 190 "c:\users\longshuangmin\desktop\worke_space\g-501\g-501\beep.c"
 190  0098  35C9        	clr [73].3
 190  0099  2800     R  	jmp _L3
 190  009A              _L21:
 192  009A              #line 192 "c:\users\longshuangmin\desktop\worke_space\g-501\g-501\beep.c"
 192  009A  0700     E  	mov a,rb
 192  009B  0C5A        	xor a,90
 192  009C  0500     E  	or a,rc
 192  009D  390A        	snz z
 192  009E  2800     R  	jmp _L3
 194  009F              #line 194 "c:\users\longshuangmin\desktop\worke_space\g-501\g-501\beep.c"
 194  009F  1F00     E  	clr _M_Beep_Cnt[0]
 194  00A0  1F00     E  	clr _M_Beep_Cnt[1]
 194  00A1              _L3:
 194  00A1  0003        	ret
 194  00A2              _BeepProcess endp
 194  00A2              #line 194 "c:\users\longshuangmin\desktop\worke_space\g-501\g-501\beep.c"
 194  00A2              #pragma debug scope 1 1
 194  00A2              #pragma debug struct_end
 194  00A2              #pragma debug struct_end
 194  00A2              #pragma debug union_end
 194  00A2              #pragma debug union_end
 194  00A2              #pragma debug variable 43 1 ___stmc0 "__stmc0" 1
 194  00A2              #pragma debug variable 8 1 ___stmal "__stmal" 1
 194  00A2              #pragma debug variable 8 1 ___stmah "__stmah" 1
文件：beep.c       编译器版本 HGASM 0202 页次7

 194  00A2              #pragma debug struct_end
 194  00A2              #pragma debug struct_end
 194  00A2              #pragma debug union_end
 194  00A2              #pragma debug union_end
 194  00A2              #pragma debug variable 45 1 ___pbs0 "__pbs0" 1
 194  00A2              
 194  00A2              ; output external variables
 194  00A2              extern _M_Beep_Cnt:byte
 194  00A2              extern _Flag4:byte
 194  00A2              extern _delay_ms_2:byte
 194  00A2              extern _delay_ms:near
 194  00A2              
 194  00A2              ; 
 194  00A2              ; Generated by holtek-gcc v3.19, Fri May 23 10:39:36 2025
 194  00A2              ; Rebuild 718
 194  00A2              ; end of file


        0 Errors, 0