文件：BH67F2485_DEMO_20190705.c 编译器版本 HGASM 0202 页次1


   1  0000              ; Generated by holtek-gcc v3.19, Fri May 23 10:39:37 2025
   2  0000              ; 
   3  0000              ; Configuration:
   4  0000              ;       with long instruction
   5  0000              ;       Multi-ROM, Multi-RAM
   6  0000              ;       bits_per_rom_unit:16
   7  0000              ;       with mp1
   8  0000              ;       with tbhp, address(0x9)
   9  0000              ;          Use tabrd-const
  10  0000              ;       
  11  0000              ; SFR address of long-instruction arch:
  12  0000              ;    mp0 = -1,1,0
  13  0000              ;    mp1 = 4,3,2
  14  0000              ;    mp2 = 14,13,12
  15  0000              ;    tbp = 9,7,8
  16  0000              ;    acc = 5
  17  0000              ;    pcl = 6
  18  0000              ;    status = 10
  19  0000              ;    bp = 11
  20  0000              ;    intc = 32
  21  0000              ;       
  22  0000              ;       
  23  0000              ; use 'tabrdc' instead of 'tabrd'
  24  0000              ;       
  25  0000              
  26  0000              #pragma translator "holtek-gcc 4.6.4" "3.19" "build 20130711"
  27  0000              ; Rebuild 718
  28  0000              
  29  0000              ir equ [2]
  30  0000              mp equ [3]
  31  0000              sbp equ [4]
  32  0000              acc equ [5]
  33  0000              bp equ [11]
  34  0000              tblp equ [7]
  35  0000              tbhp equ [9]
  36  0000              status equ [10]
  37  0000              c equ [10].0
  38  0000              ac equ [10].1
  39  0000              z equ [10].2
  40  0000              ov equ [10].3
  41  0000              cz equ [10].6
  42  0000              sc equ [10].7
  43  0000              intc equ [32]
  44  0000              mduwr0 equ [59h]
  45  0000              mduwr1 equ [5ah]
  46  0000              mduwr2 equ [5bh]
  47  0000              mduwr3 equ [5ch]
  48  0000              mduwr4 equ [5dh]
  49  0000              mduwr5 equ [5eh]
  50  0000              mduwrctrl equ [5fh]
  51  0000              
  52  0000              extern ra:byte
  53  0000              extern rb:byte
  54  0000              extern rc:byte
  55  0000              extern rd:byte
  56  0000              extern re:byte
  57  0000              extern rf:byte
  58  0000              extern rg:byte
  59  0000              extern rh:byte
文件：BH67F2485_DEMO_20190705.ASM 编译器版本 HGASM 0202 页次2

  60  0000              extern _Crom2Prom:near
  61  0000              extern _Crom2PromNext:near
  62  0000              
  63  0000              RAMBANK 0 @BITDATASEC, @BITDATASEC1
  64  0000              @HCCINIT	.section 'data'
  65  0000              @HCCINIT0	.section 'data'
  66  0000              @BITDATASEC	 .section 'data'
  67  0000              @BITDATASEC1	 .section 'data'
  68  0000              
  69  0000              #pragma debug scope 1 1
  70  0000              	extern __DELAY3:near
  71  0000              	extern __DELAYX3:near
  72  0000              	extern __DELAYX6:near
  73  0000              	extern __DELAYY5:near
  74  0000              	extern __DELAYY3:near
  75  0000              	extern _builtin_holtek_delay_2:byte
  76  0000              	AP_Main_Address EQU (0x400+0x40)
  77  0000              public _delay
  78  0000              #pragma debug scope 2 1

 126  0000              #line 126 "c:\users\longshuangmin\desktop\worke_space\g-501\g-501\BH67F2485_DEMO_20190705.c"
 126  0000              _delay .section 'code'
 126  0000              _delay proc
 126  0000  00              local _delay_2 db 1 dup(?)	; 0,1
 126  0000  0080     R  	mov _delay_2[0],a
 126  0001              #pragma debug variable 8 2 _delay_2+0 "n"
 126  0001              _L3:
 129  0001              #line 129 "c:\users\longshuangmin\desktop\worke_space\g-501\g-501\BH67F2485_DEMO_20190705.c"
 129  0001  0700     R  	mov a,_delay_2[0]
 129  0002  0080     E  	mov ra,a
 129  0003  1500     E  	deca ra
 129  0004  0080     R  	mov _delay_2[0],a
 129  0005  1080     E  	sz ra
 129  0006  2800     R  	jmp _L3
 129  0007  0003        	ret
 129  0008              _delay endp
 129  0008              #line 129 "c:\users\longshuangmin\desktop\worke_space\g-501\g-501\BH67F2485_DEMO_20190705.c"
 129  0008              #pragma debug scope 1 1
 129  0008              public _delay_ms
 129  0008              #pragma debug scope 3 1
 137  0008              #line 137 "c:\users\longshuangmin\desktop\worke_space\g-501\g-501\BH67F2485_DEMO_20190705.c"
 137  0000              _delay_ms .section 'code'
 137  0000              _delay_ms proc
 137  0000              public _delay_ms_2
 137  0000  0006[           local _delay_ms_2 db 6 dup(?)	; 2,4
            00
            ]
 137  0006              #pragma debug variable 12 3 _delay_ms_2+0 "n"
 137  0006              #pragma debug variable 12 3 _delay_ms_2+4 "i"
 137  0006              #pragma debug variable 12 3 _delay_ms_2+2 "j"
 140  0006              #line 140 "c:\users\longshuangmin\desktop\worke_space\g-501\g-501\BH67F2485_DEMO_20190705.c"
 140  0000  2800     R  	jmp _L6
 140  0001              _L11:
 142  0001              #line 142 "c:\users\longshuangmin\desktop\worke_space\g-501\g-501\BH67F2485_DEMO_20190705.c"
 142  0001  1F00     R  	clr _delay_ms_2[4]
 142  0002  1F00     R  	clr _delay_ms_2[5]
 142  0003              _L7:
 142  0003  0F01        	mov a,1
 142  0004  0200     R  	sub a,_delay_ms_2[4]
 142  0005  0F00        	mov a,0
文件：BH67F2485_DEMO_20190705.c 编译器版本 HGASM 0202 页次3

 142  0006  1200     R  	sbc a,_delay_ms_2[5]
 142  0007  380A        	snz c
 142  0008  2800     R  	jmp _L6
 143  0009              #line 143 "c:\users\longshuangmin\desktop\worke_space\g-501\g-501\BH67F2485_DEMO_20190705.c"
 143  0009  1F00     R  	clr _delay_ms_2[2]
 143  000A  1F00     R  	clr _delay_ms_2[3]
 143  000B              _L8:
 143  000B  0F26        	mov a,38
 143  000C  0200     R  	sub a,_delay_ms_2[2]
 143  000D  0F00        	mov a,0
 143  000E  1200     R  	sbc a,_delay_ms_2[3]
 143  000F  380A        	snz c
 143  0010  2800     R  	jmp _L12
 143  0011  1480     R  	inc _delay_ms_2[2]
 143  0012  3D0A        	sz z
 143  0013  1480     R  	inc _delay_ms_2[3]
 143  0014  2800     R  	jmp _L8
 143  0015              _L12:
 142  0015              #line 142 "c:\users\longshuangmin\desktop\worke_space\g-501\g-501\BH67F2485_DEMO_20190705.c"
 142  0015  1480     R  	inc _delay_ms_2[4]
 142  0016  3D0A        	sz z
 142  0017  1480     R  	inc _delay_ms_2[5]
 142  0018  2800     R  	jmp _L7
 142  0019              _L6:
 140  0019              #line 140 "c:\users\longshuangmin\desktop\worke_space\g-501\g-501\BH67F2485_DEMO_20190705.c"
 140  0019  0700     R  	mov a,_delay_ms_2[0]
 140  001A  0080     E  	mov rb,a
 140  001B  0700     R  	mov a,_delay_ms_2[1]
 140  001C  0080     E  	mov rc,a
 140  001D  0FFF        	mov a,255
 140  001E  0300     E  	add a,rb
 140  001F  0080     R  	mov _delay_ms_2[0],a
 140  0020  0FFF        	mov a,255
 140  0021  1300     E  	adc a,rc
 140  0022  0080     R  	mov _delay_ms_2[1],a
 140  0023  0700     E  	mov a,rb
 140  0024  0500     E  	or a,rc
 140  0025  390A        	snz z
 140  0026  2800     R  	jmp _L11
 140  0027  0003        	ret
 140  0028              _delay_ms endp
 140  0028              #line 140 "c:\users\longshuangmin\desktop\worke_space\g-501\g-501\BH67F2485_DEMO_20190705.c"
 140  0028              #pragma debug scope 1 1
 140  0028              _memkey equ [3712]
 140  0028              _memkey_time equ [3713]
 140  0028              _setkey equ [3715]
 140  0028              _setkey_time equ [3716]
 140  0028              _setkeydown equ [5252]
 140  0028              _setkeydown_time equ [5253]
 140  0028              public _keyinti
 140  0028              #pragma debug scope 4 1
 148  0028              #line 148 "c:\users\longshuangmin\desktop\worke_space\g-501\g-501\BH67F2485_DEMO_20190705.c"
 148  0000              _keyinti .section 'code'
 148  0000              _keyinti proc
 149  0000              #line 149 "c:\users\longshuangmin\desktop\worke_space\g-501\g-501\BH67F2485_DEMO_20190705.c"
 149  0000  DF00 000E   	lclr [3712]
 150  0002              #line 150 "c:\users\longshuangmin\desktop\worke_space\g-501\g-501\BH67F2485_DEMO_20190705.c"
 150  0002  DF01 000E   	lclr [3713]
 150  0004  DF02 000E   	lclr [3714]
 152  0006              #line 152 "c:\users\longshuangmin\desktop\worke_space\g-501\g-501\BH67F2485_DEMO_20190705.c"
文件：BH67F2485_DEMO_20190705.c 编译器版本 HGASM 0202 页次4

 152  0006  DF03 000E   	lclr [3715]
 153  0008              #line 153 "c:\users\longshuangmin\desktop\worke_space\g-501\g-501\BH67F2485_DEMO_20190705.c"
 153  0008  DF04 000E   	lclr [3716]
 153  000A  DF05 000E   	lclr [3717]
 155  000C              #line 155 "c:\users\longshuangmin\desktop\worke_space\g-501\g-501\BH67F2485_DEMO_20190705.c"
 155  000C  DF04 0014   	lclr [5252]
 156  000E              #line 156 "c:\users\longshuangmin\desktop\worke_space\g-501\g-501\BH67F2485_DEMO_20190705.c"
 156  000E  DF05 0014   	lclr [5253]
 156  0010  DF06 0014   	lclr [5254]
 156  0012  0003        	ret
 156  0013              _keyinti endp
 156  0013              #line 156 "c:\users\longshuangmin\desktop\worke_space\g-501\g-501\BH67F2485_DEMO_20190705.c"
 156  0013              #pragma debug scope 1 1
 156  0013              ___pa equ [20]
 156  0013              public _Is_strip_in_sleep_wakeup
 156  0013              #pragma debug scope 5 1
 160  0013              #line 160 "c:\users\longshuangmin\desktop\worke_space\g-501\g-501\BH67F2485_DEMO_20190705.c"
 160  0000              _Is_strip_in_sleep_wakeup .section 'code'
 160  0000              _Is_strip_in_sleep_wakeup proc
 160  0000  0003[           local _Is_strip_in_sleep_wakeup_2 db 3 dup(?)	; 0,3
            00
            ]
 160  0003              #pragma debug variable 12 5 _Is_strip_in_sleep_wakeup_2+0 "con"
 160  0003              #pragma debug variable 8 5 _Is_strip_in_sleep_wakeup_2+2 "result"
 164  0003              #line 164 "c:\users\longshuangmin\desktop\worke_space\g-501\g-501\BH67F2485_DEMO_20190705.c"
 164  0000  0F14        	mov a,20
 164  0001  0080     R  	mov _Is_strip_in_sleep_wakeup_2[0],a
 164  0002  1F00     R  	clr _Is_strip_in_sleep_wakeup_2[1]
 164  0003              _L15:
 166  0003              #line 166 "c:\users\longshuangmin\desktop\worke_space\g-501\g-501\BH67F2485_DEMO_20190705.c"
 166  0003  0FFF        	mov a,255
 166  0004  0300     R  	add a,_Is_strip_in_sleep_wakeup_2[0]
 166  0005  0080     E  	mov rb,a
 166  0006  0FFF        	mov a,255
 166  0007  1300     R  	adc a,_Is_strip_in_sleep_wakeup_2[1]
 166  0008  0080     E  	mov rc,a
 166  0009  0700     E  	mov a,rb
 166  000A  0080     R  	mov _Is_strip_in_sleep_wakeup_2[0],a
 166  000B  0700     E  	mov a,rc
 166  000C  0080     R  	mov _Is_strip_in_sleep_wakeup_2[1],a
 166  000D  0700     E  	mov a,rb
 166  000E  0500     E  	or a,rc
 166  000F  3D0A        	sz z
 166  0010  2800     R  	jmp _L16
 168  0011              #line 168 "c:\users\longshuangmin\desktop\worke_space\g-501\g-501\BH67F2485_DEMO_20190705.c"
 168  0011  3E14        	sz [20].4
 168  0012  2800     R  	jmp _L16
 173  0013              #line 173 "c:\users\longshuangmin\desktop\worke_space\g-501\g-501\BH67F2485_DEMO_20190705.c"
 173  0013  0F01        	mov a,1
 173  0014              	fcall _delay
 173  001B  2800     R  	jmp _L15
 173  001C              _L16:
 175  001C              #line 175 "c:\users\longshuangmin\desktop\worke_space\g-501\g-501\BH67F2485_DEMO_20190705.c"
 175  001C  0700     R  	mov a,_Is_strip_in_sleep_wakeup_2[0]
 175  001D  0500     R  	or a,_Is_strip_in_sleep_wakeup_2[1]
 175  001E  390A        	snz z
 175  001F  2800     R  	jmp _L18
 176  0020              #line 176 "c:\users\longshuangmin\desktop\worke_space\g-501\g-501\BH67F2485_DEMO_20190705.c"
 176  0020  0F01        	mov a,1
 176  0021  0080     R  	mov _Is_strip_in_sleep_wakeup_2[2],a
文件：BH67F2485_DEMO_20190705.c 编译器版本 HGASM 0202 页次5

 176  0022  2800     R  	jmp _L19
 176  0023              _L18:
 178  0023              #line 178 "c:\users\longshuangmin\desktop\worke_space\g-501\g-501\BH67F2485_DEMO_20190705.c"
 178  0023  1F00     R  	clr _Is_strip_in_sleep_wakeup_2[2]
 178  0024              _L19:
 180  0024              #line 180 "c:\users\longshuangmin\desktop\worke_space\g-501\g-501\BH67F2485_DEMO_20190705.c"
 180  0024  0700     R  	mov a,_Is_strip_in_sleep_wakeup_2[2]
 180  0025  0080     E  	mov ra,a
 181  0026              #line 181 "c:\users\longshuangmin\desktop\worke_space\g-501\g-501\BH67F2485_DEMO_20190705.c"
 181  0026  0700     E  	mov a,ra
 181  0027  0003        	ret
 181  0028              _Is_strip_in_sleep_wakeup endp
 181  0028              #line 181 "c:\users\longshuangmin\desktop\worke_space\g-501\g-501\BH67F2485_DEMO_20190705.c"
 181  0028              #pragma debug scope 1 1
 181  0028              ___lvdc equ [26]
 181  0028              _lcd_scan_index equ [4742]
 181  0028              ___lcdc0 equ [304]
 181  0028              ___ptm0c0 equ [80]
 181  0028              ___tb0c equ [45]
 181  0028              ___intc0 equ [32]
 181  0028              _set_temp_25 equ [5257]
 181  0028              ___gsc2 equ [112]
 181  0028              _batlevel equ [3721]
 181  0028              _Start_Detection_flag equ [4746]
 181  0028              _LcdMappingSize equ [4744]
 181  0028              _twokey equ [5259]
 181  0028              ___pc equ [39]
 181  0028              ___pb equ [36]
 181  0028              ___pac equ [21]
 181  0028              ___adcr0 equ [102]
 181  0028              ___sgc equ [120]
 181  0028              ___pwrc equ [106]
 181  0028              ___pgac0 equ [96]
 181  0028              ___irefc equ [107]
 181  0028              ___afeda1c equ [114]
 181  0028              ___afeda2c equ [117]
 181  0028              ___gsc3 equ [113]
 181  0028              ___opa1c equ [109]
 181  0028              ___opa2c equ [110]
 181  0028              ___bopac0 equ [123]
 181  0028              ___bopac1 equ [124]
 181  0028              ___papu equ [22]
 181  0028              ___pcc equ [40]
 181  0028              ___pcpu equ [41]
 181  0028              ___u1cr1 equ [69]
 181  0028              ___scc equ [16]
 181  0028              ___pd equ [308]
 181  0028              public _main_AP
 181  0028              #pragma debug scope 6 1
 190  0028              #line 190 "c:\users\longshuangmin\desktop\worke_space\g-501\g-501\BH67F2485_DEMO_20190705.c"
 190  0000              _main_AP .section at 0440h 'code'
 190  0000              _main_AP proc
 190  0000  0002[           local _main_AP_2 db 2 dup(?)	; 0,2
            00
            ]
 190  0002              #pragma debug variable 8 6 _main_AP_2+0 "temp"
 201  0002              #line 201 "c:\users\longshuangmin\desktop\worke_space\g-501\g-501\BH67F2485_DEMO_20190705.c"
 201  0000              	fcall _Initial_SysClock
 206  0007              #line 206 "c:\users\longshuangmin\desktop\worke_space\g-501\g-501\BH67F2485_DEMO_20190705.c"
 206  0007              	fcall _keyinti
文件：BH67F2485_DEMO_20190705.c 编译器版本 HGASM 0202 页次6

 207  000E              #line 207 "c:\users\longshuangmin\desktop\worke_space\g-501\g-501\BH67F2485_DEMO_20190705.c"
 207  000E  1F00     R  	clr _M_Cbuf0[0]
 207  000F              _L21:
 207  000F              #line 207 "c:\users\longshuangmin\desktop\worke_space\g-501\g-501\BH67F2485_DEMO_20190705.c"
 207  000F  0F96        	mov a,150
 207  0010  0200     R  	sub a,_M_Cbuf0[0]
 207  0011  380A        	snz c
 207  0012  2800     R  	jmp _L138
 209  0013              #line 209 "c:\users\longshuangmin\desktop\worke_space\g-501\g-501\BH67F2485_DEMO_20190705.c"
 209  0013              ;# 209 "c:\users\longshuangmin\desktop\worke_space\g-501\g-501\BH67F2485_DEMO_20190705.c" 1
 209  0013  0001        	clr wdt
 210  0014              #line 210 "c:\users\longshuangmin\desktop\worke_space\g-501\g-501\BH67F2485_DEMO_20190705.c"
 210  0014  0FFA        	mov a,250
 210  0015              	fcall _delay
 207  001C              #line 207 "c:\users\longshuangmin\desktop\worke_space\g-501\g-501\BH67F2485_DEMO_20190705.c"
 207  001C  1480     R  	inc _M_Cbuf0[0]
 207  001D  2800     R  	jmp _L21
 207  001E              _L138:
 217  001E              #line 217 "c:\users\longshuangmin\desktop\worke_space\g-501\g-501\BH67F2485_DEMO_20190705.c"
 217  001E              	fcall _Initial_Sys
 219  0025              #line 219 "c:\users\longshuangmin\desktop\worke_space\g-501\g-501\BH67F2485_DEMO_20190705.c"
 219  0025              	fcall _SystemRAM_clear
 221  002C              #line 221 "c:\users\longshuangmin\desktop\worke_space\g-501\g-501\BH67F2485_DEMO_20190705.c"
 221  002C  0F00        	mov a,0
 221  002D              	fcall _LCD_Clear
 223  0034              #line 223 "c:\users\longshuangmin\desktop\worke_space\g-501\g-501\BH67F2485_DEMO_20190705.c"
 223  0034              	fcall _LCD_Par_init
 225  003B              #line 225 "c:\users\longshuangmin\desktop\worke_space\g-501\g-501\BH67F2485_DEMO_20190705.c"
 225  003B  321A        	set [26].4
 226  003C              #line 226 "c:\users\longshuangmin\desktop\worke_space\g-501\g-501\BH67F2485_DEMO_20190705.c"
 226  003C  DF06 0012   	lclr [4742]
 226  003E  DF07 0012   	lclr [4743]
 226  0040              _L25:
 231  0040              #line 231 "c:\users\longshuangmin\desktop\worke_space\g-501\g-501\BH67F2485_DEMO_20190705.c"
 231  0040  3A9A        	snz [26].5
 231  0041  2800     R  	jmp _L139
 233  0042              #line 233 "c:\users\longshuangmin\desktop\worke_space\g-501\g-501\BH67F2485_DEMO_20190705.c"
 233  0042              ;# 233 "c:\users\longshuangmin\desktop\worke_space\g-501\g-501\BH67F2485_DEMO_20190705.c" 1
 233  0042  0001        	clr wdt
 235  0043              #line 235 "c:\users\longshuangmin\desktop\worke_space\g-501\g-501\BH67F2485_DEMO_20190705.c"
 235  0043  B030 0001   	lset [304].0
 238  0045              #line 238 "c:\users\longshuangmin\desktop\worke_space\g-501\g-501\BH67F2485_DEMO_20190705.c"
 238  0045  3800     R  	snz _Flag1[0].7
 238  0046  2800     R  	jmp _L25
 245  0047              #line 245 "c:\users\longshuangmin\desktop\worke_space\g-501\g-501\BH67F2485_DEMO_20190705.c"
 245  0047  3400     R  	clr _Flag1[0].7
 245  0048  2800     R  	jmp _L25
 245  0049              _L139:
 250  0049              #line 250 "c:\users\longshuangmin\desktop\worke_space\g-501\g-501\BH67F2485_DEMO_20190705.c"
 250  0049              	fcall _Load_System_Vaule
 255  0050              #line 255 "c:\users\longshuangmin\desktop\worke_space\g-501\g-501\BH67F2485_DEMO_20190705.c"
 255  0050              	fcall _Load_VrefDaco_Vaule
 256  0057              #line 256 "c:\users\longshuangmin\desktop\worke_space\g-501\g-501\BH67F2485_DEMO_20190705.c"
 256  0057              	fcall _Load_StripMeas_Vaule
 257  005E              #line 257 "c:\users\longshuangmin\desktop\worke_space\g-501\g-501\BH67F2485_DEMO_20190705.c"
 257  005E              	fcall _Load_RtcTime_Vaule
 261  0065              #line 261 "c:\users\longshuangmin\desktop\worke_space\g-501\g-501\BH67F2485_DEMO_20190705.c"
 261  0065  31D0        	set [80].3
 263  0066              #line 263 "c:\users\longshuangmin\desktop\worke_space\g-501\g-501\BH67F2485_DEMO_20190705.c"
 263  0066  33AD        	set [45].7
文件：BH67F2485_DEMO_20190705.c 编译器版本 HGASM 0202 页次7

 265  0067              #line 265 "c:\users\longshuangmin\desktop\worke_space\g-501\g-501\BH67F2485_DEMO_20190705.c"
 265  0067  3020        	set [32].0
 267  0068              #line 267 "c:\users\longshuangmin\desktop\worke_space\g-501\g-501\BH67F2485_DEMO_20190705.c"
 267  0068  B030 0001   	lset [304].0
 272  006A              #line 272 "c:\users\longshuangmin\desktop\worke_space\g-501\g-501\BH67F2485_DEMO_20190705.c"
 272  006A  0F09        	mov a,9
 272  006B  0080     R  	mov _M_Task[0],a
 273  006C              #line 273 "c:\users\longshuangmin\desktop\worke_space\g-501\g-501\BH67F2485_DEMO_20190705.c"
 273  006C  3F14        	sz [20].6
 273  006D  2800     R  	jmp _L27
 274  006E              #line 274 "c:\users\longshuangmin\desktop\worke_space\g-501\g-501\BH67F2485_DEMO_20190705.c"
 274  006E  0F07        	mov a,7
 274  006F  0080     R  	mov _M_Task[0],a
 274  0070              _L27:
 276  0070              #line 276 "c:\users\longshuangmin\desktop\worke_space\g-501\g-501\BH67F2485_DEMO_20190705.c"
 276  0070  3400     R  	clr _Flag2[0].0
 277  0071              #line 277 "c:\users\longshuangmin\desktop\worke_space\g-501\g-501\BH67F2485_DEMO_20190705.c"
 277  0071  3400     R  	clr _Flag1[0].5
 278  0072              #line 278 "c:\users\longshuangmin\desktop\worke_space\g-501\g-501\BH67F2485_DEMO_20190705.c"
 278  0072  3400     R  	clr _Flag8[0].0
 279  0073              #line 279 "c:\users\longshuangmin\desktop\worke_space\g-501\g-501\BH67F2485_DEMO_20190705.c"
 279  0073  3400     R  	clr _Flag8[0].1
 280  0074              #line 280 "c:\users\longshuangmin\desktop\worke_space\g-501\g-501\BH67F2485_DEMO_20190705.c"
 280  0074  1F00     R  	clr _M_RTC_display[0]
 280  0075  1F00     R  	clr _M_RTC_display[1]
 281  0076              #line 281 "c:\users\longshuangmin\desktop\worke_space\g-501\g-501\BH67F2485_DEMO_20190705.c"
 281  0076  1F00     R  	clr _M_TaskBuf0[0]
 282  0077              #line 282 "c:\users\longshuangmin\desktop\worke_space\g-501\g-501\BH67F2485_DEMO_20190705.c"
 282  0077  1F00     R  	clr _M_TaskBuf1[0]
 283  0078              #line 283 "c:\users\longshuangmin\desktop\worke_space\g-501\g-501\BH67F2485_DEMO_20190705.c"
 283  0078  1F00     R  	clr _M_Log[0]
 283  0079  1F00     R  	clr _M_Log[1]
 284  007A              #line 284 "c:\users\longshuangmin\desktop\worke_space\g-501\g-501\BH67F2485_DEMO_20190705.c"
 284  007A  1F00     R  	clr _M_No_Active_Cnt[0]
 284  007B  1F00     R  	clr _M_No_Active_Cnt[1]
 295  007C              #line 295 "c:\users\longshuangmin\desktop\worke_space\g-501\g-501\BH67F2485_DEMO_20190705.c"
 295  007C  0F01        	mov a,1
 295  007D  0080     E  	mov _Read_EEPROMBuf_2[2],a
 295  007E  0F89        	mov a,low offset _set_temp_25
 295  007F  0080     E  	mov _Read_EEPROMBuf_2[0],a
 295  0080  0F14        	mov a,high offset _set_temp_25
 295  0081  0080     E  	mov _Read_EEPROMBuf_2[1],a
 295  0082  0F7F        	mov a,127
 295  0083              	fcall _Read_EEPROMBuf
 297  008A              #line 297 "c:\users\longshuangmin\desktop\worke_space\g-501\g-501\BH67F2485_DEMO_20190705.c"
 297  008A  0F0A        	mov a,10
 297  008B  0080     R  	mov _M_SinFreq[0],a
 298  008C              #line 298 "c:\users\longshuangmin\desktop\worke_space\g-501\g-501\BH67F2485_DEMO_20190705.c"
 298  008C  0F64        	mov a,100
 298  008D  0080     R  	mov _M_SinGain[0],a
 301  008E              #line 301 "c:\users\longshuangmin\desktop\worke_space\g-501\g-501\BH67F2485_DEMO_20190705.c"
 301  008E              	fcall _fun_AFEPoweronInit
 302  0095              #line 302 "c:\users\longshuangmin\desktop\worke_space\g-501\g-501\BH67F2485_DEMO_20190705.c"
 302  0095              	fcall _fun_CalOPAOffset
 304  009C              #line 304 "c:\users\longshuangmin\desktop\worke_space\g-501\g-501\BH67F2485_DEMO_20190705.c"
 304  009C  32F0        	set [112].5
 304  009D  3670        	clr [112].4
 304  009E  35F0        	clr [112].3
 306  009F              #line 306 "c:\users\longshuangmin\desktop\worke_space\g-501\g-501\BH67F2485_DEMO_20190705.c"
 306  009F  0F1E        	mov a,30
文件：BH67F2485_DEMO_20190705.c 编译器版本 HGASM 0202 页次8

 306  00A0  0080     R  	mov _M_BAT_Energy[0],a
 306  00A1  0F7E        	mov a,126
 306  00A2  0080     R  	mov _M_BAT_Energy[1],a
 307  00A3              #line 307 "c:\users\longshuangmin\desktop\worke_space\g-501\g-501\BH67F2485_DEMO_20190705.c"
 307  00A3  0F03        	mov a,3
 307  00A4  C089 000E   	lmov [3721],a
 307  00A6              _L32:
 356  00A6              #line 356 "c:\users\longshuangmin\desktop\worke_space\g-501\g-501\BH67F2485_DEMO_20190705.c"
 356  00A6              ;# 356 "c:\users\longshuangmin\desktop\worke_space\g-501\g-501\BH67F2485_DEMO_20190705.c" 1
 356  00A6  0001        	clr wdt
 358  00A7              #line 358 "c:\users\longshuangmin\desktop\worke_space\g-501\g-501\BH67F2485_DEMO_20190705.c"
 358  00A7              ;# 358 "c:\users\longshuangmin\desktop\worke_space\g-501\g-501\BH67F2485_DEMO_20190705.c" 1
 358  00A7  0001        	clr wdt
 360  00A8              #line 360 "c:\users\longshuangmin\desktop\worke_space\g-501\g-501\BH67F2485_DEMO_20190705.c"
 360  00A8  3800     R  	snz _Flag2[0].1
 360  00A9  2800     R  	jmp _L29
 360  00AA  DE0A 0012   	lsnz [4746]
 360  00AC  2800     R  	jmp _L29
 362  00AD              #line 362 "c:\users\longshuangmin\desktop\worke_space\g-501\g-501\BH67F2485_DEMO_20190705.c"
 362  00AD              	fcall _LCD_ScanOut1
 363  00B4              #line 363 "c:\users\longshuangmin\desktop\worke_space\g-501\g-501\BH67F2485_DEMO_20190705.c"
 363  00B4  C706 0012   	lmov a,[4742]
 363  00B6  C208 0012   	lsub a,[4744]
 363  00B8  C707 0012   	lmov a,[4743]
 363  00BA  D209 0012   	lsbc a,[4745]
 363  00BC  380A        	snz c
 363  00BD  2800     R  	jmp _L29
 365  00BE              #line 365 "c:\users\longshuangmin\desktop\worke_space\g-501\g-501\BH67F2485_DEMO_20190705.c"
 365  00BE  DF06 0012   	lclr [4742]
 365  00C0  DF07 0012   	lclr [4743]
 366  00C2              #line 366 "c:\users\longshuangmin\desktop\worke_space\g-501\g-501\BH67F2485_DEMO_20190705.c"
 366  00C2  3400     R  	clr _Flag2[0].1
 366  00C3              _L29:
 370  00C3              #line 370 "c:\users\longshuangmin\desktop\worke_space\g-501\g-501\BH67F2485_DEMO_20190705.c"
 370  00C3  3800     R  	snz _Flag1[0].0
 370  00C4  2800     R  	jmp _L32
 374  00C5              #line 374 "c:\users\longshuangmin\desktop\worke_space\g-501\g-501\BH67F2485_DEMO_20190705.c"
 374  00C5  3400     R  	clr _Flag1[0].0
 378  00C6              #line 378 "c:\users\longshuangmin\desktop\worke_space\g-501\g-501\BH67F2485_DEMO_20190705.c"
 378  00C6              	fcall _ScanKey
 380  00CD              #line 380 "c:\users\longshuangmin\desktop\worke_space\g-501\g-501\BH67F2485_DEMO_20190705.c"
 380  00CD              	fcall _BeepProcess
 382  00D4              #line 382 "c:\users\longshuangmin\desktop\worke_space\g-501\g-501\BH67F2485_DEMO_20190705.c"
 382  00D4  1700     R  	sdza _M_Task[0]
 382  00D5  2800     R  	jmp _L33
 382  00D6  0F07        	mov a,7
 382  00D7  0200     R  	sub a,_M_TaskBuf0[0]
 382  00D8  380A        	snz c
 382  00D9  2800     R  	jmp _L34
 382  00DA              _L33:
 387  00DA              #line 387 "c:\users\longshuangmin\desktop\worke_space\g-501\g-501\BH67F2485_DEMO_20190705.c"
 387  00DA              	fcall _BatteryCheckProcess
 387  00E1              _L34:
 390  00E1              #line 390 "c:\users\longshuangmin\desktop\worke_space\g-501\g-501\BH67F2485_DEMO_20190705.c"
 390  00E1  3800     R  	snz _Flag2[0].1
 390  00E2  2800     R  	jmp _L35
 390  00E3  D08A 0012   	lsz [4746]
 390  00E5  2800     R  	jmp _L35
 392  00E6              #line 392 "c:\users\longshuangmin\desktop\worke_space\g-501\g-501\BH67F2485_DEMO_20190705.c"
 392  00E6  3400     R  	clr _Flag2[0].1
文件：BH67F2485_DEMO_20190705.c 编译器版本 HGASM 0202 页次9

 393  00E7              #line 393 "c:\users\longshuangmin\desktop\worke_space\g-501\g-501\BH67F2485_DEMO_20190705.c"
 393  00E7              	fcall _LCD_ScanOut
 393  00EE              _L35:
 395  00EE              #line 395 "c:\users\longshuangmin\desktop\worke_space\g-501\g-501\BH67F2485_DEMO_20190705.c"
 395  00EE  C70B 0014   	lmov a,[5259]
 395  00F0  0A02        	sub a,2
 395  00F1  390A        	snz z
 395  00F2  2800     R  	jmp _L36
 397  00F3              #line 397 "c:\users\longshuangmin\desktop\worke_space\g-501\g-501\BH67F2485_DEMO_20190705.c"
 397  00F3  DF0B 0014   	lclr [5259]
 404  00F5              #line 404 "c:\users\longshuangmin\desktop\worke_space\g-501\g-501\BH67F2485_DEMO_20190705.c"
 404  00F5              	fcall _keyinti
 404  00FC              _L36:
 406  00FC              #line 406 "c:\users\longshuangmin\desktop\worke_space\g-501\g-501\BH67F2485_DEMO_20190705.c"
 406  00FC  0700     R  	mov a,_M_Task[0]
 406  00FD  0A00        	sub a,0
 406  00FE  3D0A        	sz z
 406  00FF  2800     R  	jmp _L38
 406  0100  0A01        	sub a,(1)-(0)
 406  0101  3D0A        	sz z
 406  0102  2800     R  	jmp _L39
 406  0103  0700     R  	mov a,_M_Task[0]
 406  0104  0A02        	sub a,2
 406  0105  3D0A        	sz z
 406  0106  2800     R  	jmp _L40
 406  0107  0A01        	sub a,(3)-(2)
 406  0108  3D0A        	sz z
 406  0109  2800     R  	jmp _L41
 406  010A  0700     R  	mov a,_M_Task[0]
 406  010B  0A04        	sub a,4
 406  010C  3D0A        	sz z
 406  010D  2800     R  	jmp _L42
 406  010E  0A02        	sub a,(6)-(4)
 406  010F  3D0A        	sz z
 406  0110  2800     R  	jmp _L136
 406  0111  0700     R  	mov a,_M_Task[0]
 406  0112  0A07        	sub a,7
 406  0113  3D0A        	sz z
 406  0114  2800     R  	jmp _L44
 406  0115  0A02        	sub a,(9)-(7)
 406  0116  3D0A        	sz z
 406  0117  2800     R  	jmp _L45
 406  0118  0700     R  	mov a,_M_Task[0]
 406  0119  0A0A        	sub a,10
 406  011A  3D0A        	sz z
 406  011B  2800     R  	jmp _L46
 406  011C  0700     R  	mov a,_M_Task[0]
 406  011D  0A0B        	sub a,11
 406  011E  390A        	snz z
 406  011F  2800     R  	jmp _L134
 672  0120              #line 672 "c:\users\longshuangmin\desktop\worke_space\g-501\g-501\BH67F2485_DEMO_20190705.c"
 672  0120              	fcall _ChargerProcess
 673  0127              #line 673 "c:\users\longshuangmin\desktop\worke_space\g-501\g-501\BH67F2485_DEMO_20190705.c"
 673  0127  2800     R  	jmp _L48
 673  0128              _L45:
 412  0128              #line 412 "c:\users\longshuangmin\desktop\worke_space\g-501\g-501\BH67F2485_DEMO_20190705.c"
 412  0128              	fcall _PwrOnMode
 415  012F              #line 415 "c:\users\longshuangmin\desktop\worke_space\g-501\g-501\BH67F2485_DEMO_20190705.c"
 415  012F  2800     R  	jmp _L48
 415  0130              _L38:
文件：BH67F2485_DEMO_20190705.c 编译器版本 HGASM 0202 页次10

 423  0130              #line 423 "c:\users\longshuangmin\desktop\worke_space\g-501\g-501\BH67F2485_DEMO_20190705.c"
 423  0130  3C00     R  	sz _Flag2[0].2
 423  0131  2800     R  	jmp _L50
 426  0132              #line 426 "c:\users\longshuangmin\desktop\worke_space\g-501\g-501\BH67F2485_DEMO_20190705.c"
 426  0132  1F00     R  	clr _M_Strip_Type[0]
 427  0133              #line 427 "c:\users\longshuangmin\desktop\worke_space\g-501\g-501\BH67F2485_DEMO_20190705.c"
 427  0133  3E14        	sz [20].4
 427  0134  2800     R  	jmp _L51
 429  0135              #line 429 "c:\users\longshuangmin\desktop\worke_space\g-501\g-501\BH67F2485_DEMO_20190705.c"
 429  0135  0F01        	mov a,1
 429  0136  0080     R  	mov _M_Strip_Type[0],a
 429  0137              _L51:
 450  0137              #line 450 "c:\users\longshuangmin\desktop\worke_space\g-501\g-501\BH67F2485_DEMO_20190705.c"
 450  0137  0700     R  	mov a,_M_Strip_Type[0]
 450  0138  0080     R  	mov _main_AP_2[1],a
 450  0139  0700     R  	mov a,_main_AP_2[1]
 450  013A  0A00        	sub a,0
 450  013B  3D0A        	sz z
 450  013C  2800     R  	jmp _L52
 450  013D  0A05        	sub a,(5)-(0)
 450  013E  3D0A        	sz z
 450  013F  2800     R  	jmp _L52
 456  0140              #line 456 "c:\users\longshuangmin\desktop\worke_space\g-501\g-501\BH67F2485_DEMO_20190705.c"
 456  0140  0F01        	mov a,1
 456  0141  0080     R  	mov _M_Task[0],a
 459  0142              #line 459 "c:\users\longshuangmin\desktop\worke_space\g-501\g-501\BH67F2485_DEMO_20190705.c"
 459  0142  1F00     R  	clr _M_TaskBuf0[0]
 460  0143              #line 460 "c:\users\longshuangmin\desktop\worke_space\g-501\g-501\BH67F2485_DEMO_20190705.c"
 460  0143  1F00     R  	clr _M_TaskBuf1[0]
 461  0144              #line 461 "c:\users\longshuangmin\desktop\worke_space\g-501\g-501\BH67F2485_DEMO_20190705.c"
 461  0144  1F00     R  	clr _M_RTC_display[0]
 461  0145  1F00     R  	clr _M_RTC_display[1]
 462  0146              #line 462 "c:\users\longshuangmin\desktop\worke_space\g-501\g-501\BH67F2485_DEMO_20190705.c"
 462  0146  1F00     R  	clr _M_No_Active_Cnt[0]
 462  0147  1F00     R  	clr _M_No_Active_Cnt[1]
 468  0148              #line 468 "c:\users\longshuangmin\desktop\worke_space\g-501\g-501\BH67F2485_DEMO_20190705.c"
 468  0148  0F00        	mov a,0
 468  0149              	fcall _LCD_Clear
 470  0150              #line 470 "c:\users\longshuangmin\desktop\worke_space\g-501\g-501\BH67F2485_DEMO_20190705.c"
 470  0150  B030 0001   	lset [304].0
 470  0152              _L52:
 477  0152              #line 477 "c:\users\longshuangmin\desktop\worke_space\g-501\g-501\BH67F2485_DEMO_20190705.c"
 477  0152  D700 000E   	lsdza [3712]
 477  0154  2800     R  	jmp _LI1
 477  0155  2800     R  	jmp _L53
 477  0156              _LI1:
 477  0156  C700 000E   	lmov a,[3712]
 477  0158  0A02        	sub a,2
 477  0159  390A        	snz z
 477  015A  2800     R  	jmp _L54
 477  015B              _L53:
 484  015B              #line 484 "c:\users\longshuangmin\desktop\worke_space\g-501\g-501\BH67F2485_DEMO_20190705.c"
 484  015B  0F04        	mov a,4
 484  015C  0080     R  	mov _M_Task[0],a
 485  015D              #line 485 "c:\users\longshuangmin\desktop\worke_space\g-501\g-501\BH67F2485_DEMO_20190705.c"
 485  015D  1F00     R  	clr _M_TaskBuf0[0]
 486  015E              #line 486 "c:\users\longshuangmin\desktop\worke_space\g-501\g-501\BH67F2485_DEMO_20190705.c"
 486  015E  1F00     R  	clr _M_TaskBuf1[0]
 487  015F              #line 487 "c:\users\longshuangmin\desktop\worke_space\g-501\g-501\BH67F2485_DEMO_20190705.c"
 487  015F  1F00     R  	clr _M_RTC_display[0]
文件：BH67F2485_DEMO_20190705.c 编译器版本 HGASM 0202 页次11

 487  0160  1F00     R  	clr _M_RTC_display[1]
 488  0161              #line 488 "c:\users\longshuangmin\desktop\worke_space\g-501\g-501\BH67F2485_DEMO_20190705.c"
 488  0161  1F00     R  	clr _M_No_Active_Cnt[0]
 488  0162  1F00     R  	clr _M_No_Active_Cnt[1]
 494  0163              #line 494 "c:\users\longshuangmin\desktop\worke_space\g-501\g-501\BH67F2485_DEMO_20190705.c"
 494  0163  0F00        	mov a,0
 494  0164              	fcall _LCD_Clear
 496  016B              #line 496 "c:\users\longshuangmin\desktop\worke_space\g-501\g-501\BH67F2485_DEMO_20190705.c"
 496  016B  B030 0001   	lset [304].0
 496  016D              _L54:
 499  016D              #line 499 "c:\users\longshuangmin\desktop\worke_space\g-501\g-501\BH67F2485_DEMO_20190705.c"
 499  016D  C703 000E   	lmov a,[3715]
 499  016F  0A02        	sub a,2
 499  0170  390A        	snz z
 499  0171  2800     R  	jmp _L50
 501  0172              #line 501 "c:\users\longshuangmin\desktop\worke_space\g-501\g-501\BH67F2485_DEMO_20190705.c"
 501  0172  DF03 000E   	lclr [3715]
 506  0174              #line 506 "c:\users\longshuangmin\desktop\worke_space\g-501\g-501\BH67F2485_DEMO_20190705.c"
 506  0174  0F02        	mov a,2
 506  0175  0080     R  	mov _M_Task[0],a
 507  0176              #line 507 "c:\users\longshuangmin\desktop\worke_space\g-501\g-501\BH67F2485_DEMO_20190705.c"
 507  0176  1F00     R  	clr _M_TaskBuf0[0]
 508  0177              #line 508 "c:\users\longshuangmin\desktop\worke_space\g-501\g-501\BH67F2485_DEMO_20190705.c"
 508  0177  1F00     R  	clr _M_TaskBuf1[0]
 509  0178              #line 509 "c:\users\longshuangmin\desktop\worke_space\g-501\g-501\BH67F2485_DEMO_20190705.c"
 509  0178  1F00     R  	clr _M_RTC_display[0]
 509  0179  1F00     R  	clr _M_RTC_display[1]
 510  017A              #line 510 "c:\users\longshuangmin\desktop\worke_space\g-501\g-501\BH67F2485_DEMO_20190705.c"
 510  017A  1F00     R  	clr _M_No_Active_Cnt[0]
 510  017B  1F00     R  	clr _M_No_Active_Cnt[1]
 518  017C              #line 518 "c:\users\longshuangmin\desktop\worke_space\g-501\g-501\BH67F2485_DEMO_20190705.c"
 518  017C  0F00        	mov a,0
 518  017D              	fcall _LCD_Clear
 520  0184              #line 520 "c:\users\longshuangmin\desktop\worke_space\g-501\g-501\BH67F2485_DEMO_20190705.c"
 520  0184  B030 0001   	lset [304].0
 520  0186              _L50:
 530  0186              #line 530 "c:\users\longshuangmin\desktop\worke_space\g-501\g-501\BH67F2485_DEMO_20190705.c"
 530  0186  3C00     R  	sz _Flag6[0].1
 530  0187  2800     R  	jmp _L56
 530  0188  3C00     R  	sz _Flag6[0].3
 530  0189  2800     R  	jmp _L56
 530  018A  3C00     R  	sz _Flag6[0].5
 530  018B  2800     R  	jmp _L56
 530  018C  3800     R  	snz _Flag6[0].7
 530  018D  2800     R  	jmp _L57
 530  018E              _L56:
 534  018E              #line 534 "c:\users\longshuangmin\desktop\worke_space\g-501\g-501\BH67F2485_DEMO_20190705.c"
 534  018E  0F0A        	mov a,10
 534  018F  0080     R  	mov _M_Task[0],a
 535  0190              #line 535 "c:\users\longshuangmin\desktop\worke_space\g-501\g-501\BH67F2485_DEMO_20190705.c"
 535  0190  1F00     R  	clr _M_TaskBuf0[0]
 536  0191              #line 536 "c:\users\longshuangmin\desktop\worke_space\g-501\g-501\BH67F2485_DEMO_20190705.c"
 536  0191  1F00     R  	clr _M_TaskBuf1[0]
 537  0192              #line 537 "c:\users\longshuangmin\desktop\worke_space\g-501\g-501\BH67F2485_DEMO_20190705.c"
 537  0192  1F00     R  	clr _M_RTC_display[0]
 537  0193  1F00     R  	clr _M_RTC_display[1]
 538  0194              #line 538 "c:\users\longshuangmin\desktop\worke_space\g-501\g-501\BH67F2485_DEMO_20190705.c"
 538  0194  1F00     R  	clr _M_No_Active_Cnt[0]
 538  0195  1F00     R  	clr _M_No_Active_Cnt[1]
 545  0196              #line 545 "c:\users\longshuangmin\desktop\worke_space\g-501\g-501\BH67F2485_DEMO_20190705.c"
文件：BH67F2485_DEMO_20190705.c 编译器版本 HGASM 0202 页次12

 545  0196  0F00        	mov a,0
 545  0197              	fcall _LCD_Clear
 547  019E              #line 547 "c:\users\longshuangmin\desktop\worke_space\g-501\g-501\BH67F2485_DEMO_20190705.c"
 547  019E  B030 0001   	lset [304].0
 547  01A0              _L57:
 550  01A0              #line 550 "c:\users\longshuangmin\desktop\worke_space\g-501\g-501\BH67F2485_DEMO_20190705.c"
 550  01A0  3C27        	sz [39].0
 550  01A1  2800     R  	jmp _L48
 553  01A2              #line 553 "c:\users\longshuangmin\desktop\worke_space\g-501\g-501\BH67F2485_DEMO_20190705.c"
 553  01A2  0F0B        	mov a,11
 553  01A3  0080     R  	mov _M_Task[0],a
 554  01A4              #line 554 "c:\users\longshuangmin\desktop\worke_space\g-501\g-501\BH67F2485_DEMO_20190705.c"
 554  01A4  1F00     R  	clr _M_TaskBuf0[0]
 555  01A5              #line 555 "c:\users\longshuangmin\desktop\worke_space\g-501\g-501\BH67F2485_DEMO_20190705.c"
 555  01A5  1F00     R  	clr _M_TaskBuf1[0]
 556  01A6              #line 556 "c:\users\longshuangmin\desktop\worke_space\g-501\g-501\BH67F2485_DEMO_20190705.c"
 556  01A6  1F00     R  	clr _M_RTC_display[0]
 556  01A7  1F00     R  	clr _M_RTC_display[1]
 557  01A8              #line 557 "c:\users\longshuangmin\desktop\worke_space\g-501\g-501\BH67F2485_DEMO_20190705.c"
 557  01A8  1F00     R  	clr _M_No_Active_Cnt[0]
 557  01A9  1F00     R  	clr _M_No_Active_Cnt[1]
 564  01AA              #line 564 "c:\users\longshuangmin\desktop\worke_space\g-501\g-501\BH67F2485_DEMO_20190705.c"
 564  01AA  0F00        	mov a,0
 564  01AB              	fcall _LCD_Clear
 566  01B2              #line 566 "c:\users\longshuangmin\desktop\worke_space\g-501\g-501\BH67F2485_DEMO_20190705.c"
 566  01B2  B030 0001   	lset [304].0
 566  01B4  2800     R  	jmp _L48
 566  01B5              _L39:
 576  01B5              #line 576 "c:\users\longshuangmin\desktop\worke_space\g-501\g-501\BH67F2485_DEMO_20190705.c"
 576  01B5              	fcall _Normal_Measurement_Mode
 580  01BC              #line 580 "c:\users\longshuangmin\desktop\worke_space\g-501\g-501\BH67F2485_DEMO_20190705.c"
 580  01BC  2800     R  	jmp _L48
 580  01BD              _L42:
 598  01BD              #line 598 "c:\users\longshuangmin\desktop\worke_space\g-501\g-501\BH67F2485_DEMO_20190705.c"
 598  01BD              	fcall _MemoryMode
 601  01C4              #line 601 "c:\users\longshuangmin\desktop\worke_space\g-501\g-501\BH67F2485_DEMO_20190705.c"
 601  01C4  0F01        	mov a,1
 601  01C5  0200     R  	sub a,_M_TaskBuf0[0]
 601  01C6  3C0A        	sz c
 601  01C7  2800     R  	jmp _L59
 602  01C8              #line 602 "c:\users\longshuangmin\desktop\worke_space\g-501\g-501\BH67F2485_DEMO_20190705.c"
 602  01C8              	fcall _Error_meassage_process
 602  01CF              _L59:
 604  01CF              #line 604 "c:\users\longshuangmin\desktop\worke_space\g-501\g-501\BH67F2485_DEMO_20190705.c"
 604  01CF  3E14        	sz [20].4
 604  01D0  2800     R  	jmp _L48
 606  01D1              #line 606 "c:\users\longshuangmin\desktop\worke_space\g-501\g-501\BH67F2485_DEMO_20190705.c"
 606  01D1  DF00 000E   	lclr [3712]
 607  01D3              #line 607 "c:\users\longshuangmin\desktop\worke_space\g-501\g-501\BH67F2485_DEMO_20190705.c"
 607  01D3  DF03 000E   	lclr [3715]
 608  01D5              #line 608 "c:\users\longshuangmin\desktop\worke_space\g-501\g-501\BH67F2485_DEMO_20190705.c"
 608  01D5  1F00     R  	clr _M_Task[0]
 608  01D6  2800     R  	jmp _L48
 608  01D7              _L40:
 629  01D7              #line 629 "c:\users\longshuangmin\desktop\worke_space\g-501\g-501\BH67F2485_DEMO_20190705.c"
 629  01D7              	fcall _RTC_Mode_Setting_Process
 629  01DE              _L136:
 632  01DE              #line 632 "c:\users\longshuangmin\desktop\worke_space\g-501\g-501\BH67F2485_DEMO_20190705.c"
 632  01DE  1E00     R  	snz _M_TaskBuf0[0]
 632  01DF  2800     R  	jmp _L48
文件：BH67F2485_DEMO_20190705.c 编译器版本 HGASM 0202 页次13

 633  01E0              #line 633 "c:\users\longshuangmin\desktop\worke_space\g-501\g-501\BH67F2485_DEMO_20190705.c"
 633  01E0              	fcall _Error_meassage_process
 633  01E7  2800     R  	jmp _L48
 633  01E8              _L46:
 642  01E8              #line 642 "c:\users\longshuangmin\desktop\worke_space\g-501\g-501\BH67F2485_DEMO_20190705.c"
 642  01E8              	fcall _Alarm_Check_Process
 643  01EF              #line 643 "c:\users\longshuangmin\desktop\worke_space\g-501\g-501\BH67F2485_DEMO_20190705.c"
 643  01EF  2800     R  	jmp _L48
 643  01F0              _L44:
 661  01F0              #line 661 "c:\users\longshuangmin\desktop\worke_space\g-501\g-501\BH67F2485_DEMO_20190705.c"
 661  01F0              	fcall _TestingMode
 661  01F7  2800     R  	jmp _L136
 661  01F8              _L41:
 680  01F8              #line 680 "c:\users\longshuangmin\desktop\worke_space\g-501\g-501\BH67F2485_DEMO_20190705.c"
 680  01F8              	fcall _OffMoedProcess
 681  01FF              #line 681 "c:\users\longshuangmin\desktop\worke_space\g-501\g-501\BH67F2485_DEMO_20190705.c"
 681  01FF  2800     R  	jmp _L48
 681  0200              _L134:
 688  0200              #line 688 "c:\users\longshuangmin\desktop\worke_space\g-501\g-501\BH67F2485_DEMO_20190705.c"
 688  0200  0F03        	mov a,3
 688  0201  0080     R  	mov _M_Task[0],a
 689  0202              #line 689 "c:\users\longshuangmin\desktop\worke_space\g-501\g-501\BH67F2485_DEMO_20190705.c"
 689  0202  1F00     R  	clr _M_TaskBuf0[0]
 690  0203              #line 690 "c:\users\longshuangmin\desktop\worke_space\g-501\g-501\BH67F2485_DEMO_20190705.c"
 690  0203  0F01        	mov a,1
 690  0204  0080     R  	mov _M_TaskBuf1[0],a
 691  0205              #line 691 "c:\users\longshuangmin\desktop\worke_space\g-501\g-501\BH67F2485_DEMO_20190705.c"
 691  0205  1F00     R  	clr _M_Log[0]
 691  0206  1F00     R  	clr _M_Log[1]
 692  0207              #line 692 "c:\users\longshuangmin\desktop\worke_space\g-501\g-501\BH67F2485_DEMO_20190705.c"
 692  0207  1F00     R  	clr _M_RTC_display[0]
 692  0208  1F00     R  	clr _M_RTC_display[1]
 693  0209              #line 693 "c:\users\longshuangmin\desktop\worke_space\g-501\g-501\BH67F2485_DEMO_20190705.c"
 693  0209  1F00     R  	clr _M_No_Active_Cnt[0]
 693  020A  1F00     R  	clr _M_No_Active_Cnt[1]
 695  020B              #line 695 "c:\users\longshuangmin\desktop\worke_space\g-501\g-501\BH67F2485_DEMO_20190705.c"
 695  020B  0F00        	mov a,0
 695  020C              	fcall _LCD_Clear
 695  0213              _L48:
 702  0213              #line 702 "c:\users\longshuangmin\desktop\worke_space\g-501\g-501\BH67F2485_DEMO_20190705.c"
 702  0213  1480     R  	inc _M_Halt_Cnt[0]
 704  0214              #line 704 "c:\users\longshuangmin\desktop\worke_space\g-501\g-501\BH67F2485_DEMO_20190705.c"
 704  0214  1E00     R  	snz _M_Task[0]
 704  0215  2800     R  	jmp _L62
 705  0216              #line 705 "c:\users\longshuangmin\desktop\worke_space\g-501\g-501\BH67F2485_DEMO_20190705.c"
 705  0216  1F00     R  	clr _M_Halt_Cnt[0]
 705  0217              _L62:
 707  0217              #line 707 "c:\users\longshuangmin\desktop\worke_space\g-501\g-501\BH67F2485_DEMO_20190705.c"
 707  0217  3B14        	snz [20].6
 707  0218  2800     R  	jmp _L63
 707  0219  3A94        	snz [20].5
 707  021A  2800     R  	jmp _L63
 707  021B  3DA4        	sz [36].3
 707  021C  2800     R  	jmp _L64
 707  021D              _L63:
 708  021D              #line 708 "c:\users\longshuangmin\desktop\worke_space\g-501\g-501\BH67F2485_DEMO_20190705.c"
 708  021D  1F00     R  	clr _M_Halt_Cnt[0]
 708  021E              _L64:
 710  021E              #line 710 "c:\users\longshuangmin\desktop\worke_space\g-501\g-501\BH67F2485_DEMO_20190705.c"
 710  021E  3495        	clr [21].1
文件：BH67F2485_DEMO_20190705.c 编译器版本 HGASM 0202 页次14

 711  021F              #line 711 "c:\users\longshuangmin\desktop\worke_space\g-501\g-501\BH67F2485_DEMO_20190705.c"
 711  021F  3494        	clr [20].1
 713  0220              #line 713 "c:\users\longshuangmin\desktop\worke_space\g-501\g-501\BH67F2485_DEMO_20190705.c"
 713  0220  0F03        	mov a,3
 713  0221  0200     R  	sub a,_M_Halt_Cnt[0]
 713  0222  3C0A        	sz c
 713  0223  2800     R  	jmp _L32
 715  0224              #line 715 "c:\users\longshuangmin\desktop\worke_space\g-501\g-501\BH67F2485_DEMO_20190705.c"
 715  0224  1F00     R  	clr _M_Halt_Cnt[0]
 717  0225              #line 717 "c:\users\longshuangmin\desktop\worke_space\g-501\g-501\BH67F2485_DEMO_20190705.c"
 717  0225  0F00        	mov a,0
 717  0226              	fcall _LCD_Clear
 719  022D              #line 719 "c:\users\longshuangmin\desktop\worke_space\g-501\g-501\BH67F2485_DEMO_20190705.c"
 719  022D  1F00     R  	clr _M_Error_Task[0]
 721  022E              #line 721 "c:\users\longshuangmin\desktop\worke_space\g-501\g-501\BH67F2485_DEMO_20190705.c"
 721  022E  1F00     R  	clr _M_No_Active_Cnt[0]
 721  022F  1F00     R  	clr _M_No_Active_Cnt[1]
 723  0230              #line 723 "c:\users\longshuangmin\desktop\worke_space\g-501\g-501\BH67F2485_DEMO_20190705.c"
 723  0230              	fcall _Initial_HaltSys
 724  0237              #line 724 "c:\users\longshuangmin\desktop\worke_space\g-501\g-501\BH67F2485_DEMO_20190705.c"
 724  0237              	fcall _fun_StripModuleAllOpen
 725  023E              #line 725 "c:\users\longshuangmin\desktop\worke_space\g-501\g-501\BH67F2485_DEMO_20190705.c"
 725  023E  32E6        	set [102].5
 725  023F  3366        	set [102].6
 726  0240              #line 726 "c:\users\longshuangmin\desktop\worke_space\g-501\g-501\BH67F2485_DEMO_20190705.c"
 726  0240  1F78        	clr [120]
 727  0241              #line 727 "c:\users\longshuangmin\desktop\worke_space\g-501\g-501\BH67F2485_DEMO_20190705.c"
 727  0241  37EA        	clr [106].7
 730  0242              #line 730 "c:\users\longshuangmin\desktop\worke_space\g-501\g-501\BH67F2485_DEMO_20190705.c"
 730  0242  37E0        	clr [96].7
 730  0243  3560        	clr [96].2
 730  0244  34E0        	clr [96].1
 730  0245  3460        	clr [96].0
 732  0246              #line 732 "c:\users\longshuangmin\desktop\worke_space\g-501\g-501\BH67F2485_DEMO_20190705.c"
 732  0246  366B        	clr [107].4
 733  0247              #line 733 "c:\users\longshuangmin\desktop\worke_space\g-501\g-501\BH67F2485_DEMO_20190705.c"
 733  0247  1F72        	clr [114]
 734  0248              #line 734 "c:\users\longshuangmin\desktop\worke_space\g-501\g-501\BH67F2485_DEMO_20190705.c"
 734  0248  1F75        	clr [117]
 736  0249              #line 736 "c:\users\longshuangmin\desktop\worke_space\g-501\g-501\BH67F2485_DEMO_20190705.c"
 736  0249  34F1        	clr [113].1
 736  024A  3471        	clr [113].0
 737  024B              #line 737 "c:\users\longshuangmin\desktop\worke_space\g-501\g-501\BH67F2485_DEMO_20190705.c"
 737  024B  35F1        	clr [113].3
 737  024C  3571        	clr [113].2
 739  024D              #line 739 "c:\users\longshuangmin\desktop\worke_space\g-501\g-501\BH67F2485_DEMO_20190705.c"
 739  024D  36ED        	clr [109].5
 740  024E              #line 740 "c:\users\longshuangmin\desktop\worke_space\g-501\g-501\BH67F2485_DEMO_20190705.c"
 740  024E  36EE        	clr [110].5
 741  024F              #line 741 "c:\users\longshuangmin\desktop\worke_space\g-501\g-501\BH67F2485_DEMO_20190705.c"
 741  024F  37FB        	clr [123].7
 741  0250  36FC        	clr [124].5
 743  0251              #line 743 "c:\users\longshuangmin\desktop\worke_space\g-501\g-501\BH67F2485_DEMO_20190705.c"
 743  0251  32F0        	set [112].5
 743  0252  3670        	clr [112].4
 743  0253  35F0        	clr [112].3
 744  0254              #line 744 "c:\users\longshuangmin\desktop\worke_space\g-501\g-501\BH67F2485_DEMO_20190705.c"
 744  0254  3170        	set [112].2
 744  0255  34F0        	clr [112].1
 744  0256  3470        	clr [112].0
文件：BH67F2485_DEMO_20190705.c 编译器版本 HGASM 0202 页次15

 746  0257              #line 746 "c:\users\longshuangmin\desktop\worke_space\g-501\g-501\BH67F2485_DEMO_20190705.c"
 746  0257  3216        	set [22].4
 747  0258              #line 747 "c:\users\longshuangmin\desktop\worke_space\g-501\g-501\BH67F2485_DEMO_20190705.c"
 747  0258  3215        	set [21].4
 763  0259              #line 763 "c:\users\longshuangmin\desktop\worke_space\g-501\g-501\BH67F2485_DEMO_20190705.c"
 763  0259  32A8        	set [40].5
 764  025A              #line 764 "c:\users\longshuangmin\desktop\worke_space\g-501\g-501\BH67F2485_DEMO_20190705.c"
 764  025A  32A9        	set [41].5
 765  025B              #line 765 "c:\users\longshuangmin\desktop\worke_space\g-501\g-501\BH67F2485_DEMO_20190705.c"
 765  025B  3095        	set [21].1
 766  025C              #line 766 "c:\users\longshuangmin\desktop\worke_space\g-501\g-501\BH67F2485_DEMO_20190705.c"
 766  025C  3496        	clr [22].1
 775  025D              #line 775 "c:\users\longshuangmin\desktop\worke_space\g-501\g-501\BH67F2485_DEMO_20190705.c"
 775  025D  3495        	clr [21].1
 776  025E              #line 776 "c:\users\longshuangmin\desktop\worke_space\g-501\g-501\BH67F2485_DEMO_20190705.c"
 776  025E  3494        	clr [20].1
 778  025F              #line 778 "c:\users\longshuangmin\desktop\worke_space\g-501\g-501\BH67F2485_DEMO_20190705.c"
 778  025F  35A8        	clr [40].3
 779  0260              #line 779 "c:\users\longshuangmin\desktop\worke_space\g-501\g-501\BH67F2485_DEMO_20190705.c"
 779  0260  35A9        	clr [41].3
 780  0261              #line 780 "c:\users\longshuangmin\desktop\worke_space\g-501\g-501\BH67F2485_DEMO_20190705.c"
 780  0261  31A7        	set [39].3
 792  0262              #line 792 "c:\users\longshuangmin\desktop\worke_space\g-501\g-501\BH67F2485_DEMO_20190705.c"
 792  0262  37C5        	clr [69].7
 794  0263              #line 794 "c:\users\longshuangmin\desktop\worke_space\g-501\g-501\BH67F2485_DEMO_20190705.c"
 794  0263  B430 0001   	lclr [304].0
 796  0265              #line 796 "c:\users\longshuangmin\desktop\worke_space\g-501\g-501\BH67F2485_DEMO_20190705.c"
 796  0265  35D0        	clr [80].3
 800  0266              #line 800 "c:\users\longshuangmin\desktop\worke_space\g-501\g-501\BH67F2485_DEMO_20190705.c"
 800  0266  3020        	set [32].0
 803  0267              #line 803 "c:\users\longshuangmin\desktop\worke_space\g-501\g-501\BH67F2485_DEMO_20190705.c"
 803  0267  3490        	clr [16].1
 804  0268              #line 804 "c:\users\longshuangmin\desktop\worke_space\g-501\g-501\BH67F2485_DEMO_20190705.c"
 804  0268  3010        	set [16].0
 806  0269              #line 806 "c:\users\longshuangmin\desktop\worke_space\g-501\g-501\BH67F2485_DEMO_20190705.c"
 806  0269  0F01        	mov a,1
 806  026A  0080     R  	mov _main_AP_2[0],a
 807  026B              #line 807 "c:\users\longshuangmin\desktop\worke_space\g-501\g-501\BH67F2485_DEMO_20190705.c"
 807  026B  B734 0001   	lclr [308].6
 813  026D              #line 813 "c:\users\longshuangmin\desktop\worke_space\g-501\g-501\BH67F2485_DEMO_20190705.c"
 813  026D  3B14        	snz [20].6
 813  026E  2800     R  	jmp _L67
 813  026F  3A94        	snz [20].5
 813  0270  2800     R  	jmp _L67
 813  0271  3A14        	snz [20].4
 813  0272  2800     R  	jmp _L67
 813  0273  3D94        	sz [20].3
 813  0274  2800     R  	jmp _L80
 813  0275              _L67:
 814  0275              #line 814 "c:\users\longshuangmin\desktop\worke_space\g-501\g-501\BH67F2485_DEMO_20190705.c"
 814  0275  3000     R  	set _Flag2[0].2
 814  0276  2800     R  	jmp _L80
 814  0277              _L81:
 819  0277              #line 819 "c:\users\longshuangmin\desktop\worke_space\g-501\g-501\BH67F2485_DEMO_20190705.c"
 819  0277              ;# 819 "c:\users\longshuangmin\desktop\worke_space\g-501\g-501\BH67F2485_DEMO_20190705.c" 1
 819  0277  0001        	clr wdt
 820  0278              #line 820 "c:\users\longshuangmin\desktop\worke_space\g-501\g-501\BH67F2485_DEMO_20190705.c"
 820  0278  3490        	clr [16].1
 821  0279              #line 821 "c:\users\longshuangmin\desktop\worke_space\g-501\g-501\BH67F2485_DEMO_20190705.c"
 821  0279  3010        	set [16].0
文件：BH67F2485_DEMO_20190705.c 编译器版本 HGASM 0202 页次16

 823  027A              #line 823 "c:\users\longshuangmin\desktop\worke_space\g-501\g-501\BH67F2485_DEMO_20190705.c"
 823  027A              ;# 823 "c:\users\longshuangmin\desktop\worke_space\g-501\g-501\BH67F2485_DEMO_20190705.c" 1
 823  027A  0002        	halt
 830  027B              #line 830 "c:\users\longshuangmin\desktop\worke_space\g-501\g-501\BH67F2485_DEMO_20190705.c"
 830  027B  3800     R  	snz _Flag2[0].2
 830  027C  2800     R  	jmp _L140
 830  027D              _L71:
 844  027D              #line 844 "c:\users\longshuangmin\desktop\worke_space\g-501\g-501\BH67F2485_DEMO_20190705.c"
 844  027D  3C00     R  	sz _Flag6[0].1
 844  027E  2800     R  	jmp _L75
 844  027F  3C00     R  	sz _Flag6[0].3
 844  0280  2800     R  	jmp _L75
 844  0281  3C00     R  	sz _Flag6[0].5
 844  0282  2800     R  	jmp _L75
 844  0283  3C00     R  	sz _Flag6[0].7
 844  0284  2800     R  	jmp _L75
 844  0285              _L76:
 850  0285              #line 850 "c:\users\longshuangmin\desktop\worke_space\g-501\g-501\BH67F2485_DEMO_20190705.c"
 850  0285  3F14        	sz [20].6
 850  0286  2800     R  	jmp _L141
 850  0287              _L77:
 857  0287              #line 857 "c:\users\longshuangmin\desktop\worke_space\g-501\g-501\BH67F2485_DEMO_20190705.c"
 857  0287  3C27        	sz [39].0
 857  0288  2800     R  	jmp _L78
 858  0289              #line 858 "c:\users\longshuangmin\desktop\worke_space\g-501\g-501\BH67F2485_DEMO_20190705.c"
 858  0289  1F00     R  	clr _main_AP_2[0]
 858  028A              _L78:
 861  028A              #line 861 "c:\users\longshuangmin\desktop\worke_space\g-501\g-501\BH67F2485_DEMO_20190705.c"
 861  028A  1080     R  	sz _main_AP_2[0]
 861  028B  2800     R  	jmp _L80
 864  028C              #line 864 "c:\users\longshuangmin\desktop\worke_space\g-501\g-501\BH67F2485_DEMO_20190705.c"
 864  028C  3090        	set [16].1
 865  028D              #line 865 "c:\users\longshuangmin\desktop\worke_space\g-501\g-501\BH67F2485_DEMO_20190705.c"
 865  028D  3010        	set [16].0
 875  028E              #line 875 "c:\users\longshuangmin\desktop\worke_space\g-501\g-501\BH67F2485_DEMO_20190705.c"
 875  028E              	fcall _Initial_Sys
 881  0295              #line 881 "c:\users\longshuangmin\desktop\worke_space\g-501\g-501\BH67F2485_DEMO_20190705.c"
 881  0295              	fcall _fun_AFEPoweronInit
 899  029C              #line 899 "c:\users\longshuangmin\desktop\worke_space\g-501\g-501\BH67F2485_DEMO_20190705.c"
 899  029C  31D0        	set [80].3
 903  029D              #line 903 "c:\users\longshuangmin\desktop\worke_space\g-501\g-501\BH67F2485_DEMO_20190705.c"
 903  029D  3020        	set [32].0
 914  029E              #line 914 "c:\users\longshuangmin\desktop\worke_space\g-501\g-501\BH67F2485_DEMO_20190705.c"
 914  029E  3400     R  	clr _Flag2[0].0
 915  029F              #line 915 "c:\users\longshuangmin\desktop\worke_space\g-501\g-501\BH67F2485_DEMO_20190705.c"
 915  029F  3400     R  	clr _Flag1[0].5
 916  02A0              #line 916 "c:\users\longshuangmin\desktop\worke_space\g-501\g-501\BH67F2485_DEMO_20190705.c"
 916  02A0  1F00     R  	clr _M_RTC_display[0]
 916  02A1  1F00     R  	clr _M_RTC_display[1]
 917  02A2              #line 917 "c:\users\longshuangmin\desktop\worke_space\g-501\g-501\BH67F2485_DEMO_20190705.c"
 917  02A2  1F00     R  	clr _M_TaskBuf0[0]
 918  02A3              #line 918 "c:\users\longshuangmin\desktop\worke_space\g-501\g-501\BH67F2485_DEMO_20190705.c"
 918  02A3  1F00     R  	clr _M_TaskBuf1[0]
 919  02A4              #line 919 "c:\users\longshuangmin\desktop\worke_space\g-501\g-501\BH67F2485_DEMO_20190705.c"
 919  02A4  1F00     R  	clr _M_Log[0]
 919  02A5  1F00     R  	clr _M_Log[1]
 920  02A6              #line 920 "c:\users\longshuangmin\desktop\worke_space\g-501\g-501\BH67F2485_DEMO_20190705.c"
 920  02A6  3400     R  	clr _Flag7[0].4
 921  02A7              #line 921 "c:\users\longshuangmin\desktop\worke_space\g-501\g-501\BH67F2485_DEMO_20190705.c"
 921  02A7  1F00     R  	clr _M_No_Active_Cnt[0]
文件：BH67F2485_DEMO_20190705.c 编译器版本 HGASM 0202 页次17

 921  02A8  1F00     R  	clr _M_No_Active_Cnt[1]
 922  02A9              #line 922 "c:\users\longshuangmin\desktop\worke_space\g-501\g-501\BH67F2485_DEMO_20190705.c"
 922  02A9  DF00 000E   	lclr [3712]
 923  02AB              #line 923 "c:\users\longshuangmin\desktop\worke_space\g-501\g-501\BH67F2485_DEMO_20190705.c"
 923  02AB  DF03 000E   	lclr [3715]
 924  02AD              #line 924 "c:\users\longshuangmin\desktop\worke_space\g-501\g-501\BH67F2485_DEMO_20190705.c"
 924  02AD  DF0B 0014   	lclr [5259]
 924  02AF              _L80:
 817  02AF              #line 817 "c:\users\longshuangmin\desktop\worke_space\g-501\g-501\BH67F2485_DEMO_20190705.c"
 817  02AF  1080     R  	sz _main_AP_2[0]
 817  02B0  2800     R  	jmp _L81
 817  02B1  2800     R  	jmp _L32
 817  02B2              _L140:
 834  02B2              #line 834 "c:\users\longshuangmin\desktop\worke_space\g-501\g-501\BH67F2485_DEMO_20190705.c"
 834  02B2  3E14        	sz [20].4
 834  02B3  2800     R  	jmp _L72
 835  02B4              #line 835 "c:\users\longshuangmin\desktop\worke_space\g-501\g-501\BH67F2485_DEMO_20190705.c"
 835  02B4  1F00     R  	clr _main_AP_2[0]
 835  02B5              _L72:
 836  02B5              #line 836 "c:\users\longshuangmin\desktop\worke_space\g-501\g-501\BH67F2485_DEMO_20190705.c"
 836  02B5  3B14        	snz [20].6
 836  02B6  2800     R  	jmp _L73
 836  02B7  3E94        	sz [20].5
 836  02B8  2800     R  	jmp _L71
 836  02B9              _L73:
 837  02B9              #line 837 "c:\users\longshuangmin\desktop\worke_space\g-501\g-501\BH67F2485_DEMO_20190705.c"
 837  02B9  1F00     R  	clr _main_AP_2[0]
 837  02BA  2800     R  	jmp _L71
 837  02BB              _L75:
 846  02BB              #line 846 "c:\users\longshuangmin\desktop\worke_space\g-501\g-501\BH67F2485_DEMO_20190705.c"
 846  02BB  1F00     R  	clr _main_AP_2[0]
 846  02BC  2800     R  	jmp _L76
 846  02BD              _L141:
 850  02BD              #line 850 "c:\users\longshuangmin\desktop\worke_space\g-501\g-501\BH67F2485_DEMO_20190705.c"
 850  02BD  3A94        	snz [20].5
 850  02BE  2800     R  	jmp _L77
 850  02BF  3A14        	snz [20].4
 850  02C0  2800     R  	jmp _L77
 850  02C1  3994        	snz [20].3
 850  02C2  2800     R  	jmp _L77
 854  02C3              #line 854 "c:\users\longshuangmin\desktop\worke_space\g-501\g-501\BH67F2485_DEMO_20190705.c"
 854  02C3  3400     R  	clr _Flag2[0].2
 854  02C4  2800     R  	jmp _L77
 854  02C5  0003        	ret
 854  02C6              _main_AP endp
 854  02C6              #line 854 "c:\users\longshuangmin\desktop\worke_space\g-501\g-501\BH67F2485_DEMO_20190705.c"
 854  02C6              #pragma debug scope 1 1
 854  02C6              public _LeapYear_TABLE
 854  0000              @crom	.section 'crom'
 119  0000              #line 119 "c:\users\longshuangmin\desktop\worke_space\g-501\g-501\BH67F2485_DEMO_20190705.c"
 119  0000              @crom	.section	'crom'
 119  0000              _LeapYear_TABLE:
 119  0000              #pragma debug array 42 8 22 1
 119  0000              #pragma debug array 42 8 22 1
 119  0000              #pragma debug variable 42 1 _LeapYear_TABLE "LeapYear_TABLE"
 119  0000              	db 12
 119  0001              	db 16
 119  0001              	db 20
 119  0002              	db 24
 119  0002              	db 28
文件：BH67F2485_DEMO_20190705.c 编译器版本 HGASM 0202 页次18

 119  0003              	db 32
 119  0003              	db 36
 119  0004              	db 40
 119  0004              	db 44
 119  0005              	db 48
 119  0005              	db 52
 119  0006              	db 56
 119  0006              	db 60
 119  0007              	db 64
 119  0007              	db 68
 119  0008              	db 72
 119  0008              	db 76
 119  0009              	db 80
 119  0009              	db 84
 119  000A              	db 88
 119  000A              	db 92
 119  000B              	db 96
 119  000B              public _Month_TABLE2
 116  000B              #line 116 "c:\users\longshuangmin\desktop\worke_space\g-501\g-501\BH67F2485_DEMO_20190705.c"
 116  000B              @crom	.section	'crom'
 116  000B              _Month_TABLE2:
 116  000B              #pragma debug array 43 8 12 1
 116  000B              #pragma debug array 43 8 12 1
 116  000B              #pragma debug variable 43 1 _Month_TABLE2 "Month_TABLE2"
 116  000B              	db 31
 116  000C              	db 29
 116  000C              	db 31
 116  000D              	db 30
 116  000D              	db 31
 116  000E              	db 30
 116  000E              	db 31
 116  000F              	db 31
 116  000F              	db 30
 116  0010              	db 31
 116  0010              	db 30
 116  0011              	db 31
 116  0011              public _Month_TABLE1
 115  0011              #line 115 "c:\users\longshuangmin\desktop\worke_space\g-501\g-501\BH67F2485_DEMO_20190705.c"
 115  0011              @crom	.section	'crom'
 115  0011              _Month_TABLE1:
 115  0011              #pragma debug variable 43 1 _Month_TABLE1 "Month_TABLE1"
 115  0011              	db 31
 115  0012              	db 28
 115  0012              	db 31
 115  0013              	db 30
 115  0013              	db 31
 115  0014              	db 30
 115  0014              	db 31
 115  0015              	db 31
 115  0015              	db 30
 115  0016              	db 31
 115  0016              	db 30
 115  0017              	db 31
 111  0017              #line 111 "c:\users\longshuangmin\desktop\worke_space\g-501\g-501\BH67F2485_DEMO_20190705.c"
 111  0017              public _Flag8
 111  0000              @HCCINIT0_Flag8 .section 'data'
 111  0000              _Flag8	db 0
 111  0001              #pragma debug struct_end
 111  0001              #pragma debug struct_end
 111  0001              #pragma debug variable 44 1 _Flag8 "Flag8"
文件：BH67F2485_DEMO_20190705.c 编译器版本 HGASM 0202 页次19

 111  0001              
 111  0000              @HCCINIT .section 'data'
 110  0000              #line 110 "c:\users\longshuangmin\desktop\worke_space\g-501\g-501\BH67F2485_DEMO_20190705.c"
 110  0000              public _Flag7
 110  0000              @HCCINIT0_Flag7 .section 'data'
 110  0000              _Flag7	db 0
 110  0001              #pragma debug variable 44 1 _Flag7 "Flag7"
 110  0001              
 110  0000              @HCCINIT .section 'data'
 109  0000              #line 109 "c:\users\longshuangmin\desktop\worke_space\g-501\g-501\BH67F2485_DEMO_20190705.c"
 109  0000              public _Flag6
 109  0000              @HCCINIT0_Flag6 .section 'data'
 109  0000              _Flag6	db 0
 109  0001              #pragma debug variable 44 1 _Flag6 "Flag6"
 109  0001              
 109  0000              @HCCINIT .section 'data'
 108  0000              #line 108 "c:\users\longshuangmin\desktop\worke_space\g-501\g-501\BH67F2485_DEMO_20190705.c"
 108  0000              public _Flag5
 108  0000              @HCCINIT0_Flag5 .section 'data'
 108  0000              _Flag5	db 0
 108  0001              #pragma debug variable 44 1 _Flag5 "Flag5"
 108  0001              
 108  0000              @HCCINIT .section 'data'
 107  0000              #line 107 "c:\users\longshuangmin\desktop\worke_space\g-501\g-501\BH67F2485_DEMO_20190705.c"
 107  0000              public _Flag4
 107  0000              @HCCINIT0_Flag4 .section 'data'
 107  0000              _Flag4	db 0
 107  0001              #pragma debug variable 44 1 _Flag4 "Flag4"
 107  0001              
 107  0000              @HCCINIT .section 'data'
 106  0000              #line 106 "c:\users\longshuangmin\desktop\worke_space\g-501\g-501\BH67F2485_DEMO_20190705.c"
 106  0000              public _Flag3
 106  0000              @HCCINIT0_Flag3 .section 'data'
 106  0000              _Flag3	db 0
 106  0001              #pragma debug variable 44 1 _Flag3 "Flag3"
 106  0001              
 106  0000              @HCCINIT .section 'data'
 105  0000              #line 105 "c:\users\longshuangmin\desktop\worke_space\g-501\g-501\BH67F2485_DEMO_20190705.c"
 105  0000              public _Flag2
 105  0000              @HCCINIT0_Flag2 .section 'data'
 105  0000              _Flag2	db 0
 105  0001              #pragma debug variable 44 1 _Flag2 "Flag2"
 105  0001              
 105  0000              @HCCINIT .section 'data'
 104  0000              #line 104 "c:\users\longshuangmin\desktop\worke_space\g-501\g-501\BH67F2485_DEMO_20190705.c"
 104  0000              public _Flag1
 104  0000              @HCCINIT0_Flag1 .section 'data'
 104  0000              _Flag1	db 0
 104  0001              #pragma debug variable 44 1 _Flag1 "Flag1"
 104  0001              
 104  0000              @HCCINIT .section 'data'
 101  0000              #line 101 "c:\users\longshuangmin\desktop\worke_space\g-501\g-501\BH67F2485_DEMO_20190705.c"
 101  0000              public _M_Cal_100K_Adc
 101  0000              @HCCINIT0_M_Cal_100K_Adc .section 'data'
 101  0000  0002[       _M_Cal_100K_Adc	db 2 dup(0)
            00
            ]
 101  0002              #pragma debug variable 12 1 _M_Cal_100K_Adc "M_Cal_100K_Adc"
 101  0002              
 101  0000              @HCCINIT .section 'data'
文件：BH67F2485_DEMO_20190705.c 编译器版本 HGASM 0202 页次20

 101  0000              #line 101 "c:\users\longshuangmin\desktop\worke_space\g-501\g-501\BH67F2485_DEMO_20190705.c"
 101  0000              public _M_Cal_10K_Adc
 101  0000              @HCCINIT0_M_Cal_10K_Adc .section 'data'
 101  0000  0002[       _M_Cal_10K_Adc	db 2 dup(0)
            00
            ]
 101  0002              #pragma debug variable 12 1 _M_Cal_10K_Adc "M_Cal_10K_Adc"
 101  0002              
 101  0000              @HCCINIT .section 'data'
  96  0000              #line 96 "c:\users\longshuangmin\desktop\worke_space\g-501\g-501\BH67F2485_DEMO_20190705.c"
  96  0000              public _FlashTimeCon
  96  0000              @HCCINIT0_FlashTimeCon .section 'data'
  96  0000              _FlashTimeCon	db 0
  96  0001              #pragma debug variable 8 1 _FlashTimeCon "FlashTimeCon"
  96  0001              
  96  0000              @HCCINIT .section 'data'
  95  0000              #line 95 "c:\users\longshuangmin\desktop\worke_space\g-501\g-501\BH67F2485_DEMO_20190705.c"
  95  0000              public _FlashTimeFlag
  95  0000              @HCCINIT0_FlashTimeFlag .section 'data'
  95  0000              _FlashTimeFlag	db 0
  95  0001              #pragma debug variable 8 1 _FlashTimeFlag "FlashTimeFlag"
  95  0001              
  95  0000              @HCCINIT .section 'data'
  93  0000              #line 93 "c:\users\longshuangmin\desktop\worke_space\g-501\g-501\BH67F2485_DEMO_20190705.c"
  93  0000              public _M_PageIndex
  93  0000              @HCCINIT0_M_PageIndex .section 'data'
  93  0000              _M_PageIndex	db 0
  93  0001              #pragma debug variable 8 1 _M_PageIndex "M_PageIndex"
  93  0001              
  93  0000              @HCCINIT .section 'data'
  92  0000              #line 92 "c:\users\longshuangmin\desktop\worke_space\g-501\g-501\BH67F2485_DEMO_20190705.c"
  92  0000              public _M_PageAddress
  92  0000              @HCCINIT0_M_PageAddress .section 'data'
  92  0000  0002[       _M_PageAddress	db 2 dup(0)
            00
            ]
  92  0002              #pragma debug variable 12 1 _M_PageAddress "M_PageAddress"
  92  0002              
  92  0000              @HCCINIT .section 'data'
  89  0000              #line 89 "c:\users\longshuangmin\desktop\worke_space\g-501\g-501\BH67F2485_DEMO_20190705.c"
  89  0000              public _M_HCT_ADCData
  89  0000              @HCCINIT0_M_HCT_ADCData .section 'data'
  89  0000  0008[       _M_HCT_ADCData	db 8 dup(0)
            00
            ]
  89  0008              #pragma debug array 45 11 4 1
  89  0008              #pragma debug array 45 11 4 1
  89  0008              #pragma debug variable 45 1 _M_HCT_ADCData "M_HCT_ADCData"
  89  0008              
  89  0000              @HCCINIT .section 'data'
  88  0000              #line 88 "c:\users\longshuangmin\desktop\worke_space\g-501\g-501\BH67F2485_DEMO_20190705.c"
  88  0000              public _M_ImpedanceBuf
  88  0000              @HCCINIT0_M_ImpedanceBuf .section 'data'
  88  0000  0008[       _M_ImpedanceBuf	db 8 dup(0)
            00
            ]
  88  0008              #pragma debug array 46 29 2 1
  88  0008              #pragma debug array 46 29 2 1
  88  0008              #pragma debug variable 46 1 _M_ImpedanceBuf "M_ImpedanceBuf"
  88  0008              
文件：BH67F2485_DEMO_20190705.c 编译器版本 HGASM 0202 页次21

  88  0000              @HCCINIT .section 'data'
  87  0000              #line 87 "c:\users\longshuangmin\desktop\worke_space\g-501\g-501\BH67F2485_DEMO_20190705.c"
  87  0000              public _M_Theta
  87  0000              @HCCINIT0_M_Theta .section 'data'
  87  0000  0004[       _M_Theta	db 4 dup(0)
            00
            ]
  87  0004              #pragma debug variable 29 1 _M_Theta "M_Theta"
  87  0004              
  87  0000              @HCCINIT .section 'data'
  87  0000              #line 87 "c:\users\longshuangmin\desktop\worke_space\g-501\g-501\BH67F2485_DEMO_20190705.c"
  87  0000              public _M_Impedance
  87  0000              @HCCINIT0_M_Impedance .section 'data'
  87  0000  0004[       _M_Impedance	db 4 dup(0)
            00
            ]
  87  0004              #pragma debug variable 29 1 _M_Impedance "M_Impedance"
  87  0004              
  87  0000              @HCCINIT .section 'data'
  84  0000              #line 84 "c:\users\longshuangmin\desktop\worke_space\g-501\g-501\BH67F2485_DEMO_20190705.c"
  84  0000              public _Command
  84  0000              @HCCINIT0_Command .section 'data'
  84  0000              _Command	db 0
  84  0001              #pragma debug variable 8 1 _Command "Command"
  84  0001              
  84  0000              @HCCINIT .section 'data'
  84  0000              #line 84 "c:\users\longshuangmin\desktop\worke_space\g-501\g-501\BH67F2485_DEMO_20190705.c"
  84  0000              public _ReceiveFlag
  84  0000              @HCCINIT0_ReceiveFlag .section 'data'
  84  0000              _ReceiveFlag	db 0
  84  0001              #pragma debug variable 8 1 _ReceiveFlag "ReceiveFlag"
  84  0001              
  84  0000              @HCCINIT .section 'data'
  81  0000              #line 81 "c:\users\longshuangmin\desktop\worke_space\g-501\g-501\BH67F2485_DEMO_20190705.c"
  81  0000              public _M_SinGain
  81  0000              @HCCINIT0_M_SinGain .section 'data'
  81  0000              _M_SinGain	db 0
  81  0001              #pragma debug variable 8 1 _M_SinGain "M_SinGain"
  81  0001              
  81  0000              @HCCINIT .section 'data'
  80  0000              #line 80 "c:\users\longshuangmin\desktop\worke_space\g-501\g-501\BH67F2485_DEMO_20190705.c"
  80  0000              public _M_SinFreq
  80  0000              @HCCINIT0_M_SinFreq .section 'data'
  80  0000              _M_SinFreq	db 0
  80  0001              #pragma debug variable 8 1 _M_SinFreq "M_SinFreq"
  80  0001              
  80  0000              @HCCINIT .section 'data'
  77  0000              #line 77 "c:\users\longshuangmin\desktop\worke_space\g-501\g-501\BH67F2485_DEMO_20190705.c"
  77  0000              public _M_BAT_Energy
  77  0000              @HCCINIT0_M_BAT_Energy .section 'data'
  77  0000  0002[       _M_BAT_Energy	db 2 dup(0)
            00
            ]
  77  0002              #pragma debug variable 12 1 _M_BAT_Energy "M_BAT_Energy"
  77  0002              
  77  0000              @HCCINIT .section 'data'
  74  0000              #line 74 "c:\users\longshuangmin\desktop\worke_space\g-501\g-501\BH67F2485_DEMO_20190705.c"
  74  0000              public _M_Alarm4_MIN
  74  0000              @HCCINIT0_M_Alarm4_MIN .section 'data'
  74  0000              _M_Alarm4_MIN	db 0
文件：BH67F2485_DEMO_20190705.c 编译器版本 HGASM 0202 页次22

  74  0001              #pragma debug variable 8 1 _M_Alarm4_MIN "M_Alarm4_MIN"
  74  0001              
  74  0000              @HCCINIT .section 'data'
  74  0000              #line 74 "c:\users\longshuangmin\desktop\worke_space\g-501\g-501\BH67F2485_DEMO_20190705.c"
  74  0000              public _M_Alarm4_HR
  74  0000              @HCCINIT0_M_Alarm4_HR .section 'data'
  74  0000              _M_Alarm4_HR	db 0
  74  0001              #pragma debug variable 8 1 _M_Alarm4_HR "M_Alarm4_HR"
  74  0001              
  74  0000              @HCCINIT .section 'data'
  73  0000              #line 73 "c:\users\longshuangmin\desktop\worke_space\g-501\g-501\BH67F2485_DEMO_20190705.c"
  73  0000              public _M_Alarm3_MIN
  73  0000              @HCCINIT0_M_Alarm3_MIN .section 'data'
  73  0000              _M_Alarm3_MIN	db 0
  73  0001              #pragma debug variable 8 1 _M_Alarm3_MIN "M_Alarm3_MIN"
  73  0001              
  73  0000              @HCCINIT .section 'data'
  73  0000              #line 73 "c:\users\longshuangmin\desktop\worke_space\g-501\g-501\BH67F2485_DEMO_20190705.c"
  73  0000              public _M_Alarm3_HR
  73  0000              @HCCINIT0_M_Alarm3_HR .section 'data'
  73  0000              _M_Alarm3_HR	db 0
  73  0001              #pragma debug variable 8 1 _M_Alarm3_HR "M_Alarm3_HR"
  73  0001              
  73  0000              @HCCINIT .section 'data'
  72  0000              #line 72 "c:\users\longshuangmin\desktop\worke_space\g-501\g-501\BH67F2485_DEMO_20190705.c"
  72  0000              public _M_Alarm2_MIN
  72  0000              @HCCINIT0_M_Alarm2_MIN .section 'data'
  72  0000              _M_Alarm2_MIN	db 0
  72  0001              #pragma debug variable 8 1 _M_Alarm2_MIN "M_Alarm2_MIN"
  72  0001              
  72  0000              @HCCINIT .section 'data'
  72  0000              #line 72 "c:\users\longshuangmin\desktop\worke_space\g-501\g-501\BH67F2485_DEMO_20190705.c"
  72  0000              public _M_Alarm2_HR
  72  0000              @HCCINIT0_M_Alarm2_HR .section 'data'
  72  0000              _M_Alarm2_HR	db 0
  72  0001              #pragma debug variable 8 1 _M_Alarm2_HR "M_Alarm2_HR"
  72  0001              
  72  0000              @HCCINIT .section 'data'
  71  0000              #line 71 "c:\users\longshuangmin\desktop\worke_space\g-501\g-501\BH67F2485_DEMO_20190705.c"
  71  0000              public _M_Alarm1_MIN
  71  0000              @HCCINIT0_M_Alarm1_MIN .section 'data'
  71  0000              _M_Alarm1_MIN	db 0
  71  0001              #pragma debug variable 8 1 _M_Alarm1_MIN "M_Alarm1_MIN"
  71  0001              
  71  0000              @HCCINIT .section 'data'
  71  0000              #line 71 "c:\users\longshuangmin\desktop\worke_space\g-501\g-501\BH67F2485_DEMO_20190705.c"
  71  0000              public _M_Alarm1_HR
  71  0000              @HCCINIT0_M_Alarm1_HR .section 'data'
  71  0000              _M_Alarm1_HR	db 0
  71  0001              #pragma debug variable 8 1 _M_Alarm1_HR "M_Alarm1_HR"
  71  0001              
  71  0000              @HCCINIT .section 'data'
  64  0000              #line 64 "c:\users\longshuangmin\desktop\worke_space\g-501\g-501\BH67F2485_DEMO_20190705.c"
  64  0000              public _M_90daysNumber
  64  0000              @HCCINIT0_M_90daysNumber .section 'data'
  64  0000  0002[       _M_90daysNumber	db 2 dup(0)
            00
            ]
  64  0002              #pragma debug variable 12 1 _M_90daysNumber "M_90daysNumber"
  64  0002              
文件：BH67F2485_DEMO_20190705.c 编译器版本 HGASM 0202 页次23

  64  0000              @HCCINIT .section 'data'
  64  0000              #line 64 "c:\users\longshuangmin\desktop\worke_space\g-501\g-501\BH67F2485_DEMO_20190705.c"
  64  0000              public _M_60daysNumber
  64  0000              @HCCINIT0_M_60daysNumber .section 'data'
  64  0000  0002[       _M_60daysNumber	db 2 dup(0)
            00
            ]
  64  0002              #pragma debug variable 12 1 _M_60daysNumber "M_60daysNumber"
  64  0002              
  64  0000              @HCCINIT .section 'data'
  64  0000              #line 64 "c:\users\longshuangmin\desktop\worke_space\g-501\g-501\BH67F2485_DEMO_20190705.c"
  64  0000              public _M_30daysNumber
  64  0000              @HCCINIT0_M_30daysNumber .section 'data'
  64  0000  0002[       _M_30daysNumber	db 2 dup(0)
            00
            ]
  64  0002              #pragma debug variable 12 1 _M_30daysNumber "M_30daysNumber"
  64  0002              
  64  0000              @HCCINIT .section 'data'
  64  0000              #line 64 "c:\users\longshuangmin\desktop\worke_space\g-501\g-501\BH67F2485_DEMO_20190705.c"
  64  0000              public _M_28daysNumber
  64  0000              @HCCINIT0_M_28daysNumber .section 'data'
  64  0000  0002[       _M_28daysNumber	db 2 dup(0)
            00
            ]
  64  0002              #pragma debug variable 12 1 _M_28daysNumber "M_28daysNumber"
  64  0002              
  64  0000              @HCCINIT .section 'data'
  64  0000              #line 64 "c:\users\longshuangmin\desktop\worke_space\g-501\g-501\BH67F2485_DEMO_20190705.c"
  64  0000              public _M_14daysNumber
  64  0000              @HCCINIT0_M_14daysNumber .section 'data'
  64  0000  0002[       _M_14daysNumber	db 2 dup(0)
            00
            ]
  64  0002              #pragma debug variable 12 1 _M_14daysNumber "M_14daysNumber"
  64  0002              
  64  0000              @HCCINIT .section 'data'
  64  0000              #line 64 "c:\users\longshuangmin\desktop\worke_space\g-501\g-501\BH67F2485_DEMO_20190705.c"
  64  0000              public _M_7daysNumber
  64  0000              @HCCINIT0_M_7daysNumber .section 'data'
  64  0000  0002[       _M_7daysNumber	db 2 dup(0)
            00
            ]
  64  0002              #pragma debug variable 12 1 _M_7daysNumber "M_7daysNumber"
  64  0002              
  64  0000              @HCCINIT .section 'data'
  63  0000              #line 63 "c:\users\longshuangmin\desktop\worke_space\g-501\g-501\BH67F2485_DEMO_20190705.c"
  63  0000              public _M_90days_datasum
  63  0000              @HCCINIT0_M_90days_datasum .section 'data'
  63  0000  0004[       _M_90days_datasum	db 4 dup(0)
            00
            ]
  63  0004              #pragma debug variable 14 1 _M_90days_datasum "M_90days_datasum"
  63  0004              
  63  0000              @HCCINIT .section 'data'
  63  0000              #line 63 "c:\users\longshuangmin\desktop\worke_space\g-501\g-501\BH67F2485_DEMO_20190705.c"
  63  0000              public _M_60days_datasum
  63  0000              @HCCINIT0_M_60days_datasum .section 'data'
  63  0000  0004[       _M_60days_datasum	db 4 dup(0)
            00
文件：BH67F2485_DEMO_20190705.c 编译器版本 HGASM 0202 页次24

            ]
  63  0004              #pragma debug variable 14 1 _M_60days_datasum "M_60days_datasum"
  63  0004              
  63  0000              @HCCINIT .section 'data'
  63  0000              #line 63 "c:\users\longshuangmin\desktop\worke_space\g-501\g-501\BH67F2485_DEMO_20190705.c"
  63  0000              public _M_30days_datasum
  63  0000              @HCCINIT0_M_30days_datasum .section 'data'
  63  0000  0004[       _M_30days_datasum	db 4 dup(0)
            00
            ]
  63  0004              #pragma debug variable 14 1 _M_30days_datasum "M_30days_datasum"
  63  0004              
  63  0000              @HCCINIT .section 'data'
  63  0000              #line 63 "c:\users\longshuangmin\desktop\worke_space\g-501\g-501\BH67F2485_DEMO_20190705.c"
  63  0000              public _M_28days_datasum
  63  0000              @HCCINIT0_M_28days_datasum .section 'data'
  63  0000  0004[       _M_28days_datasum	db 4 dup(0)
            00
            ]
  63  0004              #pragma debug variable 14 1 _M_28days_datasum "M_28days_datasum"
  63  0004              
  63  0000              @HCCINIT .section 'data'
  63  0000              #line 63 "c:\users\longshuangmin\desktop\worke_space\g-501\g-501\BH67F2485_DEMO_20190705.c"
  63  0000              public _M_14days_datasum
  63  0000              @HCCINIT0_M_14days_datasum .section 'data'
  63  0000  0004[       _M_14days_datasum	db 4 dup(0)
            00
            ]
  63  0004              #pragma debug variable 14 1 _M_14days_datasum "M_14days_datasum"
  63  0004              
  63  0000              @HCCINIT .section 'data'
  63  0000              #line 63 "c:\users\longshuangmin\desktop\worke_space\g-501\g-501\BH67F2485_DEMO_20190705.c"
  63  0000              public _M_7days_datasum
  63  0000              @HCCINIT0_M_7days_datasum .section 'data'
  63  0000  0004[       _M_7days_datasum	db 4 dup(0)
            00
            ]
  63  0004              #pragma debug variable 14 1 _M_7days_datasum "M_7days_datasum"
  63  0004              
  63  0000              @HCCINIT .section 'data'
  60  0000              #line 60 "c:\users\longshuangmin\desktop\worke_space\g-501\g-501\BH67F2485_DEMO_20190705.c"
  60  0000              public _M_DropCurrent_Adc
  60  0000              @HCCINIT0_M_DropCurrent_Adc .section 'data'
  60  0000  0002[       _M_DropCurrent_Adc	db 2 dup(0)
            00
            ]
  60  0002              #pragma debug variable 12 1 _M_DropCurrent_Adc "M_DropCurrent_Adc"
  60  0002              
  60  0000              @HCCINIT .section 'data'
  59  0000              #line 59 "c:\users\longshuangmin\desktop\worke_space\g-501\g-501\BH67F2485_DEMO_20190705.c"
  59  0000              public _M_StripUsedCurrent_Adc
  59  0000              @HCCINIT0_M_StripUsedCurrent_Adc .section 'data'
  59  0000  0002[       _M_StripUsedCurrent_Adc	db 2 dup(0)
            00
            ]
  59  0002              #pragma debug variable 12 1 _M_StripUsedCurrent_Adc "M_StripUsedCurrent_Adc"
  59  0002              
  59  0000              @HCCINIT .section 'data'
  58  0000              #line 58 "c:\users\longshuangmin\desktop\worke_space\g-501\g-501\BH67F2485_DEMO_20190705.c"
  58  0000              public _M_TriggerCurrent_Adc
文件：BH67F2485_DEMO_20190705.c 编译器版本 HGASM 0202 页次25

  58  0000              @HCCINIT0_M_TriggerCurrent_Adc .section 'data'
  58  0000  0002[       _M_TriggerCurrent_Adc	db 2 dup(0)
            00
            ]
  58  0002              #pragma debug variable 12 1 _M_TriggerCurrent_Adc "M_TriggerCurrent_Adc"
  58  0002              
  58  0000              @HCCINIT .section 'data'
  57  0000              #line 57 "c:\users\longshuangmin\desktop\worke_space\g-501\g-501\BH67F2485_DEMO_20190705.c"
  57  0000              public _M_Avg_16bit_result
  57  0000              @HCCINIT0_M_Avg_16bit_result .section 'data'
  57  0000  0002[       _M_Avg_16bit_result	db 2 dup(0)
            00
            ]
  57  0002              #pragma debug variable 12 1 _M_Avg_16bit_result "M_Avg_16bit_result"
  57  0002              
  57  0000              @HCCINIT .section 'data'
  56  0000              #line 56 "c:\users\longshuangmin\desktop\worke_space\g-501\g-501\BH67F2485_DEMO_20190705.c"
  56  0000              public _M_BackCurrent
  56  0000              @HCCINIT0_M_BackCurrent .section 'data'
  56  0000  0002[       _M_BackCurrent	db 2 dup(0)
            00
            ]
  56  0002              #pragma debug variable 12 1 _M_BackCurrent "M_BackCurrent"
  56  0002              
  56  0000              @HCCINIT .section 'data'
  56  0000              #line 56 "c:\users\longshuangmin\desktop\worke_space\g-501\g-501\BH67F2485_DEMO_20190705.c"
  56  0000              public _M_CurrentX10
  56  0000              @HCCINIT0_M_CurrentX10 .section 'data'
  56  0000  0002[       _M_CurrentX10	db 2 dup(0)
            00
            ]
  56  0002              #pragma debug variable 12 1 _M_CurrentX10 "M_CurrentX10"
  56  0002              
  56  0000              @HCCINIT .section 'data'
  56  0000              #line 56 "c:\users\longshuangmin\desktop\worke_space\g-501\g-501\BH67F2485_DEMO_20190705.c"
  56  0000              public _M_Current
  56  0000              @HCCINIT0_M_Current .section 'data'
  56  0000  0002[       _M_Current	db 2 dup(0)
            00
            ]
  56  0002              #pragma debug variable 12 1 _M_Current "M_Current"
  56  0002              
  56  0000              @HCCINIT .section 'data'
  56  0000              #line 56 "c:\users\longshuangmin\desktop\worke_space\g-501\g-501\BH67F2485_DEMO_20190705.c"
  56  0000              public _M_Temperature
  56  0000              @HCCINIT0_M_Temperature .section 'data'
  56  0000  0002[       _M_Temperature	db 2 dup(0)
            00
            ]
  56  0002              #pragma debug variable 12 1 _M_Temperature "M_Temperature"
  56  0002              
  56  0000              @HCCINIT .section 'data'
  55  0000              #line 55 "c:\users\longshuangmin\desktop\worke_space\g-501\g-501\BH67F2485_DEMO_20190705.c"
  55  0000              public _M_OPA_Offset
  55  0000              @HCCINIT0_M_OPA_Offset .section 'data'
  55  0000              _M_OPA_Offset	db 0
  55  0001              #pragma debug variable 7 1 _M_OPA_Offset "M_OPA_Offset"
  55  0001              
  55  0000              @HCCINIT .section 'data'
  55  0000              #line 55 "c:\users\longshuangmin\desktop\worke_space\g-501\g-501\BH67F2485_DEMO_20190705.c"
文件：BH67F2485_DEMO_20190705.c 编译器版本 HGASM 0202 页次26

  55  0000              public _M_Excitation_Offset
  55  0000              @HCCINIT0_M_Excitation_Offset .section 'data'
  55  0000              _M_Excitation_Offset	db 0
  55  0001              #pragma debug variable 7 1 _M_Excitation_Offset "M_Excitation_Offset"
  55  0001              
  55  0000              @HCCINIT .section 'data'
  54  0000              #line 54 "c:\users\longshuangmin\desktop\worke_space\g-501\g-501\BH67F2485_DEMO_20190705.c"
  54  0000              public _M_Excitation_Voltage
  54  0000              @HCCINIT0_M_Excitation_Voltage .section 'data'
  54  0000  0002[       _M_Excitation_Voltage	db 2 dup(0)
            00
            ]
  54  0002              #pragma debug variable 12 1 _M_Excitation_Voltage "M_Excitation_Voltage"
  54  0002              
  54  0000              @HCCINIT .section 'data'
  51  0000              #line 51 "c:\users\longshuangmin\desktop\worke_space\g-501\g-501\BH67F2485_DEMO_20190705.c"
  51  0000              public _SDKADCSourceData
  51  0000              @HCCINIT0_SDKADCSourceData .section 'data'
  51  0000  0006[       _SDKADCSourceData	db 6 dup(0)
            00
            ]
  51  0006              #pragma debug struct_end
  51  0006              #pragma debug struct_end
  51  0006              #pragma debug union_end
  51  0006              #pragma debug union_end
  51  0006              #pragma debug struct_end
  51  0006              #pragma debug struct_end
  51  0006              #pragma debug union_end
  51  0006              #pragma debug union_end
  51  0006              #pragma debug struct_end
  51  0006              #pragma debug struct_end
  51  0006              #pragma debug variable 51 1 _SDKADCSourceData "SDKADCSourceData"
  51  0006              
  51  0000              @HCCINIT .section 'data'
  48  0000              #line 48 "c:\users\longshuangmin\desktop\worke_space\g-501\g-501\BH67F2485_DEMO_20190705.c"
  48  0000              public _M_UART_Tx_ErrorCnt
  48  0000              @HCCINIT0_M_UART_Tx_ErrorCnt .section 'data'
  48  0000              _M_UART_Tx_ErrorCnt	db 0
  48  0001              #pragma debug variable 8 1 _M_UART_Tx_ErrorCnt "M_UART_Tx_ErrorCnt"
  48  0001              
  48  0000              @HCCINIT .section 'data'
  48  0000              #line 48 "c:\users\longshuangmin\desktop\worke_space\g-501\g-501\BH67F2485_DEMO_20190705.c"
  48  0000              public _M_UART_TxIndex_Old
  48  0000              @HCCINIT0_M_UART_TxIndex_Old .section 'data'
  48  0000              _M_UART_TxIndex_Old	db 0
  48  0001              #pragma debug variable 8 1 _M_UART_TxIndex_Old "M_UART_TxIndex_Old"
  48  0001              
  48  0000              @HCCINIT .section 'data'
  47  0000              #line 47 "c:\users\longshuangmin\desktop\worke_space\g-501\g-501\BH67F2485_DEMO_20190705.c"
  47  0000              public _M_UartInsertCnt
  47  0000              @HCCINIT0_M_UartInsertCnt .section 'data'
  47  0000              _M_UartInsertCnt	db 0
  47  0001              #pragma debug variable 8 1 _M_UartInsertCnt "M_UartInsertCnt"
  47  0001              
  47  0000              @HCCINIT .section 'data'
  47  0000              #line 47 "c:\users\longshuangmin\desktop\worke_space\g-501\g-501\BH67F2485_DEMO_20190705.c"
  47  0000              public _M_Length
  47  0000              @HCCINIT0_M_Length .section 'data'
  47  0000              _M_Length	db 0
  47  0001              #pragma debug variable 8 1 _M_Length "M_Length"
文件：BH67F2485_DEMO_20190705.c 编译器版本 HGASM 0202 页次27

  47  0001              
  47  0000              @HCCINIT .section 'data'
  47  0000              #line 47 "c:\users\longshuangmin\desktop\worke_space\g-501\g-501\BH67F2485_DEMO_20190705.c"
  47  0000              public _M_UART_TxIndex
  47  0000              @HCCINIT0_M_UART_TxIndex .section 'data'
  47  0000              _M_UART_TxIndex	db 0
  47  0001              #pragma debug variable 8 1 _M_UART_TxIndex "M_UART_TxIndex"
  47  0001              
  47  0000              @HCCINIT .section 'data'
  47  0000              #line 47 "c:\users\longshuangmin\desktop\worke_space\g-501\g-501\BH67F2485_DEMO_20190705.c"
  47  0000              public _M_UART_TxLength
  47  0000              @HCCINIT0_M_UART_TxLength .section 'data'
  47  0000              _M_UART_TxLength	db 0
  47  0001              #pragma debug variable 8 1 _M_UART_TxLength "M_UART_TxLength"
  47  0001              
  47  0000              @HCCINIT .section 'data'
  47  0000              #line 47 "c:\users\longshuangmin\desktop\worke_space\g-501\g-501\BH67F2485_DEMO_20190705.c"
  47  0000              public _M_UART_RxIndex
  47  0000              @HCCINIT0_M_UART_RxIndex .section 'data'
  47  0000              _M_UART_RxIndex	db 0
  47  0001              #pragma debug variable 8 1 _M_UART_RxIndex "M_UART_RxIndex"
  47  0001              
  47  0000              @HCCINIT .section 'data'
  47  0000              #line 47 "c:\users\longshuangmin\desktop\worke_space\g-501\g-501\BH67F2485_DEMO_20190705.c"
  47  0000              public _M_UARTRxTimeOut
  47  0000              @HCCINIT0_M_UARTRxTimeOut .section 'data'
  47  0000              _M_UARTRxTimeOut	db 0
  47  0001              #pragma debug variable 8 1 _M_UARTRxTimeOut "M_UARTRxTimeOut"
  47  0001              
  47  0000              @HCCINIT .section 'data'
  44  0000              #line 44 "c:\users\longshuangmin\desktop\worke_space\g-501\g-501\BH67F2485_DEMO_20190705.c"
  44  0000              public _M_BeepMode
  44  0000              @HCCINIT0_M_BeepMode .section 'data'
  44  0000              _M_BeepMode	db 0
  44  0001              #pragma debug variable 8 1 _M_BeepMode "M_BeepMode"
  44  0001              
  44  0000              @HCCINIT .section 'data'
  43  0000              #line 43 "c:\users\longshuangmin\desktop\worke_space\g-501\g-501\BH67F2485_DEMO_20190705.c"
  43  0000              public _M_Beep_Cnt
  43  0000              @HCCINIT0_M_Beep_Cnt .section 'data'
  43  0000  0002[       _M_Beep_Cnt	db 2 dup(0)
            00
            ]
  43  0002              #pragma debug variable 12 1 _M_Beep_Cnt "M_Beep_Cnt"
  43  0002              
  43  0000              @HCCINIT .section 'data'
  40  0000              #line 40 "c:\users\longshuangmin\desktop\worke_space\g-501\g-501\BH67F2485_DEMO_20190705.c"
  40  0000              public _M_GM_Range_Low
  40  0000              @HCCINIT0_M_GM_Range_Low .section 'data'
  40  0000  0002[       _M_GM_Range_Low	db 2 dup(0)
            00
            ]
  40  0002              #pragma debug variable 12 1 _M_GM_Range_Low "M_GM_Range_Low"
  40  0002              
  40  0000              @HCCINIT .section 'data'
  40  0000              #line 40 "c:\users\longshuangmin\desktop\worke_space\g-501\g-501\BH67F2485_DEMO_20190705.c"
  40  0000              public _M_GM_Range_Hi
  40  0000              @HCCINIT0_M_GM_Range_Hi .section 'data'
  40  0000  0002[       _M_GM_Range_Hi	db 2 dup(0)
            00
文件：BH67F2485_DEMO_20190705.c 编译器版本 HGASM 0202 页次28

            ]
  40  0002              #pragma debug variable 12 1 _M_GM_Range_Hi "M_GM_Range_Hi"
  40  0002              
  40  0000              @HCCINIT .section 'data'
  37  0000              #line 37 "c:\users\longshuangmin\desktop\worke_space\g-501\g-501\BH67F2485_DEMO_20190705.c"
  37  0000              public _M_Year
  37  0000              @HCCINIT0_M_Year .section 'data'
  37  0000              _M_Year	db 0
  37  0001              #pragma debug variable 8 1 _M_Year "M_Year"
  37  0001              
  37  0000              @HCCINIT .section 'data'
  37  0000              #line 37 "c:\users\longshuangmin\desktop\worke_space\g-501\g-501\BH67F2485_DEMO_20190705.c"
  37  0000              public _M_Month
  37  0000              @HCCINIT0_M_Month .section 'data'
  37  0000              _M_Month	db 0
  37  0001              #pragma debug variable 8 1 _M_Month "M_Month"
  37  0001              
  37  0000              @HCCINIT .section 'data'
  37  0000              #line 37 "c:\users\longshuangmin\desktop\worke_space\g-501\g-501\BH67F2485_DEMO_20190705.c"
  37  0000              public _M_Days
  37  0000              @HCCINIT0_M_Days .section 'data'
  37  0000              _M_Days	db 0
  37  0001              #pragma debug variable 8 1 _M_Days "M_Days"
  37  0001              
  37  0000              @HCCINIT .section 'data'
  37  0000              #line 37 "c:\users\longshuangmin\desktop\worke_space\g-501\g-501\BH67F2485_DEMO_20190705.c"
  37  0000              public _M_Hour
  37  0000              @HCCINIT0_M_Hour .section 'data'
  37  0000              _M_Hour	db 0
  37  0001              #pragma debug variable 8 1 _M_Hour "M_Hour"
  37  0001              
  37  0000              @HCCINIT .section 'data'
  37  0000              #line 37 "c:\users\longshuangmin\desktop\worke_space\g-501\g-501\BH67F2485_DEMO_20190705.c"
  37  0000              public _M_Minutes
  37  0000              @HCCINIT0_M_Minutes .section 'data'
  37  0000              _M_Minutes	db 0
  37  0001              #pragma debug variable 8 1 _M_Minutes "M_Minutes"
  37  0001              
  37  0000              @HCCINIT .section 'data'
  37  0000              #line 37 "c:\users\longshuangmin\desktop\worke_space\g-501\g-501\BH67F2485_DEMO_20190705.c"
  37  0000              public _M_Second
  37  0000              @HCCINIT0_M_Second .section 'data'
  37  0000              _M_Second	db 0
  37  0001              #pragma debug variable 8 1 _M_Second "M_Second"
  37  0001              
  37  0000              @HCCINIT .section 'data'
  36  0000              #line 36 "c:\users\longshuangmin\desktop\worke_space\g-501\g-501\BH67F2485_DEMO_20190705.c"
  36  0000              public _M_DaysLimit
  36  0000              @HCCINIT0_M_DaysLimit .section 'data'
  36  0000              _M_DaysLimit	db 0
  36  0001              #pragma debug variable 8 1 _M_DaysLimit "M_DaysLimit"
  36  0001              
  36  0000              @HCCINIT .section 'data'
  36  0000              #line 36 "c:\users\longshuangmin\desktop\worke_space\g-501\g-501\BH67F2485_DEMO_20190705.c"
  36  0000              public _M_Second_buf
  36  0000              @HCCINIT0_M_Second_buf .section 'data'
  36  0000              _M_Second_buf	db 0
  36  0001              #pragma debug variable 8 1 _M_Second_buf "M_Second_buf"
  36  0001              
  36  0000              @HCCINIT .section 'data'
文件：BH67F2485_DEMO_20190705.c 编译器版本 HGASM 0202 页次29

  33  0000              #line 33 "c:\users\longshuangmin\desktop\worke_space\g-501\g-501\BH67F2485_DEMO_20190705.c"
  33  0000              public _M_Daco2H
  33  0000              @HCCINIT0_M_Daco2H .section 'data'
  33  0000              _M_Daco2H	db 0
  33  0001              #pragma debug variable 8 1 _M_Daco2H "M_Daco2H"
  33  0001              
  33  0000              @HCCINIT .section 'data'
  33  0000              #line 33 "c:\users\longshuangmin\desktop\worke_space\g-501\g-501\BH67F2485_DEMO_20190705.c"
  33  0000              public _M_Daco2L
  33  0000              @HCCINIT0_M_Daco2L .section 'data'
  33  0000              _M_Daco2L	db 0
  33  0001              #pragma debug variable 8 1 _M_Daco2L "M_Daco2L"
  33  0001              
  33  0000              @HCCINIT .section 'data'
  33  0000              #line 33 "c:\users\longshuangmin\desktop\worke_space\g-501\g-501\BH67F2485_DEMO_20190705.c"
  33  0000              public _M_Daco1H
  33  0000              @HCCINIT0_M_Daco1H .section 'data'
  33  0000              _M_Daco1H	db 0
  33  0001              #pragma debug variable 8 1 _M_Daco1H "M_Daco1H"
  33  0001              
  33  0000              @HCCINIT .section 'data'
  33  0000              #line 33 "c:\users\longshuangmin\desktop\worke_space\g-501\g-501\BH67F2485_DEMO_20190705.c"
  33  0000              public _M_Daco1L
  33  0000              @HCCINIT0_M_Daco1L .section 'data'
  33  0000              _M_Daco1L	db 0
  33  0001              #pragma debug variable 8 1 _M_Daco1L "M_Daco1L"
  33  0001              
  33  0000              @HCCINIT .section 'data'
  29  0000              #line 29 "c:\users\longshuangmin\desktop\worke_space\g-501\g-501\BH67F2485_DEMO_20190705.c"
  29  0000              public _M_Main_Cnt_6s
  29  0000              @HCCINIT0_M_Main_Cnt_6s .section 'data'
  29  0000              _M_Main_Cnt_6s	db 0
  29  0001              #pragma debug variable 8 1 _M_Main_Cnt_6s "M_Main_Cnt_6s"
  29  0001              
  29  0000              @HCCINIT .section 'data'
  29  0000              #line 29 "c:\users\longshuangmin\desktop\worke_space\g-501\g-501\BH67F2485_DEMO_20190705.c"
  29  0000              public _M_Main_Cal
  29  0000              @HCCINIT0_M_Main_Cal .section 'data'
  29  0000              _M_Main_Cal	db 0
  29  0001              #pragma debug variable 8 1 _M_Main_Cal "M_Main_Cal"
  29  0001              
  29  0000              @HCCINIT .section 'data'
  29  0000              #line 29 "c:\users\longshuangmin\desktop\worke_space\g-501\g-501\BH67F2485_DEMO_20190705.c"
  29  0000              public _M_Main_Cal_Cnt
  29  0000              @HCCINIT0_M_Main_Cal_Cnt .section 'data'
  29  0000              _M_Main_Cal_Cnt	db 0
  29  0001              #pragma debug variable 8 1 _M_Main_Cal_Cnt "M_Main_Cal_Cnt"
  29  0001              
  29  0000              @HCCINIT .section 'data'
  29  0000              #line 29 "c:\users\longshuangmin\desktop\worke_space\g-501\g-501\BH67F2485_DEMO_20190705.c"
  29  0000              public _M_Main_cnt
  29  0000              @HCCINIT0_M_Main_cnt .section 'data'
  29  0000              _M_Main_cnt	db 0
  29  0001              #pragma debug variable 8 1 _M_Main_cnt "M_Main_cnt"
  29  0001              
  29  0000              @HCCINIT .section 'data'
  26  0000              #line 26 "c:\users\longshuangmin\desktop\worke_space\g-501\g-501\BH67F2485_DEMO_20190705.c"
  26  0000              public _M_KeyDebounce
  26  0000              @HCCINIT0_M_KeyDebounce .section 'data'
  26  0000              _M_KeyDebounce	db 0
文件：BH67F2485_DEMO_20190705.c 编译器版本 HGASM 0202 页次30

  26  0001              #pragma debug variable 8 1 _M_KeyDebounce "M_KeyDebounce"
  26  0001              
  26  0000              @HCCINIT .section 'data'
  25  0000              #line 25 "c:\users\longshuangmin\desktop\worke_space\g-501\g-501\BH67F2485_DEMO_20190705.c"
  25  0000              public _M_Hold_cnt
  25  0000              @HCCINIT0_M_Hold_cnt .section 'data'
  25  0000              _M_Hold_cnt	db 0
  25  0001              #pragma debug variable 8 1 _M_Hold_cnt "M_Hold_cnt"
  25  0001              
  25  0000              @HCCINIT .section 'data'
  25  0000              #line 25 "c:\users\longshuangmin\desktop\worke_space\g-501\g-501\BH67F2485_DEMO_20190705.c"
  25  0000              public _M_Inc_Cnt
  25  0000              @HCCINIT0_M_Inc_Cnt .section 'data'
  25  0000              _M_Inc_Cnt	db 0
  25  0001              #pragma debug variable 8 1 _M_Inc_Cnt "M_Inc_Cnt"
  25  0001              
  25  0000              @HCCINIT .section 'data'
  24  0000              #line 24 "c:\users\longshuangmin\desktop\worke_space\g-501\g-501\BH67F2485_DEMO_20190705.c"
  24  0000              public _M_MSKey_Hold_CNT
  24  0000              @HCCINIT0_M_MSKey_Hold_CNT .section 'data'
  24  0000  0002[       _M_MSKey_Hold_CNT	db 2 dup(0)
            00
            ]
  24  0002              #pragma debug variable 12 1 _M_MSKey_Hold_CNT "M_MSKey_Hold_CNT"
  24  0002              
  24  0000              @HCCINIT .section 'data'
  23  0000              #line 23 "c:\users\longshuangmin\desktop\worke_space\g-501\g-501\BH67F2485_DEMO_20190705.c"
  23  0000              public _M_SKey_Hold_CNT
  23  0000              @HCCINIT0_M_SKey_Hold_CNT .section 'data'
  23  0000  0002[       _M_SKey_Hold_CNT	db 2 dup(0)
            00
            ]
  23  0002              #pragma debug variable 12 1 _M_SKey_Hold_CNT "M_SKey_Hold_CNT"
  23  0002              
  23  0000              @HCCINIT .section 'data'
  23  0000              #line 23 "c:\users\longshuangmin\desktop\worke_space\g-501\g-501\BH67F2485_DEMO_20190705.c"
  23  0000              public _M_MKey_Hold_CNT
  23  0000              @HCCINIT0_M_MKey_Hold_CNT .section 'data'
  23  0000  0002[       _M_MKey_Hold_CNT	db 2 dup(0)
            00
            ]
  23  0002              #pragma debug variable 12 1 _M_MKey_Hold_CNT "M_MKey_Hold_CNT"
  23  0002              
  23  0000              @HCCINIT .section 'data'
  20  0000              #line 20 "c:\users\longshuangmin\desktop\worke_space\g-501\g-501\BH67F2485_DEMO_20190705.c"
  20  0000              public _M_Strip_Type
  20  0000              @HCCINIT0_M_Strip_Type .section 'data'
  20  0000              _M_Strip_Type	db 0
  20  0001              #pragma debug variable 8 1 _M_Strip_Type "M_Strip_Type"
  20  0001              
  20  0000              @HCCINIT .section 'data'
  17  0000              #line 17 "c:\users\longshuangmin\desktop\worke_space\g-501\g-501\BH67F2485_DEMO_20190705.c"
  17  0000              public _M_DCTurnOn
  17  0000              @HCCINIT0_M_DCTurnOn .section 'data'
  17  0000              _M_DCTurnOn	db 0
  17  0001              #pragma debug variable 8 1 _M_DCTurnOn "M_DCTurnOn"
  17  0001              
  17  0000              @HCCINIT .section 'data'
  17  0000              #line 17 "c:\users\longshuangmin\desktop\worke_space\g-501\g-501\BH67F2485_DEMO_20190705.c"
  17  0000              public _M_DCTurnOff
文件：BH67F2485_DEMO_20190705.c 编译器版本 HGASM 0202 页次31

  17  0000              @HCCINIT0_M_DCTurnOff .section 'data'
  17  0000              _M_DCTurnOff	db 0
  17  0001              #pragma debug variable 8 1 _M_DCTurnOff "M_DCTurnOff"
  17  0001              
  17  0000              @HCCINIT .section 'data'
  17  0000              #line 17 "c:\users\longshuangmin\desktop\worke_space\g-501\g-501\BH67F2485_DEMO_20190705.c"
  17  0000              public _M_ACTurnOn
  17  0000              @HCCINIT0_M_ACTurnOn .section 'data'
  17  0000              _M_ACTurnOn	db 0
  17  0001              #pragma debug variable 8 1 _M_ACTurnOn "M_ACTurnOn"
  17  0001              
  17  0000              @HCCINIT .section 'data'
  16  0000              #line 16 "c:\users\longshuangmin\desktop\worke_space\g-501\g-501\BH67F2485_DEMO_20190705.c"
  16  0000              public _M_LogCount_Switch
  16  0000              @HCCINIT0_M_LogCount_Switch .section 'data'
  16  0000  0002[       _M_LogCount_Switch	db 2 dup(0)
            00
            ]
  16  0002              #pragma debug variable 12 1 _M_LogCount_Switch "M_LogCount_Switch"
  16  0002              
  16  0000              @HCCINIT .section 'data'
  16  0000              #line 16 "c:\users\longshuangmin\desktop\worke_space\g-501\g-501\BH67F2485_DEMO_20190705.c"
  16  0000              public _M_Log
  16  0000              @HCCINIT0_M_Log .section 'data'
  16  0000  0002[       _M_Log	db 2 dup(0)
            00
            ]
  16  0002              #pragma debug variable 12 1 _M_Log "M_Log"
  16  0002              
  16  0000              @HCCINIT .section 'data'
  16  0000              #line 16 "c:\users\longshuangmin\desktop\worke_space\g-501\g-501\BH67F2485_DEMO_20190705.c"
  16  0000              public _M_LogCount
  16  0000              @HCCINIT0_M_LogCount .section 'data'
  16  0000  0002[       _M_LogCount	db 2 dup(0)
            00
            ]
  16  0002              #pragma debug variable 12 1 _M_LogCount "M_LogCount"
  16  0002              
  16  0000              @HCCINIT .section 'data'
  16  0000              #line 16 "c:\users\longshuangmin\desktop\worke_space\g-501\g-501\BH67F2485_DEMO_20190705.c"
  16  0000              public _M_WaitCount
  16  0000              @HCCINIT0_M_WaitCount .section 'data'
  16  0000  0002[       _M_WaitCount	db 2 dup(0)
            00
            ]
  16  0002              #pragma debug variable 12 1 _M_WaitCount "M_WaitCount"
  16  0002              
  16  0000              @HCCINIT .section 'data'
  15  0000              #line 15 "c:\users\longshuangmin\desktop\worke_space\g-501\g-501\BH67F2485_DEMO_20190705.c"
  15  0000              public _M_FlashPage
  15  0000              @HCCINIT0_M_FlashPage .section 'data'
  15  0000              _M_FlashPage	db 0
  15  0001              #pragma debug variable 8 1 _M_FlashPage "M_FlashPage"
  15  0001              
  15  0000              @HCCINIT .section 'data'
  14  0000              #line 14 "c:\users\longshuangmin\desktop\worke_space\g-501\g-501\BH67F2485_DEMO_20190705.c"
  14  0000              public _M_Lbuf0
  14  0000              @HCCINIT0_M_Lbuf0 .section 'data'
  14  0000  0004[       _M_Lbuf0	db 4 dup(0)
            00
文件：BH67F2485_DEMO_20190705.c 编译器版本 HGASM 0202 页次32

            ]
  14  0004              #pragma debug variable 14 1 _M_Lbuf0 "M_Lbuf0"
  14  0004              
  14  0000              @HCCINIT .section 'data'
  13  0000              #line 13 "c:\users\longshuangmin\desktop\worke_space\g-501\g-501\BH67F2485_DEMO_20190705.c"
  13  0000              public _M_Ibuf2
  13  0000              @HCCINIT0_M_Ibuf2 .section 'data'
  13  0000  0002[       _M_Ibuf2	db 2 dup(0)
            00
            ]
  13  0002              #pragma debug variable 12 1 _M_Ibuf2 "M_Ibuf2"
  13  0002              
  13  0000              @HCCINIT .section 'data'
  13  0000              #line 13 "c:\users\longshuangmin\desktop\worke_space\g-501\g-501\BH67F2485_DEMO_20190705.c"
  13  0000              public _M_Ibuf1
  13  0000              @HCCINIT0_M_Ibuf1 .section 'data'
  13  0000  0002[       _M_Ibuf1	db 2 dup(0)
            00
            ]
  13  0002              #pragma debug variable 12 1 _M_Ibuf1 "M_Ibuf1"
  13  0002              
  13  0000              @HCCINIT .section 'data'
  13  0000              #line 13 "c:\users\longshuangmin\desktop\worke_space\g-501\g-501\BH67F2485_DEMO_20190705.c"
  13  0000              public _M_Ibuf0
  13  0000              @HCCINIT0_M_Ibuf0 .section 'data'
  13  0000  0002[       _M_Ibuf0	db 2 dup(0)
            00
            ]
  13  0002              #pragma debug variable 12 1 _M_Ibuf0 "M_Ibuf0"
  13  0002              
  13  0000              @HCCINIT .section 'data'
  12  0000              #line 12 "c:\users\longshuangmin\desktop\worke_space\g-501\g-501\BH67F2485_DEMO_20190705.c"
  12  0000              public _M_Cbuf1
  12  0000              @HCCINIT0_M_Cbuf1 .section 'data'
  12  0000              _M_Cbuf1	db 0
  12  0001              #pragma debug variable 8 1 _M_Cbuf1 "M_Cbuf1"
  12  0001              
  12  0000              @HCCINIT .section 'data'
  12  0000              #line 12 "c:\users\longshuangmin\desktop\worke_space\g-501\g-501\BH67F2485_DEMO_20190705.c"
  12  0000              public _M_Cbuf0
  12  0000              @HCCINIT0_M_Cbuf0 .section 'data'
  12  0000              _M_Cbuf0	db 0
  12  0001              #pragma debug variable 8 1 _M_Cbuf0 "M_Cbuf0"
  12  0001              
  12  0000              @HCCINIT .section 'data'
  11  0000              #line 11 "c:\users\longshuangmin\desktop\worke_space\g-501\g-501\BH67F2485_DEMO_20190705.c"
  11  0000              public _M_Unit
  11  0000              @HCCINIT0_M_Unit .section 'data'
  11  0000              _M_Unit	db 0
  11  0001              #pragma debug variable 8 1 _M_Unit "M_Unit"
  11  0001              
  11  0000              @HCCINIT .section 'data'
  10  0000              #line 10 "c:\users\longshuangmin\desktop\worke_space\g-501\g-501\BH67F2485_DEMO_20190705.c"
  10  0000              public _M_GM_data
  10  0000              @HCCINIT0_M_GM_data .section 'data'
  10  0000  0002[       _M_GM_data	db 2 dup(0)
            00
            ]
  10  0002              #pragma debug variable 11 1 _M_GM_data "M_GM_data"
  10  0002              
文件：BH67F2485_DEMO_20190705.c 编译器版本 HGASM 0202 页次33

  10  0000              @HCCINIT .section 'data'
   9  0000              #line 9 "c:\users\longshuangmin\desktop\worke_space\g-501\g-501\BH67F2485_DEMO_20190705.c"
   9  0000              public _M_GM_data_Record_buf
   9  0000              @HCCINIT0_M_GM_data_Record_buf .section 'data'
   9  0000  0002[       _M_GM_data_Record_buf	db 2 dup(0)
            00
            ]
   9  0002              #pragma debug variable 12 1 _M_GM_data_Record_buf "M_GM_data_Record_buf"
   9  0002              
   9  0000              @HCCINIT .section 'data'
   9  0000              #line 9 "c:\users\longshuangmin\desktop\worke_space\g-501\g-501\BH67F2485_DEMO_20190705.c"
   9  0000              public _M_GM_SendRecord
   9  0000              @HCCINIT0_M_GM_SendRecord .section 'data'
   9  0000  0002[       _M_GM_SendRecord	db 2 dup(0)
            00
            ]
   9  0002              #pragma debug variable 12 1 _M_GM_SendRecord "M_GM_SendRecord"
   9  0002              
   9  0000              @HCCINIT .section 'data'
   9  0000              #line 9 "c:\users\longshuangmin\desktop\worke_space\g-501\g-501\BH67F2485_DEMO_20190705.c"
   9  0000              public _M_GM_Record_current
   9  0000              @HCCINIT0_M_GM_Record_current .section 'data'
   9  0000  0002[       _M_GM_Record_current	db 2 dup(0)
            00
            ]
   9  0002              #pragma debug variable 12 1 _M_GM_Record_current "M_GM_Record_current"
   9  0002              
   9  0000              @HCCINIT .section 'data'
   9  0000              #line 9 "c:\users\longshuangmin\desktop\worke_space\g-501\g-501\BH67F2485_DEMO_20190705.c"
   9  0000              public _M_GM_data_Record
   9  0000              @HCCINIT0_M_GM_data_Record .section 'data'
   9  0000  0002[       _M_GM_data_Record	db 2 dup(0)
            00
            ]
   9  0002              #pragma debug variable 12 1 _M_GM_data_Record "M_GM_data_Record"
   9  0002              
   9  0000              @HCCINIT .section 'data'
   9  0000              #line 9 "c:\users\longshuangmin\desktop\worke_space\g-501\g-501\BH67F2485_DEMO_20190705.c"
   9  0000              public _M_No_Active_Cnt
   9  0000              @HCCINIT0_M_No_Active_Cnt .section 'data'
   9  0000  0002[       _M_No_Active_Cnt	db 2 dup(0)
            00
            ]
   9  0002              #pragma debug variable 12 1 _M_No_Active_Cnt "M_No_Active_Cnt"
   9  0002              
   9  0000              @HCCINIT .section 'data'
   8  0000              #line 8 "c:\users\longshuangmin\desktop\worke_space\g-501\g-501\BH67F2485_DEMO_20190705.c"
   8  0000              public _M_RTC_display
   8  0000              @HCCINIT0_M_RTC_display .section 'data'
   8  0000  0002[       _M_RTC_display	db 2 dup(0)
            00
            ]
   8  0002              #pragma debug variable 12 1 _M_RTC_display "M_RTC_display"
   8  0002              
   8  0000              @HCCINIT .section 'data'
   7  0000              #line 7 "c:\users\longshuangmin\desktop\worke_space\g-501\g-501\BH67F2485_DEMO_20190705.c"
   7  0000              public _M_ErrorCount
   7  0000              @HCCINIT0_M_ErrorCount .section 'data'
   7  0000              _M_ErrorCount	db 0
   7  0001              #pragma debug variable 8 1 _M_ErrorCount "M_ErrorCount"
文件：BH67F2485_DEMO_20190705.c 编译器版本 HGASM 0202 页次34

   7  0001              
   7  0000              @HCCINIT .section 'data'
   7  0000              #line 7 "c:\users\longshuangmin\desktop\worke_space\g-501\g-501\BH67F2485_DEMO_20190705.c"
   7  0000              public _M_Halt_Cnt
   7  0000              @HCCINIT0_M_Halt_Cnt .section 'data'
   7  0000              _M_Halt_Cnt	db 0
   7  0001              #pragma debug variable 8 1 _M_Halt_Cnt "M_Halt_Cnt"
   7  0001              
   7  0000              @HCCINIT .section 'data'
   6  0000              #line 6 "c:\users\longshuangmin\desktop\worke_space\g-501\g-501\BH67F2485_DEMO_20190705.c"
   6  0000              public _M_Error_Task
   6  0000              @HCCINIT0_M_Error_Task .section 'data'
   6  0000              _M_Error_Task	db 0
   6  0001              #pragma debug variable 8 1 _M_Error_Task "M_Error_Task"
   6  0001              
   6  0000              @HCCINIT .section 'data'
   6  0000              #line 6 "c:\users\longshuangmin\desktop\worke_space\g-501\g-501\BH67F2485_DEMO_20190705.c"
   6  0000              public _M_TaskBuf1
   6  0000              @HCCINIT0_M_TaskBuf1 .section 'data'
   6  0000              _M_TaskBuf1	db 0
   6  0001              #pragma debug variable 8 1 _M_TaskBuf1 "M_TaskBuf1"
   6  0001              
   6  0000              @HCCINIT .section 'data'
   6  0000              #line 6 "c:\users\longshuangmin\desktop\worke_space\g-501\g-501\BH67F2485_DEMO_20190705.c"
   6  0000              public _M_TaskBuf0
   6  0000              @HCCINIT0_M_TaskBuf0 .section 'data'
   6  0000              _M_TaskBuf0	db 0
   6  0001              #pragma debug variable 8 1 _M_TaskBuf0 "M_TaskBuf0"
   6  0001              
   6  0000              @HCCINIT .section 'data'
   6  0000              #line 6 "c:\users\longshuangmin\desktop\worke_space\g-501\g-501\BH67F2485_DEMO_20190705.c"
   6  0000              public _M_Task
   6  0000              @HCCINIT0_M_Task .section 'data'
   6  0000              _M_Task	db 0
   6  0001              #pragma debug variable 8 1 _M_Task "M_Task"
   6  0001              
   6  0000              @HCCINIT .section 'data'
   6  0000              #pragma debug struct_end
   6  0000              #pragma debug struct_end
   6  0000              #pragma debug union_end
   6  0000              #pragma debug union_end
   6  0000              #pragma debug variable 53 1 ___scc "__scc" 1
   6  0000              #pragma debug struct_end
   6  0000              #pragma debug struct_end
   6  0000              #pragma debug union_end
   6  0000              #pragma debug union_end
   6  0000              #pragma debug variable 55 1 ___pa "__pa" 1
   6  0000              #pragma debug struct_end
   6  0000              #pragma debug struct_end
   6  0000              #pragma debug union_end
   6  0000              #pragma debug union_end
   6  0000              #pragma debug variable 57 1 ___pac "__pac" 1
   6  0000              #pragma debug struct_end
   6  0000              #pragma debug struct_end
   6  0000              #pragma debug union_end
   6  0000              #pragma debug union_end
   6  0000              #pragma debug variable 59 1 ___papu "__papu" 1
   6  0000              #pragma debug struct_end
   6  0000              #pragma debug struct_end
   6  0000              #pragma debug union_end
文件：BH67F2485_DEMO_20190705.c 编译器版本 HGASM 0202 页次35

   6  0000              #pragma debug union_end
   6  0000              #pragma debug variable 61 1 ___lvdc "__lvdc" 1
   6  0000              #pragma debug struct_end
   6  0000              #pragma debug struct_end
   6  0000              #pragma debug union_end
   6  0000              #pragma debug union_end
   6  0000              #pragma debug variable 63 1 ___intc0 "__intc0" 1
   6  0000              #pragma debug struct_end
   6  0000              #pragma debug struct_end
   6  0000              #pragma debug union_end
   6  0000              #pragma debug union_end
   6  0000              #pragma debug variable 65 1 ___pb "__pb" 1
   6  0000              #pragma debug struct_end
   6  0000              #pragma debug struct_end
   6  0000              #pragma debug union_end
   6  0000              #pragma debug union_end
   6  0000              #pragma debug variable 67 1 ___pc "__pc" 1
   6  0000              #pragma debug struct_end
   6  0000              #pragma debug struct_end
   6  0000              #pragma debug union_end
   6  0000              #pragma debug union_end
   6  0000              #pragma debug variable 69 1 ___pcc "__pcc" 1
   6  0000              #pragma debug struct_end
   6  0000              #pragma debug struct_end
   6  0000              #pragma debug union_end
   6  0000              #pragma debug union_end
   6  0000              #pragma debug variable 71 1 ___pcpu "__pcpu" 1
   6  0000              #pragma debug struct_end
   6  0000              #pragma debug struct_end
   6  0000              #pragma debug union_end
   6  0000              #pragma debug union_end
   6  0000              #pragma debug variable 73 1 ___tb0c "__tb0c" 1
   6  0000              #pragma debug struct_end
   6  0000              #pragma debug struct_end
   6  0000              #pragma debug union_end
   6  0000              #pragma debug union_end
   6  0000              #pragma debug variable 75 1 ___u1cr1 "__u1cr1" 1
   6  0000              #pragma debug struct_end
   6  0000              #pragma debug struct_end
   6  0000              #pragma debug union_end
   6  0000              #pragma debug union_end
   6  0000              #pragma debug variable 77 1 ___ptm0c0 "__ptm0c0" 1
   6  0000              #pragma debug struct_end
   6  0000              #pragma debug struct_end
   6  0000              #pragma debug union_end
   6  0000              #pragma debug union_end
   6  0000              #pragma debug variable 79 1 ___pgac0 "__pgac0" 1
   6  0000              #pragma debug struct_end
   6  0000              #pragma debug struct_end
   6  0000              #pragma debug union_end
   6  0000              #pragma debug union_end
   6  0000              #pragma debug variable 81 1 ___adcr0 "__adcr0" 1
   6  0000              #pragma debug struct_end
   6  0000              #pragma debug struct_end
   6  0000              #pragma debug union_end
   6  0000              #pragma debug union_end
   6  0000              #pragma debug variable 83 1 ___pwrc "__pwrc" 1
   6  0000              #pragma debug struct_end
   6  0000              #pragma debug struct_end
   6  0000              #pragma debug union_end
文件：BH67F2485_DEMO_20190705.c 编译器版本 HGASM 0202 页次36

   6  0000              #pragma debug union_end
   6  0000              #pragma debug variable 85 1 ___irefc "__irefc" 1
   6  0000              #pragma debug struct_end
   6  0000              #pragma debug struct_end
   6  0000              #pragma debug union_end
   6  0000              #pragma debug union_end
   6  0000              #pragma debug variable 87 1 ___opa1c "__opa1c" 1
   6  0000              #pragma debug struct_end
   6  0000              #pragma debug struct_end
   6  0000              #pragma debug union_end
   6  0000              #pragma debug union_end
   6  0000              #pragma debug variable 89 1 ___opa2c "__opa2c" 1
   6  0000              #pragma debug struct_end
   6  0000              #pragma debug struct_end
   6  0000              #pragma debug union_end
   6  0000              #pragma debug union_end
   6  0000              #pragma debug variable 91 1 ___gsc2 "__gsc2" 1
   6  0000              #pragma debug struct_end
   6  0000              #pragma debug struct_end
   6  0000              #pragma debug union_end
   6  0000              #pragma debug union_end
   6  0000              #pragma debug variable 93 1 ___gsc3 "__gsc3" 1
   6  0000              #pragma debug struct_end
   6  0000              #pragma debug struct_end
   6  0000              #pragma debug union_end
   6  0000              #pragma debug union_end
   6  0000              #pragma debug variable 95 1 ___afeda1c "__afeda1c" 1
   6  0000              #pragma debug struct_end
   6  0000              #pragma debug struct_end
   6  0000              #pragma debug union_end
   6  0000              #pragma debug union_end
   6  0000              #pragma debug variable 97 1 ___afeda2c "__afeda2c" 1
   6  0000              #pragma debug struct_end
   6  0000              #pragma debug struct_end
   6  0000              #pragma debug union_end
   6  0000              #pragma debug union_end
   6  0000              #pragma debug variable 99 1 ___sgc "__sgc" 1
   6  0000              #pragma debug struct_end
   6  0000              #pragma debug struct_end
   6  0000              #pragma debug union_end
   6  0000              #pragma debug union_end
   6  0000              #pragma debug variable 101 1 ___bopac0 "__bopac0" 1
   6  0000              #pragma debug struct_end
   6  0000              #pragma debug struct_end
   6  0000              #pragma debug union_end
   6  0000              #pragma debug union_end
   6  0000              #pragma debug variable 103 1 ___bopac1 "__bopac1" 1
   6  0000              #pragma debug struct_end
   6  0000              #pragma debug struct_end
   6  0000              #pragma debug union_end
   6  0000              #pragma debug union_end
   6  0000              #pragma debug variable 105 1 ___lcdc0 "__lcdc0" 1
   6  0000              #pragma debug struct_end
   6  0000              #pragma debug struct_end
   6  0000              #pragma debug union_end
   6  0000              #pragma debug union_end
   6  0000              #pragma debug variable 107 1 ___pd "__pd" 1
   6  0000              #pragma debug variable 8 1 _memkey "memkey" 1
   6  0000              #pragma debug variable 12 1 _memkey_time "memkey_time" 2
   6  0000              #pragma debug variable 8 1 _setkey "setkey" 1
文件：BH67F2485_DEMO_20190705.c 编译器版本 HGASM 0202 页次37

   6  0000              #pragma debug variable 12 1 _setkey_time "setkey_time" 2
   6  0000              #pragma debug variable 8 1 _batlevel "batlevel" 1
   6  0000              #pragma debug variable 12 1 _lcd_scan_index "lcd_scan_index" 2
   6  0000              #pragma debug variable 12 1 _LcdMappingSize "LcdMappingSize" 2
   6  0000              #pragma debug variable 8 1 _Start_Detection_flag "Start_Detection_flag" 1
   6  0000              #pragma debug variable 8 1 _setkeydown "setkeydown" 1
   6  0000              #pragma debug variable 12 1 _setkeydown_time "setkeydown_time" 2
   6  0000              #pragma debug variable 7 1 _set_temp_25 "set_temp_25" 1
   6  0000              #pragma debug variable 7 1 _twokey "twokey" 1
   6  0000              extern _Initial_SysClock:near
   6  0000              extern _Initial_Sys:near
   6  0000              extern _SystemRAM_clear:near
   6  0000              extern _LCD_Clear:near
   6  0000              extern _LCD_Par_init:near
   6  0000              extern _Load_System_Vaule:near
   6  0000              extern _Load_VrefDaco_Vaule:near
   6  0000              extern _Load_StripMeas_Vaule:near
   6  0000              extern _Load_RtcTime_Vaule:near
   6  0000              extern _Read_EEPROMBuf_2:byte
   6  0000              extern _Read_EEPROMBuf:near
   6  0000              extern _fun_AFEPoweronInit:near
   6  0000              extern _fun_CalOPAOffset:near
   6  0000              extern _LCD_ScanOut1:near
   6  0000              extern _ScanKey:near
   6  0000              extern _BeepProcess:near
   6  0000              extern _BatteryCheckProcess:near
   6  0000              extern _LCD_ScanOut:near
   6  0000              extern _ChargerProcess:near
   6  0000              extern _PwrOnMode:near
   6  0000              extern _Normal_Measurement_Mode:near
   6  0000              extern _MemoryMode:near
   6  0000              extern _Error_meassage_process:near
   6  0000              extern _RTC_Mode_Setting_Process:near
   6  0000              extern _Alarm_Check_Process:near
   6  0000              extern _TestingMode:near
   6  0000              extern _OffMoedProcess:near
   6  0000              extern _Initial_HaltSys:near
   6  0000              extern _fun_StripModuleAllOpen:near
   6  0000              
   6  0000              ; 
   6  0000              ; Generated by holtek-gcc v3.19, Fri May 23 10:39:37 2025
   6  0000              ; Rebuild 718
   6  0000              ; end of file


        0 Errors, 0