文件：eeprom.c     编译器版本 HGASM 0202 页次1


   1  0000              ; Generated by holtek-gcc v3.19, Fri May 23 10:39:38 2025
   2  0000              ; 
   3  0000              ; Configuration:
   4  0000              ;       with long instruction
   5  0000              ;       Multi-ROM, Multi-RAM
   6  0000              ;       bits_per_rom_unit:16
   7  0000              ;       with mp1
   8  0000              ;       with tbhp, address(0x9)
   9  0000              ;          Use tabrd-const
  10  0000              ;       
  11  0000              ; SFR address of long-instruction arch:
  12  0000              ;    mp0 = -1,1,0
  13  0000              ;    mp1 = 4,3,2
  14  0000              ;    mp2 = 14,13,12
  15  0000              ;    tbp = 9,7,8
  16  0000              ;    acc = 5
  17  0000              ;    pcl = 6
  18  0000              ;    status = 10
  19  0000              ;    bp = 11
  20  0000              ;    intc = 32
  21  0000              ;       
  22  0000              ;       
  23  0000              ; use 'tabrdc' instead of 'tabrd'
  24  0000              ;       
  25  0000              
  26  0000              #pragma translator "holtek-gcc 4.6.4" "3.19" "build 20130711"
  27  0000              ; Rebuild 718
  28  0000              
  29  0000              ir equ [2]
  30  0000              mp equ [3]
  31  0000              sbp equ [4]
  32  0000              acc equ [5]
  33  0000              bp equ [11]
  34  0000              tblp equ [7]
  35  0000              tbhp equ [9]
  36  0000              status equ [10]
  37  0000              c equ [10].0
  38  0000              ac equ [10].1
  39  0000              z equ [10].2
  40  0000              ov equ [10].3
  41  0000              cz equ [10].6
  42  0000              sc equ [10].7
  43  0000              intc equ [32]
  44  0000              mduwr0 equ [59h]
  45  0000              mduwr1 equ [5ah]
  46  0000              mduwr2 equ [5bh]
  47  0000              mduwr3 equ [5ch]
  48  0000              mduwr4 equ [5dh]
  49  0000              mduwr5 equ [5eh]
  50  0000              mduwrctrl equ [5fh]
  51  0000              
  52  0000              extern ra:byte
  53  0000              extern rb:byte
  54  0000              extern rc:byte
  55  0000              extern rd:byte
  56  0000              extern re:byte
  57  0000              extern rf:byte
  58  0000              extern rg:byte
  59  0000              extern rh:byte
文件：eeprom.ASM   编译器版本 HGASM 0202 页次2

  60  0000              extern _Crom2Prom:near
  61  0000              extern _Crom2PromNext:near
  62  0000              
  63  0000              RAMBANK 0 @BITDATASEC, @BITDATASEC1
  64  0000              @HCCINIT	.section 'data'
  65  0000              @HCCINIT0	.section 'data'
  66  0000              @BITDATASEC	 .section 'data'
  67  0000              @BITDATASEC1	 .section 'data'
  68  0000              
  69  0000              #pragma debug scope 1 1
  70  0000              	extern __DELAY3:near
  71  0000              	extern __DELAYX3:near
  72  0000              	extern __DELAYX6:near
  73  0000              	extern __DELAYY5:near
  74  0000              	extern __DELAYY3:near
  75  0000              	extern _builtin_holtek_delay_2:byte
  76  0000              ___eea equ [65]
  77  0000              ___mp1h equ [4]
  78  0000              ___mp1l equ [3]
  79  0000              ___iar1 equ [2]
  80  0000              ___eed equ [66]
  81  0000              public _Read_EEPROMByte
  82  0000              #pragma debug scope 2 1

  14  0000              #line 14 "c:\users\longshuangmin\desktop\worke_space\g-501\g-501\eeprom.c"
  14  0000              _Read_EEPROMByte .section 'code'
  14  0000              _Read_EEPROMByte proc
  14  0000              public _Read_EEPROMByte_2
  14  0000  0003[           local _Read_EEPROMByte_2 db 3 dup(?)	; 2,1
            00
            ]
  14  0000  0080     E  	mov ra,a
  14  0001  0080     R  	mov _Read_EEPROMByte_2[2],a
  14  0002              #pragma debug variable 8 2 _Read_EEPROMByte_2+2 "addr"
  14  0002              #pragma debug pointer 42 8 2
  14  0002              #pragma debug pointer 42 8 2
  14  0002              #pragma debug variable 42 2 _Read_EEPROMByte_2+0 "data"
  15  0002              #line 15 "c:\users\longshuangmin\desktop\worke_space\g-501\g-501\eeprom.c"
  15  0002  0F80        	mov a,128
  15  0003  0200     E  	sub a,ra
  15  0004  380A        	snz c
  15  0005  2800     R  	jmp _L3
  15  0006              #pragma debug scope 3 2
  15  0006              ;begin block, line: 15.-1
  15  0006              #pragma debug scope 4 3
  15  0006              ;begin block, line: 15.-1
  21  0006              #line 21 "c:\users\longshuangmin\desktop\worke_space\g-501\g-501\eeprom.c"
  21  0006  0700     R  	mov a,_Read_EEPROMByte_2[2]
  21  0007  00C1        	mov [65],a
  22  0008              #line 22 "c:\users\longshuangmin\desktop\worke_space\g-501\g-501\eeprom.c"
  22  0008  0F01        	mov a,1
  22  0009  0084        	mov [4],a
  23  000A              #line 23 "c:\users\longshuangmin\desktop\worke_space\g-501\g-501\eeprom.c"
  23  000A  0F40        	mov a,64
  23  000B  0083        	mov [3],a
  24  000C              #line 24 "c:\users\longshuangmin\desktop\worke_space\g-501\g-501\eeprom.c"
  24  000C              ;# 24 "c:\users\longshuangmin\desktop\worke_space\g-501\g-501\eeprom.c" 1
  24  000C  3082        	set [0x02].1
  25  000D              #line 25 "c:\users\longshuangmin\desktop\worke_space\g-501\g-501\eeprom.c"
  25  000D              ;# 25 "c:\users\longshuangmin\desktop\worke_space\g-501\g-501\eeprom.c" 1
文件：eeprom.c     编译器版本 HGASM 0202 页次3

  25  000D  3002        	set [0x02].0
  26  000E              #line 26 "c:\users\longshuangmin\desktop\worke_space\g-501\g-501\eeprom.c"
  26  000E              ;# 26 "c:\users\longshuangmin\desktop\worke_space\g-501\g-501\eeprom.c" 1
  26  000E  3C02        	sz  [0x02].0
  27  000F              #line 27 "c:\users\longshuangmin\desktop\worke_space\g-501\g-501\eeprom.c"
  27  000F              ;# 27 "c:\users\longshuangmin\desktop\worke_space\g-501\g-501\eeprom.c" 1
  27  000F  2800     R  	jmp $-1
  28  0010              #line 28 "c:\users\longshuangmin\desktop\worke_space\g-501\g-501\eeprom.c"
  28  0010  1F02        	clr [2]
  29  0011              #line 29 "c:\users\longshuangmin\desktop\worke_space\g-501\g-501\eeprom.c"
  29  0011  0700     R  	mov a,_Read_EEPROMByte_2[0]
  29  0012  0083        	mov mp,a
  29  0013  0700     R  	mov a,_Read_EEPROMByte_2[1]
  29  0014  0084        	mov sbp,a
  29  0015  0742        	mov a,[66]
  29  0016  0082        	mov ir,a
  29  0017  0F01        	mov a,1
  29  0018  0080     E  	mov ra,a
  29  0019  1F00     E  	clr rb
  29  001A  2800     R  	jmp _L2
  29  001B              _L3:
  29  001B              #pragma debug scope 3 2
  29  001B              #pragma debug scope 2 1
  17  001B              #line 17 "c:\users\longshuangmin\desktop\worke_space\g-501\g-501\eeprom.c"
  17  001B  1F00     E  	clr ra
  17  001C  1F00     E  	clr rb
  17  001D              _L2:
  17  001D  0003        	ret
  17  001E              _Read_EEPROMByte endp
  17  001E              #line 17 "c:\users\longshuangmin\desktop\worke_space\g-501\g-501\eeprom.c"
  17  001E              #pragma debug scope 1 1
  17  001E              public _Read_EEPROMBuf
  17  001E              #pragma debug scope 5 1
  34  001E              #line 34 "c:\users\longshuangmin\desktop\worke_space\g-501\g-501\eeprom.c"
  34  0000              _Read_EEPROMBuf .section 'code'
  34  0000              _Read_EEPROMBuf proc
  34  0000              public _Read_EEPROMBuf_2
  34  0000  0005[           local _Read_EEPROMBuf_2 db 5 dup(?)	; 3,2
            00
            ]
  34  0000  0080     E  	mov ra,a
  34  0001  0080     R  	mov _Read_EEPROMBuf_2[3],a
  34  0002              #pragma debug variable 8 5 _Read_EEPROMBuf_2+3 "addr"
  34  0002              #pragma debug pointer 43 8 5
  34  0002              #pragma debug pointer 43 8 5
  34  0002              #pragma debug variable 43 5 _Read_EEPROMBuf_2+0 "buf"
  34  0002              #pragma debug variable 8 5 _Read_EEPROMBuf_2+2 "len"
  35  0002              #line 35 "c:\users\longshuangmin\desktop\worke_space\g-501\g-501\eeprom.c"
  35  0002  0700     R  	mov a,_Read_EEPROMBuf_2[2]
  35  0003  0080     E  	mov rb,a
  35  0004  1F00     E  	clr rc
  35  0005  0700     E  	mov a,ra
  35  0006  0380     E  	addm a,rb
  35  0007  3C0A        	sz c
  35  0008  1480     E  	inc rc
  35  0009  0F80        	mov a,128
  35  000A  0200     E  	sub a,rb
  35  000B  0F00        	mov a,0
  35  000C  1200     E  	sbc a,rc
  35  000D  3F8A        	sz sc
文件：eeprom.c     编译器版本 HGASM 0202 页次4

  35  000E  2800     R  	jmp _L6
  35  000F  0700     E  	mov a,ra
  35  0010  0300     R  	add a,_Read_EEPROMBuf_2[2]
  35  0011  0080     R  	mov _Read_EEPROMBuf_2[4],a
  35  0012  2800     R  	jmp _L7
  35  0013              _L6:
  37  0013              #line 37 "c:\users\longshuangmin\desktop\worke_space\g-501\g-501\eeprom.c"
  37  0013  1F00     E  	clr ra
  37  0014  1F00     E  	clr rb
  37  0015  2800     R  	jmp _L8
  37  0016              _L9:
  42  0016              #line 42 "c:\users\longshuangmin\desktop\worke_space\g-501\g-501\eeprom.c"
  42  0016  0700     R  	mov a,_Read_EEPROMBuf_2[0]
  42  0017  0080     R  	mov _Read_EEPROMByte_2[0],a
  42  0018  0700     R  	mov a,_Read_EEPROMBuf_2[1]
  42  0019  0080     R  	mov _Read_EEPROMByte_2[1],a
  42  001A  0700     R  	mov a,_Read_EEPROMBuf_2[3]
  42  001B              	fcall _Read_EEPROMByte
  42  0022  0700     E  	mov a,ra
  42  0023  0C01        	xor a,1
  42  0024  0500     E  	or a,rb
  42  0025  390A        	snz z
  42  0026  2800     R  	jmp _L6
  46  0027              #line 46 "c:\users\longshuangmin\desktop\worke_space\g-501\g-501\eeprom.c"
  46  0027  1480     R  	inc _Read_EEPROMBuf_2[3]
  47  0028              #line 47 "c:\users\longshuangmin\desktop\worke_space\g-501\g-501\eeprom.c"
  47  0028  1480     R  	inc _Read_EEPROMBuf_2[0]
  47  0029  3D0A        	sz z
  47  002A  1480     R  	inc _Read_EEPROMBuf_2[1]
  47  002B              _L7:
  40  002B              #line 40 "c:\users\longshuangmin\desktop\worke_space\g-501\g-501\eeprom.c"
  40  002B  0700     R  	mov a,_Read_EEPROMBuf_2[3]
  40  002C  0200     R  	sub a,_Read_EEPROMBuf_2[4]
  40  002D  390A        	snz z
  40  002E  2800     R  	jmp _L9
  49  002F              #line 49 "c:\users\longshuangmin\desktop\worke_space\g-501\g-501\eeprom.c"
  49  002F  0F01        	mov a,1
  49  0030  0080     E  	mov ra,a
  49  0031  1F00     E  	clr rb
  49  0032              _L8:
  49  0032  0003        	ret
  49  0033              _Read_EEPROMBuf endp
  49  0033              #line 49 "c:\users\longshuangmin\desktop\worke_space\g-501\g-501\eeprom.c"
  49  0033              #pragma debug scope 1 1
  49  0033              ___intc0 equ [32]
  49  0033              public _Write_EEPROMByte
  49  0033              #pragma debug scope 6 1
  61  0033              #line 61 "c:\users\longshuangmin\desktop\worke_space\g-501\g-501\eeprom.c"
  61  0000              _Write_EEPROMByte .section 'code'
  61  0000              _Write_EEPROMByte proc
  61  0000              public _Write_EEPROMByte_2
  61  0000  0003[           local _Write_EEPROMByte_2 db 3 dup(?)	; 1,2
            00
            ]
  61  0000  0080     E  	mov ra,a
  61  0001  0080     R  	mov _Write_EEPROMByte_2[2],a
  61  0002              #pragma debug variable 8 6 _Write_EEPROMByte_2+2 "addr"
  61  0002              #pragma debug variable 8 6 _Write_EEPROMByte_2+0 "WriteData"
  62  0002              #line 62 "c:\users\longshuangmin\desktop\worke_space\g-501\g-501\eeprom.c"
  62  0002  0F80        	mov a,128
文件：eeprom.c     编译器版本 HGASM 0202 页次5

  62  0003  0200     E  	sub a,ra
  62  0004  380A        	snz c
  62  0005  2800     R  	jmp _L14
  62  0006              #pragma debug scope 7 6
  62  0006              ;begin block, line: 62.-1
  62  0006              #pragma debug variable 8 7 _Write_EEPROMByte_2+1 "readData"
  70  0006              #line 70 "c:\users\longshuangmin\desktop\worke_space\g-501\g-501\eeprom.c"
  70  0006  0720        	mov a,[32]
  70  0007  0E01        	and a,1
  70  0008  0080     E  	mov ra,a
  71  0009              #line 71 "c:\users\longshuangmin\desktop\worke_space\g-501\g-501\eeprom.c"
  71  0009  3420        	clr [32].0
  72  000A              #line 72 "c:\users\longshuangmin\desktop\worke_space\g-501\g-501\eeprom.c"
  72  000A  0F01        	mov a,1
  72  000B  0084        	mov [4],a
  73  000C              #line 73 "c:\users\longshuangmin\desktop\worke_space\g-501\g-501\eeprom.c"
  73  000C  0F40        	mov a,64
  73  000D  0083        	mov [3],a
  74  000E              #line 74 "c:\users\longshuangmin\desktop\worke_space\g-501\g-501\eeprom.c"
  74  000E  0700     R  	mov a,_Write_EEPROMByte_2[2]
  74  000F  00C1        	mov [65],a
  75  0010              #line 75 "c:\users\longshuangmin\desktop\worke_space\g-501\g-501\eeprom.c"
  75  0010  0700     R  	mov a,_Write_EEPROMByte_2[0]
  75  0011  00C2        	mov [66],a
  77  0012              #line 77 "c:\users\longshuangmin\desktop\worke_space\g-501\g-501\eeprom.c"
  77  0012              ;# 77 "c:\users\longshuangmin\desktop\worke_space\g-501\g-501\eeprom.c" 1
  77  0012  3182        	set [0x02].3
  78  0013              #line 78 "c:\users\longshuangmin\desktop\worke_space\g-501\g-501\eeprom.c"
  78  0013              ;# 78 "c:\users\longshuangmin\desktop\worke_space\g-501\g-501\eeprom.c" 1
  78  0013  3102        	set [0x02].2
  79  0014              #line 79 "c:\users\longshuangmin\desktop\worke_space\g-501\g-501\eeprom.c"
  79  0014              ;# 79 "c:\users\longshuangmin\desktop\worke_space\g-501\g-501\eeprom.c" 1
  79  0014  3D02        	sz  [0x02].2
  80  0015              #line 80 "c:\users\longshuangmin\desktop\worke_space\g-501\g-501\eeprom.c"
  80  0015              ;# 80 "c:\users\longshuangmin\desktop\worke_space\g-501\g-501\eeprom.c" 1
  80  0015  2800     R  	jmp $-1
  81  0016              #line 81 "c:\users\longshuangmin\desktop\worke_space\g-501\g-501\eeprom.c"
  81  0016  1F02        	clr [2]
  82  0017              #line 82 "c:\users\longshuangmin\desktop\worke_space\g-501\g-501\eeprom.c"
  82  0017  3420        	clr [32].0
  82  0018  0700     E  	mov a,ra
  82  0019  05A0        	orm a,[32]
  83  001A              #line 83 "c:\users\longshuangmin\desktop\worke_space\g-501\g-501\eeprom.c"
  83  001A  0700     R  	mov a,_Write_EEPROMByte_2[2]
  83  001B  0080     E  	mov ra,a
  83  001C  0F00     R  	mov a,low offset _Write_EEPROMByte_2
  83  001D  0080     E  	mov rb,a
  83  001E  0F00     R  	mov a,high offset _Write_EEPROMByte_2
  83  001F  0080     E  	mov rc,a
  83  0020  0F01        	mov a,1
  83  0021  0300     E  	add a,rb
  83  0022  0080     R  	mov _Read_EEPROMByte_2[0],a
  83  0023  0F00        	mov a,0
  83  0024  1300     E  	adc a,rc
  83  0025  0080     R  	mov _Read_EEPROMByte_2[1],a
  83  0026  0700     E  	mov a,ra
  83  0027              	fcall _Read_EEPROMByte
  83  002E  0700     E  	mov a,ra
  83  002F  0C01        	xor a,1
  83  0030  0500     E  	or a,rb
文件：eeprom.c     编译器版本 HGASM 0202 页次6

  83  0031  390A        	snz z
  83  0032  2800     R  	jmp _L14
  87  0033              #line 87 "c:\users\longshuangmin\desktop\worke_space\g-501\g-501\eeprom.c"
  87  0033  0F01        	mov a,1
  87  0034  0080     E  	mov ra,a
  87  0035  1F00     E  	clr rb
  87  0036  0700     R  	mov a,_Write_EEPROMByte_2[1]
  87  0037  0200     R  	sub a,_Write_EEPROMByte_2[0]
  87  0038  3D0A        	sz z
  87  0039  2800     R  	jmp _L11
  87  003A  1F00     E  	clr ra
  87  003B  2800     R  	jmp _L11
  87  003C              _L14:
  87  003C              #pragma debug scope 6 1
  64  003C              #line 64 "c:\users\longshuangmin\desktop\worke_space\g-501\g-501\eeprom.c"
  64  003C  1F00     E  	clr ra
  64  003D  1F00     E  	clr rb
  64  003E              _L11:
  64  003E  0003        	ret
  64  003F              _Write_EEPROMByte endp
  64  003F              #line 64 "c:\users\longshuangmin\desktop\worke_space\g-501\g-501\eeprom.c"
  64  003F              #pragma debug scope 1 1
  64  003F              public _Write_EEPROMBuf
  64  003F              #pragma debug scope 8 1
  98  003F              #line 98 "c:\users\longshuangmin\desktop\worke_space\g-501\g-501\eeprom.c"
  98  0000              _Write_EEPROMBuf .section 'code'
  98  0000              _Write_EEPROMBuf proc
  98  0000              public _Write_EEPROMBuf_2
  98  0000  0005[           local _Write_EEPROMBuf_2 db 5 dup(?)	; 3,2
            00
            ]
  98  0000  0080     E  	mov ra,a
  98  0001  0080     R  	mov _Write_EEPROMBuf_2[3],a
  98  0002              #pragma debug variable 8 8 _Write_EEPROMBuf_2+3 "addr"
  98  0002              #pragma debug pointer 44 8 8
  98  0002              #pragma debug pointer 44 8 8
  98  0002              #pragma debug variable 44 8 _Write_EEPROMBuf_2+0 "buf"
  98  0002              #pragma debug variable 8 8 _Write_EEPROMBuf_2+2 "len"
  99  0002              #line 99 "c:\users\longshuangmin\desktop\worke_space\g-501\g-501\eeprom.c"
  99  0002  0700     R  	mov a,_Write_EEPROMBuf_2[2]
  99  0003  0080     E  	mov rb,a
  99  0004  1F00     E  	clr rc
  99  0005  0700     E  	mov a,ra
  99  0006  0380     E  	addm a,rb
  99  0007  3C0A        	sz c
  99  0008  1480     E  	inc rc
  99  0009  0F80        	mov a,128
  99  000A  0200     E  	sub a,rb
  99  000B  0F00        	mov a,0
  99  000C  1200     E  	sbc a,rc
  99  000D  3F8A        	sz sc
  99  000E  2800     R  	jmp _L17
  99  000F  0700     E  	mov a,ra
  99  0010  0300     R  	add a,_Write_EEPROMBuf_2[2]
  99  0011  0080     R  	mov _Write_EEPROMBuf_2[4],a
  99  0012  2800     R  	jmp _L18
  99  0013              _L17:
 101  0013              #line 101 "c:\users\longshuangmin\desktop\worke_space\g-501\g-501\eeprom.c"
 101  0013  1F00     E  	clr ra
 101  0014  1F00     E  	clr rb
文件：eeprom.c     编译器版本 HGASM 0202 页次7

 101  0015  2800     R  	jmp _L19
 101  0016              _L20:
 106  0016              #line 106 "c:\users\longshuangmin\desktop\worke_space\g-501\g-501\eeprom.c"
 106  0016  0700     R  	mov a,_Write_EEPROMBuf_2[0]
 106  0017  0083        	mov mp,a
 106  0018  0700     R  	mov a,_Write_EEPROMBuf_2[1]
 106  0019  0084        	mov sbp,a
 106  001A              	fcall _Crom2Prom
 106  0021  0080     R  	mov _Write_EEPROMByte_2[0],a
 106  0022  0700     R  	mov a,_Write_EEPROMBuf_2[3]
 106  0023              	fcall _Write_EEPROMByte
 106  002A  0700     E  	mov a,ra
 106  002B  0C01        	xor a,1
 106  002C  0500     E  	or a,rb
 106  002D  390A        	snz z
 106  002E  2800     R  	jmp _L17
 110  002F              #line 110 "c:\users\longshuangmin\desktop\worke_space\g-501\g-501\eeprom.c"
 110  002F  1480     R  	inc _Write_EEPROMBuf_2[3]
 111  0030              #line 111 "c:\users\longshuangmin\desktop\worke_space\g-501\g-501\eeprom.c"
 111  0030  1480     R  	inc _Write_EEPROMBuf_2[0]
 111  0031  3D0A        	sz z
 111  0032  1480     R  	inc _Write_EEPROMBuf_2[1]
 111  0033              _L18:
 104  0033              #line 104 "c:\users\longshuangmin\desktop\worke_space\g-501\g-501\eeprom.c"
 104  0033  0700     R  	mov a,_Write_EEPROMBuf_2[3]
 104  0034  0200     R  	sub a,_Write_EEPROMBuf_2[4]
 104  0035  390A        	snz z
 104  0036  2800     R  	jmp _L20
 113  0037              #line 113 "c:\users\longshuangmin\desktop\worke_space\g-501\g-501\eeprom.c"
 113  0037  0F01        	mov a,1
 113  0038  0080     E  	mov ra,a
 113  0039  1F00     E  	clr rb
 113  003A              _L19:
 113  003A  0003        	ret
 113  003B              _Write_EEPROMBuf endp
 113  003B              #line 113 "c:\users\longshuangmin\desktop\worke_space\g-501\g-501\eeprom.c"
 113  003B              #pragma debug scope 1 1
 113  003B              #pragma debug variable 8 1 ___mp1l "__mp1l" 1
 113  003B              #pragma debug variable 8 1 ___mp1h "__mp1h" 1
 113  003B              #pragma debug struct_end
 113  003B              #pragma debug struct_end
 113  003B              #pragma debug union_end
 113  003B              #pragma debug union_end
 113  003B              #pragma debug variable 46 1 ___intc0 "__intc0" 1
 113  003B              #pragma debug struct_end
 113  003B              #pragma debug struct_end
 113  003B              #pragma debug union_end
 113  003B              #pragma debug union_end
 113  003B              #pragma debug variable 48 1 ___eea "__eea" 1
 113  003B              #pragma debug variable 8 1 ___eed "__eed" 1
 113  003B              #pragma debug variable 8 1 ___iar1 "__iar1" 1
 113  003B              
 113  003B              ; 
 113  003B              ; Generated by holtek-gcc v3.19, Fri May 23 10:39:38 2025
 113  003B              ; Rebuild 718
 113  003B              ; end of file


        0 Errors, 0