文件：flash.c      编译器版本 HGASM 0202 页次1


   1  0000              ; Generated by holtek-gcc v3.19, Fri May 23 10:39:45 2025
   2  0000              ; 
   3  0000              ; Configuration:
   4  0000              ;       with long instruction
   5  0000              ;       Multi-ROM, Multi-RAM
   6  0000              ;       bits_per_rom_unit:16
   7  0000              ;       with mp1
   8  0000              ;       with tbhp, address(0x9)
   9  0000              ;          Use tabrd-const
  10  0000              ;       
  11  0000              ; SFR address of long-instruction arch:
  12  0000              ;    mp0 = -1,1,0
  13  0000              ;    mp1 = 4,3,2
  14  0000              ;    mp2 = 14,13,12
  15  0000              ;    tbp = 9,7,8
  16  0000              ;    acc = 5
  17  0000              ;    pcl = 6
  18  0000              ;    status = 10
  19  0000              ;    bp = 11
  20  0000              ;    intc = 32
  21  0000              ;       
  22  0000              ;       
  23  0000              ; use 'tabrdc' instead of 'tabrd'
  24  0000              ;       
  25  0000              
  26  0000              #pragma translator "holtek-gcc 4.6.4" "3.19" "build 20130711"
  27  0000              ; Rebuild 718
  28  0000              
  29  0000              ir equ [2]
  30  0000              mp equ [3]
  31  0000              sbp equ [4]
  32  0000              acc equ [5]
  33  0000              bp equ [11]
  34  0000              tblp equ [7]
  35  0000              tbhp equ [9]
  36  0000              status equ [10]
  37  0000              c equ [10].0
  38  0000              ac equ [10].1
  39  0000              z equ [10].2
  40  0000              ov equ [10].3
  41  0000              cz equ [10].6
  42  0000              sc equ [10].7
  43  0000              intc equ [32]
  44  0000              mduwr0 equ [59h]
  45  0000              mduwr1 equ [5ah]
  46  0000              mduwr2 equ [5bh]
  47  0000              mduwr3 equ [5ch]
  48  0000              mduwr4 equ [5dh]
  49  0000              mduwr5 equ [5eh]
  50  0000              mduwrctrl equ [5fh]
  51  0000              
  52  0000              extern ra:byte
  53  0000              extern rb:byte
  54  0000              extern rc:byte
  55  0000              extern rd:byte
  56  0000              extern re:byte
  57  0000              extern rf:byte
  58  0000              extern rg:byte
  59  0000              extern rh:byte
文件：flash.ASM    编译器版本 HGASM 0202 页次2

  60  0000              extern _Crom2Prom:near
  61  0000              extern _Crom2PromNext:near
  62  0000              
  63  0000              RAMBANK 0 @BITDATASEC, @BITDATASEC1
  64  0000              @HCCINIT	.section 'data'
  65  0000              @HCCINIT0	.section 'data'
  66  0000              @BITDATASEC	 .section 'data'
  67  0000              @BITDATASEC1	 .section 'data'
  68  0000              
  69  0000              #pragma debug scope 1 1
  70  0000              	extern __DELAY3:near
  71  0000              	extern __DELAYX3:near
  72  0000              	extern __DELAYX6:near
  73  0000              	extern __DELAYY5:near
  74  0000              	extern __DELAYY3:near
  75  0000              	extern _builtin_holtek_delay_2:byte
  76  0000              public _WritePage_flash
  77  0000              #pragma debug scope 2 1

   5  0000              #line 5 "c:\users\longshuangmin\desktop\worke_space\g-501\g-501\flash.c"
   5  0000              _WritePage_flash .section 'code'
   5  0000              _WritePage_flash proc
   5  0000              public _WritePage_flash_2
   5  0000  0003[           local _WritePage_flash_2 db 3 dup(?)	; 2,1
            00
            ]
   5  0003              #pragma debug variable 12 2 _WritePage_flash_2+0 "address"
  10  0003              #line 10 "c:\users\longshuangmin\desktop\worke_space\g-501\g-501\flash.c"
  10  0000  0F00        	mov a,0
  10  0001  0300     R  	add a,_WritePage_flash_2[0]
  10  0002  0080     E  	mov rb,a
  10  0003  0F52        	mov a,82
  10  0004  1300     R  	adc a,_WritePage_flash_2[1]
  10  0005  0080     E  	mov rc,a
  10  0006  0F00        	mov a,0
  10  0007  0200     E  	sub a,rb
  10  0008  0F16        	mov a,22
  10  0009  1200     E  	sbc a,rc
  10  000A  380A        	snz c
  10  000B  2800     R  	jmp _L5
  10  000C              #pragma debug scope 3 2
  10  000C              ;begin block, line: 10.-1
  10  000C              #pragma debug scope 4 3
  10  000C              ;begin block, line: 10.-1
  12  000C              #line 12 "c:\users\longshuangmin\desktop\worke_space\g-501\g-501\flash.c"
  12  000C  0F01        	mov a,1
  12  000D  0080     E  	mov _Drv_Erase_Page_2[2],a
  12  000E  0700     R  	mov a,_WritePage_flash_2[0]
  12  000F  0080     E  	mov _Drv_Erase_Page_2[0],a
  12  0010  0700     R  	mov a,_WritePage_flash_2[1]
  12  0011  0080     E  	mov _Drv_Erase_Page_2[1],a
  12  0012              	fcall _Drv_Erase_Page
  12  0019  0080     R  	mov _WritePage_flash_2[2],a
  15  001A              #line 15 "c:\users\longshuangmin\desktop\worke_space\g-501\g-501\flash.c"
  15  001A  0F80        	mov a,128
  15  001B  0080     E  	mov _Drv_WriteFlashRom_2[2],a
  15  001C  0700     R  	mov a,_WritePage_flash_2[0]
  15  001D  0080     E  	mov _Drv_WriteFlashRom_2[0],a
  15  001E  0700     R  	mov a,_WritePage_flash_2[1]
  15  001F  0080     E  	mov _Drv_WriteFlashRom_2[1],a
文件：flash.c      编译器版本 HGASM 0202 页次3

  15  0020              	fcall _Drv_WriteFlashRom
  15  0027  0080     E  	mov ra,a
  15  0028  1700     E  	sdza ra
  15  0029  2800     R  	jmp _L6
  12  002A              #line 12 "c:\users\longshuangmin\desktop\worke_space\g-501\g-501\flash.c"
  12  002A  0F01        	mov a,1
  12  002B  0080     E  	mov ra,a
  12  002C  1700     R  	sdza _WritePage_flash_2[2]
  12  002D  2800     R  	jmp _LI1
  12  002E  2800     R  	jmp _L2
  12  002F              _LI1:
  12  002F              _L6:
  16  002F              #line 16 "c:\users\longshuangmin\desktop\worke_space\g-501\g-501\flash.c"
  16  002F  1F00     E  	clr ra
  16  0030  2800     R  	jmp _L2
  16  0031              _L5:
  16  0031              #pragma debug scope 3 2
  16  0031              #pragma debug scope 2 1
   8  0031              #line 8 "c:\users\longshuangmin\desktop\worke_space\g-501\g-501\flash.c"
   8  0031  0F01        	mov a,1
   8  0032  0080     E  	mov ra,a
   8  0033              _L2:
  19  0033              #line 19 "c:\users\longshuangmin\desktop\worke_space\g-501\g-501\flash.c"
  19  0033  0700     E  	mov a,ra
  19  0034  0003        	ret
  19  0035              _WritePage_flash endp
  19  0035              #line 19 "c:\users\longshuangmin\desktop\worke_space\g-501\g-501\flash.c"
  19  0035              #pragma debug scope 1 1
  19  0035              _M_FlashBuf0 equ [1920]
  19  0035              _M_FlashBuf1 equ [1664]
  19  0035              public _ReadPage_flash
  19  0035              #pragma debug scope 5 1
  23  0035              #line 23 "c:\users\longshuangmin\desktop\worke_space\g-501\g-501\flash.c"
  23  0000              _ReadPage_flash .section 'code'
  23  0000              _ReadPage_flash proc
  23  0000              public _ReadPage_flash_2
  23  0000  0007[           local _ReadPage_flash_2 db 7 dup(?)	; 2,5
            00
            ]
  23  0007              #pragma debug variable 12 5 _ReadPage_flash_2+0 "address"
  23  0007              #pragma debug variable 8 5 _ReadPage_flash_2+6 "temp"
  23  0000  1F00     R  	clr _ReadPage_flash_2[2]
  23  0001  1F00     R  	clr _ReadPage_flash_2[3]
  28  0002              #line 28 "c:\users\longshuangmin\desktop\worke_space\g-501\g-501\flash.c"
  28  0002  1F00     R  	clr _ReadPage_flash_2[6]
  28  0003              _L12:
  30  0003              #line 30 "c:\users\longshuangmin\desktop\worke_space\g-501\g-501\flash.c"
  30  0003  0F3F        	mov a,63
  30  0004  0200     R  	sub a,_ReadPage_flash_2[6]
  30  0005  380A        	snz c
  30  0006  2800     R  	jmp _L13
  30  0007  0F00        	mov a,0
  30  0008  0200     R  	sub a,_ReadPage_flash_2[2]
  30  0009  0080     E  	mov ra,a
  30  000A  0F00        	mov a,0
  30  000B  1200     R  	sbc a,_ReadPage_flash_2[3]
  30  000C  0080     E  	mov rb,a
  30  000D  0700     E  	mov a,ra
  30  000E  0080     R  	mov _ReadPage_flash_2[4],a
  30  000F  0700     E  	mov a,rb
文件：flash.c      编译器版本 HGASM 0202 页次4

  30  0010  0080     R  	mov _ReadPage_flash_2[5],a
  31  0011              #line 31 "c:\users\longshuangmin\desktop\worke_space\g-501\g-501\flash.c"
  31  0011  0700     R  	mov a,_ReadPage_flash_2[0]
  31  0012  0200     R  	sub a,_ReadPage_flash_2[2]
  31  0013  0080     E  	mov ra,a
  31  0014  0700     R  	mov a,_ReadPage_flash_2[1]
  31  0015  1200     R  	sbc a,_ReadPage_flash_2[3]
  31  0016  0080     E  	mov rb,a
  31  0017  0700     E  	mov a,ra
  31  0018  0080     E  	mov _Drv_ReadFlashRom_2[0],a
  31  0019  0700     E  	mov a,rb
  31  001A  0080     E  	mov _Drv_ReadFlashRom_2[1],a
  31  001B              	fcall _Drv_ReadFlashRom
  31  0022  340A        	clr c
  31  0023  1A00     R  	rlca _ReadPage_flash_2[4]
  31  0024  0080     E  	mov rd,a
  31  0025  1A00     R  	rlca _ReadPage_flash_2[5]
  31  0026  0080     E  	mov re,a
  31  0027  0F80        	mov a,low offset _M_FlashBuf0
  31  0028  0300     E  	add a,rd
  31  0029  0083        	mov mp,a
  31  002A  0F07        	mov a,high offset _M_FlashBuf0
  31  002B  1300     E  	adc a,re
  31  002C  0084        	mov sbp,a
  31  002D  2800     R  	jmp _L16
  31  002E              _L13:
  31  002E  0FC0        	mov a,192
  31  002F  0200     R  	sub a,_ReadPage_flash_2[2]
  31  0030  0080     E  	mov ra,a
  31  0031  0FFF        	mov a,255
  31  0032  1200     R  	sbc a,_ReadPage_flash_2[3]
  31  0033  0080     E  	mov rb,a
  31  0034  0700     E  	mov a,ra
  31  0035  0080     R  	mov _ReadPage_flash_2[4],a
  31  0036  0700     E  	mov a,rb
  31  0037  0080     R  	mov _ReadPage_flash_2[5],a
  33  0038              #line 33 "c:\users\longshuangmin\desktop\worke_space\g-501\g-501\flash.c"
  33  0038  0700     R  	mov a,_ReadPage_flash_2[0]
  33  0039  0200     R  	sub a,_ReadPage_flash_2[2]
  33  003A  0080     E  	mov ra,a
  33  003B  0700     R  	mov a,_ReadPage_flash_2[1]
  33  003C  1200     R  	sbc a,_ReadPage_flash_2[3]
  33  003D  0080     E  	mov rb,a
  33  003E  0700     E  	mov a,ra
  33  003F  0080     E  	mov _Drv_ReadFlashRom_2[0],a
  33  0040  0700     E  	mov a,rb
  33  0041  0080     E  	mov _Drv_ReadFlashRom_2[1],a
  33  0042              	fcall _Drv_ReadFlashRom
  33  0049  340A        	clr c
  33  004A  1A00     R  	rlca _ReadPage_flash_2[4]
  33  004B  0080     E  	mov rd,a
  33  004C  1A00     R  	rlca _ReadPage_flash_2[5]
  33  004D  0080     E  	mov re,a
  33  004E  0F80        	mov a,low offset _M_FlashBuf1
  33  004F  0300     E  	add a,rd
  33  0050  0083        	mov mp,a
  33  0051  0F06        	mov a,high offset _M_FlashBuf1
  33  0052  1300     E  	adc a,re
  33  0053  0084        	mov sbp,a
  33  0054              _L16:
文件：flash.c      编译器版本 HGASM 0202 页次5

  33  0054  0700     E  	mov a,ra
  33  0055  0082        	mov ir,a
  33  0056  1483        	inc mp
  33  0057  0700     E  	mov a,rb
  33  0058  0082        	mov ir,a
  28  0059              #line 28 "c:\users\longshuangmin\desktop\worke_space\g-501\g-501\flash.c"
  28  0059  1480     R  	inc _ReadPage_flash_2[6]
  28  005A  0FFF        	mov a,255
  28  005B  0380     R  	addm a,_ReadPage_flash_2[2]
  28  005C  0FFF        	mov a,255
  28  005D  1380     R  	adcm a,_ReadPage_flash_2[3]
  28  005E  0700     R  	mov a,_ReadPage_flash_2[6]
  28  005F  0A80        	sub a,128
  28  0060  390A        	snz z
  28  0061  2800     R  	jmp _L12
  28  0062  0003        	ret
  28  0063              _ReadPage_flash endp
  28  0063              #line 28 "c:\users\longshuangmin\desktop\worke_space\g-501\g-501\flash.c"
  28  0063              #pragma debug scope 1 1
  28  0063              ___intc0 equ [32]
  28  0063              ___fc0 equ [323]
  28  0063              ___farl equ [326]
  28  0063              ___farh equ [327]
  28  0063              ___fd0h equ [329]
  28  0063              ___fd0l equ [328]
  28  0063              public _Flash_Store_Read_Process
  28  0063              #pragma debug scope 6 1
  39  0063              #line 39 "c:\users\longshuangmin\desktop\worke_space\g-501\g-501\flash.c"
  39  0000              _Flash_Store_Read_Process .section 'code'
  39  0000              _Flash_Store_Read_Process proc
  39  0000              public _Flash_Store_Read_Process_2
  39  0000  0002[           local _Flash_Store_Read_Process_2 db 2 dup(?)	; 2,0
            00
            ]
  39  0002              #pragma debug variable 12 6 _Flash_Store_Read_Process_2+0 "address"
  42  0002              #line 42 "c:\users\longshuangmin\desktop\worke_space\g-501\g-501\flash.c"
  42  0000  3420        	clr [32].0
  45  0001              #line 45 "c:\users\longshuangmin\desktop\worke_space\g-501\g-501\flash.c"
  45  0001  B243 0001   	lset [323].4
  46  0003              #line 46 "c:\users\longshuangmin\desktop\worke_space\g-501\g-501\flash.c"
  46  0003  B2C3 0001   	lset [323].5
  47  0005              #line 47 "c:\users\longshuangmin\desktop\worke_space\g-501\g-501\flash.c"
  47  0005  B743 0001   	lclr [323].6
  49  0007              #line 49 "c:\users\longshuangmin\desktop\worke_space\g-501\g-501\flash.c"
  49  0007  B0C3 0001   	lset [323].1
  52  0009              #line 52 "c:\users\longshuangmin\desktop\worke_space\g-501\g-501\flash.c"
  52  0009  0700     R  	mov a,_Flash_Store_Read_Process_2[0]
  52  000A  80C6 0001   	lmov [326],a
  53  000C              #line 53 "c:\users\longshuangmin\desktop\worke_space\g-501\g-501\flash.c"
  53  000C  0700     R  	mov a,_Flash_Store_Read_Process_2[1]
  53  000D  80C7 0001   	lmov [327],a
  57  000F              #line 57 "c:\users\longshuangmin\desktop\worke_space\g-501\g-501\flash.c"
  57  000F  B043 0001   	lset [323].0
  57  0011              _L18:
  60  0011              #line 60 "c:\users\longshuangmin\desktop\worke_space\g-501\g-501\flash.c"
  60  0011  B843 0001   	lsnz [323].0
  60  0013  2800     R  	jmp _L20
  61  0014              #line 61 "c:\users\longshuangmin\desktop\worke_space\g-501\g-501\flash.c"
  61  0014              ;# 61 "c:\users\longshuangmin\desktop\worke_space\g-501\g-501\flash.c" 1
  61  0014  0001        	clr wdt
文件：flash.c      编译器版本 HGASM 0202 页次6

  61  0015  2800     R  	jmp _L18
  61  0016              _L20:
  63  0016              #line 63 "c:\users\longshuangmin\desktop\worke_space\g-501\g-501\flash.c"
  63  0016  8749 0001   	lmov a,[329]
  63  0018  0080     E  	mov rc,a
  63  0019  1F00     E  	clr rb
  64  001A              #line 64 "c:\users\longshuangmin\desktop\worke_space\g-501\g-501\flash.c"
  64  001A  8748 0001   	lmov a,[328]
  64  001C  0080     E  	mov ra,a
  67  001D              #line 67 "c:\users\longshuangmin\desktop\worke_space\g-501\g-501\flash.c"
  67  001D  B4C3 0001   	lclr [323].1
  70  001F              #line 70 "c:\users\longshuangmin\desktop\worke_space\g-501\g-501\flash.c"
  70  001F  3020        	set [32].0
  74  0020              #line 74 "c:\users\longshuangmin\desktop\worke_space\g-501\g-501\flash.c"
  74  0020  0700     E  	mov a,rc
  74  0021  0080     E  	mov re,a
  74  0022  0700     E  	mov a,ra
  74  0023  0500     E  	or a,rb
  74  0024  0080     E  	mov rd,a
  74  0025  0700     E  	mov a,rd
  74  0026  0080     E  	mov ra,a
  74  0027  0700     E  	mov a,re
  74  0028  0080     E  	mov rb,a
  74  0029  0003        	ret
  74  002A              _Flash_Store_Read_Process endp
  74  002A              #line 74 "c:\users\longshuangmin\desktop\worke_space\g-501\g-501\flash.c"
  74  002A              #pragma debug scope 1 1
  74  002A              ___lvdc equ [26]
  74  002A              ___fd1l equ [330]
  74  002A              ___fd1h equ [331]
  74  002A              ___fd2l equ [332]
  74  002A              ___fd2h equ [333]
  74  002A              ___fd3l equ [334]
  74  002A              ___fd3h equ [335]
  74  002A              ___fc2 equ [325]
  74  002A              public _Flash_Store_Write_Process
  74  002A              #pragma debug scope 7 1
  78  002A              #line 78 "c:\users\longshuangmin\desktop\worke_space\g-501\g-501\flash.c"
  78  0000              _Flash_Store_Write_Process .section 'code'
  78  0000              _Flash_Store_Write_Process proc
  78  0000              public _Flash_Store_Write_Process_2
  78  0000  0004[           local _Flash_Store_Write_Process_2 db 4 dup(?)	; 4,0
            00
            ]
  78  0004              #pragma debug variable 12 7 _Flash_Store_Write_Process_2+0 "address"
  78  0004              #pragma debug variable 12 7 _Flash_Store_Write_Process_2+2 "data"
  82  0004              #line 82 "c:\users\longshuangmin\desktop\worke_space\g-501\g-501\flash.c"
  82  0000  3420        	clr [32].0
  84  0001              #line 84 "c:\users\longshuangmin\desktop\worke_space\g-501\g-501\flash.c"
  84  0001  3E9A        	sz [26].5
  84  0002  2800     R  	jmp _L22
  86  0003              #line 86 "c:\users\longshuangmin\desktop\worke_space\g-501\g-501\flash.c"
  86  0003  0F00        	mov a,0
  86  0004  0300     R  	add a,_Flash_Store_Write_Process_2[0]
  86  0005  0080     E  	mov rb,a
  86  0006  0F52        	mov a,82
  86  0007  1300     R  	adc a,_Flash_Store_Write_Process_2[1]
  86  0008  0080     E  	mov rc,a
  86  0009  0FFF        	mov a,255
  86  000A  0200     E  	sub a,rb
文件：flash.c      编译器版本 HGASM 0202 页次7

  86  000B  0F15        	mov a,21
  86  000C  1200     E  	sbc a,rc
  86  000D  380A        	snz c
  86  000E  2800     R  	jmp _L46
  90  000F              #line 90 "c:\users\longshuangmin\desktop\worke_space\g-501\g-501\flash.c"
  90  000F  B643 0001   	lclr [323].4
  91  0011              #line 91 "c:\users\longshuangmin\desktop\worke_space\g-501\g-501\flash.c"
  91  0011  B2C3 0001   	lset [323].5
  92  0013              #line 92 "c:\users\longshuangmin\desktop\worke_space\g-501\g-501\flash.c"
  92  0013  B343 0001   	lset [323].6
  94  0015              #line 94 "c:\users\longshuangmin\desktop\worke_space\g-501\g-501\flash.c"
  94  0015  B1C3 0001   	lset [323].3
  96  0017              #line 96 "c:\users\longshuangmin\desktop\worke_space\g-501\g-501\flash.c"
  96  0017  9F4A 0001   	lclr [330]
  97  0019              #line 97 "c:\users\longshuangmin\desktop\worke_space\g-501\g-501\flash.c"
  97  0019  0F04        	mov a,4
  97  001A  80CB 0001   	lmov [331],a
  98  001C              #line 98 "c:\users\longshuangmin\desktop\worke_space\g-501\g-501\flash.c"
  98  001C  0F0D        	mov a,13
  98  001D  80CC 0001   	lmov [332],a
  99  001F              #line 99 "c:\users\longshuangmin\desktop\worke_space\g-501\g-501\flash.c"
  99  001F  0F09        	mov a,9
  99  0020  80CD 0001   	lmov [333],a
 100  0022              #line 100 "c:\users\longshuangmin\desktop\worke_space\g-501\g-501\flash.c"
 100  0022  0FC3        	mov a,195
 100  0023  80CE 0001   	lmov [334],a
 101  0025              #line 101 "c:\users\longshuangmin\desktop\worke_space\g-501\g-501\flash.c"
 101  0025  0F40        	mov a,64
 101  0026  80CF 0001   	lmov [335],a
 104  0028              #line 104 "c:\users\longshuangmin\desktop\worke_space\g-501\g-501\flash.c"
 104  0028  0FE9        	mov a,-23
 104  0029  0080     E  	mov rb,a
 104  002A  0F03        	mov a,3
 104  002B  0080     E  	mov rc,a
 104  002C              _L25:
 104  002C  BFC3 0001   	lsz [323].7
 104  002E  2800     R  	jmp _L47
 106  002F              #line 106 "c:\users\longshuangmin\desktop\worke_space\g-501\g-501\flash.c"
 106  002F              ;# 106 "c:\users\longshuangmin\desktop\worke_space\g-501\g-501\flash.c" 1
 106  002F  0001        	clr wdt
 106  0030  0FFF        	mov a,255
 106  0031  0380     E  	addm a,rb
 106  0032  0FFF        	mov a,255
 106  0033  1380     E  	adcm a,rc
 108  0034              #line 108 "c:\users\longshuangmin\desktop\worke_space\g-501\g-501\flash.c"
 108  0034  0700     E  	mov a,rb
 108  0035  0500     E  	or a,rc
 108  0036  390A        	snz z
 108  0037  2800     R  	jmp _L25
 108  0038  2800     R  	jmp _L46
 108  0039              _L47:
 104  0039              #line 104 "c:\users\longshuangmin\desktop\worke_space\g-501\g-501\flash.c"
 104  0039  0FE9        	mov a,-23
 104  003A  0080     E  	mov rb,a
 104  003B  0F03        	mov a,3
 104  003C  0080     E  	mov rc,a
 104  003D              _L28:
 116  003D              #line 116 "c:\users\longshuangmin\desktop\worke_space\g-501\g-501\flash.c"
 116  003D  B9C3 0001   	lsnz [323].3
 116  003F  2800     R  	jmp _L48
文件：flash.c      编译器版本 HGASM 0202 页次8

 118  0040              #line 118 "c:\users\longshuangmin\desktop\worke_space\g-501\g-501\flash.c"
 118  0040              ;# 118 "c:\users\longshuangmin\desktop\worke_space\g-501\g-501\flash.c" 1
 118  0040  0001        	clr wdt
 118  0041  0FFF        	mov a,255
 118  0042  0380     E  	addm a,rb
 118  0043  0FFF        	mov a,255
 118  0044  1380     E  	adcm a,rc
 120  0045              #line 120 "c:\users\longshuangmin\desktop\worke_space\g-501\g-501\flash.c"
 120  0045  0700     E  	mov a,rb
 120  0046  0500     E  	or a,rc
 120  0047  390A        	snz z
 120  0048  2800     R  	jmp _L28
 120  0049  2800     R  	jmp _L46
 120  004A              _L48:
 128  004A              #line 128 "c:\users\longshuangmin\desktop\worke_space\g-501\g-501\flash.c"
 128  004A  0F01        	mov a,1
 128  004B  80C5 0001   	lmov [325],a
 130  004D              #line 130 "c:\users\longshuangmin\desktop\worke_space\g-501\g-501\flash.c"
 130  004D  0FE9        	mov a,-23
 130  004E  0080     E  	mov rb,a
 130  004F  0F03        	mov a,3
 130  0050  0080     E  	mov rc,a
 130  0051              _L30:
 130  0051  B845 0001   	lsnz [325].0
 130  0053  2800     R  	jmp _L49
 132  0054              #line 132 "c:\users\longshuangmin\desktop\worke_space\g-501\g-501\flash.c"
 132  0054              ;# 132 "c:\users\longshuangmin\desktop\worke_space\g-501\g-501\flash.c" 1
 132  0054  0001        	clr wdt
 132  0055  0FFF        	mov a,255
 132  0056  0380     E  	addm a,rb
 132  0057  0FFF        	mov a,255
 132  0058  1380     E  	adcm a,rc
 134  0059              #line 134 "c:\users\longshuangmin\desktop\worke_space\g-501\g-501\flash.c"
 134  0059  0700     E  	mov a,rb
 134  005A  0500     E  	or a,rc
 134  005B  390A        	snz z
 134  005C  2800     R  	jmp _L30
 134  005D  2800     R  	jmp _L46
 134  005E              _L49:
 142  005E              #line 142 "c:\users\longshuangmin\desktop\worke_space\g-501\g-501\flash.c"
 142  005E  B643 0001   	lclr [323].4
 143  0060              #line 143 "c:\users\longshuangmin\desktop\worke_space\g-501\g-501\flash.c"
 143  0060  B6C3 0001   	lclr [323].5
 144  0062              #line 144 "c:\users\longshuangmin\desktop\worke_space\g-501\g-501\flash.c"
 144  0062  B743 0001   	lclr [323].6
 146  0064              #line 146 "c:\users\longshuangmin\desktop\worke_space\g-501\g-501\flash.c"
 146  0064  B3C3 0001   	lset [323].7
 149  0066              #line 149 "c:\users\longshuangmin\desktop\worke_space\g-501\g-501\flash.c"
 149  0066  0700     R  	mov a,_Flash_Store_Write_Process_2[0]
 149  0067  80C6 0001   	lmov [326],a
 150  0069              #line 150 "c:\users\longshuangmin\desktop\worke_space\g-501\g-501\flash.c"
 150  0069  0700     R  	mov a,_Flash_Store_Write_Process_2[1]
 150  006A  80C7 0001   	lmov [327],a
 154  006C              #line 154 "c:\users\longshuangmin\desktop\worke_space\g-501\g-501\flash.c"
 154  006C  0700     R  	mov a,_Flash_Store_Write_Process_2[2]
 154  006D  80C8 0001   	lmov [328],a
 155  006F              #line 155 "c:\users\longshuangmin\desktop\worke_space\g-501\g-501\flash.c"
 155  006F  0700     R  	mov a,_Flash_Store_Write_Process_2[3]
 155  0070  80C9 0001   	lmov [329],a
 158  0072              #line 158 "c:\users\longshuangmin\desktop\worke_space\g-501\g-501\flash.c"
文件：flash.c      编译器版本 HGASM 0202 页次9

 158  0072  B143 0001   	lset [323].2
 162  0074              #line 162 "c:\users\longshuangmin\desktop\worke_space\g-501\g-501\flash.c"
 162  0074  0FE9        	mov a,-23
 162  0075  0080     E  	mov rb,a
 162  0076  0F03        	mov a,3
 162  0077  0080     E  	mov rc,a
 162  0078              _L32:
 162  0078  B943 0001   	lsnz [323].2
 162  007A  2800     R  	jmp _L50
 164  007B              #line 164 "c:\users\longshuangmin\desktop\worke_space\g-501\g-501\flash.c"
 164  007B              ;# 164 "c:\users\longshuangmin\desktop\worke_space\g-501\g-501\flash.c" 1
 164  007B  0001        	clr wdt
 164  007C  0FFF        	mov a,255
 164  007D  0380     E  	addm a,rb
 164  007E  0FFF        	mov a,255
 164  007F  1380     E  	adcm a,rc
 166  0080              #line 166 "c:\users\longshuangmin\desktop\worke_space\g-501\g-501\flash.c"
 166  0080  0700     E  	mov a,rb
 166  0081  0500     E  	or a,rc
 166  0082  390A        	snz z
 166  0083  2800     R  	jmp _L32
 166  0084  2800     R  	jmp _L46
 166  0085              _L50:
 172  0085              #line 172 "c:\users\longshuangmin\desktop\worke_space\g-501\g-501\flash.c"
 172  0085  B7C3 0001   	lclr [323].7
  83  0087              #line 83 "c:\users\longshuangmin\desktop\worke_space\g-501\g-501\flash.c"
  83  0087  1F00     E  	clr ra
  83  0088  2800     R  	jmp _L24
  83  0089              _L22:
 181  0089              #line 181 "c:\users\longshuangmin\desktop\worke_space\g-501\g-501\flash.c"
 181  0089  361A        	clr [26].4
 182  008A              #line 182 "c:\users\longshuangmin\desktop\worke_space\g-501\g-501\flash.c"
 182  008A  321A        	set [26].4
 182  008B              _L46:
 183  008B              #line 183 "c:\users\longshuangmin\desktop\worke_space\g-501\g-501\flash.c"
 183  008B  0F01        	mov a,1
 183  008C  0080     E  	mov ra,a
 183  008D              _L24:
 187  008D              #line 187 "c:\users\longshuangmin\desktop\worke_space\g-501\g-501\flash.c"
 187  008D  0FC0        	mov a,192
 187  008E  80C6 0001   	lmov [326],a
 188  0090              #line 188 "c:\users\longshuangmin\desktop\worke_space\g-501\g-501\flash.c"
 188  0090  0F7F        	mov a,127
 188  0091  80C7 0001   	lmov [327],a
 190  0093              #line 190 "c:\users\longshuangmin\desktop\worke_space\g-501\g-501\flash.c"
 190  0093  3020        	set [32].0
 194  0094              #line 194 "c:\users\longshuangmin\desktop\worke_space\g-501\g-501\flash.c"
 194  0094  0700     E  	mov a,ra
 194  0095  0003        	ret
 194  0096              _Flash_Store_Write_Process endp
 194  0096              #line 194 "c:\users\longshuangmin\desktop\worke_space\g-501\g-501\flash.c"
 194  0096              #pragma debug scope 1 1
 194  0096              public _Flash_Store_PageErase_Process
 194  0096              #pragma debug scope 8 1
 198  0096              #line 198 "c:\users\longshuangmin\desktop\worke_space\g-501\g-501\flash.c"
 198  0000              _Flash_Store_PageErase_Process .section 'code'
 198  0000              _Flash_Store_PageErase_Process proc
 198  0000              public _Flash_Store_PageErase_Process_2
 198  0000  0002[           local _Flash_Store_PageErase_Process_2 db 2 dup(?)	; 2,0
            00
文件：flash.c      编译器版本 HGASM 0202 页次10

            ]
 198  0002              #pragma debug variable 12 8 _Flash_Store_PageErase_Process_2+0 "address"
 203  0002              #line 203 "c:\users\longshuangmin\desktop\worke_space\g-501\g-501\flash.c"
 203  0000  3420        	clr [32].0
 204  0001              #line 204 "c:\users\longshuangmin\desktop\worke_space\g-501\g-501\flash.c"
 204  0001  3E9A        	sz [26].5
 204  0002  2800     R  	jmp _L52
 206  0003              #line 206 "c:\users\longshuangmin\desktop\worke_space\g-501\g-501\flash.c"
 206  0003  0FFF        	mov a,255
 206  0004  0200     R  	sub a,_Flash_Store_PageErase_Process_2[0]
 206  0005  0FAD        	mov a,173
 206  0006  1200     R  	sbc a,_Flash_Store_PageErase_Process_2[1]
 206  0007  3C0A        	sz c
 206  0008  2800     R  	jmp _L66
 210  0009              #line 210 "c:\users\longshuangmin\desktop\worke_space\g-501\g-501\flash.c"
 210  0009  B643 0001   	lclr [323].4
 211  000B              #line 211 "c:\users\longshuangmin\desktop\worke_space\g-501\g-501\flash.c"
 211  000B  B2C3 0001   	lset [323].5
 212  000D              #line 212 "c:\users\longshuangmin\desktop\worke_space\g-501\g-501\flash.c"
 212  000D  B343 0001   	lset [323].6
 214  000F              #line 214 "c:\users\longshuangmin\desktop\worke_space\g-501\g-501\flash.c"
 214  000F  B1C3 0001   	lset [323].3
 217  0011              #line 217 "c:\users\longshuangmin\desktop\worke_space\g-501\g-501\flash.c"
 217  0011  9F4A 0001   	lclr [330]
 218  0013              #line 218 "c:\users\longshuangmin\desktop\worke_space\g-501\g-501\flash.c"
 218  0013  0F04        	mov a,4
 218  0014  80CB 0001   	lmov [331],a
 219  0016              #line 219 "c:\users\longshuangmin\desktop\worke_space\g-501\g-501\flash.c"
 219  0016  0F0D        	mov a,13
 219  0017  80CC 0001   	lmov [332],a
 220  0019              #line 220 "c:\users\longshuangmin\desktop\worke_space\g-501\g-501\flash.c"
 220  0019  0F09        	mov a,9
 220  001A  80CD 0001   	lmov [333],a
 221  001C              #line 221 "c:\users\longshuangmin\desktop\worke_space\g-501\g-501\flash.c"
 221  001C  0FC3        	mov a,195
 221  001D  80CE 0001   	lmov [334],a
 222  001F              #line 222 "c:\users\longshuangmin\desktop\worke_space\g-501\g-501\flash.c"
 222  001F  0F40        	mov a,64
 222  0020  80CF 0001   	lmov [335],a
 225  0022              #line 225 "c:\users\longshuangmin\desktop\worke_space\g-501\g-501\flash.c"
 225  0022  0FE9        	mov a,-23
 225  0023  0080     E  	mov rb,a
 225  0024  0F03        	mov a,3
 225  0025  0080     E  	mov rc,a
 225  0026              _L55:
 225  0026  B9C3 0001   	lsnz [323].3
 225  0028  2800     R  	jmp _L67
 227  0029              #line 227 "c:\users\longshuangmin\desktop\worke_space\g-501\g-501\flash.c"
 227  0029              ;# 227 "c:\users\longshuangmin\desktop\worke_space\g-501\g-501\flash.c" 1
 227  0029  0001        	clr wdt
 227  002A  0FFF        	mov a,255
 227  002B  0380     E  	addm a,rb
 227  002C  0FFF        	mov a,255
 227  002D  1380     E  	adcm a,rc
 229  002E              #line 229 "c:\users\longshuangmin\desktop\worke_space\g-501\g-501\flash.c"
 229  002E  0700     E  	mov a,rb
 229  002F  0500     E  	or a,rc
 229  0030  390A        	snz z
 229  0031  2800     R  	jmp _L55
 229  0032  2800     R  	jmp _L66
文件：flash.c      编译器版本 HGASM 0202 页次11

 229  0033              _L67:
 236  0033              #line 236 "c:\users\longshuangmin\desktop\worke_space\g-501\g-501\flash.c"
 236  0033  B3C3 0001   	lset [323].7
 240  0035              #line 240 "c:\users\longshuangmin\desktop\worke_space\g-501\g-501\flash.c"
 240  0035  B243 0001   	lset [323].4
 241  0037              #line 241 "c:\users\longshuangmin\desktop\worke_space\g-501\g-501\flash.c"
 241  0037  B6C3 0001   	lclr [323].5
 242  0039              #line 242 "c:\users\longshuangmin\desktop\worke_space\g-501\g-501\flash.c"
 242  0039  B743 0001   	lclr [323].6
 247  003B              #line 247 "c:\users\longshuangmin\desktop\worke_space\g-501\g-501\flash.c"
 247  003B  0700     R  	mov a,_Flash_Store_PageErase_Process_2[0]
 247  003C  80C6 0001   	lmov [326],a
 248  003E              #line 248 "c:\users\longshuangmin\desktop\worke_space\g-501\g-501\flash.c"
 248  003E  0700     R  	mov a,_Flash_Store_PageErase_Process_2[1]
 248  003F  80C7 0001   	lmov [327],a
 252  0041              #line 252 "c:\users\longshuangmin\desktop\worke_space\g-501\g-501\flash.c"
 252  0041  B143 0001   	lset [323].2
 257  0043              #line 257 "c:\users\longshuangmin\desktop\worke_space\g-501\g-501\flash.c"
 257  0043  0FE9        	mov a,-23
 257  0044  0080     E  	mov rb,a
 257  0045  0F03        	mov a,3
 257  0046  0080     E  	mov rc,a
 257  0047              _L58:
 257  0047  B943 0001   	lsnz [323].2
 257  0049  2800     R  	jmp _L68
 259  004A              #line 259 "c:\users\longshuangmin\desktop\worke_space\g-501\g-501\flash.c"
 259  004A              ;# 259 "c:\users\longshuangmin\desktop\worke_space\g-501\g-501\flash.c" 1
 259  004A  0001        	clr wdt
 259  004B  0FFF        	mov a,255
 259  004C  0380     E  	addm a,rb
 259  004D  0FFF        	mov a,255
 259  004E  1380     E  	adcm a,rc
 261  004F              #line 261 "c:\users\longshuangmin\desktop\worke_space\g-501\g-501\flash.c"
 261  004F  0700     E  	mov a,rb
 261  0050  0500     E  	or a,rc
 261  0051  390A        	snz z
 261  0052  2800     R  	jmp _L58
 261  0053  2800     R  	jmp _L66
 261  0054              _L68:
 267  0054              #line 267 "c:\users\longshuangmin\desktop\worke_space\g-501\g-501\flash.c"
 267  0054  B7C3 0001   	lclr [323].7
 202  0056              #line 202 "c:\users\longshuangmin\desktop\worke_space\g-501\g-501\flash.c"
 202  0056  1F00     E  	clr ra
 202  0057  2800     R  	jmp _L54
 202  0058              _L52:
 274  0058              #line 274 "c:\users\longshuangmin\desktop\worke_space\g-501\g-501\flash.c"
 274  0058  361A        	clr [26].4
 275  0059              #line 275 "c:\users\longshuangmin\desktop\worke_space\g-501\g-501\flash.c"
 275  0059  321A        	set [26].4
 275  005A              _L66:
 276  005A              #line 276 "c:\users\longshuangmin\desktop\worke_space\g-501\g-501\flash.c"
 276  005A  0F01        	mov a,1
 276  005B  0080     E  	mov ra,a
 276  005C              _L54:
 280  005C              #line 280 "c:\users\longshuangmin\desktop\worke_space\g-501\g-501\flash.c"
 280  005C  0FC0        	mov a,192
 280  005D  80C6 0001   	lmov [326],a
 281  005F              #line 281 "c:\users\longshuangmin\desktop\worke_space\g-501\g-501\flash.c"
 281  005F  0F7F        	mov a,127
 281  0060  80C7 0001   	lmov [327],a
文件：flash.c      编译器版本 HGASM 0202 页次12

 282  0062              #line 282 "c:\users\longshuangmin\desktop\worke_space\g-501\g-501\flash.c"
 282  0062  3020        	set [32].0
 285  0063              #line 285 "c:\users\longshuangmin\desktop\worke_space\g-501\g-501\flash.c"
 285  0063  0700     E  	mov a,ra
 285  0064  0003        	ret
 285  0065              _Flash_Store_PageErase_Process endp
 285  0065              #line 285 "c:\users\longshuangmin\desktop\worke_space\g-501\g-501\flash.c"
 285  0065              #pragma debug scope 1 1
 285  0065              public _Significant_Checksum
 285  0065              #pragma debug scope 9 1
 460  0065              #line 460 "c:\users\longshuangmin\desktop\worke_space\g-501\g-501\flash.c"
 460  0000              _Significant_Checksum .section 'code'
 460  0000              _Significant_Checksum proc
 460  0000  0F0F        	mov a,15
 460  0001  0080     E  	mov rf,a
 466  0002              #line 466 "c:\users\longshuangmin\desktop\worke_space\g-501\g-501\flash.c"
 466  0002  1F00     E  	clr ra
 465  0003              #line 465 "c:\users\longshuangmin\desktop\worke_space\g-501\g-501\flash.c"
 465  0003  1F00     E  	clr rb
 465  0004  1F00     E  	clr rc
 465  0005              _L71:
 467  0005              #line 467 "c:\users\longshuangmin\desktop\worke_space\g-501\g-501\flash.c"
 467  0005  0700     E  	mov a,ra
 467  0006  0080     E  	mov rd,a
 467  0007  1F00     E  	clr re
 467  0008  340A        	clr c
 467  0009  1A80     E  	rlc rd
 467  000A  1A80     E  	rlc re
 467  000B  0F80        	mov a,low offset _M_FlashBuf0
 467  000C  0300     E  	add a,rd
 467  000D  0083        	mov mp,a
 467  000E  0F07        	mov a,high offset _M_FlashBuf0
 467  000F  1300     E  	adc a,re
 467  0010  0084        	mov sbp,a
 467  0011              	fcall _Crom2Prom
 467  0018  0080     E  	mov rd,a
 467  0019              	fcall _Crom2PromNext
 467  0020  0080     E  	mov re,a
 467  0021  0700     E  	mov a,rd
 467  0022  0380     E  	addm a,rb
 467  0023  0700     E  	mov a,re
 467  0024  1380     E  	adcm a,rc
 466  0025              #line 466 "c:\users\longshuangmin\desktop\worke_space\g-501\g-501\flash.c"
 466  0025  1480     E  	inc ra
 466  0026  1780     E  	sdz rf
 466  0027  2800     R  	jmp _L71
 468  0028              #line 468 "c:\users\longshuangmin\desktop\worke_space\g-501\g-501\flash.c"
 468  0028  0700     E  	mov a,rb
 468  0029  C09E 0007   	lmov [1950],a
 468  002B  0700     E  	mov a,rc
 468  002C  C09F 0007   	lmov [1951],a
 468  002E  0F0F        	mov a,15
 468  002F  0080     E  	mov rf,a
 472  0030              #line 472 "c:\users\longshuangmin\desktop\worke_space\g-501\g-501\flash.c"
 472  0030  1F00     E  	clr ra
 471  0031              #line 471 "c:\users\longshuangmin\desktop\worke_space\g-501\g-501\flash.c"
 471  0031  1F00     E  	clr rb
 471  0032  1F00     E  	clr rc
 471  0033              _L73:
 473  0033              #line 473 "c:\users\longshuangmin\desktop\worke_space\g-501\g-501\flash.c"
文件：flash.c      编译器版本 HGASM 0202 页次13

 473  0033  0F10        	mov a,16
 473  0034  0300     E  	add a,ra
 473  0035  0080     E  	mov rd,a
 473  0036  0F00        	mov a,0
 473  0037  1F00     E  	clr re
 473  0038  1380     E  	adcm a,re
 473  0039  340A        	clr c
 473  003A  1A80     E  	rlc rd
 473  003B  1A80     E  	rlc re
 473  003C  0F80        	mov a,low offset _M_FlashBuf0
 473  003D  0300     E  	add a,rd
 473  003E  0083        	mov mp,a
 473  003F  0F07        	mov a,high offset _M_FlashBuf0
 473  0040  1300     E  	adc a,re
 473  0041  0084        	mov sbp,a
 473  0042              	fcall _Crom2Prom
 473  0049  0080     E  	mov rd,a
 473  004A              	fcall _Crom2PromNext
 473  0051  0080     E  	mov re,a
 473  0052  0700     E  	mov a,rd
 473  0053  0380     E  	addm a,rb
 473  0054  0700     E  	mov a,re
 473  0055  1380     E  	adcm a,rc
 472  0056              #line 472 "c:\users\longshuangmin\desktop\worke_space\g-501\g-501\flash.c"
 472  0056  1480     E  	inc ra
 472  0057  1780     E  	sdz rf
 472  0058  2800     R  	jmp _L73
 474  0059              #line 474 "c:\users\longshuangmin\desktop\worke_space\g-501\g-501\flash.c"
 474  0059  0700     E  	mov a,rb
 474  005A  C0BE 0007   	lmov [1982],a
 474  005C  0700     E  	mov a,rc
 474  005D  C0BF 0007   	lmov [1983],a
 474  005F  0F0F        	mov a,15
 474  0060  0080     E  	mov rf,a
 478  0061              #line 478 "c:\users\longshuangmin\desktop\worke_space\g-501\g-501\flash.c"
 478  0061  1F00     E  	clr ra
 477  0062              #line 477 "c:\users\longshuangmin\desktop\worke_space\g-501\g-501\flash.c"
 477  0062  1F00     E  	clr rb
 477  0063  1F00     E  	clr rc
 477  0064              _L75:
 479  0064              #line 479 "c:\users\longshuangmin\desktop\worke_space\g-501\g-501\flash.c"
 479  0064  0F20        	mov a,32
 479  0065  0300     E  	add a,ra
 479  0066  0080     E  	mov rd,a
 479  0067  0F00        	mov a,0
 479  0068  1F00     E  	clr re
 479  0069  1380     E  	adcm a,re
 479  006A  340A        	clr c
 479  006B  1A80     E  	rlc rd
 479  006C  1A80     E  	rlc re
 479  006D  0F80        	mov a,low offset _M_FlashBuf0
 479  006E  0300     E  	add a,rd
 479  006F  0083        	mov mp,a
 479  0070  0F07        	mov a,high offset _M_FlashBuf0
 479  0071  1300     E  	adc a,re
 479  0072  0084        	mov sbp,a
 479  0073              	fcall _Crom2Prom
 479  007A  0080     E  	mov rd,a
 479  007B              	fcall _Crom2PromNext
 479  0082  0080     E  	mov re,a
文件：flash.c      编译器版本 HGASM 0202 页次14

 479  0083  0700     E  	mov a,rd
 479  0084  0380     E  	addm a,rb
 479  0085  0700     E  	mov a,re
 479  0086  1380     E  	adcm a,rc
 478  0087              #line 478 "c:\users\longshuangmin\desktop\worke_space\g-501\g-501\flash.c"
 478  0087  1480     E  	inc ra
 478  0088  1780     E  	sdz rf
 478  0089  2800     R  	jmp _L75
 480  008A              #line 480 "c:\users\longshuangmin\desktop\worke_space\g-501\g-501\flash.c"
 480  008A  0700     E  	mov a,rb
 480  008B  C0DE 0007   	lmov [2014],a
 480  008D  0700     E  	mov a,rc
 480  008E  C0DF 0007   	lmov [2015],a
 480  0090  0F0F        	mov a,15
 480  0091  0080     E  	mov rf,a
 484  0092              #line 484 "c:\users\longshuangmin\desktop\worke_space\g-501\g-501\flash.c"
 484  0092  1F00     E  	clr ra
 483  0093              #line 483 "c:\users\longshuangmin\desktop\worke_space\g-501\g-501\flash.c"
 483  0093  1F00     E  	clr rb
 483  0094  1F00     E  	clr rc
 483  0095              _L77:
 485  0095              #line 485 "c:\users\longshuangmin\desktop\worke_space\g-501\g-501\flash.c"
 485  0095  0F30        	mov a,48
 485  0096  0300     E  	add a,ra
 485  0097  0080     E  	mov rd,a
 485  0098  0F00        	mov a,0
 485  0099  1F00     E  	clr re
 485  009A  1380     E  	adcm a,re
 485  009B  340A        	clr c
 485  009C  1A80     E  	rlc rd
 485  009D  1A80     E  	rlc re
 485  009E  0F80        	mov a,low offset _M_FlashBuf0
 485  009F  0300     E  	add a,rd
 485  00A0  0083        	mov mp,a
 485  00A1  0F07        	mov a,high offset _M_FlashBuf0
 485  00A2  1300     E  	adc a,re
 485  00A3  0084        	mov sbp,a
 485  00A4              	fcall _Crom2Prom
 485  00AB  0080     E  	mov rd,a
 485  00AC              	fcall _Crom2PromNext
 485  00B3  0080     E  	mov re,a
 485  00B4  0700     E  	mov a,rd
 485  00B5  0380     E  	addm a,rb
 485  00B6  0700     E  	mov a,re
 485  00B7  1380     E  	adcm a,rc
 484  00B8              #line 484 "c:\users\longshuangmin\desktop\worke_space\g-501\g-501\flash.c"
 484  00B8  1480     E  	inc ra
 484  00B9  1780     E  	sdz rf
 484  00BA  2800     R  	jmp _L77
 486  00BB              #line 486 "c:\users\longshuangmin\desktop\worke_space\g-501\g-501\flash.c"
 486  00BB  0700     E  	mov a,rb
 486  00BC  C0FE 0007   	lmov [2046],a
 486  00BE  0700     E  	mov a,rc
 486  00BF  C0FF 0007   	lmov [2047],a
 486  00C1  0003        	ret
 486  00C2              _Significant_Checksum endp
 486  00C2              #line 486 "c:\users\longshuangmin\desktop\worke_space\g-501\g-501\flash.c"
 486  00C2              #pragma debug scope 1 1
 486  00C2              public _Store_SetVauletoFlash
 486  00C2              #pragma debug scope 10 1
文件：flash.c      编译器版本 HGASM 0202 页次15

 491  00C2              #line 491 "c:\users\longshuangmin\desktop\worke_space\g-501\g-501\flash.c"
 491  0000              _Store_SetVauletoFlash .section 'code'
 491  0000              _Store_SetVauletoFlash proc
 491  0000  0004[           local _Store_SetVauletoFlash_2 db 4 dup(?)	; 0,4
            00
            ]
 493  0004              #line 493 "c:\users\longshuangmin\desktop\worke_space\g-501\g-501\flash.c"
 493  0000  0F80        	mov a,-128
 493  0001  0080     R  	mov _ReadPage_flash_2[0],a
 493  0002  0FAE        	mov a,-82
 493  0003  0080     R  	mov _ReadPage_flash_2[1],a
 493  0004              	fcall _ReadPage_flash
 500  000B              #line 500 "c:\users\longshuangmin\desktop\worke_space\g-501\g-501\flash.c"
 500  000B  0700     E  	mov a,_M_Unit[0]
 500  000C  0080     R  	mov _Store_SetVauletoFlash_2[2],a
 500  000D  1F00     R  	clr _Store_SetVauletoFlash_2[3]
 500  000E  0F04        	mov a,4
 500  000F  0080     E  	mov rh,a
 494  0010              #line 494 "c:\users\longshuangmin\desktop\worke_space\g-501\g-501\flash.c"
 494  0010  1F00     E  	clr ra
 494  0011              _L88:
 496  0011              #line 496 "c:\users\longshuangmin\desktop\worke_space\g-501\g-501\flash.c"
 496  0011  0700     E  	mov a,ra
 496  0012  0080     E  	mov rb,a
 496  0013  1100     E  	swapa rb
 496  0014  0EF0        	and a,0f0h 
 496  0015  0080     E  	mov rb,a
 497  0016              #line 497 "c:\users\longshuangmin\desktop\worke_space\g-501\g-501\flash.c"
 497  0016  1F00     E  	clr rc
 497  0017  340A        	clr c
 497  0018  1A00     E  	rlca rb
 497  0019  0080     E  	mov rd,a
 497  001A  1A00     E  	rlca rc
 497  001B  0080     E  	mov re,a
 497  001C  0F80        	mov a,low offset _M_FlashBuf0
 497  001D  0300     E  	add a,rd
 497  001E  0083        	mov mp,a
 497  001F  0F07        	mov a,high offset _M_FlashBuf0
 497  0020  1300     E  	adc a,re
 497  0021  0084        	mov sbp,a
 497  0022  0700     E  	mov a,_M_GM_data_Record[0]
 497  0023  0082        	mov ir,a
 497  0024  1483        	inc mp
 497  0025  0700     E  	mov a,_M_GM_data_Record[1]
 497  0026  0082        	mov ir,a
 498  0027              #line 498 "c:\users\longshuangmin\desktop\worke_space\g-501\g-501\flash.c"
 498  0027  0F82        	mov a,low (offset _M_FlashBuf0+2)
 498  0028  0300     E  	add a,rd
 498  0029  0083        	mov mp,a
 498  002A  0F07        	mov a,high (offset _M_FlashBuf0+2)
 498  002B  1300     E  	adc a,re
 498  002C  0084        	mov sbp,a
 498  002D  0700     E  	mov a,_M_GM_Record_current[0]
 498  002E  0082        	mov ir,a
 498  002F  1483        	inc mp
 498  0030  0700     E  	mov a,_M_GM_Record_current[1]
 498  0031  0082        	mov ir,a
 499  0032              #line 499 "c:\users\longshuangmin\desktop\worke_space\g-501\g-501\flash.c"
 499  0032  0F84        	mov a,low (offset _M_FlashBuf0+4)
 499  0033  0300     E  	add a,rd
文件：flash.c      编译器版本 HGASM 0202 页次16

 499  0034  0083        	mov mp,a
 499  0035  0F07        	mov a,high (offset _M_FlashBuf0+4)
 499  0036  1300     E  	adc a,re
 499  0037  0084        	mov sbp,a
 499  0038  0700     E  	mov a,_M_GM_SendRecord[0]
 499  0039  0082        	mov ir,a
 499  003A  1483        	inc mp
 499  003B  0700     E  	mov a,_M_GM_SendRecord[1]
 499  003C  0082        	mov ir,a
 500  003D              #line 500 "c:\users\longshuangmin\desktop\worke_space\g-501\g-501\flash.c"
 500  003D  0F86        	mov a,low (offset _M_FlashBuf0+6)
 500  003E  0300     E  	add a,rd
 500  003F  0083        	mov mp,a
 500  0040  0F07        	mov a,high (offset _M_FlashBuf0+6)
 500  0041  1300     E  	adc a,re
 500  0042  0084        	mov sbp,a
 500  0043  0700     R  	mov a,_Store_SetVauletoFlash_2[2]
 500  0044  0082        	mov ir,a
 500  0045  1483        	inc mp
 500  0046  0700     R  	mov a,_Store_SetVauletoFlash_2[3]
 500  0047  0082        	mov ir,a
 502  0048              #line 502 "c:\users\longshuangmin\desktop\worke_space\g-501\g-501\flash.c"
 502  0048  3800     E  	snz _Flag6[0].0
 502  0049  2800     R  	jmp _L79
 503  004A              #line 503 "c:\users\longshuangmin\desktop\worke_space\g-501\g-501\flash.c"
 503  004A  0F88        	mov a,low (offset _M_FlashBuf0+8)
 503  004B  0300     E  	add a,rd
 503  004C  0083        	mov mp,a
 503  004D  0F07        	mov a,high (offset _M_FlashBuf0+8)
 503  004E  1300     E  	adc a,re
 503  004F  0084        	mov sbp,a
 503  0050  0F00        	mov a,0
 503  0051  0082        	mov ir,a
 503  0052  1483        	inc mp
 503  0053  0F80        	mov a,128
 503  0054  0082        	mov ir,a
 503  0055  2800     R  	jmp _L80
 503  0056              _L79:
 505  0056              #line 505 "c:\users\longshuangmin\desktop\worke_space\g-501\g-501\flash.c"
 505  0056  340A        	clr c
 505  0057  1A00     E  	rlca rb
 505  0058  0080     E  	mov rd,a
 505  0059  1A00     E  	rlca rc
 505  005A  0080     E  	mov re,a
 505  005B  0F88        	mov a,low (offset _M_FlashBuf0+8)
 505  005C  0300     E  	add a,rd
 505  005D  0083        	mov mp,a
 505  005E  0F07        	mov a,high (offset _M_FlashBuf0+8)
 505  005F  1300     E  	adc a,re
 505  0060  0084        	mov sbp,a
 505  0061  1F02        	clr ir
 505  0062  1483        	inc mp
 505  0063  1F02        	clr ir
 505  0064              _L80:
 508  0064              #line 508 "c:\users\longshuangmin\desktop\worke_space\g-501\g-501\flash.c"
 508  0064  340A        	clr c
 508  0065  1A00     E  	rlca rb
 508  0066  0080     E  	mov rd,a
 508  0067  1A00     E  	rlca rc
 508  0068  0080     E  	mov re,a
文件：flash.c      编译器版本 HGASM 0202 页次17

 508  0069  0F8A        	mov a,low (offset _M_FlashBuf0+10)
 508  006A  0300     E  	add a,rd
 508  006B  0083        	mov mp,a
 508  006C  0F07        	mov a,high (offset _M_FlashBuf0+10)
 508  006D  1300     E  	adc a,re
 508  006E  0084        	mov sbp,a
 507  006F              #line 507 "c:\users\longshuangmin\desktop\worke_space\g-501\g-501\flash.c"
 507  006F  3800     E  	snz _Flag6[0].2
 507  0070  2800     R  	jmp _L81
 508  0071              #line 508 "c:\users\longshuangmin\desktop\worke_space\g-501\g-501\flash.c"
 508  0071  0F00        	mov a,0
 508  0072  0082        	mov ir,a
 508  0073  1483        	inc mp
 508  0074  0F80        	mov a,128
 508  0075  0082        	mov ir,a
 508  0076  2800     R  	jmp _L82
 508  0077              _L81:
 510  0077              #line 510 "c:\users\longshuangmin\desktop\worke_space\g-501\g-501\flash.c"
 510  0077  1F02        	clr ir
 510  0078  1483        	inc mp
 510  0079  1F02        	clr ir
 510  007A              _L82:
 513  007A              #line 513 "c:\users\longshuangmin\desktop\worke_space\g-501\g-501\flash.c"
 513  007A  340A        	clr c
 513  007B  1A00     E  	rlca rb
 513  007C  0080     E  	mov rd,a
 513  007D  1A00     E  	rlca rc
 513  007E  0080     E  	mov re,a
 513  007F  0F8C        	mov a,low (offset _M_FlashBuf0+12)
 513  0080  0300     E  	add a,rd
 513  0081  0083        	mov mp,a
 513  0082  0F07        	mov a,high (offset _M_FlashBuf0+12)
 513  0083  1300     E  	adc a,re
 513  0084  0084        	mov sbp,a
 512  0085              #line 512 "c:\users\longshuangmin\desktop\worke_space\g-501\g-501\flash.c"
 512  0085  3800     E  	snz _Flag6[0].4
 512  0086  2800     R  	jmp _L83
 513  0087              #line 513 "c:\users\longshuangmin\desktop\worke_space\g-501\g-501\flash.c"
 513  0087  0F00        	mov a,0
 513  0088  0082        	mov ir,a
 513  0089  1483        	inc mp
 513  008A  0F80        	mov a,128
 513  008B  0082        	mov ir,a
 513  008C  2800     R  	jmp _L84
 513  008D              _L83:
 515  008D              #line 515 "c:\users\longshuangmin\desktop\worke_space\g-501\g-501\flash.c"
 515  008D  1F02        	clr ir
 515  008E  1483        	inc mp
 515  008F  1F02        	clr ir
 515  0090              _L84:
 518  0090              #line 518 "c:\users\longshuangmin\desktop\worke_space\g-501\g-501\flash.c"
 518  0090  340A        	clr c
 518  0091  1A00     E  	rlca rb
 518  0092  0080     E  	mov rd,a
 518  0093  1A00     E  	rlca rc
 518  0094  0080     E  	mov re,a
 518  0095  0F8E        	mov a,low (offset _M_FlashBuf0+14)
 518  0096  0300     E  	add a,rd
 518  0097  0083        	mov mp,a
 518  0098  0F07        	mov a,high (offset _M_FlashBuf0+14)
文件：flash.c      编译器版本 HGASM 0202 页次18

 518  0099  1300     E  	adc a,re
 518  009A  0084        	mov sbp,a
 517  009B              #line 517 "c:\users\longshuangmin\desktop\worke_space\g-501\g-501\flash.c"
 517  009B  3800     E  	snz _Flag6[0].6
 517  009C  2800     R  	jmp _L85
 518  009D              #line 518 "c:\users\longshuangmin\desktop\worke_space\g-501\g-501\flash.c"
 518  009D  0F00        	mov a,0
 518  009E  0082        	mov ir,a
 518  009F  1483        	inc mp
 518  00A0  0F80        	mov a,128
 518  00A1  0082        	mov ir,a
 518  00A2  2800     R  	jmp _L86
 518  00A3              _L85:
 520  00A3              #line 520 "c:\users\longshuangmin\desktop\worke_space\g-501\g-501\flash.c"
 520  00A3  1F02        	clr ir
 520  00A4  1483        	inc mp
 520  00A5  1F02        	clr ir
 520  00A6              _L86:
 522  00A6              #line 522 "c:\users\longshuangmin\desktop\worke_space\g-501\g-501\flash.c"
 522  00A6  340A        	clr c
 522  00A7  1A00     E  	rlca rb
 522  00A8  0080     E  	mov rd,a
 522  00A9  1A00     E  	rlca rc
 522  00AA  0080     E  	mov re,a
 522  00AB  0F88        	mov a,low (offset _M_FlashBuf0+8)
 522  00AC  0380     E  	addm a,rd
 522  00AD  0F07        	mov a,high (offset _M_FlashBuf0+8)
 522  00AE  1380     E  	adcm a,re
 522  00AF  0700     E  	mov a,rd
 522  00B0  0083        	mov mp,a
 522  00B1  0700     E  	mov a,re
 522  00B2  0084        	mov sbp,a
 522  00B3              	fcall _Crom2Prom
 522  00BA  0080     R  	mov _Store_SetVauletoFlash_2[0],a
 522  00BB              	fcall _Crom2PromNext
 522  00C2  0080     R  	mov _Store_SetVauletoFlash_2[1],a
 522  00C3  0700     E  	mov a,_M_Alarm1_HR[0]
 522  00C4  0080     E  	mov rf,a
 522  00C5  1F00     E  	clr rg
 522  00C6  0F06        	mov a,6
 522  00C7              _LI2:
 522  00C7  340A        	clr c
 522  00C8  1A80     E  	rlc rf
 522  00C9  1A80     E  	rlc rg
 522  00CA  1785        	sdz acc
 522  00CB  2800     R  	jmp _LI2
 522  00CC  0700     R  	mov a,_Store_SetVauletoFlash_2[1]
 522  00CD  0580     E  	orm a,rg
 522  00CE  0700     R  	mov a,_Store_SetVauletoFlash_2[0]
 522  00CF  0580     E  	orm a,rf
 522  00D0  0700     E  	mov a,rd
 522  00D1  0083        	mov mp,a
 522  00D2  0700     E  	mov a,re
 522  00D3  0084        	mov sbp,a
 522  00D4  0700     E  	mov a,rf
 522  00D5  0082        	mov ir,a
 522  00D6  1483        	inc mp
 522  00D7  0700     E  	mov a,rg
 522  00D8  0082        	mov ir,a
 523  00D9              #line 523 "c:\users\longshuangmin\desktop\worke_space\g-501\g-501\flash.c"
文件：flash.c      编译器版本 HGASM 0202 页次19

 523  00D9  0700     E  	mov a,rd
 523  00DA  0083        	mov mp,a
 523  00DB  0700     E  	mov a,re
 523  00DC  0084        	mov sbp,a
 523  00DD              	fcall _Crom2Prom
 523  00E4  0080     E  	mov rf,a
 523  00E5              	fcall _Crom2PromNext
 523  00EC  0080     E  	mov rg,a
 523  00ED  0700     E  	mov a,_M_Alarm1_MIN[0]
 523  00EE  0580     E  	orm a,rf
 523  00EF  0700     E  	mov a,rd
 523  00F0  0083        	mov mp,a
 523  00F1  0700     E  	mov a,re
 523  00F2  0084        	mov sbp,a
 523  00F3  0700     E  	mov a,rf
 523  00F4  0082        	mov ir,a
 523  00F5  1483        	inc mp
 523  00F6  0700     E  	mov a,rg
 523  00F7  0082        	mov ir,a
 525  00F8              #line 525 "c:\users\longshuangmin\desktop\worke_space\g-501\g-501\flash.c"
 525  00F8  340A        	clr c
 525  00F9  1A00     E  	rlca rb
 525  00FA  0080     E  	mov rd,a
 525  00FB  1A00     E  	rlca rc
 525  00FC  0080     E  	mov re,a
 525  00FD  0F8A        	mov a,low (offset _M_FlashBuf0+10)
 525  00FE  0380     E  	addm a,rd
 525  00FF  0F07        	mov a,high (offset _M_FlashBuf0+10)
 525  0100  1380     E  	adcm a,re
 525  0101  0700     E  	mov a,rd
 525  0102  0083        	mov mp,a
 525  0103  0700     E  	mov a,re
 525  0104  0084        	mov sbp,a
 525  0105              	fcall _Crom2Prom
 525  010C  0080     R  	mov _Store_SetVauletoFlash_2[0],a
 525  010D              	fcall _Crom2PromNext
 525  0114  0080     R  	mov _Store_SetVauletoFlash_2[1],a
 525  0115  0700     E  	mov a,_M_Alarm2_HR[0]
 525  0116  0080     E  	mov rf,a
 525  0117  1F00     E  	clr rg
 525  0118  0F06        	mov a,6
 525  0119              _LI3:
 525  0119  340A        	clr c
 525  011A  1A80     E  	rlc rf
 525  011B  1A80     E  	rlc rg
 525  011C  1785        	sdz acc
 525  011D  2800     R  	jmp _LI3
 525  011E  0700     R  	mov a,_Store_SetVauletoFlash_2[1]
 525  011F  0580     E  	orm a,rg
 525  0120  0700     R  	mov a,_Store_SetVauletoFlash_2[0]
 525  0121  0580     E  	orm a,rf
 525  0122  0700     E  	mov a,rd
 525  0123  0083        	mov mp,a
 525  0124  0700     E  	mov a,re
 525  0125  0084        	mov sbp,a
 525  0126  0700     E  	mov a,rf
 525  0127  0082        	mov ir,a
 525  0128  1483        	inc mp
 525  0129  0700     E  	mov a,rg
 525  012A  0082        	mov ir,a
文件：flash.c      编译器版本 HGASM 0202 页次20

 526  012B              #line 526 "c:\users\longshuangmin\desktop\worke_space\g-501\g-501\flash.c"
 526  012B  0700     E  	mov a,rd
 526  012C  0083        	mov mp,a
 526  012D  0700     E  	mov a,re
 526  012E  0084        	mov sbp,a
 526  012F              	fcall _Crom2Prom
 526  0136  0080     E  	mov rf,a
 526  0137              	fcall _Crom2PromNext
 526  013E  0080     E  	mov rg,a
 526  013F  0700     E  	mov a,_M_Alarm2_MIN[0]
 526  0140  0580     E  	orm a,rf
 526  0141  0700     E  	mov a,rd
 526  0142  0083        	mov mp,a
 526  0143  0700     E  	mov a,re
 526  0144  0084        	mov sbp,a
 526  0145  0700     E  	mov a,rf
 526  0146  0082        	mov ir,a
 526  0147  1483        	inc mp
 526  0148  0700     E  	mov a,rg
 526  0149  0082        	mov ir,a
 528  014A              #line 528 "c:\users\longshuangmin\desktop\worke_space\g-501\g-501\flash.c"
 528  014A  340A        	clr c
 528  014B  1A00     E  	rlca rb
 528  014C  0080     E  	mov rd,a
 528  014D  1A00     E  	rlca rc
 528  014E  0080     E  	mov re,a
 528  014F  0F8C        	mov a,low (offset _M_FlashBuf0+12)
 528  0150  0380     E  	addm a,rd
 528  0151  0F07        	mov a,high (offset _M_FlashBuf0+12)
 528  0152  1380     E  	adcm a,re
 528  0153  0700     E  	mov a,rd
 528  0154  0083        	mov mp,a
 528  0155  0700     E  	mov a,re
 528  0156  0084        	mov sbp,a
 528  0157              	fcall _Crom2Prom
 528  015E  0080     R  	mov _Store_SetVauletoFlash_2[0],a
 528  015F              	fcall _Crom2PromNext
 528  0166  0080     R  	mov _Store_SetVauletoFlash_2[1],a
 528  0167  0700     E  	mov a,_M_Alarm3_HR[0]
 528  0168  0080     E  	mov rf,a
 528  0169  1F00     E  	clr rg
 528  016A  0F06        	mov a,6
 528  016B              _LI4:
 528  016B  340A        	clr c
 528  016C  1A80     E  	rlc rf
 528  016D  1A80     E  	rlc rg
 528  016E  1785        	sdz acc
 528  016F  2800     R  	jmp _LI4
 528  0170  0700     R  	mov a,_Store_SetVauletoFlash_2[1]
 528  0171  0580     E  	orm a,rg
 528  0172  0700     R  	mov a,_Store_SetVauletoFlash_2[0]
 528  0173  0580     E  	orm a,rf
 528  0174  0700     E  	mov a,rd
 528  0175  0083        	mov mp,a
 528  0176  0700     E  	mov a,re
 528  0177  0084        	mov sbp,a
 528  0178  0700     E  	mov a,rf
 528  0179  0082        	mov ir,a
 528  017A  1483        	inc mp
 528  017B  0700     E  	mov a,rg
文件：flash.c      编译器版本 HGASM 0202 页次21

 528  017C  0082        	mov ir,a
 529  017D              #line 529 "c:\users\longshuangmin\desktop\worke_space\g-501\g-501\flash.c"
 529  017D  0700     E  	mov a,rd
 529  017E  0083        	mov mp,a
 529  017F  0700     E  	mov a,re
 529  0180  0084        	mov sbp,a
 529  0181              	fcall _Crom2Prom
 529  0188  0080     E  	mov rf,a
 529  0189              	fcall _Crom2PromNext
 529  0190  0080     E  	mov rg,a
 529  0191  0700     E  	mov a,_M_Alarm3_MIN[0]
 529  0192  0580     E  	orm a,rf
 529  0193  0700     E  	mov a,rd
 529  0194  0083        	mov mp,a
 529  0195  0700     E  	mov a,re
 529  0196  0084        	mov sbp,a
 529  0197  0700     E  	mov a,rf
 529  0198  0082        	mov ir,a
 529  0199  1483        	inc mp
 529  019A  0700     E  	mov a,rg
 529  019B  0082        	mov ir,a
 531  019C              #line 531 "c:\users\longshuangmin\desktop\worke_space\g-501\g-501\flash.c"
 531  019C  340A        	clr c
 531  019D  1A80     E  	rlc rb
 531  019E  1A80     E  	rlc rc
 531  019F  0F8E        	mov a,low (offset _M_FlashBuf0+14)
 531  01A0  0380     E  	addm a,rb
 531  01A1  0F07        	mov a,high (offset _M_FlashBuf0+14)
 531  01A2  1380     E  	adcm a,rc
 531  01A3  0700     E  	mov a,rb
 531  01A4  0083        	mov mp,a
 531  01A5  0700     E  	mov a,rc
 531  01A6  0084        	mov sbp,a
 531  01A7              	fcall _Crom2Prom
 531  01AE  0080     E  	mov rf,a
 531  01AF              	fcall _Crom2PromNext
 531  01B6  0080     E  	mov rg,a
 531  01B7  0700     E  	mov a,_M_Alarm4_HR[0]
 531  01B8  0080     E  	mov rd,a
 531  01B9  1F00     E  	clr re
 531  01BA  0F06        	mov a,6
 531  01BB              _LI5:
 531  01BB  340A        	clr c
 531  01BC  1A80     E  	rlc rd
 531  01BD  1A80     E  	rlc re
 531  01BE  1785        	sdz acc
 531  01BF  2800     R  	jmp _LI5
 531  01C0  0700     E  	mov a,rg
 531  01C1  0580     E  	orm a,re
 531  01C2  0700     E  	mov a,rf
 531  01C3  0580     E  	orm a,rd
 531  01C4  0700     E  	mov a,rb
 531  01C5  0083        	mov mp,a
 531  01C6  0700     E  	mov a,rc
 531  01C7  0084        	mov sbp,a
 531  01C8  0700     E  	mov a,rd
 531  01C9  0082        	mov ir,a
 531  01CA  1483        	inc mp
 531  01CB  0700     E  	mov a,re
 531  01CC  0082        	mov ir,a
文件：flash.c      编译器版本 HGASM 0202 页次22

 532  01CD              #line 532 "c:\users\longshuangmin\desktop\worke_space\g-501\g-501\flash.c"
 532  01CD  0700     E  	mov a,rb
 532  01CE  0083        	mov mp,a
 532  01CF  0700     E  	mov a,rc
 532  01D0  0084        	mov sbp,a
 532  01D1              	fcall _Crom2Prom
 532  01D8  0080     E  	mov rd,a
 532  01D9              	fcall _Crom2PromNext
 532  01E0  0080     E  	mov re,a
 532  01E1  0700     E  	mov a,_M_Alarm4_MIN[0]
 532  01E2  0580     E  	orm a,rd
 532  01E3  0700     E  	mov a,rb
 532  01E4  0083        	mov mp,a
 532  01E5  0700     E  	mov a,rc
 532  01E6  0084        	mov sbp,a
 532  01E7  0700     E  	mov a,rd
 532  01E8  0082        	mov ir,a
 532  01E9  1483        	inc mp
 532  01EA  0700     E  	mov a,re
 532  01EB  0082        	mov ir,a
 494  01EC              #line 494 "c:\users\longshuangmin\desktop\worke_space\g-501\g-501\flash.c"
 494  01EC  1480     E  	inc ra
 494  01ED  1780     E  	sdz rh
 494  01EE  2800     R  	jmp _L88
 534  01EF              #line 534 "c:\users\longshuangmin\desktop\worke_space\g-501\g-501\flash.c"
 534  01EF              	fcall _Significant_Checksum
 536  01F6              #line 536 "c:\users\longshuangmin\desktop\worke_space\g-501\g-501\flash.c"
 536  01F6  0F80        	mov a,-128
 536  01F7  0080     R  	mov _WritePage_flash_2[0],a
 536  01F8  0FAE        	mov a,-82
 536  01F9  0080     R  	mov _WritePage_flash_2[1],a
 536  01FA              	fcall _WritePage_flash
 536  0201  0003        	ret
 536  0202              _Store_SetVauletoFlash endp
 536  0202              #line 536 "c:\users\longshuangmin\desktop\worke_space\g-501\g-501\flash.c"
 536  0202              #pragma debug scope 1 1
 536  0202              _unsend_data equ [4224]
 536  0202              _meals equ [4026]
 536  0202              public _Store_measurement_data
 536  0202              #pragma debug scope 11 1
 289  0202              #line 289 "c:\users\longshuangmin\desktop\worke_space\g-501\g-501\flash.c"
 289  0000              _Store_measurement_data .section 'code'
 289  0000              _Store_measurement_data proc
 289  0000  000B[           local _Store_measurement_data_2 db 11 dup(?)	; 0,11
            00
            ]
 289  000B              #pragma debug array 42 8 6 11
 289  000B              #pragma debug array 42 8 6 11
 289  000B              #pragma debug variable 42 11 _Store_measurement_data_2+0 "buf"
 297  000B              #line 297 "c:\users\longshuangmin\desktop\worke_space\g-501\g-501\flash.c"
 297  0000  0FF3        	mov a,243
 297  0001  0200     E  	sub a,_M_GM_data_Record[0]
 297  0002  0F01        	mov a,1
 297  0003  1200     E  	sbc a,_M_GM_data_Record[1]
 297  0004  380A        	snz c
 297  0005  2800     R  	jmp _L90
 298  0006              #line 298 "c:\users\longshuangmin\desktop\worke_space\g-501\g-501\flash.c"
 298  0006  1480     E  	inc _M_GM_data_Record[0]
 298  0007  3D0A        	sz z
 298  0008  1480     E  	inc _M_GM_data_Record[1]
文件：flash.c      编译器版本 HGASM 0202 页次23

 298  0009              _L90:
 300  0009              #line 300 "c:\users\longshuangmin\desktop\worke_space\g-501\g-501\flash.c"
 300  0009  0FF3        	mov a,243
 300  000A  0200     E  	sub a,_M_GM_Record_current[0]
 300  000B  0F01        	mov a,1
 300  000C  1200     E  	sbc a,_M_GM_Record_current[1]
 300  000D  3C0A        	sz c
 300  000E  2800     R  	jmp _L91
 301  000F              #line 301 "c:\users\longshuangmin\desktop\worke_space\g-501\g-501\flash.c"
 301  000F  1F00     E  	clr _M_GM_Record_current[0]
 301  0010  1F00     E  	clr _M_GM_Record_current[1]
 301  0011              _L91:
 302  0011              #line 302 "c:\users\longshuangmin\desktop\worke_space\g-501\g-501\flash.c"
 302  0011  1480     E  	inc _M_GM_Record_current[0]
 302  0012  3D0A        	sz z
 302  0013  1480     E  	inc _M_GM_Record_current[1]
 305  0014              #line 305 "c:\users\longshuangmin\desktop\worke_space\g-501\g-501\flash.c"
 305  0014              	fcall _Store_SetVauletoFlash
 366  001B              #line 366 "c:\users\longshuangmin\desktop\worke_space\g-501\g-501\flash.c"
 366  001B  0FFF        	mov a,255
 366  001C  0300     E  	add a,_M_GM_Record_current[0]
 366  001D  0080     E  	mov rb,a
 366  001E  0FFF        	mov a,255
 366  001F  1300     E  	adc a,_M_GM_Record_current[1]
 366  0020  0080     E  	mov rc,a
 366  0021  0F05        	mov a,5
 366  0022              _LI6:
 366  0022  340A        	clr c
 366  0023  1B80     E  	rrc rc
 366  0024  1B80     E  	rrc rb
 366  0025  1785        	sdz acc
 366  0026  2800     R  	jmp _LI6
 366  0027  1B00     E  	rrca rc
 366  0028  1B00     E  	rrca rb
 366  0029  0080     E  	mov rc,a
 366  002A  1B00     E  	rrca rb
 366  002B  1F00     E  	clr rb
 366  002C  1B80     E  	rrc rb
 367  002D              #line 367 "c:\users\longshuangmin\desktop\worke_space\g-501\g-501\flash.c"
 367  002D  0F00        	mov a,0
 367  002E  0380     E  	addm a,rb
 367  002F  0FB4        	mov a,180
 367  0030  1380     E  	adcm a,rc
 367  0031  0700     E  	mov a,rb
 367  0032  0080     E  	mov _M_PageAddress[0],a
 367  0033  0700     E  	mov a,rc
 367  0034  0080     E  	mov _M_PageAddress[1],a
 368  0035              #line 368 "c:\users\longshuangmin\desktop\worke_space\g-501\g-501\flash.c"
 368  0035  0700     E  	mov a,_M_GM_Record_current[0]
 368  0036  0080     E  	mov rd,a
 368  0037  0700     E  	mov a,_M_GM_Record_current[1]
 368  0038  0080     E  	mov re,a
 368  0039  1580     E  	dec rd
 368  003A  0700     E  	mov a,rd
 368  003B  0E1F        	and a,31
 368  003C  0080     E  	mov _M_PageIndex[0],a
 370  003D              #line 370 "c:\users\longshuangmin\desktop\worke_space\g-501\g-501\flash.c"
 370  003D  0700     E  	mov a,rb
 370  003E  0080     R  	mov _ReadPage_flash_2[0],a
 370  003F  0700     E  	mov a,rc
文件：flash.c      编译器版本 HGASM 0202 页次24

 370  0040  0080     R  	mov _ReadPage_flash_2[1],a
 370  0041              	fcall _ReadPage_flash
 376  0048              #line 376 "c:\users\longshuangmin\desktop\worke_space\g-501\g-501\flash.c"
 376  0048  0700     E  	mov a,_M_Year[0]
 376  0049  0080     R  	mov _Store_measurement_data_2[5],a
 377  004A              #line 377 "c:\users\longshuangmin\desktop\worke_space\g-501\g-501\flash.c"
 377  004A  0700     E  	mov a,_M_Month[0]
 377  004B  0080     R  	mov _Store_measurement_data_2[4],a
 378  004C              #line 378 "c:\users\longshuangmin\desktop\worke_space\g-501\g-501\flash.c"
 378  004C  0700     E  	mov a,_M_Days[0]
 378  004D  0080     R  	mov _Store_measurement_data_2[3],a
 379  004E              #line 379 "c:\users\longshuangmin\desktop\worke_space\g-501\g-501\flash.c"
 379  004E  0700     E  	mov a,_M_Hour[0]
 379  004F  0080     R  	mov _Store_measurement_data_2[2],a
 380  0050              #line 380 "c:\users\longshuangmin\desktop\worke_space\g-501\g-501\flash.c"
 380  0050  0700     E  	mov a,_M_Minutes[0]
 380  0051  0080     R  	mov _Store_measurement_data_2[1],a
 381  0052              #line 381 "c:\users\longshuangmin\desktop\worke_space\g-501\g-501\flash.c"
 381  0052  0700     E  	mov a,_M_Second[0]
 381  0053  0080     R  	mov _Store_measurement_data_2[0],a
 382  0054              #line 382 "c:\users\longshuangmin\desktop\worke_space\g-501\g-501\flash.c"
 382  0054  0F00     R  	mov a,low offset _Store_measurement_data_2
 382  0055  0080     E  	mov _DateToSecond_2[0],a
 382  0056  0F00     R  	mov a,high offset _Store_measurement_data_2
 382  0057  0080     E  	mov _DateToSecond_2[1],a
 382  0058              	fcall _DateToSecond
 382  005F  0700     E  	mov a,ra
 382  0060  0080     R  	mov _Store_measurement_data_2[6],a
 382  0061  0700     E  	mov a,rb
 382  0062  0080     R  	mov _Store_measurement_data_2[7],a
 382  0063  0700     E  	mov a,rc
 382  0064  0080     R  	mov _Store_measurement_data_2[8],a
 382  0065  0700     E  	mov a,rd
 382  0066  0080     R  	mov _Store_measurement_data_2[9],a
 382  0067  0700     E  	mov a,ra
 382  0068  0080     E  	mov _M_Lbuf0[0],a
 382  0069  0700     E  	mov a,rb
 382  006A  0080     E  	mov _M_Lbuf0[1],a
 382  006B  0700     E  	mov a,rc
 382  006C  0080     E  	mov _M_Lbuf0[2],a
 382  006D  0700     E  	mov a,rd
 382  006E  0080     E  	mov _M_Lbuf0[3],a
 384  006F              #line 384 "c:\users\longshuangmin\desktop\worke_space\g-501\g-501\flash.c"
 384  006F  C76B 0010   	lmov a,[4331]
 384  0071  0AAA        	sub a,170
 384  0072  C76C 0010   	lmov a,[4332]
 384  0074  0855        	sbc a,85
 384  0075  3F0A        	sz cz
 384  0076  2800     R  	jmp _L92
 386  0077              #line 386 "c:\users\longshuangmin\desktop\worke_space\g-501\g-501\flash.c"
 386  0077  0FAA        	mov a,-86
 386  0078  C0EB 0010   	lmov [4331],a
 386  007A  0F55        	mov a,85
 386  007B  C0EC 0010   	lmov [4332],a
 387  007D              #line 387 "c:\users\longshuangmin\desktop\worke_space\g-501\g-501\flash.c"
 387  007D  DF64 0010   	lclr [4324]
 388  007F              #line 388 "c:\users\longshuangmin\desktop\worke_space\g-501\g-501\flash.c"
 388  007F  DF65 0010   	lclr [4325]
 388  0081              _L92:
 393  0081              #line 393 "c:\users\longshuangmin\desktop\worke_space\g-501\g-501\flash.c"
文件：flash.c      编译器版本 HGASM 0202 页次25

 393  0081  C765 0010   	lmov a,[4325]
 393  0083  0080     E  	mov rb,a
 393  0084  1F00     E  	clr rc
 393  0085  340A        	clr c
 393  0086  1A00     E  	rlca rb
 393  0087  0080     E  	mov rd,a
 393  0088  1A00     E  	rlca rc
 393  0089  0080     E  	mov re,a
 393  008A  340A        	clr c
 393  008B  1A80     E  	rlc rd
 393  008C  1A80     E  	rlc re
 393  008D  0700     E  	mov a,rd
 393  008E  0380     E  	addm a,rb
 393  008F  0700     E  	mov a,re
 393  0090  1380     E  	adcm a,rc
 393  0091  340A        	clr c
 393  0092  1A00     E  	rlca rb
 393  0093  0080     E  	mov rf,a
 393  0094  1A00     E  	rlca rc
 393  0095  0080     E  	mov rg,a
 393  0096  0F80        	mov a,low offset _unsend_data
 393  0097  0300     E  	add a,rf
 393  0098  0083        	mov mp,a
 393  0099  0F10        	mov a,high offset _unsend_data
 393  009A  1300     E  	adc a,rg
 393  009B  0084        	mov sbp,a
 393  009C  0700     R  	mov a,_Store_measurement_data_2[5]
 393  009D  0082        	mov ir,a
 394  009E              #line 394 "c:\users\longshuangmin\desktop\worke_space\g-501\g-501\flash.c"
 394  009E  0F81        	mov a,low (offset _unsend_data+1)
 394  009F  0300     E  	add a,rf
 394  00A0  0083        	mov mp,a
 394  00A1  0F10        	mov a,high (offset _unsend_data+1)
 394  00A2  1300     E  	adc a,rg
 394  00A3  0084        	mov sbp,a
 394  00A4  0700     R  	mov a,_Store_measurement_data_2[4]
 394  00A5  0082        	mov ir,a
 395  00A6              #line 395 "c:\users\longshuangmin\desktop\worke_space\g-501\g-501\flash.c"
 395  00A6              	fcall _Crom2Prom
 395  00AD  0080     R  	mov _Store_measurement_data_2[10],a
 395  00AE  C73A 000F   	lmov a,[4026]
 395  00B0  0080     E  	mov rb,a
 395  00B1  1F00     E  	clr rc
 395  00B2  0F06        	mov a,6
 395  00B3              _LI7:
 395  00B3  340A        	clr c
 395  00B4  1A80     E  	rlc rb
 395  00B5  1A80     E  	rlc rc
 395  00B6  1785        	sdz acc
 395  00B7  2800     R  	jmp _LI7
 395  00B8  0700     R  	mov a,_Store_measurement_data_2[10]
 395  00B9  0580     E  	orm a,rb
 395  00BA  0700     E  	mov a,rb
 395  00BB  0082        	mov ir,a
 396  00BC              #line 396 "c:\users\longshuangmin\desktop\worke_space\g-501\g-501\flash.c"
 396  00BC  0F82        	mov a,low (offset _unsend_data+2)
 396  00BD  0300     E  	add a,rf
 396  00BE  0083        	mov mp,a
 396  00BF  0F10        	mov a,high (offset _unsend_data+2)
 396  00C0  1300     E  	adc a,rg
文件：flash.c      编译器版本 HGASM 0202 页次26

 396  00C1  0084        	mov sbp,a
 396  00C2  0700     R  	mov a,_Store_measurement_data_2[3]
 396  00C3  0082        	mov ir,a
 398  00C4              #line 398 "c:\users\longshuangmin\desktop\worke_space\g-501\g-501\flash.c"
 398  00C4  0F83        	mov a,low (offset _unsend_data+3)
 398  00C5  0300     E  	add a,rf
 398  00C6  0083        	mov mp,a
 398  00C7  0F10        	mov a,high (offset _unsend_data+3)
 398  00C8  1300     E  	adc a,rg
 398  00C9  0084        	mov sbp,a
 398  00CA  0700     R  	mov a,_Store_measurement_data_2[2]
 398  00CB  0082        	mov ir,a
 399  00CC              #line 399 "c:\users\longshuangmin\desktop\worke_space\g-501\g-501\flash.c"
 399  00CC  0F84        	mov a,low (offset _unsend_data+4)
 399  00CD  0300     E  	add a,rf
 399  00CE  0083        	mov mp,a
 399  00CF  0F10        	mov a,high (offset _unsend_data+4)
 399  00D0  1300     E  	adc a,rg
 399  00D1  0084        	mov sbp,a
 399  00D2  0700     R  	mov a,_Store_measurement_data_2[1]
 399  00D3  0082        	mov ir,a
 400  00D4              #line 400 "c:\users\longshuangmin\desktop\worke_space\g-501\g-501\flash.c"
 400  00D4  0700     R  	mov a,_Store_measurement_data_2[0]
 400  00D5  0080     E  	mov rb,a
 400  00D6  1F00     E  	clr rc
 400  00D7  0F85        	mov a,low (offset _unsend_data+5)
 400  00D8  0300     E  	add a,rf
 400  00D9  0083        	mov mp,a
 400  00DA  0F10        	mov a,high (offset _unsend_data+5)
 400  00DB  1300     E  	adc a,rg
 400  00DC  0084        	mov sbp,a
 400  00DD  0700     E  	mov a,rb
 400  00DE  0082        	mov ir,a
 400  00DF  1483        	inc mp
 400  00E0  0700     E  	mov a,rc
 400  00E1  0082        	mov ir,a
 401  00E2              #line 401 "c:\users\longshuangmin\desktop\worke_space\g-501\g-501\flash.c"
 401  00E2  0700     E  	mov a,_M_GM_data[0]
 401  00E3  0080     E  	mov rd,a
 401  00E4  0700     E  	mov a,_M_GM_data[1]
 401  00E5  0080     E  	mov re,a
 401  00E6  0F87        	mov a,low (offset _unsend_data+7)
 401  00E7  0300     E  	add a,rf
 401  00E8  0083        	mov mp,a
 401  00E9  0F10        	mov a,high (offset _unsend_data+7)
 401  00EA  1300     E  	adc a,rg
 401  00EB  0084        	mov sbp,a
 401  00EC  0700     E  	mov a,rd
 401  00ED  0082        	mov ir,a
 401  00EE  1483        	inc mp
 401  00EF  0700     E  	mov a,re
 401  00F0  0082        	mov ir,a
 402  00F1              #line 402 "c:\users\longshuangmin\desktop\worke_space\g-501\g-501\flash.c"
 402  00F1  0F89        	mov a,low (offset _unsend_data+9)
 402  00F2  0300     E  	add a,rf
 402  00F3  0083        	mov mp,a
 402  00F4  0F10        	mov a,high (offset _unsend_data+9)
 402  00F5  1300     E  	adc a,rg
 402  00F6  0084        	mov sbp,a
 402  00F7  0F01        	mov a,1
文件：flash.c      编译器版本 HGASM 0202 页次27

 402  00F8  0082        	mov ir,a
 404  00F9              #line 404 "c:\users\longshuangmin\desktop\worke_space\g-501\g-501\flash.c"
 404  00F9  D4E5 0010   	linc [4325]
 405  00FB              #line 405 "c:\users\longshuangmin\desktop\worke_space\g-501\g-501\flash.c"
 405  00FB  0F09        	mov a,9
 405  00FC  C265 0010   	lsub a,[4325]
 405  00FE  3C0A        	sz c
 405  00FF  2800     R  	jmp _L93
 407  0100              #line 407 "c:\users\longshuangmin\desktop\worke_space\g-501\g-501\flash.c"
 407  0100  DF65 0010   	lclr [4325]
 408  0102              #line 408 "c:\users\longshuangmin\desktop\worke_space\g-501\g-501\flash.c"
 408  0102  0F01        	mov a,1
 408  0103  C0E4 0010   	lmov [4324],a
 408  0105              _L93:
 415  0105              #line 415 "c:\users\longshuangmin\desktop\worke_space\g-501\g-501\flash.c"
 415  0105  0700     E  	mov a,_M_PageIndex[0]
 415  0106  0080     E  	mov rb,a
 415  0107  0F0F        	mov a,15
 415  0108  0200     E  	sub a,rb
 415  0109  380A        	snz c
 415  010A  2800     R  	jmp _L94
 417  010B              #line 417 "c:\users\longshuangmin\desktop\worke_space\g-501\g-501\flash.c"
 417  010B  1F00     E  	clr rc
 417  010C  340A        	clr c
 417  010D  1A80     E  	rlc rb
 417  010E  1A80     E  	rlc rc
 417  010F  340A        	clr c
 417  0110  1A80     E  	rlc rb
 417  0111  1A80     E  	rlc rc
 417  0112  340A        	clr c
 417  0113  1A00     E  	rlca rb
 417  0114  0080     E  	mov rf,a
 417  0115  1A00     E  	rlca rc
 417  0116  0080     E  	mov rg,a
 417  0117  0F80        	mov a,low offset _M_FlashBuf0
 417  0118  0300     E  	add a,rf
 417  0119  0083        	mov mp,a
 417  011A  0F07        	mov a,high offset _M_FlashBuf0
 417  011B  1300     E  	adc a,rg
 417  011C  0084        	mov sbp,a
 417  011D  0700     R  	mov a,_Store_measurement_data_2[8]
 417  011E  0082        	mov ir,a
 417  011F  1483        	inc mp
 417  0120  0700     R  	mov a,_Store_measurement_data_2[9]
 417  0121  0082        	mov ir,a
 418  0122              #line 418 "c:\users\longshuangmin\desktop\worke_space\g-501\g-501\flash.c"
 418  0122  0F82        	mov a,low (offset _M_FlashBuf0+2)
 418  0123  0300     E  	add a,rf
 418  0124  0083        	mov mp,a
 418  0125  0F07        	mov a,high (offset _M_FlashBuf0+2)
 418  0126  1300     E  	adc a,rg
 418  0127  0084        	mov sbp,a
 418  0128  0700     R  	mov a,_Store_measurement_data_2[6]
 418  0129  0082        	mov ir,a
 418  012A  1483        	inc mp
 418  012B  0700     R  	mov a,_Store_measurement_data_2[7]
 418  012C  0082        	mov ir,a
 419  012D              #line 419 "c:\users\longshuangmin\desktop\worke_space\g-501\g-501\flash.c"
 419  012D  0F84        	mov a,low (offset _M_FlashBuf0+4)
 419  012E  0300     E  	add a,rf
文件：flash.c      编译器版本 HGASM 0202 页次28

 419  012F  0083        	mov mp,a
 419  0130  0F07        	mov a,high (offset _M_FlashBuf0+4)
 419  0131  1300     E  	adc a,rg
 419  0132  0084        	mov sbp,a
 419  0133  0700     E  	mov a,rd
 419  0134  0082        	mov ir,a
 419  0135  1483        	inc mp
 419  0136  0700     E  	mov a,re
 419  0137  0082        	mov ir,a
 420  0138              #line 420 "c:\users\longshuangmin\desktop\worke_space\g-501\g-501\flash.c"
 420  0138  C73A 000F   	lmov a,[4026]
 420  013A  0080     E  	mov rd,a
 420  013B  1F00     E  	clr re
 420  013C  0F86        	mov a,low (offset _M_FlashBuf0+6)
 420  013D  0300     E  	add a,rf
 420  013E  0083        	mov mp,a
 420  013F  0F07        	mov a,high (offset _M_FlashBuf0+6)
 420  0140  1300     E  	adc a,rg
 420  0141  0084        	mov sbp,a
 420  0142  2800     R  	jmp _L99
 420  0143              _L94:
 425  0143              #line 425 "c:\users\longshuangmin\desktop\worke_space\g-501\g-501\flash.c"
 425  0143  0FF0        	mov a,240
 425  0144  0300     E  	add a,rb
 425  0145  0080     E  	mov rf,a
 425  0146  0FFF        	mov a,255
 425  0147  1F00     E  	clr rg
 425  0148  1380     E  	adcm a,rg
 425  0149  0700     E  	mov a,rf
 425  014A  0080     E  	mov rb,a
 425  014B  0700     E  	mov a,rg
 425  014C  0080     E  	mov rc,a
 425  014D  340A        	clr c
 425  014E  1A80     E  	rlc rb
 425  014F  1A80     E  	rlc rc
 425  0150  340A        	clr c
 425  0151  1A80     E  	rlc rb
 425  0152  1A80     E  	rlc rc
 425  0153  340A        	clr c
 425  0154  1A00     E  	rlca rb
 425  0155  0080     E  	mov rf,a
 425  0156  1A00     E  	rlca rc
 425  0157  0080     E  	mov rg,a
 425  0158  0F80        	mov a,low offset _M_FlashBuf1
 425  0159  0300     E  	add a,rf
 425  015A  0083        	mov mp,a
 425  015B  0F06        	mov a,high offset _M_FlashBuf1
 425  015C  1300     E  	adc a,rg
 425  015D  0084        	mov sbp,a
 425  015E  0700     R  	mov a,_Store_measurement_data_2[8]
 425  015F  0082        	mov ir,a
 425  0160  1483        	inc mp
 425  0161  0700     R  	mov a,_Store_measurement_data_2[9]
 425  0162  0082        	mov ir,a
 426  0163              #line 426 "c:\users\longshuangmin\desktop\worke_space\g-501\g-501\flash.c"
 426  0163  0F82        	mov a,low (offset _M_FlashBuf1+2)
 426  0164  0300     E  	add a,rf
 426  0165  0083        	mov mp,a
 426  0166  0F06        	mov a,high (offset _M_FlashBuf1+2)
 426  0167  1300     E  	adc a,rg
文件：flash.c      编译器版本 HGASM 0202 页次29

 426  0168  0084        	mov sbp,a
 426  0169  0700     R  	mov a,_Store_measurement_data_2[6]
 426  016A  0082        	mov ir,a
 426  016B  1483        	inc mp
 426  016C  0700     R  	mov a,_Store_measurement_data_2[7]
 426  016D  0082        	mov ir,a
 427  016E              #line 427 "c:\users\longshuangmin\desktop\worke_space\g-501\g-501\flash.c"
 427  016E  0F84        	mov a,low (offset _M_FlashBuf1+4)
 427  016F  0300     E  	add a,rf
 427  0170  0083        	mov mp,a
 427  0171  0F06        	mov a,high (offset _M_FlashBuf1+4)
 427  0172  1300     E  	adc a,rg
 427  0173  0084        	mov sbp,a
 427  0174  0700     E  	mov a,rd
 427  0175  0082        	mov ir,a
 427  0176  1483        	inc mp
 427  0177  0700     E  	mov a,re
 427  0178  0082        	mov ir,a
 428  0179              #line 428 "c:\users\longshuangmin\desktop\worke_space\g-501\g-501\flash.c"
 428  0179  C73A 000F   	lmov a,[4026]
 428  017B  0080     E  	mov rd,a
 428  017C  1F00     E  	clr re
 428  017D  0F86        	mov a,low (offset _M_FlashBuf1+6)
 428  017E  0300     E  	add a,rf
 428  017F  0083        	mov mp,a
 428  0180  0F06        	mov a,high (offset _M_FlashBuf1+6)
 428  0181  1300     E  	adc a,rg
 428  0182  0084        	mov sbp,a
 428  0183              _L99:
 428  0183  0700     E  	mov a,rd
 428  0184  0082        	mov ir,a
 428  0185  1483        	inc mp
 428  0186  0700     E  	mov a,re
 428  0187  0082        	mov ir,a
 448  0188              #line 448 "c:\users\longshuangmin\desktop\worke_space\g-501\g-501\flash.c"
 448  0188  0700     E  	mov a,_M_PageAddress[0]
 448  0189  0080     R  	mov _WritePage_flash_2[0],a
 448  018A  0700     E  	mov a,_M_PageAddress[1]
 448  018B  0080     R  	mov _WritePage_flash_2[1],a
 448  018C              	fcall _WritePage_flash
 448  0193  0003        	ret
 448  0194              _Store_measurement_data endp
 448  0194              #line 448 "c:\users\longshuangmin\desktop\worke_space\g-501\g-501\flash.c"
 448  0194              #pragma debug scope 1 1
 448  0194              #pragma debug struct_end
 448  0194              #pragma debug struct_end
 448  0194              #pragma debug union_end
 448  0194              #pragma debug union_end
 448  0194              #pragma debug variable 44 1 ___lvdc "__lvdc" 1
 448  0194              #pragma debug struct_end
 448  0194              #pragma debug struct_end
 448  0194              #pragma debug union_end
 448  0194              #pragma debug union_end
 448  0194              #pragma debug variable 46 1 ___intc0 "__intc0" 1
 448  0194              #pragma debug struct_end
 448  0194              #pragma debug struct_end
 448  0194              #pragma debug union_end
 448  0194              #pragma debug union_end
 448  0194              #pragma debug variable 48 1 ___fc0 "__fc0" 1
 448  0194              #pragma debug struct_end
文件：flash.c      编译器版本 HGASM 0202 页次30

 448  0194              #pragma debug struct_end
 448  0194              #pragma debug union_end
 448  0194              #pragma debug union_end
 448  0194              #pragma debug variable 50 1 ___fc2 "__fc2" 1
 448  0194              #pragma debug struct_end
 448  0194              #pragma debug struct_end
 448  0194              #pragma debug union_end
 448  0194              #pragma debug union_end
 448  0194              #pragma debug variable 52 1 ___farl "__farl" 1
 448  0194              #pragma debug struct_end
 448  0194              #pragma debug struct_end
 448  0194              #pragma debug union_end
 448  0194              #pragma debug union_end
 448  0194              #pragma debug variable 54 1 ___farh "__farh" 1
 448  0194              #pragma debug variable 8 1 ___fd0l "__fd0l" 1
 448  0194              #pragma debug variable 8 1 ___fd0h "__fd0h" 1
 448  0194              #pragma debug variable 8 1 ___fd1l "__fd1l" 1
 448  0194              #pragma debug variable 8 1 ___fd1h "__fd1h" 1
 448  0194              #pragma debug variable 8 1 ___fd2l "__fd2l" 1
 448  0194              #pragma debug variable 8 1 ___fd2h "__fd2h" 1
 448  0194              #pragma debug variable 8 1 ___fd3l "__fd3l" 1
 448  0194              #pragma debug variable 8 1 ___fd3h "__fd3h" 1
 448  0194              #pragma debug array 55 12 64 1
 448  0194              #pragma debug array 55 12 64 1
 448  0194              #pragma debug variable 55 1 _M_FlashBuf0 "M_FlashBuf0" 128
 448  0194              #pragma debug variable 55 1 _M_FlashBuf1 "M_FlashBuf1" 128
 448  0194              #pragma debug variable 8 1 _meals "meals" 1
 448  0194              #pragma debug struct_end
 448  0194              #pragma debug struct_end
 448  0194              #pragma debug array 57 56 11 1
 448  0194              #pragma debug array 57 56 11 1
 448  0194              #pragma debug variable 57 1 _unsend_data "unsend_data" 110
 448  0194              
 448  0194              ; output external variables
 448  0194              extern _M_GM_data:byte
 448  0194              extern _M_Lbuf0:byte
 448  0194              extern _M_Second:byte
 448  0194              extern _M_Minutes:byte
 448  0194              extern _M_Hour:byte
 448  0194              extern _M_Days:byte
 448  0194              extern _M_Month:byte
 448  0194              extern _M_Year:byte
 448  0194              extern _M_PageIndex:byte
 448  0194              extern _M_PageAddress:byte
 448  0194              extern _M_Alarm4_MIN:byte
 448  0194              extern _M_Alarm4_HR:byte
 448  0194              extern _M_Alarm3_MIN:byte
 448  0194              extern _M_Alarm3_HR:byte
 448  0194              extern _M_Alarm2_MIN:byte
 448  0194              extern _M_Alarm2_HR:byte
 448  0194              extern _M_Alarm1_MIN:byte
 448  0194              extern _M_Alarm1_HR:byte
 448  0194              extern _Flag6:byte
 448  0194              extern _M_GM_SendRecord:byte
 448  0194              extern _M_GM_Record_current:byte
 448  0194              extern _M_GM_data_Record:byte
 448  0194              extern _M_Unit:byte
 448  0194              extern _Drv_Erase_Page_2:byte
 448  0194              extern _Drv_Erase_Page:near
 448  0194              extern _Drv_WriteFlashRom_2:byte
文件：flash.c      编译器版本 HGASM 0202 页次31

 448  0194              extern _Drv_WriteFlashRom:near
 448  0194              extern _Drv_ReadFlashRom_2:byte
 448  0194              extern _Drv_ReadFlashRom:near
 448  0194              extern _DateToSecond_2:byte
 448  0194              extern _DateToSecond:near
 448  0194              
 448  0194              ; 
 448  0194              ; Generated by holtek-gcc v3.19, Fri May 23 10:39:45 2025
 448  0194              ; Rebuild 718
 448  0194              ; end of file


        0 Errors, 0