文件：iap.c        编译器版本 HGASM 0202 页次1


   1  0000              ; Generated by holtek-gcc v3.19, Fri May 23 10:39:43 2025
   2  0000              ; 
   3  0000              ; Configuration:
   4  0000              ;       with long instruction
   5  0000              ;       Multi-ROM, Multi-RAM
   6  0000              ;       bits_per_rom_unit:16
   7  0000              ;       with mp1
   8  0000              ;       with tbhp, address(0x9)
   9  0000              ;          Use tabrd-const
  10  0000              ;       
  11  0000              ; SFR address of long-instruction arch:
  12  0000              ;    mp0 = -1,1,0
  13  0000              ;    mp1 = 4,3,2
  14  0000              ;    mp2 = 14,13,12
  15  0000              ;    tbp = 9,7,8
  16  0000              ;    acc = 5
  17  0000              ;    pcl = 6
  18  0000              ;    status = 10
  19  0000              ;    bp = 11
  20  0000              ;    intc = 32
  21  0000              ;       
  22  0000              ;       
  23  0000              ; use 'tabrdc' instead of 'tabrd'
  24  0000              ;       
  25  0000              
  26  0000              #pragma translator "holtek-gcc 4.6.4" "3.19" "build 20130711"
  27  0000              ; Rebuild 718
  28  0000              
  29  0000              ir equ [2]
  30  0000              mp equ [3]
  31  0000              sbp equ [4]
  32  0000              acc equ [5]
  33  0000              bp equ [11]
  34  0000              tblp equ [7]
  35  0000              tbhp equ [9]
  36  0000              status equ [10]
  37  0000              c equ [10].0
  38  0000              ac equ [10].1
  39  0000              z equ [10].2
  40  0000              ov equ [10].3
  41  0000              cz equ [10].6
  42  0000              sc equ [10].7
  43  0000              intc equ [32]
  44  0000              mduwr0 equ [59h]
  45  0000              mduwr1 equ [5ah]
  46  0000              mduwr2 equ [5bh]
  47  0000              mduwr3 equ [5ch]
  48  0000              mduwr4 equ [5dh]
  49  0000              mduwr5 equ [5eh]
  50  0000              mduwrctrl equ [5fh]
  51  0000              
  52  0000              extern ra:byte
  53  0000              extern rb:byte
  54  0000              extern rc:byte
  55  0000              extern rd:byte
  56  0000              extern re:byte
  57  0000              extern rf:byte
  58  0000              extern rg:byte
  59  0000              extern rh:byte
文件：iap.ASM      编译器版本 HGASM 0202 页次2

  60  0000              extern _Crom2Prom:near
  61  0000              extern _Crom2PromNext:near
  62  0000              
  63  0000              RAMBANK 0 @BITDATASEC, @BITDATASEC1
  64  0000              @HCCINIT	.section 'data'
  65  0000              @HCCINIT0	.section 'data'
  66  0000              @BITDATASEC	 .section 'data'
  67  0000              @BITDATASEC1	 .section 'data'
  68  0000              
  69  0000              #pragma debug scope 1 1
  70  0000              	extern __DELAY3:near
  71  0000              	extern __DELAYX3:near
  72  0000              	extern __DELAYX6:near
  73  0000              	extern __DELAYY5:near
  74  0000              	extern __DELAYY3:near
  75  0000              	extern _builtin_holtek_delay_2:byte
  76  0000              ___intc0 equ [32]
  77  0000              ___fc0 equ [323]
  78  0000              ___fd1l equ [330]
  79  0000              ___fd1h equ [331]
  80  0000              ___fd2l equ [332]
  81  0000              ___fd2h equ [333]
  82  0000              ___fd3l equ [334]
  83  0000              ___fd3h equ [335]
  84  0000              public _Drv_Enable_FWEN
  85  0000              #pragma debug scope 2 1

  12  0000              #line 12 "c:\users\longshuangmin\desktop\worke_space\g-501\g-501\iap.c"
  12  0000              _Drv_Enable_FWEN .section 'code'
  12  0000              _Drv_Enable_FWEN proc
  15  0000              #line 15 "c:\users\longshuangmin\desktop\worke_space\g-501\g-501\iap.c"
  15  0000  0720        	mov a,[32]
  15  0001  0E01        	and a,1
  15  0002  0080     E  	mov ra,a
  16  0003              #line 16 "c:\users\longshuangmin\desktop\worke_space\g-501\g-501\iap.c"
  16  0003  3420        	clr [32].0
  17  0004              #line 17 "c:\users\longshuangmin\desktop\worke_space\g-501\g-501\iap.c"
  17  0004              ;# 17 "c:\users\longshuangmin\desktop\worke_space\g-501\g-501\iap.c" 1
  17  0004  0001        	clr wdt
  18  0005              #line 18 "c:\users\longshuangmin\desktop\worke_space\g-501\g-501\iap.c"
  18  0005  0F68        	mov a,104
  18  0006  80C3 0001   	lmov [323],a
  19  0008              #line 19 "c:\users\longshuangmin\desktop\worke_space\g-501\g-501\iap.c"
  19  0008  9F4A 0001   	lclr [330]
  20  000A              #line 20 "c:\users\longshuangmin\desktop\worke_space\g-501\g-501\iap.c"
  20  000A  0F04        	mov a,4
  20  000B  80CB 0001   	lmov [331],a
  21  000D              #line 21 "c:\users\longshuangmin\desktop\worke_space\g-501\g-501\iap.c"
  21  000D  0F0D        	mov a,13
  21  000E  80CC 0001   	lmov [332],a
  22  0010              #line 22 "c:\users\longshuangmin\desktop\worke_space\g-501\g-501\iap.c"
  22  0010  0F09        	mov a,9
  22  0011  80CD 0001   	lmov [333],a
  23  0013              #line 23 "c:\users\longshuangmin\desktop\worke_space\g-501\g-501\iap.c"
  23  0013  0FC3        	mov a,195
  23  0014  80CE 0001   	lmov [334],a
  24  0016              #line 24 "c:\users\longshuangmin\desktop\worke_space\g-501\g-501\iap.c"
  24  0016  0F40        	mov a,64
  24  0017  80CF 0001   	lmov [335],a
  25  0019              #line 25 "c:\users\longshuangmin\desktop\worke_space\g-501\g-501\iap.c"
文件：iap.c        编译器版本 HGASM 0202 页次3

  25  0019  3420        	clr [32].0
  25  001A  0700     E  	mov a,ra
  25  001B  05A0        	orm a,[32]
  25  001C              _L3:
  26  001C              #line 26 "c:\users\longshuangmin\desktop\worke_space\g-501\g-501\iap.c"
  26  001C  BDC3 0001   	lsz [323].3
  26  001E  2800     R  	jmp _L3
  27  001F              #line 27 "c:\users\longshuangmin\desktop\worke_space\g-501\g-501\iap.c"
  27  001F  9843 0001   	lrla [323]
  27  0021  0E01        	and a,1
  27  0022  0080     E  	mov ra,a
  32  0023              #line 32 "c:\users\longshuangmin\desktop\worke_space\g-501\g-501\iap.c"
  32  0023  0700     E  	mov a,ra
  32  0024  0003        	ret
  32  0025              _Drv_Enable_FWEN endp
  32  0025              #line 32 "c:\users\longshuangmin\desktop\worke_space\g-501\g-501\iap.c"
  32  0025              #pragma debug scope 1 1
  32  0025              ___farl equ [326]
  32  0025              ___farh equ [327]
  32  0025              ___fd0h equ [329]
  32  0025              ___fd0l equ [328]
  32  0025              public _Drv_ReadFlashRom
  32  0025              #pragma debug scope 3 1
 152  0025              #line 152 "c:\users\longshuangmin\desktop\worke_space\g-501\g-501\iap.c"
 152  0000              _Drv_ReadFlashRom .section 'code'
 152  0000              _Drv_ReadFlashRom proc
 152  0000              public _Drv_ReadFlashRom_2
 152  0000  0004[           local _Drv_ReadFlashRom_2 db 4 dup(?)	; 2,2
            00
            ]
 152  0004              #pragma debug variable 12 3 _Drv_ReadFlashRom_2+0 "RPage_Addr"
 152  0004              #pragma debug variable 12 3 _Drv_ReadFlashRom_2+2 "Read_Data"
 154  0004              #line 154 "c:\users\longshuangmin\desktop\worke_space\g-501\g-501\iap.c"
 154  0000  1F80     R  	set _Drv_ReadFlashRom_2[2]
 154  0001  1F00     R  	clr _Drv_ReadFlashRom_2[3]
 155  0002              #line 155 "c:\users\longshuangmin\desktop\worke_space\g-501\g-501\iap.c"
 155  0002  3420        	clr [32].0
 156  0003              #line 156 "c:\users\longshuangmin\desktop\worke_space\g-501\g-501\iap.c"
 156  0003              ;# 156 "c:\users\longshuangmin\desktop\worke_space\g-501\g-501\iap.c" 1
 156  0003  0001        	clr wdt
 157  0004              #line 157 "c:\users\longshuangmin\desktop\worke_space\g-501\g-501\iap.c"
 157  0004  0F32        	mov a,50
 157  0005  80C3 0001   	lmov [323],a
 158  0007              #line 158 "c:\users\longshuangmin\desktop\worke_space\g-501\g-501\iap.c"
 158  0007  0700     R  	mov a,_Drv_ReadFlashRom_2[0]
 158  0008  80C6 0001   	lmov [326],a
 159  000A              #line 159 "c:\users\longshuangmin\desktop\worke_space\g-501\g-501\iap.c"
 159  000A  0700     R  	mov a,_Drv_ReadFlashRom_2[1]
 159  000B  80C7 0001   	lmov [327],a
 160  000D              #line 160 "c:\users\longshuangmin\desktop\worke_space\g-501\g-501\iap.c"
 160  000D  B043 0001   	lset [323].0
 160  000F              _L7:
 161  000F              #line 161 "c:\users\longshuangmin\desktop\worke_space\g-501\g-501\iap.c"
 161  000F  BC43 0001   	lsz [323].0
 161  0011  2800     R  	jmp _L7
 162  0012              #line 162 "c:\users\longshuangmin\desktop\worke_space\g-501\g-501\iap.c"
 162  0012  8749 0001   	lmov a,[329]
 162  0014  0080     E  	mov rb,a
 162  0015  1F00     E  	clr rc
 162  0016  0700     R  	mov a,_Drv_ReadFlashRom_2[2]  
文件：iap.c        编译器版本 HGASM 0202 页次4

 162  0017  0680     E  	andm a,rb  
 162  0018  0700     R  	mov a,_Drv_ReadFlashRom_2[3]  
 162  0019  0680     E  	andm a,rc
 162  001A  0700     E  	mov a,rb
 162  001B  0080     R  	mov _Drv_ReadFlashRom_2[3],a
 162  001C  1F00     R  	clr _Drv_ReadFlashRom_2[2]
 163  001D              #line 163 "c:\users\longshuangmin\desktop\worke_space\g-501\g-501\iap.c"
 163  001D  8748 0001   	lmov a,[328]
 163  001F  0580     R  	orm a,_Drv_ReadFlashRom_2[2]
 164  0020              #line 164 "c:\users\longshuangmin\desktop\worke_space\g-501\g-501\iap.c"
 164  0020  B4C3 0001   	lclr [323].1
 165  0022              #line 165 "c:\users\longshuangmin\desktop\worke_space\g-501\g-501\iap.c"
 165  0022  3020        	set [32].0
 167  0023              #line 167 "c:\users\longshuangmin\desktop\worke_space\g-501\g-501\iap.c"
 167  0023  0700     R  	mov a,_Drv_ReadFlashRom_2[2]
 167  0024  0080     E  	mov ra,a
 167  0025  0700     R  	mov a,_Drv_ReadFlashRom_2[3]
 167  0026  0080     E  	mov rb,a
 167  0027  0003        	ret
 167  0028              _Drv_ReadFlashRom endp
 167  0028              #line 167 "c:\users\longshuangmin\desktop\worke_space\g-501\g-501\iap.c"
 167  0028              #pragma debug scope 1 1
 167  0028              ___fc2 equ [325]
 167  0028              public _Drv_Erase_Page
 167  0028              #pragma debug scope 4 1
  40  0028              #line 40 "c:\users\longshuangmin\desktop\worke_space\g-501\g-501\iap.c"
  40  0000              _Drv_Erase_Page .section 'code'
  40  0000              _Drv_Erase_Page proc
  40  0000              public _Drv_Erase_Page_2
  40  0000  0006[           local _Drv_Erase_Page_2 db 6 dup(?)	; 3,3
            00
            ]
  40  0006              #pragma debug variable 12 4 _Drv_Erase_Page_2+0 "EPage_Addr"
  40  0006              #pragma debug variable 8 4 _Drv_Erase_Page_2+2 "EPage_Length"
  40  0006              #pragma debug variable 8 4 _Drv_Erase_Page_2+3 "ErasePageIsOk"
  44  0006              #line 44 "c:\users\longshuangmin\desktop\worke_space\g-501\g-501\iap.c"
  44  0000  3420        	clr [32].0
  45  0001              #line 45 "c:\users\longshuangmin\desktop\worke_space\g-501\g-501\iap.c"
  45  0001              ;# 45 "c:\users\longshuangmin\desktop\worke_space\g-501\g-501\iap.c" 1
  45  0001  0001        	clr wdt
  46  0002              #line 46 "c:\users\longshuangmin\desktop\worke_space\g-501\g-501\iap.c"
  46  0002              	fcall _Drv_Enable_FWEN
  46  0009  0080     E  	mov ra,a
  46  000A  0F00        	mov a,0
  46  000B  0200     E  	sub a,ra
  46  000C  0080     E  	mov rb,a
  46  000D  0700     E  	mov a,rb
  46  000E  0580     E  	orm a,ra
  46  000F  1800     E  	rla ra
  46  0010  0E01        	and a,1
  46  0011  0080     R  	mov _Drv_Erase_Page_2[3],a
  51  0012              #line 51 "c:\users\longshuangmin\desktop\worke_space\g-501\g-501\iap.c"
  51  0012  0F90        	mov a,144
  51  0013  80C3 0001   	lmov [323],a
  52  0015              #line 52 "c:\users\longshuangmin\desktop\worke_space\g-501\g-501\iap.c"
  52  0015  B045 0001   	lset [325].0
  53  0017              #line 53 "c:\users\longshuangmin\desktop\worke_space\g-501\g-501\iap.c"
  53  0017  0700     R  	mov a,_Drv_Erase_Page_2[0]
  53  0018  80C6 0001   	lmov [326],a
  54  001A              #line 54 "c:\users\longshuangmin\desktop\worke_space\g-501\g-501\iap.c"
文件：iap.c        编译器版本 HGASM 0202 页次5

  54  001A  0700     R  	mov a,_Drv_Erase_Page_2[1]
  54  001B  80C7 0001   	lmov [327],a
  56  001D              #line 56 "c:\users\longshuangmin\desktop\worke_space\g-501\g-501\iap.c"
  56  001D  1F00     E  	clr ra
  56  001E              _L9:
  56  001E              #line 56 "c:\users\longshuangmin\desktop\worke_space\g-501\g-501\iap.c"
  56  001E  0700     E  	mov a,ra
  56  001F  0200     R  	sub a,_Drv_Erase_Page_2[2]
  56  0020  3D0A        	sz z
  56  0021  2800     R  	jmp _L17
  58  0022              #line 58 "c:\users\longshuangmin\desktop\worke_space\g-501\g-501\iap.c"
  58  0022  9F49 0001   	lclr [329]
  56  0024              #line 56 "c:\users\longshuangmin\desktop\worke_space\g-501\g-501\iap.c"
  56  0024  1480     E  	inc ra
  56  0025  2800     R  	jmp _L9
  56  0026              _L17:
  60  0026              #line 60 "c:\users\longshuangmin\desktop\worke_space\g-501\g-501\iap.c"
  60  0026  B143 0001   	lset [323].2
  60  0028              _L11:
  61  0028              #line 61 "c:\users\longshuangmin\desktop\worke_space\g-501\g-501\iap.c"
  61  0028  B943 0001   	lsnz [323].2
  61  002A  2800     R  	jmp _L18
  63  002B              #line 63 "c:\users\longshuangmin\desktop\worke_space\g-501\g-501\iap.c"
  63  002B              ;# 63 "c:\users\longshuangmin\desktop\worke_space\g-501\g-501\iap.c" 1
  63  002B  0001        	clr wdt
  63  002C  2800     R  	jmp _L11
  63  002D              _L18:
  63  002D  0700     R  	mov a,_Drv_Erase_Page_2[2]
  63  002E  0300     R  	add a,_Drv_Erase_Page_2[0]
  63  002F  0080     R  	mov _Drv_Erase_Page_2[4],a
  63  0030  1F05        	clr acc
  63  0031  1300     R  	adc a,_Drv_Erase_Page_2[1]
  63  0032  0080     R  	mov _Drv_Erase_Page_2[5],a
  63  0033              _L13:
  65  0033              #line 65 "c:\users\longshuangmin\desktop\worke_space\g-501\g-501\iap.c"
  65  0033  0700     R  	mov a,_Drv_Erase_Page_2[0]
  65  0034  0200     R  	sub a,_Drv_Erase_Page_2[4]
  65  0035  0700     R  	mov a,_Drv_Erase_Page_2[1]
  65  0036  1200     R  	sbc a,_Drv_Erase_Page_2[5]
  65  0037  3F0A        	sz cz
  65  0038  2800     R  	jmp _L19
  67  0039              #line 67 "c:\users\longshuangmin\desktop\worke_space\g-501\g-501\iap.c"
  67  0039  0700     R  	mov a,_Drv_Erase_Page_2[0]
  67  003A  0080     R  	mov _Drv_ReadFlashRom_2[0],a
  67  003B  0700     R  	mov a,_Drv_Erase_Page_2[1]
  67  003C  0080     R  	mov _Drv_ReadFlashRom_2[1],a
  67  003D              	fcall _Drv_ReadFlashRom
  68  0044              #line 68 "c:\users\longshuangmin\desktop\worke_space\g-501\g-501\iap.c"
  68  0044  1480     R  	inc _Drv_Erase_Page_2[0]
  68  0045  3D0A        	sz z
  68  0046  1480     R  	inc _Drv_Erase_Page_2[1]
  69  0047              #line 69 "c:\users\longshuangmin\desktop\worke_space\g-501\g-501\iap.c"
  69  0047  0700     E  	mov a,ra
  69  0048  0500     E  	or a,rb
  69  0049  3D0A        	sz z
  69  004A  2800     R  	jmp _L13
  71  004B              #line 71 "c:\users\longshuangmin\desktop\worke_space\g-501\g-501\iap.c"
  71  004B  1F00     R  	clr _Drv_Erase_Page_2[3]
  71  004C  2800     R  	jmp _L13
  71  004D              _L19:
文件：iap.c        编译器版本 HGASM 0202 页次6

  74  004D              #line 74 "c:\users\longshuangmin\desktop\worke_space\g-501\g-501\iap.c"
  74  004D  B7C3 0001   	lclr [323].7
  75  004F              #line 75 "c:\users\longshuangmin\desktop\worke_space\g-501\g-501\iap.c"
  75  004F  3020        	set [32].0
  77  0050              #line 77 "c:\users\longshuangmin\desktop\worke_space\g-501\g-501\iap.c"
  77  0050  0700     R  	mov a,_Drv_Erase_Page_2[3]
  77  0051  0003        	ret
  77  0052              _Drv_Erase_Page endp
  77  0052              #line 77 "c:\users\longshuangmin\desktop\worke_space\g-501\g-501\iap.c"
  77  0052              #pragma debug scope 1 1
  77  0052              _M_FlashBuf0 equ [1920]
  77  0052              _M_FlashBuf1 equ [1664]
  77  0052              public _Drv_WriteFlashRom
  77  0052              #pragma debug scope 5 1
  85  0052              #line 85 "c:\users\longshuangmin\desktop\worke_space\g-501\g-501\iap.c"
  85  0000              _Drv_WriteFlashRom .section 'code'
  85  0000              _Drv_WriteFlashRom proc
  85  0000              public _Drv_WriteFlashRom_2
  85  0000  0007[           local _Drv_WriteFlashRom_2 db 7 dup(?)	; 3,4
            00
            ]
  85  0007              #pragma debug variable 12 5 _Drv_WriteFlashRom_2+0 "FlashAddr"
  85  0007              #pragma debug variable 8 5 _Drv_WriteFlashRom_2+2 "FlashLength"
  85  0007              #pragma debug variable 8 5 _Drv_WriteFlashRom_2+6 "WriteFlashIsOk"
  93  0007              #line 93 "c:\users\longshuangmin\desktop\worke_space\g-501\g-501\iap.c"
  93  0007              ;# 93 "c:\users\longshuangmin\desktop\worke_space\g-501\g-501\iap.c" 1
  93  0000  0001        	clr wdt
  94  0001              #line 94 "c:\users\longshuangmin\desktop\worke_space\g-501\g-501\iap.c"
  94  0001              	fcall _Drv_Enable_FWEN
  94  0008  0080     E  	mov ra,a
  94  0009  0F00        	mov a,0
  94  000A  0200     E  	sub a,ra
  94  000B  0080     E  	mov rb,a
  94  000C  0700     E  	mov a,rb
  94  000D  0580     E  	orm a,ra
  94  000E  1800     E  	rla ra
  94  000F  0E01        	and a,1
  94  0010  0080     R  	mov _Drv_WriteFlashRom_2[6],a
  98  0011              #line 98 "c:\users\longshuangmin\desktop\worke_space\g-501\g-501\iap.c"
  98  0011  B045 0001   	lset [325].0
  98  0013              _L22:
  99  0013              #line 99 "c:\users\longshuangmin\desktop\worke_space\g-501\g-501\iap.c"
  99  0013  BC45 0001   	lsz [325].0
  99  0015  2800     R  	jmp _L22
 101  0016              #line 101 "c:\users\longshuangmin\desktop\worke_space\g-501\g-501\iap.c"
 101  0016  0F80        	mov a,128
 101  0017  80C3 0001   	lmov [323],a
 103  0019              #line 103 "c:\users\longshuangmin\desktop\worke_space\g-501\g-501\iap.c"
 103  0019  0700     R  	mov a,_Drv_WriteFlashRom_2[0]
 103  001A  80C6 0001   	lmov [326],a
 104  001C              #line 104 "c:\users\longshuangmin\desktop\worke_space\g-501\g-501\iap.c"
 104  001C  0700     R  	mov a,_Drv_WriteFlashRom_2[1]
 104  001D  80C7 0001   	lmov [327],a
 106  001F              #line 106 "c:\users\longshuangmin\desktop\worke_space\g-501\g-501\iap.c"
 106  001F  1F00     E  	clr ra
 106  0020              _L23:
 106  0020  0700     E  	mov a,ra
 106  0021  0200     R  	sub a,_Drv_WriteFlashRom_2[2]
 106  0022  3C0A        	sz c
 106  0023  2800     R  	jmp _L37
文件：iap.c        编译器版本 HGASM 0202 页次7

 108  0024              #line 108 "c:\users\longshuangmin\desktop\worke_space\g-501\g-501\iap.c"
 108  0024  0F3F        	mov a,63
 108  0025  0200     E  	sub a,ra
 108  0026  380A        	snz c
 108  0027  2800     R  	jmp _L24
 110  0028              #line 110 "c:\users\longshuangmin\desktop\worke_space\g-501\g-501\iap.c"
 110  0028  0700     E  	mov a,ra
 110  0029  0080     E  	mov rb,a
 110  002A  1F00     E  	clr rc
 110  002B  340A        	clr c
 110  002C  1A80     E  	rlc rb
 110  002D  1A80     E  	rlc rc
 110  002E  0F80        	mov a,low offset _M_FlashBuf0
 110  002F  0380     E  	addm a,rb
 110  0030  0F07        	mov a,high offset _M_FlashBuf0
 110  0031  1380     E  	adcm a,rc
 110  0032  2800     R  	jmp _L35
 110  0033              _L24:
 115  0033              #line 115 "c:\users\longshuangmin\desktop\worke_space\g-501\g-501\iap.c"
 115  0033  0FC0        	mov a,192
 115  0034  0300     E  	add a,ra
 115  0035  0080     E  	mov rb,a
 115  0036  0FFF        	mov a,255
 115  0037  1F00     E  	clr rc
 115  0038  1380     E  	adcm a,rc
 115  0039  340A        	clr c
 115  003A  1A80     E  	rlc rb
 115  003B  1A80     E  	rlc rc
 115  003C  0F80        	mov a,low offset _M_FlashBuf1
 115  003D  0380     E  	addm a,rb
 115  003E  0F06        	mov a,high offset _M_FlashBuf1
 115  003F  1380     E  	adcm a,rc
 115  0040              _L35:
 115  0040  0700     E  	mov a,rb
 115  0041  0083        	mov mp,a
 115  0042  0700     E  	mov a,rc
 115  0043  0084        	mov sbp,a
 115  0044              	fcall _Crom2Prom
 115  004B  80C8 0001   	lmov [328],a
 116  004D              #line 116 "c:\users\longshuangmin\desktop\worke_space\g-501\g-501\iap.c"
 116  004D              	fcall _Crom2Prom
 116  0054  0080     E  	mov rb,a
 116  0055              	fcall _Crom2PromNext
 116  005C  0080     E  	mov rc,a
 116  005D  0700     E  	mov a,rc
 116  005E  80C9 0001   	lmov [329],a
 106  0060              #line 106 "c:\users\longshuangmin\desktop\worke_space\g-501\g-501\iap.c"
 106  0060  1480     E  	inc ra
 106  0061  2800     R  	jmp _L23
 106  0062              _L37:
 119  0062              #line 119 "c:\users\longshuangmin\desktop\worke_space\g-501\g-501\iap.c"
 119  0062  B143 0001   	lset [323].2
 119  0064              _L29:
 120  0064              #line 120 "c:\users\longshuangmin\desktop\worke_space\g-501\g-501\iap.c"
 120  0064  BD43 0001   	lsz [323].2
 120  0066  2800     R  	jmp _L29
 120  0067  1F00     R  	clr _Drv_WriteFlashRom_2[3]
 120  0068              _L28:
 122  0068              #line 122 "c:\users\longshuangmin\desktop\worke_space\g-501\g-501\iap.c"
 122  0068  0700     R  	mov a,_Drv_WriteFlashRom_2[3]
文件：iap.c        编译器版本 HGASM 0202 页次8

 122  0069  0200     R  	sub a,_Drv_WriteFlashRom_2[2]
 122  006A  3C0A        	sz c
 122  006B  2800     R  	jmp _L38
 124  006C              #line 124 "c:\users\longshuangmin\desktop\worke_space\g-501\g-501\iap.c"
 124  006C  0700     R  	mov a,_Drv_WriteFlashRom_2[3]
 124  006D  0080     R  	mov _Drv_WriteFlashRom_2[4],a
 124  006E  1F00     R  	clr _Drv_WriteFlashRom_2[5]
 124  006F  0700     R  	mov a,_Drv_WriteFlashRom_2[0]
 124  0070  0300     R  	add a,_Drv_WriteFlashRom_2[4]
 124  0071  0080     R  	mov _Drv_ReadFlashRom_2[0],a
 124  0072  0700     R  	mov a,_Drv_WriteFlashRom_2[1]
 124  0073  1300     R  	adc a,_Drv_WriteFlashRom_2[5]
 124  0074  0080     R  	mov _Drv_ReadFlashRom_2[1],a
 124  0075              	fcall _Drv_ReadFlashRom
 127  007C              #line 127 "c:\users\longshuangmin\desktop\worke_space\g-501\g-501\iap.c"
 127  007C  340A        	clr c
 127  007D  1A00     R  	rlca _Drv_WriteFlashRom_2[4]
 127  007E  0080     E  	mov rd,a
 127  007F  1A00     R  	rlca _Drv_WriteFlashRom_2[5]
 127  0080  0080     E  	mov re,a
 125  0081              #line 125 "c:\users\longshuangmin\desktop\worke_space\g-501\g-501\iap.c"
 125  0081  0F3F        	mov a,63
 125  0082  0200     R  	sub a,_Drv_WriteFlashRom_2[3]
 125  0083  380A        	snz c
 125  0084  2800     R  	jmp _L30
 127  0085              #line 127 "c:\users\longshuangmin\desktop\worke_space\g-501\g-501\iap.c"
 127  0085  0F80        	mov a,low offset _M_FlashBuf0
 127  0086  0300     E  	add a,rd
 127  0087  0083        	mov mp,a
 127  0088  0F07        	mov a,high offset _M_FlashBuf0
 127  0089  1300     E  	adc a,re
 127  008A  0084        	mov sbp,a
 127  008B  2800     R  	jmp _L36
 127  008C              _L30:
 135  008C              #line 135 "c:\users\longshuangmin\desktop\worke_space\g-501\g-501\iap.c"
 135  008C  0F00        	mov a,low (offset _M_FlashBuf1-128)
 135  008D  0300     E  	add a,rd
 135  008E  0083        	mov mp,a
 135  008F  0F06        	mov a,high (offset _M_FlashBuf1-128)
 135  0090  1300     E  	adc a,re
 135  0091  0084        	mov sbp,a
 135  0092              _L36:
 135  0092              	fcall _Crom2Prom
 135  0099  0080     E  	mov rd,a
 135  009A              	fcall _Crom2PromNext
 135  00A1  0080     E  	mov re,a
 135  00A2  0700     E  	mov a,ra
 135  00A3  0200     E  	sub a,rd
 135  00A4  0700     E  	mov a,rb
 135  00A5  1200     E  	sbc a,re
 135  00A6  3F0A        	sz cz
 135  00A7  2800     R  	jmp _L31
 130  00A8              #line 130 "c:\users\longshuangmin\desktop\worke_space\g-501\g-501\iap.c"
 130  00A8  1F00     R  	clr _Drv_WriteFlashRom_2[6]
 130  00A9              _L31:
 122  00A9              #line 122 "c:\users\longshuangmin\desktop\worke_space\g-501\g-501\iap.c"
 122  00A9  1480     R  	inc _Drv_WriteFlashRom_2[3]
 122  00AA  2800     R  	jmp _L28
 122  00AB              _L38:
 142  00AB              #line 142 "c:\users\longshuangmin\desktop\worke_space\g-501\g-501\iap.c"
文件：iap.c        编译器版本 HGASM 0202 页次9

 142  00AB  B7C3 0001   	lclr [323].7
 144  00AD              #line 144 "c:\users\longshuangmin\desktop\worke_space\g-501\g-501\iap.c"
 144  00AD  0700     R  	mov a,_Drv_WriteFlashRom_2[6]
 144  00AE  0003        	ret
 144  00AF              _Drv_WriteFlashRom endp
 144  00AF              #line 144 "c:\users\longshuangmin\desktop\worke_space\g-501\g-501\iap.c"
 144  00AF              #pragma debug scope 1 1
 144  00AF              #pragma debug struct_end
 144  00AF              #pragma debug struct_end
 144  00AF              #pragma debug union_end
 144  00AF              #pragma debug union_end
 144  00AF              #pragma debug variable 43 1 ___intc0 "__intc0" 1
 144  00AF              #pragma debug struct_end
 144  00AF              #pragma debug struct_end
 144  00AF              #pragma debug union_end
 144  00AF              #pragma debug union_end
 144  00AF              #pragma debug variable 45 1 ___fc0 "__fc0" 1
 144  00AF              #pragma debug struct_end
 144  00AF              #pragma debug struct_end
 144  00AF              #pragma debug union_end
 144  00AF              #pragma debug union_end
 144  00AF              #pragma debug variable 47 1 ___fc2 "__fc2" 1
 144  00AF              #pragma debug struct_end
 144  00AF              #pragma debug struct_end
 144  00AF              #pragma debug union_end
 144  00AF              #pragma debug union_end
 144  00AF              #pragma debug variable 49 1 ___farl "__farl" 1
 144  00AF              #pragma debug struct_end
 144  00AF              #pragma debug struct_end
 144  00AF              #pragma debug union_end
 144  00AF              #pragma debug union_end
 144  00AF              #pragma debug variable 51 1 ___farh "__farh" 1
 144  00AF              #pragma debug variable 8 1 ___fd0l "__fd0l" 1
 144  00AF              #pragma debug variable 8 1 ___fd0h "__fd0h" 1
 144  00AF              #pragma debug variable 8 1 ___fd1l "__fd1l" 1
 144  00AF              #pragma debug variable 8 1 ___fd1h "__fd1h" 1
 144  00AF              #pragma debug variable 8 1 ___fd2l "__fd2l" 1
 144  00AF              #pragma debug variable 8 1 ___fd2h "__fd2h" 1
 144  00AF              #pragma debug variable 8 1 ___fd3l "__fd3l" 1
 144  00AF              #pragma debug variable 8 1 ___fd3h "__fd3h" 1
 144  00AF              #pragma debug array 52 12 64 1
 144  00AF              #pragma debug array 52 12 64 1
 144  00AF              #pragma debug variable 52 1 _M_FlashBuf0 "M_FlashBuf0" 128
 144  00AF              #pragma debug variable 52 1 _M_FlashBuf1 "M_FlashBuf1" 128
 144  00AF              
 144  00AF              ; 
 144  00AF              ; Generated by holtek-gcc v3.19, Fri May 23 10:39:43 2025
 144  00AF              ; Rebuild 718
 144  00AF              ; end of file


        0 Errors, 0