文件：initial.c    编译器版本 HGASM 0202 页次1


   1  0000              ; Generated by holtek-gcc v3.19, Fri May 23 10:39:39 2025
   2  0000              ; 
   3  0000              ; Configuration:
   4  0000              ;       with long instruction
   5  0000              ;       Multi-ROM, Multi-RAM
   6  0000              ;       bits_per_rom_unit:16
   7  0000              ;       with mp1
   8  0000              ;       with tbhp, address(0x9)
   9  0000              ;          Use tabrd-const
  10  0000              ;       
  11  0000              ; SFR address of long-instruction arch:
  12  0000              ;    mp0 = -1,1,0
  13  0000              ;    mp1 = 4,3,2
  14  0000              ;    mp2 = 14,13,12
  15  0000              ;    tbp = 9,7,8
  16  0000              ;    acc = 5
  17  0000              ;    pcl = 6
  18  0000              ;    status = 10
  19  0000              ;    bp = 11
  20  0000              ;    intc = 32
  21  0000              ;       
  22  0000              ;       
  23  0000              ; use 'tabrdc' instead of 'tabrd'
  24  0000              ;       
  25  0000              
  26  0000              #pragma translator "holtek-gcc 4.6.4" "3.19" "build 20130711"
  27  0000              ; Rebuild 718
  28  0000              
  29  0000              ir equ [2]
  30  0000              mp equ [3]
  31  0000              sbp equ [4]
  32  0000              acc equ [5]
  33  0000              bp equ [11]
  34  0000              tblp equ [7]
  35  0000              tbhp equ [9]
  36  0000              status equ [10]
  37  0000              c equ [10].0
  38  0000              ac equ [10].1
  39  0000              z equ [10].2
  40  0000              ov equ [10].3
  41  0000              cz equ [10].6
  42  0000              sc equ [10].7
  43  0000              intc equ [32]
  44  0000              mduwr0 equ [59h]
  45  0000              mduwr1 equ [5ah]
  46  0000              mduwr2 equ [5bh]
  47  0000              mduwr3 equ [5ch]
  48  0000              mduwr4 equ [5dh]
  49  0000              mduwr5 equ [5eh]
  50  0000              mduwrctrl equ [5fh]
  51  0000              
  52  0000              extern ra:byte
  53  0000              extern rb:byte
  54  0000              extern rc:byte
  55  0000              extern rd:byte
  56  0000              extern re:byte
  57  0000              extern rf:byte
  58  0000              extern rg:byte
  59  0000              extern rh:byte
文件：initial.ASM  编译器版本 HGASM 0202 页次2

  60  0000              extern _Crom2Prom:near
  61  0000              extern _Crom2PromNext:near
  62  0000              
  63  0000              RAMBANK 0 @BITDATASEC, @BITDATASEC1
  64  0000              @HCCINIT	.section 'data'
  65  0000              @HCCINIT0	.section 'data'
  66  0000              @BITDATASEC	 .section 'data'
  67  0000              @BITDATASEC1	 .section 'data'
  68  0000              
  69  0000              #pragma debug scope 1 1
  70  0000              	extern __DELAY3:near
  71  0000              	extern __DELAYX3:near
  72  0000              	extern __DELAYX6:near
  73  0000              	extern __DELAYY5:near
  74  0000              	extern __DELAYY3:near
  75  0000              	extern _builtin_holtek_delay_2:byte
  76  0000              ___mp1h equ [4]
  77  0000              ___mp1l equ [3]
  78  0000              ___tblp equ [7]
  79  0000              ___iar1 equ [2]
  80  0000              public _SystemRAM_clear
  81  0000              #pragma debug scope 2 1

   6  0000              #line 6 "c:\users\longshuangmin\desktop\worke_space\g-501\g-501\initial.c"
   6  0000              _SystemRAM_clear .section 'code'
   6  0000              _SystemRAM_clear proc
   7  0000              #line 7 "c:\users\longshuangmin\desktop\worke_space\g-501\g-501\initial.c"
   7  0000  1F04        	clr [4]
   8  0001              #line 8 "c:\users\longshuangmin\desktop\worke_space\g-501\g-501\initial.c"
   8  0001  0F80        	mov a,128
   8  0002  0083        	mov [3],a
   8  0003              _L2:
   9  0003              #line 9 "c:\users\longshuangmin\desktop\worke_space\g-501\g-501\initial.c"
   9  0003  0F1F        	mov a,31
   9  0004  0204        	sub a,[4]
   9  0005  380A        	snz c
   9  0006  2800     R  	jmp _L7
  11  0007              #line 11 "c:\users\longshuangmin\desktop\worke_space\g-501\g-501\initial.c"
  11  0007  1F07        	clr [7]
  11  0008              _L3:
  11  0008  3F87        	sz [7].7
  11  0009  2800     R  	jmp _L8
  13  000A              #line 13 "c:\users\longshuangmin\desktop\worke_space\g-501\g-501\initial.c"
  13  000A  1F02        	clr [2]
  14  000B              #line 14 "c:\users\longshuangmin\desktop\worke_space\g-501\g-501\initial.c"
  14  000B  1483        	inc [3]
  11  000C              #line 11 "c:\users\longshuangmin\desktop\worke_space\g-501\g-501\initial.c"
  11  000C  1487        	inc [7]
  11  000D  2800     R  	jmp _L3
  11  000E              _L8:
  16  000E              #line 16 "c:\users\longshuangmin\desktop\worke_space\g-501\g-501\initial.c"
  16  000E  0F80        	mov a,128
  16  000F  0083        	mov [3],a
  17  0010              #line 17 "c:\users\longshuangmin\desktop\worke_space\g-501\g-501\initial.c"
  17  0010  1484        	inc [4]
  17  0011  2800     R  	jmp _L2
  17  0012              _L7:
  19  0012              #line 19 "c:\users\longshuangmin\desktop\worke_space\g-501\g-501\initial.c"
  19  0012  1F04        	clr [4]
  20  0013              #line 20 "c:\users\longshuangmin\desktop\worke_space\g-501\g-501\initial.c"
文件：initial.c    编译器版本 HGASM 0202 页次3

  20  0013  0F80        	mov a,128
  20  0014  0083        	mov [3],a
  20  0015  0003        	ret
  20  0016              _SystemRAM_clear endp
  20  0016              #line 20 "c:\users\longshuangmin\desktop\worke_space\g-501\g-501\initial.c"
  20  0016              #pragma debug scope 1 1
  20  0016              ___pas0 equ [339]
  20  0016              ___pas1 equ [340]
  20  0016              ___scc equ [16]
  20  0016              ___hircc equ [17]
  20  0016              ___lxtc equ [19]
  20  0016              public _Initial_SysClock
  20  0016              #pragma debug scope 3 1
  25  0016              #line 25 "c:\users\longshuangmin\desktop\worke_space\g-501\g-501\initial.c"
  25  0000              _Initial_SysClock .section 'code'
  25  0000              _Initial_SysClock proc
  29  0000              #line 29 "c:\users\longshuangmin\desktop\worke_space\g-501\g-501\initial.c"
  29  0000  0F33        	mov a,51
  29  0001  80D3 0001   	lmov [339],a
  30  0003              #line 30 "c:\users\longshuangmin\desktop\worke_space\g-501\g-501\initial.c"
  30  0003  9F54 0001   	lclr [340]
  33  0005              #line 33 "c:\users\longshuangmin\desktop\worke_space\g-501\g-501\initial.c"
  33  0005  0F04        	mov a,4
  33  0006  0090        	mov [16],a
  66  0007              #line 66 "c:\users\longshuangmin\desktop\worke_space\g-501\g-501\initial.c"
  66  0007  0F01        	mov a,1
  66  0008  0091        	mov [17],a
  66  0009              _L10:
  83  0009              #line 83 "c:\users\longshuangmin\desktop\worke_space\g-501\g-501\initial.c"
  83  0009  3C91        	sz [17].1
  83  000A  2800     R  	jmp _L14
  84  000B              #line 84 "c:\users\longshuangmin\desktop\worke_space\g-501\g-501\initial.c"
  84  000B              ;# 84 "c:\users\longshuangmin\desktop\worke_space\g-501\g-501\initial.c" 1
  84  000B  0001        	clr wdt
  84  000C  2800     R  	jmp _L10
  84  000D              _L14:
 122  000D              #line 122 "c:\users\longshuangmin\desktop\worke_space\g-501\g-501\initial.c"
 122  000D  0F01        	mov a,1
 122  000E  0093        	mov [19],a
 132  000F              #line 132 "c:\users\longshuangmin\desktop\worke_space\g-501\g-501\initial.c"
 132  000F  2800     R  	jmp _L12
 132  0010              _L13:
 133  0010              #line 133 "c:\users\longshuangmin\desktop\worke_space\g-501\g-501\initial.c"
 133  0010              ;# 133 "c:\users\longshuangmin\desktop\worke_space\g-501\g-501\initial.c" 1
 133  0010  0001        	clr wdt
 133  0011              _L12:
 132  0011              #line 132 "c:\users\longshuangmin\desktop\worke_space\g-501\g-501\initial.c"
 132  0011  3893        	snz [19].1
 132  0012  2800     R  	jmp _L13
 132  0013  0003        	ret
 132  0014              _Initial_SysClock endp
 132  0014              #line 132 "c:\users\longshuangmin\desktop\worke_space\g-501\g-501\initial.c"
 132  0014              #pragma debug scope 1 1
 132  0014              ___lcdc0 equ [304]
 132  0014              ___lcdcp equ [305]
 132  0014              ___lcdc2 equ [306]
 132  0014              public _Initial_SysLcd
 132  0014              #pragma debug scope 4 1
 140  0014              #line 140 "c:\users\longshuangmin\desktop\worke_space\g-501\g-501\initial.c"
 140  0000              _Initial_SysLcd .section 'code'
文件：initial.c    编译器版本 HGASM 0202 页次4

 140  0000              _Initial_SysLcd proc
 181  0000              #line 181 "c:\users\longshuangmin\desktop\worke_space\g-501\g-501\initial.c"
 181  0000  0F80        	mov a,128
 181  0001  80B0 0001   	lmov [304],a
 182  0003              #line 182 "c:\users\longshuangmin\desktop\worke_space\g-501\g-501\initial.c"
 182  0003  0F08        	mov a,8
 182  0004  80B1 0001   	lmov [305],a
 183  0006              #line 183 "c:\users\longshuangmin\desktop\worke_space\g-501\g-501\initial.c"
 183  0006  0FA2        	mov a,162
 183  0007  80B2 0001   	lmov [306],a
 183  0009  0003        	ret
 183  000A              _Initial_SysLcd endp
 183  000A              #line 183 "c:\users\longshuangmin\desktop\worke_space\g-501\g-501\initial.c"
 183  000A              #pragma debug scope 1 1
 183  000A              ___stmc0 equ [73]
 183  000A              ___stmc1 equ [74]
 183  000A              public _Initial_SysStm
 183  000A              #pragma debug scope 5 1
 189  000A              #line 189 "c:\users\longshuangmin\desktop\worke_space\g-501\g-501\initial.c"
 189  0000              _Initial_SysStm .section 'code'
 189  0000              _Initial_SysStm proc
 196  0000              #line 196 "c:\users\longshuangmin\desktop\worke_space\g-501\g-501\initial.c"
 196  0000  1F49        	clr [73]
 215  0001              #line 215 "c:\users\longshuangmin\desktop\worke_space\g-501\g-501\initial.c"
 215  0001  0F39        	mov a,57
 215  0002  00CA        	mov [74],a
 215  0003  0003        	ret
 215  0004              _Initial_SysStm endp
 215  0004              #line 215 "c:\users\longshuangmin\desktop\worke_space\g-501\g-501\initial.c"
 215  0004              #pragma debug scope 1 1
 215  0004              ___ptm0al equ [84]
 215  0004              ___ptm0ah equ [85]
 215  0004              ___ptm0c0 equ [80]
 215  0004              ___ptm0c1 equ [81]
 215  0004              public _Initial_SysPTM0
 215  0004              #pragma debug scope 6 1
 257  0004              #line 257 "c:\users\longshuangmin\desktop\worke_space\g-501\g-501\initial.c"
 257  0000              _Initial_SysPTM0 .section 'code'
 257  0000              _Initial_SysPTM0 proc
 263  0000              #line 263 "c:\users\longshuangmin\desktop\worke_space\g-501\g-501\initial.c"
 263  0000  0F48        	mov a,72
 263  0001  00D4        	mov [84],a
 264  0002              #line 264 "c:\users\longshuangmin\desktop\worke_space\g-501\g-501\initial.c"
 264  0002  0F01        	mov a,1
 264  0003  00D5        	mov [85],a
 271  0004              #line 271 "c:\users\longshuangmin\desktop\worke_space\g-501\g-501\initial.c"
 271  0004  0F40        	mov a,64
 271  0005  00D0        	mov [80],a
 290  0006              #line 290 "c:\users\longshuangmin\desktop\worke_space\g-501\g-501\initial.c"
 290  0006  0FC1        	mov a,193
 290  0007  00D1        	mov [81],a
 290  0008  0003        	ret
 290  0009              _Initial_SysPTM0 endp
 290  0009              #line 290 "c:\users\longshuangmin\desktop\worke_space\g-501\g-501\initial.c"
 290  0009              #pragma debug scope 1 1
 290  0009              ___pscr equ [44]
 290  0009              ___tb0c equ [45]
 290  0009              ___tb1c equ [46]
 290  0009              public _Initial_SysTimebase
 290  0009              #pragma debug scope 7 1
文件：initial.c    编译器版本 HGASM 0202 页次5

 338  0009              #line 338 "c:\users\longshuangmin\desktop\worke_space\g-501\g-501\initial.c"
 338  0000              _Initial_SysTimebase .section 'code'
 338  0000              _Initial_SysTimebase proc
 339  0000              #line 339 "c:\users\longshuangmin\desktop\worke_space\g-501\g-501\initial.c"
 339  0000  0F02        	mov a,2
 339  0001  00AC        	mov [44],a
 346  0002              #line 346 "c:\users\longshuangmin\desktop\worke_space\g-501\g-501\initial.c"
 346  0002  0F86        	mov a,134
 346  0003  00AD        	mov [45],a
 361  0004              #line 361 "c:\users\longshuangmin\desktop\worke_space\g-501\g-501\initial.c"
 361  0004  1F2E        	clr [46]
 361  0005  0003        	ret
 361  0006              _Initial_SysTimebase endp
 361  0006              #line 361 "c:\users\longshuangmin\desktop\worke_space\g-501\g-501\initial.c"
 361  0006              #pragma debug scope 1 1
 361  0006              ___integ0 equ [31]
 361  0006              ___integ1 equ [43]
 361  0006              ___intc0 equ [32]
 361  0006              ___intc1 equ [33]
 361  0006              ___intc2 equ [34]
 361  0006              ___intc3 equ [35]
 361  0006              ___mfi0 equ [27]
 361  0006              ___mfi1 equ [28]
 361  0006              ___mfi2 equ [29]
 361  0006              public _Initial_SysInt
 361  0006              #pragma debug scope 8 1
 379  0006              #line 379 "c:\users\longshuangmin\desktop\worke_space\g-501\g-501\initial.c"
 379  0000              _Initial_SysInt .section 'code'
 379  0000              _Initial_SysInt proc
 380  0000              #line 380 "c:\users\longshuangmin\desktop\worke_space\g-501\g-501\initial.c"
 380  0000  1F1F        	clr [31]
 402  0001              #line 402 "c:\users\longshuangmin\desktop\worke_space\g-501\g-501\initial.c"
 402  0001  1F2B        	clr [43]
 415  0002              #line 415 "c:\users\longshuangmin\desktop\worke_space\g-501\g-501\initial.c"
 415  0002  0F08        	mov a,8
 415  0003  00A0        	mov [32],a
 439  0004              #line 439 "c:\users\longshuangmin\desktop\worke_space\g-501\g-501\initial.c"
 439  0004  0F01        	mov a,1
 439  0005  00A1        	mov [33],a
 465  0006              #line 465 "c:\users\longshuangmin\desktop\worke_space\g-501\g-501\initial.c"
 465  0006  0F01        	mov a,1
 465  0007  00A2        	mov [34],a
 491  0008              #line 491 "c:\users\longshuangmin\desktop\worke_space\g-501\g-501\initial.c"
 491  0008  0F08        	mov a,8
 491  0009  00A3        	mov [35],a
 518  000A              #line 518 "c:\users\longshuangmin\desktop\worke_space\g-501\g-501\initial.c"
 518  000A  0F08        	mov a,8
 518  000B  009B        	mov [27],a
 544  000C              #line 544 "c:\users\longshuangmin\desktop\worke_space\g-501\g-501\initial.c"
 544  000C  1F1C        	clr [28]
 570  000D              #line 570 "c:\users\longshuangmin\desktop\worke_space\g-501\g-501\initial.c"
 570  000D  1F1D        	clr [29]
 570  000E  0003        	ret
 570  000F              _Initial_SysInt endp
 570  000F              #line 570 "c:\users\longshuangmin\desktop\worke_space\g-501\g-501\initial.c"
 570  000F              #pragma debug scope 1 1
 570  000F              ___lvrc equ [25]
 570  000F              public _Initial_SysLvr
 570  000F              #pragma debug scope 9 1
 599  000F              #line 599 "c:\users\longshuangmin\desktop\worke_space\g-501\g-501\initial.c"
文件：initial.c    编译器版本 HGASM 0202 页次6

 599  0000              _Initial_SysLvr .section 'code'
 599  0000              _Initial_SysLvr proc
 600  0000              #line 600 "c:\users\longshuangmin\desktop\worke_space\g-501\g-501\initial.c"
 600  0000  0F55        	mov a,85
 600  0001  0099        	mov [25],a
 600  0002  0003        	ret
 600  0003              _Initial_SysLvr endp
 600  0003              #line 600 "c:\users\longshuangmin\desktop\worke_space\g-501\g-501\initial.c"
 600  0003              #pragma debug scope 1 1
 600  0003              ___lvdc equ [26]
 600  0003              public _Initial_SysLvd
 600  0003              #pragma debug scope 10 1
 612  0003              #line 612 "c:\users\longshuangmin\desktop\worke_space\g-501\g-501\initial.c"
 612  0000              _Initial_SysLvd .section 'code'
 612  0000              _Initial_SysLvd proc
 613  0000              #line 613 "c:\users\longshuangmin\desktop\worke_space\g-501\g-501\initial.c"
 613  0000  0F02        	mov a,2
 613  0001  009A        	mov [26],a
 613  0002  0003        	ret
 613  0003              _Initial_SysLvd endp
 613  0003              #line 613 "c:\users\longshuangmin\desktop\worke_space\g-501\g-501\initial.c"
 613  0003              #pragma debug scope 1 1
 613  0003              ___wdtc equ [30]
 613  0003              public _Initial_SysWdt
 613  0003              #pragma debug scope 11 1
 637  0003              #line 637 "c:\users\longshuangmin\desktop\worke_space\g-501\g-501\initial.c"
 637  0000              _Initial_SysWdt .section 'code'
 637  0000              _Initial_SysWdt proc
 639  0000              #line 639 "c:\users\longshuangmin\desktop\worke_space\g-501\g-501\initial.c"
 639  0000  0F55        	mov a,85
 639  0001  009E        	mov [30],a
 639  0002  0003        	ret
 639  0003              _Initial_SysWdt endp
 639  0003              #line 639 "c:\users\longshuangmin\desktop\worke_space\g-501\g-501\initial.c"
 639  0003              #pragma debug scope 1 1
 639  0003              ___pgac0 equ [96]
 639  0003              ___pgac1 equ [97]
 639  0003              ___pgacs equ [98]
 639  0003              ___adcr0 equ [102]
 639  0003              ___adcr1 equ [103]
 639  0003              ___adcs equ [104]
 639  0003              public _Initial_SysAdc
 639  0003              #pragma debug scope 12 1
 661  0003              #line 661 "c:\users\longshuangmin\desktop\worke_space\g-501\g-501\initial.c"
 661  0000              _Initial_SysAdc .section 'code'
 661  0000              _Initial_SysAdc proc
 662  0000              #line 662 "c:\users\longshuangmin\desktop\worke_space\g-501\g-501\initial.c"
 662  0000  1F60        	clr [96]
 685  0001              #line 685 "c:\users\longshuangmin\desktop\worke_space\g-501\g-501\initial.c"
 685  0001  1F61        	clr [97]
 704  0002              #line 704 "c:\users\longshuangmin\desktop\worke_space\g-501\g-501\initial.c"
 704  0002  1F62        	clr [98]
 732  0003              #line 732 "c:\users\longshuangmin\desktop\worke_space\g-501\g-501\initial.c"
 732  0003  0F60        	mov a,96
 732  0004  00E6        	mov [102],a
 753  0005              #line 753 "c:\users\longshuangmin\desktop\worke_space\g-501\g-501\initial.c"
 753  0005  1F67        	clr [103]
 769  0006              #line 769 "c:\users\longshuangmin\desktop\worke_space\g-501\g-501\initial.c"
 769  0006  1F68        	clr [104]
 769  0007  0003        	ret
文件：initial.c    编译器版本 HGASM 0202 页次7

 769  0008              _Initial_SysAdc endp
 769  0008              #line 769 "c:\users\longshuangmin\desktop\worke_space\g-501\g-501\initial.c"
 769  0008              #pragma debug scope 1 1
 769  0008              ___pwrc equ [106]
 769  0008              public _fun_AFEPoweronInit
 769  0008              #pragma debug scope 13 1
 778  0008              #line 778 "c:\users\longshuangmin\desktop\worke_space\g-501\g-501\initial.c"
 778  0000              _fun_AFEPoweronInit .section 'code'
 778  0000              _fun_AFEPoweronInit proc
 779  0000              #line 779 "c:\users\longshuangmin\desktop\worke_space\g-501\g-501\initial.c"
 779  0000  1F6A        	clr [106]
 780  0001              #line 780 "c:\users\longshuangmin\desktop\worke_space\g-501\g-501\initial.c"
 780  0001  33EA        	set [106].7
 780  0002  0003        	ret
 780  0003              _fun_AFEPoweronInit endp
 780  0003              #line 780 "c:\users\longshuangmin\desktop\worke_space\g-501\g-501\initial.c"
 780  0003              #pragma debug scope 1 1
 780  0003              public _fun_CalOPAOffset
 780  0003              #pragma debug scope 14 1
 788  0003              #line 788 "c:\users\longshuangmin\desktop\worke_space\g-501\g-501\initial.c"
 788  0000              _fun_CalOPAOffset .section 'code'
 788  0000              _fun_CalOPAOffset proc
 789  0000              #line 789 "c:\users\longshuangmin\desktop\worke_space\g-501\g-501\initial.c"
 789  0000              	fcall _fun_CalOPA1Offset
 790  0007              #line 790 "c:\users\longshuangmin\desktop\worke_space\g-501\g-501\initial.c"
 790  0007              	fcall _fun_CalOPA2Offset
 791  000E              #line 791 "c:\users\longshuangmin\desktop\worke_space\g-501\g-501\initial.c"
 791  000E              	fcall _fun_CalOPA3Offset
 791  0015  0003        	ret
 791  0016              _fun_CalOPAOffset endp
 791  0016              #line 791 "c:\users\longshuangmin\desktop\worke_space\g-501\g-501\initial.c"
 791  0016              #pragma debug scope 1 1
 791  0016              ___pac equ [21]
 791  0016              ___pa equ [20]
 791  0016              ___papu equ [22]
 791  0016              ___pawu equ [23]
 791  0016              ___pbc equ [37]
 791  0016              ___pb equ [36]
 791  0016              ___pbpu equ [38]
 791  0016              ___pbs0 equ [341]
 791  0016              ___pcc equ [40]
 791  0016              ___pc equ [39]
 791  0016              ___pcpu equ [41]
 791  0016              ___pcs0 equ [343]
 791  0016              ___pcs1 equ [344]
 791  0016              ___pdc equ [309]
 791  0016              ___pd equ [308]
 791  0016              ___pdpu equ [310]
 791  0016              ___pds0 equ [345]
 791  0016              ___pds1 equ [346]
 791  0016              ___pec equ [312]
 791  0016              ___pe equ [311]
 791  0016              ___pepu equ [313]
 791  0016              ___pes0 equ [347]
 791  0016              ___pes1 equ [348]
 791  0016              ___pfc equ [315]
 791  0016              ___pf equ [314]
 791  0016              ___pfpu equ [316]
 791  0016              ___pfs0 equ [349]
 791  0016              ___pfs1 equ [350]
文件：initial.c    编译器版本 HGASM 0202 页次8

 791  0016              ___pgc equ [318]
 791  0016              ___pg equ [317]
 791  0016              ___pgpu equ [319]
 791  0016              ___pgs0 equ [351]
 791  0016              ___ifs0 equ [336]
 791  0016              ___ifs1 equ [337]
 791  0016              public _Initial_SysGpio
 791  0016              #pragma debug scope 15 1
 796  0016              #line 796 "c:\users\longshuangmin\desktop\worke_space\g-501\g-501\initial.c"
 796  0000              _Initial_SysGpio .section 'code'
 796  0000              _Initial_SysGpio proc
 806  0000              #line 806 "c:\users\longshuangmin\desktop\worke_space\g-501\g-501\initial.c"
 806  0000  1F95        	set [21]
 807  0001              #line 807 "c:\users\longshuangmin\desktop\worke_space\g-501\g-501\initial.c"
 807  0001  0F02        	mov a,2
 807  0002  0094        	mov [20],a
 808  0003              #line 808 "c:\users\longshuangmin\desktop\worke_space\g-501\g-501\initial.c"
 808  0003  1F96        	set [22]
 809  0004              #line 809 "c:\users\longshuangmin\desktop\worke_space\g-501\g-501\initial.c"
 809  0004  0F7A        	mov a,122
 809  0005  0097        	mov [23],a
 813  0006              #line 813 "c:\users\longshuangmin\desktop\worke_space\g-501\g-501\initial.c"
 813  0006  0F33        	mov a,51
 813  0007  80D3 0001   	lmov [339],a
 834  0009              #line 834 "c:\users\longshuangmin\desktop\worke_space\g-501\g-501\initial.c"
 834  0009  9F54 0001   	lclr [340]
 861  000B              #line 861 "c:\users\longshuangmin\desktop\worke_space\g-501\g-501\initial.c"
 861  000B  0F09        	mov a,9
 861  000C  00A5        	mov [37],a
 862  000D              #line 862 "c:\users\longshuangmin\desktop\worke_space\g-501\g-501\initial.c"
 862  000D  0F03        	mov a,3
 862  000E  00A4        	mov [36],a
 863  000F              #line 863 "c:\users\longshuangmin\desktop\worke_space\g-501\g-501\initial.c"
 863  000F  0F09        	mov a,9
 863  0010  00A6        	mov [38],a
 866  0011              #line 866 "c:\users\longshuangmin\desktop\worke_space\g-501\g-501\initial.c"
 866  0011  9F55 0001   	lclr [341]
 895  0013              #line 895 "c:\users\longshuangmin\desktop\worke_space\g-501\g-501\initial.c"
 895  0013  0F39        	mov a,57
 895  0014  00A8        	mov [40],a
 896  0015              #line 896 "c:\users\longshuangmin\desktop\worke_space\g-501\g-501\initial.c"
 896  0015  0F30        	mov a,48
 896  0016  00A7        	mov [39],a
 897  0017              #line 897 "c:\users\longshuangmin\desktop\worke_space\g-501\g-501\initial.c"
 897  0017  0F31        	mov a,49
 897  0018  00A9        	mov [41],a
 900  0019              #line 900 "c:\users\longshuangmin\desktop\worke_space\g-501\g-501\initial.c"
 900  0019  9F57 0001   	lclr [343]
 918  001B              #line 918 "c:\users\longshuangmin\desktop\worke_space\g-501\g-501\initial.c"
 918  001B  9F58 0001   	lclr [344]
 939  001D              #line 939 "c:\users\longshuangmin\desktop\worke_space\g-501\g-501\initial.c"
 939  001D  9F35 0001   	lclr [309]
 940  001F              #line 940 "c:\users\longshuangmin\desktop\worke_space\g-501\g-501\initial.c"
 940  001F  0F10        	mov a,16
 940  0020  80B4 0001   	lmov [308],a
 941  0022              #line 941 "c:\users\longshuangmin\desktop\worke_space\g-501\g-501\initial.c"
 941  0022  9F36 0001   	lclr [310]
 944  0024              #line 944 "c:\users\longshuangmin\desktop\worke_space\g-501\g-501\initial.c"
 944  0024  0FAF        	mov a,175
 944  0025  80D9 0001   	lmov [345],a
文件：initial.c    编译器版本 HGASM 0202 页次9

 962  0027              #line 962 "c:\users\longshuangmin\desktop\worke_space\g-501\g-501\initial.c"
 962  0027  9F5A 0001   	lclr [346]
 981  0029              #line 981 "c:\users\longshuangmin\desktop\worke_space\g-501\g-501\initial.c"
 981  0029  9F38 0001   	lclr [312]
 982  002B              #line 982 "c:\users\longshuangmin\desktop\worke_space\g-501\g-501\initial.c"
 982  002B  9F37 0001   	lclr [311]
 983  002D              #line 983 "c:\users\longshuangmin\desktop\worke_space\g-501\g-501\initial.c"
 983  002D  9F39 0001   	lclr [313]
 986  002F              #line 986 "c:\users\longshuangmin\desktop\worke_space\g-501\g-501\initial.c"
 986  002F  9FDB 0001   	lset [347]
1001  0031              #line 1001 "c:\users\longshuangmin\desktop\worke_space\g-501\g-501\initial.c"
1001  0031  9F5C 0001   	lclr [348]
1017  0033              #line 1017 "c:\users\longshuangmin\desktop\worke_space\g-501\g-501\initial.c"
1017  0033  9F3B 0001   	lclr [315]
1018  0035              #line 1018 "c:\users\longshuangmin\desktop\worke_space\g-501\g-501\initial.c"
1018  0035  9F3A 0001   	lclr [314]
1019  0037              #line 1019 "c:\users\longshuangmin\desktop\worke_space\g-501\g-501\initial.c"
1019  0037  9F3C 0001   	lclr [316]
1022  0039              #line 1022 "c:\users\longshuangmin\desktop\worke_space\g-501\g-501\initial.c"
1022  0039  9FDD 0001   	lset [349]
1035  003B              #line 1035 "c:\users\longshuangmin\desktop\worke_space\g-501\g-501\initial.c"
1035  003B  9FDE 0001   	lset [350]
1050  003D              #line 1050 "c:\users\longshuangmin\desktop\worke_space\g-501\g-501\initial.c"
1050  003D  9F3E 0001   	lclr [318]
1051  003F              #line 1051 "c:\users\longshuangmin\desktop\worke_space\g-501\g-501\initial.c"
1051  003F  9F3D 0001   	lclr [317]
1052  0041              #line 1052 "c:\users\longshuangmin\desktop\worke_space\g-501\g-501\initial.c"
1052  0041  9F3F 0001   	lclr [319]
1056  0043              #line 1056 "c:\users\longshuangmin\desktop\worke_space\g-501\g-501\initial.c"
1056  0043  0F2A        	mov a,42
1056  0044  80DF 0001   	lmov [351],a
1073  0046              #line 1073 "c:\users\longshuangmin\desktop\worke_space\g-501\g-501\initial.c"
1073  0046  9F50 0001   	lclr [336]
1092  0048              #line 1092 "c:\users\longshuangmin\desktop\worke_space\g-501\g-501\initial.c"
1092  0048  9F51 0001   	lclr [337]
1092  004A  0003        	ret
1092  004B              _Initial_SysGpio endp
1092  004B              #line 1092 "c:\users\longshuangmin\desktop\worke_space\g-501\g-501\initial.c"
1092  004B              #pragma debug scope 1 1
1092  004B              ___stmal equ [77]
1092  004B              ___stmah equ [78]
1092  004B              public _Initnal_StmCmp_Lirc_16K
1092  004B              #pragma debug scope 16 1
1112  004B              #line 1112 "c:\users\longshuangmin\desktop\worke_space\g-501\g-501\initial.c"
1112  0000              _Initnal_StmCmp_Lirc_16K .section 'code'
1112  0000              _Initnal_StmCmp_Lirc_16K proc
1113  0000              #line 1113 "c:\users\longshuangmin\desktop\worke_space\g-501\g-501\initial.c"
1113  0000  0F01        	mov a,1
1113  0001  00CD        	mov [77],a
1114  0002              #line 1114 "c:\users\longshuangmin\desktop\worke_space\g-501\g-501\initial.c"
1114  0002  1F4E        	clr [78]
1116  0003              #line 1116 "c:\users\longshuangmin\desktop\worke_space\g-501\g-501\initial.c"
1116  0003  0F40        	mov a,64
1116  0004  00C9        	mov [73],a
1135  0005              #line 1135 "c:\users\longshuangmin\desktop\worke_space\g-501\g-501\initial.c"
1135  0005  0F3D        	mov a,61
1135  0006  00CA        	mov [74],a
1174  0007              #line 1174 "c:\users\longshuangmin\desktop\worke_space\g-501\g-501\initial.c"
1174  0007  B45B 0001   	lclr [347].0
1175  0009              #line 1175 "c:\users\longshuangmin\desktop\worke_space\g-501\g-501\initial.c"
文件：initial.c    编译器版本 HGASM 0202 页次10

1175  0009  B0DB 0001   	lset [347].1
1176  000B              #line 1176 "c:\users\longshuangmin\desktop\worke_space\g-501\g-501\initial.c"
1176  000B  34A1        	clr [33].1
1177  000C              #line 1177 "c:\users\longshuangmin\desktop\worke_space\g-501\g-501\initial.c"
1177  000C  349B        	clr [27].1
1177  000D  0003        	ret
1177  000E              _Initnal_StmCmp_Lirc_16K endp
1177  000E              #line 1177 "c:\users\longshuangmin\desktop\worke_space\g-501\g-501\initial.c"
1177  000E              #pragma debug scope 1 1
1177  000E              public _Initnal_StmCmp_Hirc_8K
1177  000E              #pragma debug scope 17 1
1183  000E              #line 1183 "c:\users\longshuangmin\desktop\worke_space\g-501\g-501\initial.c"
1183  0000              _Initnal_StmCmp_Hirc_8K .section 'code'
1183  0000              _Initnal_StmCmp_Hirc_8K proc
1184  0000              #line 1184 "c:\users\longshuangmin\desktop\worke_space\g-501\g-501\initial.c"
1184  0000  0FFA        	mov a,250
1184  0001  00CD        	mov [77],a
1185  0002              #line 1185 "c:\users\longshuangmin\desktop\worke_space\g-501\g-501\initial.c"
1185  0002  1F4E        	clr [78]
1187  0003              #line 1187 "c:\users\longshuangmin\desktop\worke_space\g-501\g-501\initial.c"
1187  0003  0F10        	mov a,16
1187  0004  00C9        	mov [73],a
1206  0005              #line 1206 "c:\users\longshuangmin\desktop\worke_space\g-501\g-501\initial.c"
1206  0005  0F3D        	mov a,61
1206  0006  00CA        	mov [74],a
1245  0007              #line 1245 "c:\users\longshuangmin\desktop\worke_space\g-501\g-501\initial.c"
1245  0007  B55B 0001   	lclr [347].2
1246  0009              #line 1246 "c:\users\longshuangmin\desktop\worke_space\g-501\g-501\initial.c"
1246  0009  B1DB 0001   	lset [347].3
1247  000B              #line 1247 "c:\users\longshuangmin\desktop\worke_space\g-501\g-501\initial.c"
1247  000B  34A1        	clr [33].1
1248  000C              #line 1248 "c:\users\longshuangmin\desktop\worke_space\g-501\g-501\initial.c"
1248  000C  349B        	clr [27].1
1248  000D  0003        	ret
1248  000E              _Initnal_StmCmp_Hirc_8K endp
1248  000E              #line 1248 "c:\users\longshuangmin\desktop\worke_space\g-501\g-501\initial.c"
1248  000E              #pragma debug scope 1 1
1248  000E              public _Initial_Sys
1248  000E              #pragma debug scope 18 1
1253  000E              #line 1253 "c:\users\longshuangmin\desktop\worke_space\g-501\g-501\initial.c"
1253  0000              _Initial_Sys .section 'code'
1253  0000              _Initial_Sys proc
1254  0000              #line 1254 "c:\users\longshuangmin\desktop\worke_space\g-501\g-501\initial.c"
1254  0000              	fcall _Initial_SysGpio
1255  0007              #line 1255 "c:\users\longshuangmin\desktop\worke_space\g-501\g-501\initial.c"
1255  0007              	fcall _Initial_SysLcd
1255  000E              #pragma debug scope 19 18
1255  000E              ;begin block, line: 1255.-1
1255  000E              #pragma debug scope 20 19
1255  000E              ;begin block, line: 1255.-1
 639  000E              #line 639 "c:\users\longshuangmin\desktop\worke_space\g-501\g-501\initial.c"
 639  000E  0F55        	mov a,85
 639  000F  009E        	mov [30],a
 639  0010              #pragma debug scope 19 18
 639  0010              #pragma debug scope 18 1
 639  0010              #pragma debug scope 21 18
 639  0010              ;begin block, line: 639.-1
 639  0010              #pragma debug scope 22 21
 639  0010              ;begin block, line: 639.-1
 600  0010              #line 600 "c:\users\longshuangmin\desktop\worke_space\g-501\g-501\initial.c"
文件：initial.c    编译器版本 HGASM 0202 页次11

 600  0010  0F55        	mov a,85
 600  0011  0099        	mov [25],a
 600  0012              #pragma debug scope 21 18
 600  0012              #pragma debug scope 18 1
1258  0012              #line 1258 "c:\users\longshuangmin\desktop\worke_space\g-501\g-501\initial.c"
1258  0012              	fcall _Initial_SysInt
1259  0019              #line 1259 "c:\users\longshuangmin\desktop\worke_space\g-501\g-501\initial.c"
1259  0019              	fcall _Initial_SysTimebase
1260  0020              #line 1260 "c:\users\longshuangmin\desktop\worke_space\g-501\g-501\initial.c"
1260  0020              	fcall _Initial_SysStm
1261  0027              #line 1261 "c:\users\longshuangmin\desktop\worke_space\g-501\g-501\initial.c"
1261  0027              	fcall _Initial_SysPTM0
1262  002E              #line 1262 "c:\users\longshuangmin\desktop\worke_space\g-501\g-501\initial.c"
1262  002E              	fcall _Initial_SysLcd
1263  0035              #line 1263 "c:\users\longshuangmin\desktop\worke_space\g-501\g-501\initial.c"
1263  0035              	fcall _Initial_SysAdc
1263  003C  0003        	ret
1263  003D              _Initial_Sys endp
1263  003D              #line 1263 "c:\users\longshuangmin\desktop\worke_space\g-501\g-501\initial.c"
1263  003D              #pragma debug scope 1 1
1263  003D              public _Initial_HaltSys
1263  003D              #pragma debug scope 23 1
1269  003D              #line 1269 "c:\users\longshuangmin\desktop\worke_space\g-501\g-501\initial.c"
1269  0000              _Initial_HaltSys .section 'code'
1269  0000              _Initial_HaltSys proc
1270  0000              #line 1270 "c:\users\longshuangmin\desktop\worke_space\g-501\g-501\initial.c"
1270  0000              	fcall _Initial_SysGpio
1272  0007              #line 1272 "c:\users\longshuangmin\desktop\worke_space\g-501\g-501\initial.c"
1272  0007  B555 0001   	lclr [341].2
1273  0009              #line 1273 "c:\users\longshuangmin\desktop\worke_space\g-501\g-501\initial.c"
1273  0009  B5D5 0001   	lclr [341].3
1273  000B  0003        	ret
1273  000C              _Initial_HaltSys endp
1273  000C              #line 1273 "c:\users\longshuangmin\desktop\worke_space\g-501\g-501\initial.c"
1273  000C              #pragma debug scope 1 1
1273  000C              public _Load_System_Vaule
1273  000C              #pragma debug scope 24 1
1307  000C              #line 1307 "c:\users\longshuangmin\desktop\worke_space\g-501\g-501\initial.c"
1307  0000              _Load_System_Vaule .section 'code'
1307  0000              _Load_System_Vaule proc
1307  0000  0004[           local _Load_System_Vaule_2 db 4 dup(?)	; 0,4
            00
            ]
1316  0004              #line 1316 "c:\users\longshuangmin\desktop\worke_space\g-501\g-501\initial.c"
1316  0000  0F04        	mov a,4
1316  0001  0080     R  	mov _Load_System_Vaule_2[0],a
1312  0002              #line 1312 "c:\users\longshuangmin\desktop\worke_space\g-501\g-501\initial.c"
1312  0002  1F00     E  	clr ra
1312  0003              _L32:
1316  0003              #line 1316 "c:\users\longshuangmin\desktop\worke_space\g-501\g-501\initial.c"
1316  0003  0700     E  	mov a,ra
1316  0004  0080     E  	mov rb,a
1316  0005  1F00     E  	clr rc
1316  0006  0F04        	mov a,4
1316  0007              _LI1:
1316  0007  340A        	clr c
1316  0008  1A80     E  	rlc rb
1316  0009  1A80     E  	rlc rc
1316  000A  1785        	sdz acc
1316  000B  2800     R  	jmp _LI1
文件：initial.c    编译器版本 HGASM 0202 页次12

1316  000C  0F0F        	mov a,15
1316  000D  0080     R  	mov _Load_System_Vaule_2[2],a
1316  000E  1F00     E  	clr rd
1316  000F  1F00     E  	clr re
1316  0010  1F00     E  	clr rh
1316  0011              _L36:
1316  0011  0700     E  	mov a,rh
1316  0012  0300     E  	add a,rb
1316  0013  0080     E  	mov rf,a
1316  0014  1F05        	clr acc
1316  0015  1300     E  	adc a,rc
1316  0016  0080     E  	mov rg,a
1316  0017  340A        	clr c
1316  0018  1A80     E  	rlc rf
1316  0019  1A80     E  	rlc rg
1316  001A  0F00     E  	mov a,low offset _Significant_Table
1316  001B  0300     E  	add a,rf
1316  001C  0083        	mov mp,a
1316  001D  0F00     E  	mov a,high offset _Significant_Table
1316  001E  1300     E  	adc a,rg
1316  001F  0084        	mov sbp,a
1316  0020              	fcall _Crom2Prom
1316  0027  0080     E  	mov rf,a
1316  0028              	fcall _Crom2PromNext
1316  002F  0080     E  	mov rg,a
1316  0030  0700     E  	mov a,rf
1316  0031  0380     E  	addm a,rd
1316  0032  0700     E  	mov a,rg
1316  0033  1380     E  	adcm a,re
1315  0034              #line 1315 "c:\users\longshuangmin\desktop\worke_space\g-501\g-501\initial.c"
1315  0034  1480     E  	inc rh
1315  0035  1780     R  	sdz _Load_System_Vaule_2[2]
1315  0036  2800     R  	jmp _L36
1317  0037              #line 1317 "c:\users\longshuangmin\desktop\worke_space\g-501\g-501\initial.c"
1317  0037  340A        	clr c
1317  0038  1A00     E  	rlca rb
1317  0039  0080     E  	mov rf,a
1317  003A  1A00     E  	rlca rc
1317  003B  0080     E  	mov rg,a
1317  003C  0F00     E  	mov a,low (offset _Significant_Table+30)
1317  003D  0300     E  	add a,rf
1317  003E  0083        	mov mp,a
1317  003F  0F00     E  	mov a,high (offset _Significant_Table+30)
1317  0040  1300     E  	adc a,rg
1317  0041  0084        	mov sbp,a
1317  0042              	fcall _Crom2Prom
1317  0049  0080     E  	mov rf,a
1317  004A              	fcall _Crom2PromNext
1317  0051  0080     E  	mov rg,a
1317  0052  0700     E  	mov a,rd
1317  0053  0200     E  	sub a,rf
1317  0054  0700     E  	mov a,re
1317  0055  1200     E  	sbc a,rg
1317  0056  3F0A        	sz cz
1317  0057  2800     R  	jmp _L34
1312  0058              #line 1312 "c:\users\longshuangmin\desktop\worke_space\g-501\g-501\initial.c"
1312  0058  1480     E  	inc ra
1312  0059  1780     R  	sdz _Load_System_Vaule_2[0]
1312  005A  2800     R  	jmp _L32
1312  005B  2800     R  	jmp _L35
文件：initial.c    编译器版本 HGASM 0202 页次13

1312  005C              _L34:
1321  005C              #line 1321 "c:\users\longshuangmin\desktop\worke_space\g-501\g-501\initial.c"
1321  005C  0700     E  	mov a,rd
1321  005D  0500     E  	or a,re
1321  005E  390A        	snz z
1321  005F  2800     R  	jmp _L46
1321  0060              _L35:
1377  0060              #line 1377 "c:\users\longshuangmin\desktop\worke_space\g-501\g-501\initial.c"
1377  0060  1F00     E  	clr _M_GM_data_Record[0]
1377  0061  1F00     E  	clr _M_GM_data_Record[1]
1378  0062              #line 1378 "c:\users\longshuangmin\desktop\worke_space\g-501\g-501\initial.c"
1378  0062  1F00     E  	clr _M_GM_Record_current[0]
1378  0063  1F00     E  	clr _M_GM_Record_current[1]
1379  0064              #line 1379 "c:\users\longshuangmin\desktop\worke_space\g-501\g-501\initial.c"
1379  0064  0F01        	mov a,1
1379  0065  0080     E  	mov _M_Unit[0],a
1380  0066              #line 1380 "c:\users\longshuangmin\desktop\worke_space\g-501\g-501\initial.c"
1380  0066  3400     E  	clr _Flag6[0].0
1381  0067              #line 1381 "c:\users\longshuangmin\desktop\worke_space\g-501\g-501\initial.c"
1381  0067  0F0C        	mov a,12
1381  0068  0080     E  	mov _M_Alarm1_HR[0],a
1382  0069              #line 1382 "c:\users\longshuangmin\desktop\worke_space\g-501\g-501\initial.c"
1382  0069  1F00     E  	clr _M_Alarm1_MIN[0]
1383  006A              #line 1383 "c:\users\longshuangmin\desktop\worke_space\g-501\g-501\initial.c"
1383  006A  3400     E  	clr _Flag6[0].2
1384  006B              #line 1384 "c:\users\longshuangmin\desktop\worke_space\g-501\g-501\initial.c"
1384  006B  0F0C        	mov a,12
1384  006C  0080     E  	mov _M_Alarm2_HR[0],a
1385  006D              #line 1385 "c:\users\longshuangmin\desktop\worke_space\g-501\g-501\initial.c"
1385  006D  1F00     E  	clr _M_Alarm2_MIN[0]
1386  006E              #line 1386 "c:\users\longshuangmin\desktop\worke_space\g-501\g-501\initial.c"
1386  006E  3400     E  	clr _Flag6[0].4
1387  006F              #line 1387 "c:\users\longshuangmin\desktop\worke_space\g-501\g-501\initial.c"
1387  006F  0F0C        	mov a,12
1387  0070  0080     E  	mov _M_Alarm3_HR[0],a
1388  0071              #line 1388 "c:\users\longshuangmin\desktop\worke_space\g-501\g-501\initial.c"
1388  0071  1F00     E  	clr _M_Alarm3_MIN[0]
1389  0072              #line 1389 "c:\users\longshuangmin\desktop\worke_space\g-501\g-501\initial.c"
1389  0072  3400     E  	clr _Flag6[0].6
1390  0073              #line 1390 "c:\users\longshuangmin\desktop\worke_space\g-501\g-501\initial.c"
1390  0073  0F0C        	mov a,12
1390  0074  0080     E  	mov _M_Alarm4_HR[0],a
1391  0075              #line 1391 "c:\users\longshuangmin\desktop\worke_space\g-501\g-501\initial.c"
1391  0075  1F00     E  	clr _M_Alarm4_MIN[0]
1391  0076  2800     R  	jmp _L31
1391  0077              _L46:
1324  0077              #line 1324 "c:\users\longshuangmin\desktop\worke_space\g-501\g-501\initial.c"
1324  0077  340A        	clr c
1324  0078  1A00     E  	rlca rb
1324  0079  0080     E  	mov rd,a
1324  007A  1A00     E  	rlca rc
1324  007B  0080     E  	mov re,a
1324  007C  0F00     E  	mov a,low offset _Significant_Table
1324  007D  0300     E  	add a,rd
1324  007E  0083        	mov mp,a
1324  007F  0F00     E  	mov a,high offset _Significant_Table
1324  0080  1300     E  	adc a,re
1324  0081  0084        	mov sbp,a
1324  0082              	fcall _Crom2Prom
1324  0089  0080     E  	mov rd,a
文件：initial.c    编译器版本 HGASM 0202 页次14

1324  008A              	fcall _Crom2PromNext
1324  0091  0080     E  	mov re,a
1324  0092  0700     E  	mov a,rd
1324  0093  0080     E  	mov _M_GM_data_Record[0],a
1324  0094  0700     E  	mov a,re
1324  0095  0080     E  	mov _M_GM_data_Record[1],a
1326  0096              #line 1326 "c:\users\longshuangmin\desktop\worke_space\g-501\g-501\initial.c"
1326  0096  340A        	clr c
1326  0097  1A00     E  	rlca rb
1326  0098  0080     E  	mov rd,a
1326  0099  1A00     E  	rlca rc
1326  009A  0080     E  	mov re,a
1326  009B  0F00     E  	mov a,low (offset _Significant_Table+2)
1326  009C  0300     E  	add a,rd
1326  009D  0083        	mov mp,a
1326  009E  0F00     E  	mov a,high (offset _Significant_Table+2)
1326  009F  1300     E  	adc a,re
1326  00A0  0084        	mov sbp,a
1326  00A1              	fcall _Crom2Prom
1326  00A8  0080     E  	mov rd,a
1326  00A9              	fcall _Crom2PromNext
1326  00B0  0080     E  	mov re,a
1326  00B1  0700     E  	mov a,rd
1326  00B2  0080     E  	mov _M_GM_Record_current[0],a
1326  00B3  0700     E  	mov a,re
1326  00B4  0080     E  	mov _M_GM_Record_current[1],a
1328  00B5              #line 1328 "c:\users\longshuangmin\desktop\worke_space\g-501\g-501\initial.c"
1328  00B5  340A        	clr c
1328  00B6  1A00     E  	rlca rb
1328  00B7  0080     E  	mov rd,a
1328  00B8  1A00     E  	rlca rc
1328  00B9  0080     E  	mov re,a
1328  00BA  0F00     E  	mov a,low (offset _Significant_Table+4)
1328  00BB  0300     E  	add a,rd
1328  00BC  0083        	mov mp,a
1328  00BD  0F00     E  	mov a,high (offset _Significant_Table+4)
1328  00BE  1300     E  	adc a,re
1328  00BF  0084        	mov sbp,a
1328  00C0              	fcall _Crom2Prom
1328  00C7  0080     E  	mov rd,a
1328  00C8              	fcall _Crom2PromNext
1328  00CF  0080     E  	mov re,a
1328  00D0  0700     E  	mov a,rd
1328  00D1  0080     E  	mov _M_GM_SendRecord[0],a
1328  00D2  0700     E  	mov a,re
1328  00D3  0080     E  	mov _M_GM_SendRecord[1],a
1330  00D4              #line 1330 "c:\users\longshuangmin\desktop\worke_space\g-501\g-501\initial.c"
1330  00D4  340A        	clr c
1330  00D5  1A00     E  	rlca rb
1330  00D6  0080     E  	mov rd,a
1330  00D7  1A00     E  	rlca rc
1330  00D8  0080     E  	mov re,a
1330  00D9  0F00     E  	mov a,low (offset _Significant_Table+6)
1330  00DA  0300     E  	add a,rd
1330  00DB  0083        	mov mp,a
1330  00DC  0F00     E  	mov a,high (offset _Significant_Table+6)
1330  00DD  1300     E  	adc a,re
1330  00DE  0084        	mov sbp,a
1330  00DF              	fcall _Crom2Prom
1330  00E6  0080     E  	mov _M_Unit[0],a
文件：initial.c    编译器版本 HGASM 0202 页次15

1332  00E7              #line 1332 "c:\users\longshuangmin\desktop\worke_space\g-501\g-501\initial.c"
1332  00E7  0F00     E  	mov a,low (offset _Significant_Table+8)
1332  00E8  0300     E  	add a,rd
1332  00E9  0083        	mov mp,a
1332  00EA  0F00     E  	mov a,high (offset _Significant_Table+8)
1332  00EB  1300     E  	adc a,re
1332  00EC  0084        	mov sbp,a
1332  00ED              	fcall _Crom2Prom
1332  00F4  0080     E  	mov rf,a
1332  00F5              	fcall _Crom2PromNext
1332  00FC  0080     E  	mov rg,a
1332  00FD  3800     E  	snz rg.7
1332  00FE  2800     R  	jmp _L37
1333  00FF              #line 1333 "c:\users\longshuangmin\desktop\worke_space\g-501\g-501\initial.c"
1333  00FF  3000     E  	set _Flag6[0].0
1333  0100  2800     R  	jmp _L38
1333  0101              _L37:
1335  0101              #line 1335 "c:\users\longshuangmin\desktop\worke_space\g-501\g-501\initial.c"
1335  0101  3400     E  	clr _Flag6[0].0
1335  0102              _L38:
1338  0102              #line 1338 "c:\users\longshuangmin\desktop\worke_space\g-501\g-501\initial.c"
1338  0102  340A        	clr c
1338  0103  1A00     E  	rlca rb
1338  0104  0080     E  	mov rd,a
1338  0105  1A00     E  	rlca rc
1338  0106  0080     E  	mov re,a
1338  0107  0F00     E  	mov a,low (offset _Significant_Table+10)
1338  0108  0300     E  	add a,rd
1338  0109  0083        	mov mp,a
1338  010A  0F00     E  	mov a,high (offset _Significant_Table+10)
1338  010B  1300     E  	adc a,re
1338  010C  0084        	mov sbp,a
1338  010D              	fcall _Crom2Prom
1338  0114  0080     E  	mov rd,a
1338  0115              	fcall _Crom2PromNext
1338  011C  0080     E  	mov re,a
1338  011D  3800     E  	snz re.7
1338  011E  2800     R  	jmp _L39
1339  011F              #line 1339 "c:\users\longshuangmin\desktop\worke_space\g-501\g-501\initial.c"
1339  011F  3000     E  	set _Flag6[0].2
1339  0120  2800     R  	jmp _L40
1339  0121              _L39:
1341  0121              #line 1341 "c:\users\longshuangmin\desktop\worke_space\g-501\g-501\initial.c"
1341  0121  3400     E  	clr _Flag6[0].2
1341  0122              _L40:
1344  0122              #line 1344 "c:\users\longshuangmin\desktop\worke_space\g-501\g-501\initial.c"
1344  0122  340A        	clr c
1344  0123  1A00     E  	rlca rb
1344  0124  0080     R  	mov _Load_System_Vaule_2[0],a
1344  0125  1A00     E  	rlca rc
1344  0126  0080     R  	mov _Load_System_Vaule_2[1],a
1344  0127  0F00     E  	mov a,low (offset _Significant_Table+12)
1344  0128  0300     R  	add a,_Load_System_Vaule_2[0]
1344  0129  0083        	mov mp,a
1344  012A  0F00     E  	mov a,high (offset _Significant_Table+12)
1344  012B  1300     R  	adc a,_Load_System_Vaule_2[1]
1344  012C  0084        	mov sbp,a
1344  012D              	fcall _Crom2Prom
1344  0134  0080     R  	mov _Load_System_Vaule_2[0],a
1344  0135              	fcall _Crom2PromNext
文件：initial.c    编译器版本 HGASM 0202 页次16

1344  013C  0080     R  	mov _Load_System_Vaule_2[1],a
1344  013D  3800     R  	snz _Load_System_Vaule_2[1].7
1344  013E  2800     R  	jmp _L41
1345  013F              #line 1345 "c:\users\longshuangmin\desktop\worke_space\g-501\g-501\initial.c"
1345  013F  3000     E  	set _Flag6[0].4
1345  0140  2800     R  	jmp _L42
1345  0141              _L41:
1347  0141              #line 1347 "c:\users\longshuangmin\desktop\worke_space\g-501\g-501\initial.c"
1347  0141  3400     E  	clr _Flag6[0].4
1347  0142              _L42:
1350  0142              #line 1350 "c:\users\longshuangmin\desktop\worke_space\g-501\g-501\initial.c"
1350  0142  340A        	clr c
1350  0143  1A80     E  	rlc rb
1350  0144  1A80     E  	rlc rc
1350  0145  0F00     E  	mov a,low (offset _Significant_Table+14)
1350  0146  0300     E  	add a,rb
1350  0147  0083        	mov mp,a
1350  0148  0F00     E  	mov a,high (offset _Significant_Table+14)
1350  0149  1300     E  	adc a,rc
1350  014A  0084        	mov sbp,a
1350  014B              	fcall _Crom2Prom
1350  0152  0080     R  	mov _Load_System_Vaule_2[2],a
1350  0153              	fcall _Crom2PromNext
1350  015A  0080     R  	mov _Load_System_Vaule_2[3],a
1350  015B  3800     R  	snz _Load_System_Vaule_2[3].7
1350  015C  2800     R  	jmp _L43
1351  015D              #line 1351 "c:\users\longshuangmin\desktop\worke_space\g-501\g-501\initial.c"
1351  015D  3000     E  	set _Flag6[0].6
1351  015E  2800     R  	jmp _L44
1351  015F              _L43:
1353  015F              #line 1353 "c:\users\longshuangmin\desktop\worke_space\g-501\g-501\initial.c"
1353  015F  3400     E  	clr _Flag6[0].6
1353  0160              _L44:
1356  0160              #line 1356 "c:\users\longshuangmin\desktop\worke_space\g-501\g-501\initial.c"
1356  0160  0700     E  	mov a,rf
1356  0161  0080     E  	mov rb,a
1356  0162  0700     E  	mov a,rg
1356  0163  0080     E  	mov rc,a
1356  0164  0FC0        	mov a,192  
1356  0165  0680     E  	andm a,rb  
1356  0166  0F07        	mov a,7  
1356  0167  0680     E  	andm a,rc
1356  0168  0F06        	mov a,6
1356  0169              _LI2:
1356  0169  340A        	clr c
1356  016A  1B80     E  	rrc rc
1356  016B  1B80     E  	rrc rb
1356  016C  1785        	sdz acc
1356  016D  2800     R  	jmp _LI2
1356  016E  0700     E  	mov a,rb
1356  016F  0080     E  	mov _M_Alarm1_HR[0],a
1358  0170              #line 1358 "c:\users\longshuangmin\desktop\worke_space\g-501\g-501\initial.c"
1358  0170  0700     E  	mov a,rf
1358  0171  0E3F        	and a,63
1358  0172  0080     E  	mov _M_Alarm1_MIN[0],a
1361  0173              #line 1361 "c:\users\longshuangmin\desktop\worke_space\g-501\g-501\initial.c"
1361  0173  0700     E  	mov a,rd
1361  0174  0080     E  	mov rb,a
1361  0175  0700     E  	mov a,re
1361  0176  0080     E  	mov rc,a
文件：initial.c    编译器版本 HGASM 0202 页次17

1361  0177  0FC0        	mov a,192  
1361  0178  0680     E  	andm a,rb  
1361  0179  0F07        	mov a,7  
1361  017A  0680     E  	andm a,rc
1361  017B  0F06        	mov a,6
1361  017C              _LI3:
1361  017C  340A        	clr c
1361  017D  1B80     E  	rrc rc
1361  017E  1B80     E  	rrc rb
1361  017F  1785        	sdz acc
1361  0180  2800     R  	jmp _LI3
1361  0181  0700     E  	mov a,rb
1361  0182  0080     E  	mov _M_Alarm2_HR[0],a
1363  0183              #line 1363 "c:\users\longshuangmin\desktop\worke_space\g-501\g-501\initial.c"
1363  0183  0700     E  	mov a,rd
1363  0184  0E3F        	and a,63
1363  0185  0080     E  	mov _M_Alarm2_MIN[0],a
1366  0186              #line 1366 "c:\users\longshuangmin\desktop\worke_space\g-501\g-501\initial.c"
1366  0186  0700     R  	mov a,_Load_System_Vaule_2[0]
1366  0187  0080     E  	mov rb,a
1366  0188  0700     R  	mov a,_Load_System_Vaule_2[1]
1366  0189  0080     E  	mov rc,a
1366  018A  0FC0        	mov a,192  
1366  018B  0680     E  	andm a,rb  
1366  018C  0F07        	mov a,7  
1366  018D  0680     E  	andm a,rc
1366  018E  0F06        	mov a,6
1366  018F              _LI4:
1366  018F  340A        	clr c
1366  0190  1B80     E  	rrc rc
1366  0191  1B80     E  	rrc rb
1366  0192  1785        	sdz acc
1366  0193  2800     R  	jmp _LI4
1366  0194  0700     E  	mov a,rb
1366  0195  0080     E  	mov _M_Alarm3_HR[0],a
1368  0196              #line 1368 "c:\users\longshuangmin\desktop\worke_space\g-501\g-501\initial.c"
1368  0196  0700     R  	mov a,_Load_System_Vaule_2[0]
1368  0197  0E3F        	and a,63
1368  0198  0080     E  	mov _M_Alarm3_MIN[0],a
1371  0199              #line 1371 "c:\users\longshuangmin\desktop\worke_space\g-501\g-501\initial.c"
1371  0199  0700     R  	mov a,_Load_System_Vaule_2[2]
1371  019A  0080     E  	mov rb,a
1371  019B  0700     R  	mov a,_Load_System_Vaule_2[3]
1371  019C  0080     E  	mov rc,a
1371  019D  0FC0        	mov a,192  
1371  019E  0680     E  	andm a,rb  
1371  019F  0F07        	mov a,7  
1371  01A0  0680     E  	andm a,rc
1371  01A1  0F06        	mov a,6
1371  01A2              _LI5:
1371  01A2  340A        	clr c
1371  01A3  1B80     E  	rrc rc
1371  01A4  1B80     E  	rrc rb
1371  01A5  1785        	sdz acc
1371  01A6  2800     R  	jmp _LI5
1371  01A7  0700     E  	mov a,rb
1371  01A8  0080     E  	mov _M_Alarm4_HR[0],a
1373  01A9              #line 1373 "c:\users\longshuangmin\desktop\worke_space\g-501\g-501\initial.c"
1373  01A9  0700     R  	mov a,_Load_System_Vaule_2[2]
1373  01AA  0E3F        	and a,63
文件：initial.c    编译器版本 HGASM 0202 页次18

1373  01AB  0080     E  	mov _M_Alarm4_MIN[0],a
1373  01AC              _L31:
1373  01AC  0003        	ret
1373  01AD              _Load_System_Vaule endp
1373  01AD              #line 1373 "c:\users\longshuangmin\desktop\worke_space\g-501\g-501\initial.c"
1373  01AD              #pragma debug scope 1 1
1373  01AD              public _get_CalCurrentToADC
1373  01AD              #pragma debug scope 25 1
1397  01AD              #line 1397 "c:\users\longshuangmin\desktop\worke_space\g-501\g-501\initial.c"
1397  0000              _get_CalCurrentToADC .section 'code'
1397  0000              _get_CalCurrentToADC proc
1397  0000              public _get_CalCurrentToADC_2
1397  0000  0002[           local _get_CalCurrentToADC_2 db 2 dup(?)	; 2,0
            00
            ]
1397  0002              #pragma debug variable 12 25 _get_CalCurrentToADC_2+0 "uACurr"
1400  0002              #line 1400 "c:\users\longshuangmin\desktop\worke_space\g-501\g-501\initial.c"
1400  0000  0700     R  	mov a,_get_CalCurrentToADC_2[1]
1400  0001  0080     E  	mov _builtin_holtek_mant1[1],a
1400  0002  0700     R  	mov a,_get_CalCurrentToADC_2[0]
1400  0003  0080     E  	mov _builtin_holtek_mant1[0],a
1400  0004  3400     E  	clr _builtin_holtek_signs.0
1400  0005              	fcall _builtin_holtek_uitof
1400  000C  0700     E  	mov a,_builtin_holtek_mant1[2]
1400  000D  0080     E  	mov re,a
1400  000E  0700     E  	mov a,_builtin_holtek_mant1[1]
1400  000F  0080     E  	mov rd,a
1400  0010  0700     E  	mov a,_builtin_holtek_mant1[0]
1400  0011  0080     E  	mov rc,a
1400  0012  0700     E  	mov a,re
1400  0013  0080     E  	mov _builtin_holtek_mant1[2],a
1400  0014  0700     E  	mov a,rd
1400  0015  0080     E  	mov _builtin_holtek_mant1[1],a
1400  0016  0700     E  	mov a,rc
1400  0017  0080     E  	mov _builtin_holtek_mant1[0],a
1400  0018  0F42        	mov a,66
1400  0019  0080     E  	mov _builtin_holtek_mant2[2],a
1400  001A  0FC8        	mov a,200
1400  001B  0080     E  	mov _builtin_holtek_mant2[1],a
1400  001C  0F00        	mov a,0
1400  001D  0080     E  	mov _builtin_holtek_mant2[0],a
1400  001E              	fcall _builtin_holtek_ftdiv
1400  0025  0700     E  	mov a,_builtin_holtek_mant1[2]
1400  0026  0080     E  	mov re,a
1400  0027  0700     E  	mov a,_builtin_holtek_mant1[1]
1400  0028  0080     E  	mov rd,a
1400  0029  0700     E  	mov a,_builtin_holtek_mant1[0]
1400  002A  0080     E  	mov rc,a
1401  002B              #line 1401 "c:\users\longshuangmin\desktop\worke_space\g-501\g-501\initial.c"
1401  002B  0700     E  	mov a,re
1401  002C  0080     E  	mov _builtin_holtek_mant1[2],a
1401  002D  0700     E  	mov a,rd
1401  002E  0080     E  	mov _builtin_holtek_mant1[1],a
1401  002F  0700     E  	mov a,rc
1401  0030  0080     E  	mov _builtin_holtek_mant1[0],a
1401  0031  0F47        	mov a,71
1401  0032  0080     E  	mov _builtin_holtek_mant2[2],a
1401  0033  0FBA        	mov a,186
1401  0034  0080     E  	mov _builtin_holtek_mant2[1],a
1401  0035  0F22        	mov a,34
文件：initial.c    编译器版本 HGASM 0202 页次19

1401  0036  0080     E  	mov _builtin_holtek_mant2[0],a
1401  0037              	fcall _builtin_holtek_ftmul
1401  003E  0700     E  	mov a,_builtin_holtek_mant1[2]
1401  003F  0080     E  	mov re,a
1401  0040  0700     E  	mov a,_builtin_holtek_mant1[1]
1401  0041  0080     E  	mov rd,a
1401  0042  0700     E  	mov a,_builtin_holtek_mant1[0]
1401  0043  0080     E  	mov rc,a
1402  0044              #line 1402 "c:\users\longshuangmin\desktop\worke_space\g-501\g-501\initial.c"
1402  0044  0700     E  	mov a,re
1402  0045  0080     E  	mov _builtin_holtek_mant1[2],a
1402  0046  0700     E  	mov a,rd
1402  0047  0080     E  	mov _builtin_holtek_mant1[1],a
1402  0048  0700     E  	mov a,rc
1402  0049  0080     E  	mov _builtin_holtek_mant1[0],a
1402  004A  0F48        	mov a,72
1402  004B  0080     E  	mov _builtin_holtek_mant2[2],a
1402  004C  0FC3        	mov a,195
1402  004D  0080     E  	mov _builtin_holtek_mant2[1],a
1402  004E  0F50        	mov a,80
1402  004F  0080     E  	mov _builtin_holtek_mant2[0],a
1402  0050              	fcall _builtin_holtek_ftadd
1402  0057  0700     E  	mov a,_builtin_holtek_mant1[2]
1402  0058  0080     E  	mov re,a
1402  0059  0700     E  	mov a,_builtin_holtek_mant1[1]
1402  005A  0080     E  	mov rd,a
1402  005B  0700     E  	mov a,_builtin_holtek_mant1[0]
1402  005C  0080     E  	mov rc,a
1403  005D              #line 1403 "c:\users\longshuangmin\desktop\worke_space\g-501\g-501\initial.c"
1403  005D  0700     E  	mov a,re
1403  005E  0080     E  	mov _builtin_holtek_mant1[2],a
1403  005F  0700     E  	mov a,rd
1403  0060  0080     E  	mov _builtin_holtek_mant1[1],a
1403  0061  0700     E  	mov a,rc
1403  0062  0080     E  	mov _builtin_holtek_mant1[0],a
1403  0063  0F42        	mov a,66
1403  0064  0080     E  	mov _builtin_holtek_mant2[2],a
1403  0065  0F74        	mov a,116
1403  0066  0080     E  	mov _builtin_holtek_mant2[1],a
1403  0067  0F24        	mov a,36
1403  0068  0080     E  	mov _builtin_holtek_mant2[0],a
1403  0069              	fcall _builtin_holtek_ftdiv
1403  0070  0700     E  	mov a,_builtin_holtek_mant1[2]
1403  0071  0080     E  	mov re,a
1403  0072  0700     E  	mov a,_builtin_holtek_mant1[1]
1403  0073  0080     E  	mov rd,a
1403  0074  0700     E  	mov a,_builtin_holtek_mant1[0]
1403  0075  0080     E  	mov rc,a
1404  0076              #line 1404 "c:\users\longshuangmin\desktop\worke_space\g-501\g-501\initial.c"
1404  0076  1F00     E  	clr _builtin_holtek_mant12p[0]
1404  0077  0700     E  	mov a,re
1404  0078  0080     E  	mov _builtin_holtek_mant1[2],a
1404  0079  0700     E  	mov a,rd
1404  007A  0080     E  	mov _builtin_holtek_mant1[1],a
1404  007B  0700     E  	mov a,rc
1404  007C  0080     E  	mov _builtin_holtek_mant1[0],a
1404  007D              	fcall _builtin_holtek_ftol
1404  0084  0700     E  	mov a,_builtin_holtek_mant12p[0]
1404  0085  0080     E  	mov rd,a
1404  0086  0700     E  	mov a,_builtin_holtek_mant1[2]
文件：initial.c    编译器版本 HGASM 0202 页次20

1404  0087  0080     E  	mov rc,a
1404  0088  0700     E  	mov a,_builtin_holtek_mant1[1]
1404  0089  0080     E  	mov rb,a
1404  008A  0700     E  	mov a,_builtin_holtek_mant1[0]
1404  008B  0080     E  	mov ra,a
1404  008C  0003        	ret
1404  008D              _get_CalCurrentToADC endp
1404  008D              #line 1404 "c:\users\longshuangmin\desktop\worke_space\g-501\g-501\initial.c"
1404  008D              #pragma debug scope 1 1
1404  008D              public _Load_StripMeas_Vaule
1404  008D              #pragma debug scope 26 1
1409  008D              #line 1409 "c:\users\longshuangmin\desktop\worke_space\g-501\g-501\initial.c"
1409  0000              _Load_StripMeas_Vaule .section 'code'
1409  0000              _Load_StripMeas_Vaule proc
1410  0000              #line 1410 "c:\users\longshuangmin\desktop\worke_space\g-501\g-501\initial.c"
1410  0000  0F0A        	mov a,10
1410  0001  0080     R  	mov _get_CalCurrentToADC_2[0],a
1410  0002  1F00     R  	clr _get_CalCurrentToADC_2[1]
1410  0003              	fcall _get_CalCurrentToADC
1410  000A  0700     E  	mov a,ra
1410  000B  0080     E  	mov _M_TriggerCurrent_Adc[0],a
1410  000C  0700     E  	mov a,rb
1410  000D  0080     E  	mov _M_TriggerCurrent_Adc[1],a
1411  000E              #line 1411 "c:\users\longshuangmin\desktop\worke_space\g-501\g-501\initial.c"
1411  000E  0F1E        	mov a,30
1411  000F  0080     R  	mov _get_CalCurrentToADC_2[0],a
1411  0010  1F00     R  	clr _get_CalCurrentToADC_2[1]
1411  0011              	fcall _get_CalCurrentToADC
1411  0018  0700     E  	mov a,ra
1411  0019  0080     E  	mov _M_StripUsedCurrent_Adc[0],a
1411  001A  0700     E  	mov a,rb
1411  001B  0080     E  	mov _M_StripUsedCurrent_Adc[1],a
1412  001C              #line 1412 "c:\users\longshuangmin\desktop\worke_space\g-501\g-501\initial.c"
1412  001C  0F32        	mov a,50
1412  001D  0080     R  	mov _get_CalCurrentToADC_2[0],a
1412  001E  1F00     R  	clr _get_CalCurrentToADC_2[1]
1412  001F              	fcall _get_CalCurrentToADC
1412  0026  0700     E  	mov a,ra
1412  0027  0080     E  	mov _M_DropCurrent_Adc[0],a
1412  0028  0700     E  	mov a,rb
1412  0029  0080     E  	mov _M_DropCurrent_Adc[1],a
1412  002A  0003        	ret
1412  002B              _Load_StripMeas_Vaule endp
1412  002B              #line 1412 "c:\users\longshuangmin\desktop\worke_space\g-501\g-501\initial.c"
1412  002B              #pragma debug scope 1 1
1412  002B              public _Save_RtcTime
1412  002B              #pragma debug scope 27 1
1416  002B              #line 1416 "c:\users\longshuangmin\desktop\worke_space\g-501\g-501\initial.c"
1416  0000              _Save_RtcTime .section 'code'
1416  0000              _Save_RtcTime proc
1416  0000  0007[           local _Save_RtcTime_2 db 7 dup(?)	; 0,7
            00
            ]
1416  0007              #pragma debug array 42 8 7 27
1416  0007              #pragma debug array 42 8 7 27
1416  0007              #pragma debug variable 42 27 _Save_RtcTime_2+0 "buf"
1427  0007              #line 1427 "c:\users\longshuangmin\desktop\worke_space\g-501\g-501\initial.c"
1427  0000  0700     E  	mov a,_M_Second[0]
1427  0001  0080     R  	mov _Save_RtcTime_2[0],a
1428  0002              #line 1428 "c:\users\longshuangmin\desktop\worke_space\g-501\g-501\initial.c"
文件：initial.c    编译器版本 HGASM 0202 页次21

1428  0002  0700     E  	mov a,_M_Minutes[0]
1428  0003  0080     R  	mov _Save_RtcTime_2[1],a
1429  0004              #line 1429 "c:\users\longshuangmin\desktop\worke_space\g-501\g-501\initial.c"
1429  0004  0700     E  	mov a,_M_Hour[0]
1429  0005  0080     R  	mov _Save_RtcTime_2[2],a
1430  0006              #line 1430 "c:\users\longshuangmin\desktop\worke_space\g-501\g-501\initial.c"
1430  0006  0700     E  	mov a,_M_Days[0]
1430  0007  0080     R  	mov _Save_RtcTime_2[3],a
1431  0008              #line 1431 "c:\users\longshuangmin\desktop\worke_space\g-501\g-501\initial.c"
1431  0008  0700     E  	mov a,_M_Month[0]
1431  0009  0080     R  	mov _Save_RtcTime_2[4],a
1432  000A              #line 1432 "c:\users\longshuangmin\desktop\worke_space\g-501\g-501\initial.c"
1432  000A  0700     E  	mov a,_M_Year[0]
1432  000B  0080     R  	mov _Save_RtcTime_2[5],a
1433  000C              #line 1433 "c:\users\longshuangmin\desktop\worke_space\g-501\g-501\initial.c"
1433  000C  0F55        	mov a,85
1433  000D  0080     R  	mov _Save_RtcTime_2[6],a
1434  000E              #line 1434 "c:\users\longshuangmin\desktop\worke_space\g-501\g-501\initial.c"
1434  000E  0F07        	mov a,7
1434  000F  0080     E  	mov _Write_EEPROMBuf_2[2],a
1434  0010  0F00     R  	mov a,low offset _Save_RtcTime_2
1434  0011  0080     E  	mov _Write_EEPROMBuf_2[0],a
1434  0012  0F00     R  	mov a,high offset _Save_RtcTime_2
1434  0013  0080     E  	mov _Write_EEPROMBuf_2[1],a
1434  0014  0F41        	mov a,65
1434  0015              	fcall _Write_EEPROMBuf
1434  001C  0003        	ret
1434  001D              _Save_RtcTime endp
1434  001D              #line 1434 "c:\users\longshuangmin\desktop\worke_space\g-501\g-501\initial.c"
1434  001D              #pragma debug scope 1 1
1434  001D              public _Load_RtcTime_Vaule
1434  001D              #pragma debug scope 28 1
1438  001D              #line 1438 "c:\users\longshuangmin\desktop\worke_space\g-501\g-501\initial.c"
1438  0000              _Load_RtcTime_Vaule .section 'code'
1438  0000              _Load_RtcTime_Vaule proc
1438  0000  0007[           local _Load_RtcTime_Vaule_2 db 7 dup(?)	; 0,7
            00
            ]
1438  0007              #pragma debug array 43 8 7 28
1438  0007              #pragma debug array 43 8 7 28
1438  0007              #pragma debug variable 43 28 _Load_RtcTime_Vaule_2+0 "buf"
1441  0007              #line 1441 "c:\users\longshuangmin\desktop\worke_space\g-501\g-501\initial.c"
1441  0000  0F07        	mov a,7
1441  0001  0080     E  	mov _memset_2[4],a
1441  0002  1F00     E  	clr _memset_2[5]
1441  0003  1F00     E  	clr _memset_2[2]
1441  0004  1F00     E  	clr _memset_2[3]
1441  0005  0F00     R  	mov a,low offset _Load_RtcTime_Vaule_2
1441  0006  0080     E  	mov _memset_2[0],a
1441  0007  0F00     R  	mov a,high offset _Load_RtcTime_Vaule_2
1441  0008  0080     E  	mov _memset_2[1],a
1441  0009              	fcall _memset
1443  0010              #line 1443 "c:\users\longshuangmin\desktop\worke_space\g-501\g-501\initial.c"
1443  0010  0F07        	mov a,7
1443  0011  0080     E  	mov _Read_EEPROMBuf_2[2],a
1443  0012  0F00     R  	mov a,low offset _Load_RtcTime_Vaule_2
1443  0013  0080     E  	mov _Read_EEPROMBuf_2[0],a
1443  0014  0F00     R  	mov a,high offset _Load_RtcTime_Vaule_2
1443  0015  0080     E  	mov _Read_EEPROMBuf_2[1],a
1443  0016  0F41        	mov a,65
文件：initial.c    编译器版本 HGASM 0202 页次22

1443  0017              	fcall _Read_EEPROMBuf
1444  001E              #line 1444 "c:\users\longshuangmin\desktop\worke_space\g-501\g-501\initial.c"
1444  001E  0700     R  	mov a,_Load_RtcTime_Vaule_2[6]
1444  001F  0A55        	sub a,85
1444  0020  390A        	snz z
1444  0021  2800     R  	jmp _L54
1446  0022              #line 1446 "c:\users\longshuangmin\desktop\worke_space\g-501\g-501\initial.c"
1446  0022  0700     R  	mov a,_Load_RtcTime_Vaule_2[0]
1446  0023  0080     E  	mov _M_Second[0],a
1447  0024              #line 1447 "c:\users\longshuangmin\desktop\worke_space\g-501\g-501\initial.c"
1447  0024  0700     R  	mov a,_Load_RtcTime_Vaule_2[1]
1447  0025  0080     E  	mov _M_Minutes[0],a
1448  0026              #line 1448 "c:\users\longshuangmin\desktop\worke_space\g-501\g-501\initial.c"
1448  0026  0700     R  	mov a,_Load_RtcTime_Vaule_2[2]
1448  0027  0080     E  	mov _M_Hour[0],a
1449  0028              #line 1449 "c:\users\longshuangmin\desktop\worke_space\g-501\g-501\initial.c"
1449  0028  0700     R  	mov a,_Load_RtcTime_Vaule_2[3]
1449  0029  0080     E  	mov _M_Days[0],a
1450  002A              #line 1450 "c:\users\longshuangmin\desktop\worke_space\g-501\g-501\initial.c"
1450  002A  0700     R  	mov a,_Load_RtcTime_Vaule_2[4]
1450  002B  0080     E  	mov _M_Month[0],a
1451  002C              #line 1451 "c:\users\longshuangmin\desktop\worke_space\g-501\g-501\initial.c"
1451  002C  0700     R  	mov a,_Load_RtcTime_Vaule_2[5]
1451  002D  0080     E  	mov _M_Year[0],a
1451  002E  2800     R  	jmp _L53
1451  002F              _L54:
1456  002F              #line 1456 "c:\users\longshuangmin\desktop\worke_space\g-501\g-501\initial.c"
1456  002F  0F01        	mov a,1
1456  0030  0080     E  	mov _M_Second[0],a
1457  0031              #line 1457 "c:\users\longshuangmin\desktop\worke_space\g-501\g-501\initial.c"
1457  0031  1F00     E  	clr _M_Minutes[0]
1458  0032              #line 1458 "c:\users\longshuangmin\desktop\worke_space\g-501\g-501\initial.c"
1458  0032  0F0F        	mov a,15
1458  0033  0080     E  	mov _M_Hour[0],a
1459  0034              #line 1459 "c:\users\longshuangmin\desktop\worke_space\g-501\g-501\initial.c"
1459  0034  0F01        	mov a,1
1459  0035  0080     E  	mov _M_Days[0],a
1460  0036              #line 1460 "c:\users\longshuangmin\desktop\worke_space\g-501\g-501\initial.c"
1460  0036  0F0C        	mov a,12
1460  0037  0080     E  	mov _M_Month[0],a
1461  0038              #line 1461 "c:\users\longshuangmin\desktop\worke_space\g-501\g-501\initial.c"
1461  0038  0F18        	mov a,24
1461  0039  0080     E  	mov _M_Year[0],a
1462  003A              #line 1462 "c:\users\longshuangmin\desktop\worke_space\g-501\g-501\initial.c"
1462  003A              	fcall _Save_RtcTime
1462  0041              _L53:
1462  0041  0003        	ret
1462  0042              _Load_RtcTime_Vaule endp
1462  0042              #line 1462 "c:\users\longshuangmin\desktop\worke_space\g-501\g-501\initial.c"
1462  0042              #pragma debug scope 1 1
1462  0042              #pragma debug variable 8 1 ___mp1l "__mp1l" 1
1462  0042              #pragma debug variable 8 1 ___mp1h "__mp1h" 1
1462  0042              #pragma debug variable 8 1 ___tblp "__tblp" 1
1462  0042              #pragma debug struct_end
1462  0042              #pragma debug struct_end
1462  0042              #pragma debug union_end
1462  0042              #pragma debug union_end
1462  0042              #pragma debug variable 45 1 ___scc "__scc" 1
1462  0042              #pragma debug struct_end
1462  0042              #pragma debug struct_end
文件：initial.c    编译器版本 HGASM 0202 页次23

1462  0042              #pragma debug union_end
1462  0042              #pragma debug union_end
1462  0042              #pragma debug variable 47 1 ___hircc "__hircc" 1
1462  0042              #pragma debug struct_end
1462  0042              #pragma debug struct_end
1462  0042              #pragma debug union_end
1462  0042              #pragma debug union_end
1462  0042              #pragma debug variable 49 1 ___lxtc "__lxtc" 1
1462  0042              #pragma debug struct_end
1462  0042              #pragma debug struct_end
1462  0042              #pragma debug union_end
1462  0042              #pragma debug union_end
1462  0042              #pragma debug variable 51 1 ___pa "__pa" 1
1462  0042              #pragma debug struct_end
1462  0042              #pragma debug struct_end
1462  0042              #pragma debug union_end
1462  0042              #pragma debug union_end
1462  0042              #pragma debug variable 53 1 ___pac "__pac" 1
1462  0042              #pragma debug struct_end
1462  0042              #pragma debug struct_end
1462  0042              #pragma debug union_end
1462  0042              #pragma debug union_end
1462  0042              #pragma debug variable 55 1 ___papu "__papu" 1
1462  0042              #pragma debug struct_end
1462  0042              #pragma debug struct_end
1462  0042              #pragma debug union_end
1462  0042              #pragma debug union_end
1462  0042              #pragma debug variable 57 1 ___pawu "__pawu" 1
1462  0042              #pragma debug struct_end
1462  0042              #pragma debug struct_end
1462  0042              #pragma debug union_end
1462  0042              #pragma debug union_end
1462  0042              #pragma debug variable 59 1 ___lvrc "__lvrc" 1
1462  0042              #pragma debug struct_end
1462  0042              #pragma debug struct_end
1462  0042              #pragma debug union_end
1462  0042              #pragma debug union_end
1462  0042              #pragma debug variable 61 1 ___lvdc "__lvdc" 1
1462  0042              #pragma debug struct_end
1462  0042              #pragma debug struct_end
1462  0042              #pragma debug union_end
1462  0042              #pragma debug union_end
1462  0042              #pragma debug variable 63 1 ___mfi0 "__mfi0" 1
1462  0042              #pragma debug struct_end
1462  0042              #pragma debug struct_end
1462  0042              #pragma debug union_end
1462  0042              #pragma debug union_end
1462  0042              #pragma debug variable 65 1 ___mfi1 "__mfi1" 1
1462  0042              #pragma debug struct_end
1462  0042              #pragma debug struct_end
1462  0042              #pragma debug union_end
1462  0042              #pragma debug union_end
1462  0042              #pragma debug variable 67 1 ___mfi2 "__mfi2" 1
1462  0042              #pragma debug struct_end
1462  0042              #pragma debug struct_end
1462  0042              #pragma debug union_end
1462  0042              #pragma debug union_end
1462  0042              #pragma debug variable 69 1 ___wdtc "__wdtc" 1
1462  0042              #pragma debug struct_end
1462  0042              #pragma debug struct_end
文件：initial.c    编译器版本 HGASM 0202 页次24

1462  0042              #pragma debug union_end
1462  0042              #pragma debug union_end
1462  0042              #pragma debug variable 71 1 ___integ0 "__integ0" 1
1462  0042              #pragma debug struct_end
1462  0042              #pragma debug struct_end
1462  0042              #pragma debug union_end
1462  0042              #pragma debug union_end
1462  0042              #pragma debug variable 73 1 ___intc0 "__intc0" 1
1462  0042              #pragma debug struct_end
1462  0042              #pragma debug struct_end
1462  0042              #pragma debug union_end
1462  0042              #pragma debug union_end
1462  0042              #pragma debug variable 75 1 ___intc1 "__intc1" 1
1462  0042              #pragma debug struct_end
1462  0042              #pragma debug struct_end
1462  0042              #pragma debug union_end
1462  0042              #pragma debug union_end
1462  0042              #pragma debug variable 77 1 ___intc2 "__intc2" 1
1462  0042              #pragma debug struct_end
1462  0042              #pragma debug struct_end
1462  0042              #pragma debug union_end
1462  0042              #pragma debug union_end
1462  0042              #pragma debug variable 79 1 ___intc3 "__intc3" 1
1462  0042              #pragma debug struct_end
1462  0042              #pragma debug struct_end
1462  0042              #pragma debug union_end
1462  0042              #pragma debug union_end
1462  0042              #pragma debug variable 81 1 ___pb "__pb" 1
1462  0042              #pragma debug struct_end
1462  0042              #pragma debug struct_end
1462  0042              #pragma debug union_end
1462  0042              #pragma debug union_end
1462  0042              #pragma debug variable 83 1 ___pbc "__pbc" 1
1462  0042              #pragma debug struct_end
1462  0042              #pragma debug struct_end
1462  0042              #pragma debug union_end
1462  0042              #pragma debug union_end
1462  0042              #pragma debug variable 85 1 ___pbpu "__pbpu" 1
1462  0042              #pragma debug struct_end
1462  0042              #pragma debug struct_end
1462  0042              #pragma debug union_end
1462  0042              #pragma debug union_end
1462  0042              #pragma debug variable 87 1 ___pc "__pc" 1
1462  0042              #pragma debug struct_end
1462  0042              #pragma debug struct_end
1462  0042              #pragma debug union_end
1462  0042              #pragma debug union_end
1462  0042              #pragma debug variable 89 1 ___pcc "__pcc" 1
1462  0042              #pragma debug struct_end
1462  0042              #pragma debug struct_end
1462  0042              #pragma debug union_end
1462  0042              #pragma debug union_end
1462  0042              #pragma debug variable 91 1 ___pcpu "__pcpu" 1
1462  0042              #pragma debug struct_end
1462  0042              #pragma debug struct_end
1462  0042              #pragma debug union_end
1462  0042              #pragma debug union_end
1462  0042              #pragma debug variable 93 1 ___integ1 "__integ1" 1
1462  0042              #pragma debug struct_end
1462  0042              #pragma debug struct_end
文件：initial.c    编译器版本 HGASM 0202 页次25

1462  0042              #pragma debug union_end
1462  0042              #pragma debug union_end
1462  0042              #pragma debug variable 95 1 ___pscr "__pscr" 1
1462  0042              #pragma debug struct_end
1462  0042              #pragma debug struct_end
1462  0042              #pragma debug union_end
1462  0042              #pragma debug union_end
1462  0042              #pragma debug variable 97 1 ___tb0c "__tb0c" 1
1462  0042              #pragma debug struct_end
1462  0042              #pragma debug struct_end
1462  0042              #pragma debug union_end
1462  0042              #pragma debug union_end
1462  0042              #pragma debug variable 99 1 ___tb1c "__tb1c" 1
1462  0042              #pragma debug struct_end
1462  0042              #pragma debug struct_end
1462  0042              #pragma debug union_end
1462  0042              #pragma debug union_end
1462  0042              #pragma debug variable 101 1 ___stmc0 "__stmc0" 1
1462  0042              #pragma debug struct_end
1462  0042              #pragma debug struct_end
1462  0042              #pragma debug union_end
1462  0042              #pragma debug union_end
1462  0042              #pragma debug variable 103 1 ___stmc1 "__stmc1" 1
1462  0042              #pragma debug variable 8 1 ___stmal "__stmal" 1
1462  0042              #pragma debug variable 8 1 ___stmah "__stmah" 1
1462  0042              #pragma debug struct_end
1462  0042              #pragma debug struct_end
1462  0042              #pragma debug union_end
1462  0042              #pragma debug union_end
1462  0042              #pragma debug variable 105 1 ___ptm0c0 "__ptm0c0" 1
1462  0042              #pragma debug struct_end
1462  0042              #pragma debug struct_end
1462  0042              #pragma debug union_end
1462  0042              #pragma debug union_end
1462  0042              #pragma debug variable 107 1 ___ptm0c1 "__ptm0c1" 1
1462  0042              #pragma debug variable 8 1 ___ptm0al "__ptm0al" 1
1462  0042              #pragma debug variable 8 1 ___ptm0ah "__ptm0ah" 1
1462  0042              #pragma debug struct_end
1462  0042              #pragma debug struct_end
1462  0042              #pragma debug union_end
1462  0042              #pragma debug union_end
1462  0042              #pragma debug variable 109 1 ___pgac0 "__pgac0" 1
1462  0042              #pragma debug struct_end
1462  0042              #pragma debug struct_end
1462  0042              #pragma debug union_end
1462  0042              #pragma debug union_end
1462  0042              #pragma debug variable 111 1 ___pgac1 "__pgac1" 1
1462  0042              #pragma debug struct_end
1462  0042              #pragma debug struct_end
1462  0042              #pragma debug union_end
1462  0042              #pragma debug union_end
1462  0042              #pragma debug variable 113 1 ___pgacs "__pgacs" 1
1462  0042              #pragma debug struct_end
1462  0042              #pragma debug struct_end
1462  0042              #pragma debug union_end
1462  0042              #pragma debug union_end
1462  0042              #pragma debug variable 115 1 ___adcr0 "__adcr0" 1
1462  0042              #pragma debug struct_end
1462  0042              #pragma debug struct_end
1462  0042              #pragma debug union_end
文件：initial.c    编译器版本 HGASM 0202 页次26

1462  0042              #pragma debug union_end
1462  0042              #pragma debug variable 117 1 ___adcr1 "__adcr1" 1
1462  0042              #pragma debug struct_end
1462  0042              #pragma debug struct_end
1462  0042              #pragma debug union_end
1462  0042              #pragma debug union_end
1462  0042              #pragma debug variable 119 1 ___adcs "__adcs" 1
1462  0042              #pragma debug struct_end
1462  0042              #pragma debug struct_end
1462  0042              #pragma debug union_end
1462  0042              #pragma debug union_end
1462  0042              #pragma debug variable 121 1 ___pwrc "__pwrc" 1
1462  0042              #pragma debug struct_end
1462  0042              #pragma debug struct_end
1462  0042              #pragma debug union_end
1462  0042              #pragma debug union_end
1462  0042              #pragma debug variable 123 1 ___lcdc0 "__lcdc0" 1
1462  0042              #pragma debug struct_end
1462  0042              #pragma debug struct_end
1462  0042              #pragma debug union_end
1462  0042              #pragma debug union_end
1462  0042              #pragma debug variable 125 1 ___lcdcp "__lcdcp" 1
1462  0042              #pragma debug struct_end
1462  0042              #pragma debug struct_end
1462  0042              #pragma debug union_end
1462  0042              #pragma debug union_end
1462  0042              #pragma debug variable 127 1 ___lcdc2 "__lcdc2" 1
1462  0042              #pragma debug struct_end
1462  0042              #pragma debug struct_end
1462  0042              #pragma debug union_end
1462  0042              #pragma debug union_end
1462  0042              #pragma debug variable 129 1 ___pd "__pd" 1
1462  0042              #pragma debug struct_end
1462  0042              #pragma debug struct_end
1462  0042              #pragma debug union_end
1462  0042              #pragma debug union_end
1462  0042              #pragma debug variable 131 1 ___pdc "__pdc" 1
1462  0042              #pragma debug struct_end
1462  0042              #pragma debug struct_end
1462  0042              #pragma debug union_end
1462  0042              #pragma debug union_end
1462  0042              #pragma debug variable 133 1 ___pdpu "__pdpu" 1
1462  0042              #pragma debug struct_end
1462  0042              #pragma debug struct_end
1462  0042              #pragma debug union_end
1462  0042              #pragma debug union_end
1462  0042              #pragma debug variable 135 1 ___pe "__pe" 1
1462  0042              #pragma debug struct_end
1462  0042              #pragma debug struct_end
1462  0042              #pragma debug union_end
1462  0042              #pragma debug union_end
1462  0042              #pragma debug variable 137 1 ___pec "__pec" 1
1462  0042              #pragma debug struct_end
1462  0042              #pragma debug struct_end
1462  0042              #pragma debug union_end
1462  0042              #pragma debug union_end
1462  0042              #pragma debug variable 139 1 ___pepu "__pepu" 1
1462  0042              #pragma debug struct_end
1462  0042              #pragma debug struct_end
1462  0042              #pragma debug union_end
文件：initial.c    编译器版本 HGASM 0202 页次27

1462  0042              #pragma debug union_end
1462  0042              #pragma debug variable 141 1 ___pf "__pf" 1
1462  0042              #pragma debug struct_end
1462  0042              #pragma debug struct_end
1462  0042              #pragma debug union_end
1462  0042              #pragma debug union_end
1462  0042              #pragma debug variable 143 1 ___pfc "__pfc" 1
1462  0042              #pragma debug struct_end
1462  0042              #pragma debug struct_end
1462  0042              #pragma debug union_end
1462  0042              #pragma debug union_end
1462  0042              #pragma debug variable 145 1 ___pfpu "__pfpu" 1
1462  0042              #pragma debug struct_end
1462  0042              #pragma debug struct_end
1462  0042              #pragma debug union_end
1462  0042              #pragma debug union_end
1462  0042              #pragma debug variable 147 1 ___pg "__pg" 1
1462  0042              #pragma debug struct_end
1462  0042              #pragma debug struct_end
1462  0042              #pragma debug union_end
1462  0042              #pragma debug union_end
1462  0042              #pragma debug variable 149 1 ___pgc "__pgc" 1
1462  0042              #pragma debug struct_end
1462  0042              #pragma debug struct_end
1462  0042              #pragma debug union_end
1462  0042              #pragma debug union_end
1462  0042              #pragma debug variable 151 1 ___pgpu "__pgpu" 1
1462  0042              #pragma debug struct_end
1462  0042              #pragma debug struct_end
1462  0042              #pragma debug union_end
1462  0042              #pragma debug union_end
1462  0042              #pragma debug variable 153 1 ___ifs0 "__ifs0" 1
1462  0042              #pragma debug struct_end
1462  0042              #pragma debug struct_end
1462  0042              #pragma debug union_end
1462  0042              #pragma debug union_end
1462  0042              #pragma debug variable 155 1 ___ifs1 "__ifs1" 1
1462  0042              #pragma debug struct_end
1462  0042              #pragma debug struct_end
1462  0042              #pragma debug union_end
1462  0042              #pragma debug union_end
1462  0042              #pragma debug variable 157 1 ___pas0 "__pas0" 1
1462  0042              #pragma debug struct_end
1462  0042              #pragma debug struct_end
1462  0042              #pragma debug union_end
1462  0042              #pragma debug union_end
1462  0042              #pragma debug variable 159 1 ___pas1 "__pas1" 1
1462  0042              #pragma debug struct_end
1462  0042              #pragma debug struct_end
1462  0042              #pragma debug union_end
1462  0042              #pragma debug union_end
1462  0042              #pragma debug variable 161 1 ___pbs0 "__pbs0" 1
1462  0042              #pragma debug struct_end
1462  0042              #pragma debug struct_end
1462  0042              #pragma debug union_end
1462  0042              #pragma debug union_end
1462  0042              #pragma debug variable 163 1 ___pcs0 "__pcs0" 1
1462  0042              #pragma debug struct_end
1462  0042              #pragma debug struct_end
1462  0042              #pragma debug union_end
文件：initial.c    编译器版本 HGASM 0202 页次28

1462  0042              #pragma debug union_end
1462  0042              #pragma debug variable 165 1 ___pcs1 "__pcs1" 1
1462  0042              #pragma debug struct_end
1462  0042              #pragma debug struct_end
1462  0042              #pragma debug union_end
1462  0042              #pragma debug union_end
1462  0042              #pragma debug variable 167 1 ___pds0 "__pds0" 1
1462  0042              #pragma debug struct_end
1462  0042              #pragma debug struct_end
1462  0042              #pragma debug union_end
1462  0042              #pragma debug union_end
1462  0042              #pragma debug variable 169 1 ___pds1 "__pds1" 1
1462  0042              #pragma debug struct_end
1462  0042              #pragma debug struct_end
1462  0042              #pragma debug union_end
1462  0042              #pragma debug union_end
1462  0042              #pragma debug variable 171 1 ___pes0 "__pes0" 1
1462  0042              #pragma debug struct_end
1462  0042              #pragma debug struct_end
1462  0042              #pragma debug union_end
1462  0042              #pragma debug union_end
1462  0042              #pragma debug variable 173 1 ___pes1 "__pes1" 1
1462  0042              #pragma debug struct_end
1462  0042              #pragma debug struct_end
1462  0042              #pragma debug union_end
1462  0042              #pragma debug union_end
1462  0042              #pragma debug variable 175 1 ___pfs0 "__pfs0" 1
1462  0042              #pragma debug struct_end
1462  0042              #pragma debug struct_end
1462  0042              #pragma debug union_end
1462  0042              #pragma debug union_end
1462  0042              #pragma debug variable 177 1 ___pfs1 "__pfs1" 1
1462  0042              #pragma debug struct_end
1462  0042              #pragma debug struct_end
1462  0042              #pragma debug union_end
1462  0042              #pragma debug union_end
1462  0042              #pragma debug variable 179 1 ___pgs0 "__pgs0" 1
1462  0042              #pragma debug variable 8 1 ___iar1 "__iar1" 1
1462  0042              
1462  0042              ; output external variables
1462  0042              extern _M_Year:byte
1462  0042              extern _M_Month:byte
1462  0042              extern _M_Days:byte
1462  0042              extern _M_Hour:byte
1462  0042              extern _M_Minutes:byte
1462  0042              extern _M_Second:byte
1462  0042              extern _M_DropCurrent_Adc:byte
1462  0042              extern _M_StripUsedCurrent_Adc:byte
1462  0042              extern _M_TriggerCurrent_Adc:byte
1462  0042              extern _M_GM_SendRecord:byte
1462  0042              extern _M_Alarm4_MIN:byte
1462  0042              extern _M_Alarm4_HR:byte
1462  0042              extern _M_Alarm3_MIN:byte
1462  0042              extern _M_Alarm3_HR:byte
1462  0042              extern _M_Alarm2_MIN:byte
1462  0042              extern _M_Alarm2_HR:byte
1462  0042              extern _M_Alarm1_MIN:byte
1462  0042              extern _M_Alarm1_HR:byte
1462  0042              extern _Flag6:byte
1462  0042              extern _M_Unit:byte
文件：initial.c    编译器版本 HGASM 0202 页次29

1462  0042              extern _M_GM_Record_current:byte
1462  0042              extern _M_GM_data_Record:byte
1462  0042              extern _Significant_Table:near
1462  0042              extern _fun_CalOPA1Offset:near
1462  0042              extern _fun_CalOPA2Offset:near
1462  0042              extern _fun_CalOPA3Offset:near
1462  0042              extern _builtin_holtek_mant1:byte
1462  0042              extern _builtin_holtek_signs:byte
1462  0042              extern _builtin_holtek_uitof:near
1462  0042              extern _builtin_holtek_mant2:byte
1462  0042              extern _builtin_holtek_ftdiv:near
1462  0042              extern _builtin_holtek_ftmul:near
1462  0042              extern _builtin_holtek_ftadd:near
1462  0042              extern _builtin_holtek_mant12p:byte
1462  0042              extern _builtin_holtek_ftol:near
1462  0042              extern _Write_EEPROMBuf_2:byte
1462  0042              extern _Write_EEPROMBuf:near
1462  0042              extern _memset_2:byte
1462  0042              extern _memset:near
1462  0042              extern _Read_EEPROMBuf_2:byte
1462  0042              extern _Read_EEPROMBuf:near
1462  0042              
1462  0042              ; 
1462  0042              ; Generated by holtek-gcc v3.19, Fri May 23 10:39:39 2025
1462  0042              ; Rebuild 718
1462  0042              ; end of file


        0 Errors, 0