文件：interrupt.c  编译器版本 HGASM 0202 页次1


   1  0000              ; Generated by holtek-gcc v3.19, Fri May 23 10:39:39 2025
   2  0000              ; 
   3  0000              ; Configuration:
   4  0000              ;       with long instruction
   5  0000              ;       Multi-ROM, Multi-RAM
   6  0000              ;       bits_per_rom_unit:16
   7  0000              ;       with mp1
   8  0000              ;       with tbhp, address(0x9)
   9  0000              ;          Use tabrd-const
  10  0000              ;       
  11  0000              ; SFR address of long-instruction arch:
  12  0000              ;    mp0 = -1,1,0
  13  0000              ;    mp1 = 4,3,2
  14  0000              ;    mp2 = 14,13,12
  15  0000              ;    tbp = 9,7,8
  16  0000              ;    acc = 5
  17  0000              ;    pcl = 6
  18  0000              ;    status = 10
  19  0000              ;    bp = 11
  20  0000              ;    intc = 32
  21  0000              ;       
  22  0000              ;       
  23  0000              ; use 'tabrdc' instead of 'tabrd'
  24  0000              ;       
  25  0000              
  26  0000              #pragma translator "holtek-gcc 4.6.4" "3.19" "build 20130711"
  27  0000              ; Rebuild 718
  28  0000              
  29  0000              ir equ [2]
  30  0000              mp equ [3]
  31  0000              sbp equ [4]
  32  0000              acc equ [5]
  33  0000              bp equ [11]
  34  0000              tblp equ [7]
  35  0000              tbhp equ [9]
  36  0000              status equ [10]
  37  0000              c equ [10].0
  38  0000              ac equ [10].1
  39  0000              z equ [10].2
  40  0000              ov equ [10].3
  41  0000              cz equ [10].6
  42  0000              sc equ [10].7
  43  0000              intc equ [32]
  44  0000              mduwr0 equ [59h]
  45  0000              mduwr1 equ [5ah]
  46  0000              mduwr2 equ [5bh]
  47  0000              mduwr3 equ [5ch]
  48  0000              mduwr4 equ [5dh]
  49  0000              mduwr5 equ [5eh]
  50  0000              mduwrctrl equ [5fh]
  51  0000              
  52  0000              extern ra:byte
  53  0000              extern rb:byte
  54  0000              extern rc:byte
  55  0000              extern rd:byte
  56  0000              extern re:byte
  57  0000              extern rf:byte
  58  0000              extern rg:byte
  59  0000              extern rh:byte
文件：interrupt.ASM 编译器版本 HGASM 0202 页次2

  60  0000              extern _Crom2Prom:near
  61  0000              extern _Crom2PromNext:near
  62  0000              
  63  0000              RAMBANK 0 @BITDATASEC, @BITDATASEC1
  64  0000              @HCCINIT	.section 'data'
  65  0000              @HCCINIT0	.section 'data'
  66  0000              @BITDATASEC	 .section 'data'
  67  0000              @BITDATASEC1	 .section 'data'
  68  0000              
  69  0000              #pragma debug scope 1 1
  70  0000              	extern __DELAY3:near
  71  0000              	extern __DELAYX3:near
  72  0000              	extern __DELAYX6:near
  73  0000              	extern __DELAYY5:near
  74  0000              	extern __DELAYY3:near
  75  0000              	extern _builtin_holtek_delay_2:byte
  76  0000              	AP_Main_Address EQU (0x400+0x40)
  77  0000              ___intc0 equ [32]
  78  0000              public _Int0_funinterrupt
  79  0000              #pragma debug scope 2 1

  10  0000              #line 10 "c:\users\longshuangmin\desktop\worke_space\g-501\g-501\interrupt.c"
  10  0000              #pragma debug scope 1 1
  10  0000              @dummy1028 endp
  10  0000              #pragma debug scope 3 1
  10  0000              acc4 EQU [128]
  10  0000              #pragma debug variable 8 1 acc4 "acc4" 1
  10  0000              rombank 0 @_Int0_funinterrupt
  10  0000              @_Int0_funinterrupt .section at 1028 'code'
  10  0000  0080     E  	mov r1,a
  10  0001  070A        	mov a, status
  10  0002  0080     E  	mov r2,a
  10  0003  2800     R  	jmp _Int0_funinterrupt
  10  0004              rombank 0 _Int0_funinterrupt
  10  0000              _Int0_funinterrupt .section 'code'
  10  0000              _Int0_funinterrupt proc
  11  0000              #line 11 "c:\users\longshuangmin\desktop\worke_space\g-501\g-501\interrupt.c"
  11  0000  3620        	clr [32].4
  11  0001  0700     E  	mov a,r1
  11  0002  008B        	mov bp,a
  11  0003  0700     E  	mov a,r2
  11  0004  008A        	mov status,a
  11  0005  4700        	mov a,acc4
  11  0006  0004        	reti
  11  0007              _Int0_funinterrupt endp
  11  0007              
  11  0007              #line 11 "c:\users\longshuangmin\desktop\worke_space\g-501\g-501\interrupt.c"
  11  0007              #pragma debug scope 1 1
  11  0007              public _Int1_funinterrupt
  11  0007              #pragma debug scope 4 1
  20  0007              #line 20 "c:\users\longshuangmin\desktop\worke_space\g-501\g-501\interrupt.c"
  20  0007              #pragma debug scope 1 1
  20  0007              @dummy1032 endp
  20  0007              #pragma debug scope 5 1
  20  0007              acc8 EQU [129]
  20  0007              #pragma debug variable 8 1 acc8 "acc8" 1
  20  0007              rombank 0 @_Int1_funinterrupt
  20  0000              @_Int1_funinterrupt .section at 1032 'code'
  20  0000  0080     E  	mov r1,a
  20  0001  070A        	mov a, status
文件：interrupt.c  编译器版本 HGASM 0202 页次3

  20  0002  0080     E  	mov r2,a
  20  0003  2800     R  	jmp _Int1_funinterrupt
  20  0004              rombank 0 _Int1_funinterrupt
  20  0000              _Int1_funinterrupt .section 'code'
  20  0000              _Int1_funinterrupt proc
  21  0000              #line 21 "c:\users\longshuangmin\desktop\worke_space\g-501\g-501\interrupt.c"
  21  0000  36A0        	clr [32].5
  21  0001  0700     E  	mov a,r1
  21  0002  008B        	mov bp,a
  21  0003  0700     E  	mov a,r2
  21  0004  008A        	mov status,a
  21  0005  4701        	mov a,acc8
  21  0006  0004        	reti
  21  0007              _Int1_funinterrupt endp
  21  0007              
  21  0007              #line 21 "c:\users\longshuangmin\desktop\worke_space\g-501\g-501\interrupt.c"
  21  0007              #pragma debug scope 1 1
  21  0007              ___adcr1 equ [103]
  21  0007              ___adrl equ [99]
  21  0007              ___adrm equ [100]
  21  0007              ___adrh equ [101]
  21  0007              public _Adc_funinterrupt
  21  0007              #pragma debug scope 6 1
  30  0007              #line 30 "c:\users\longshuangmin\desktop\worke_space\g-501\g-501\interrupt.c"
  30  0007              #pragma debug scope 1 1
  30  0007              @dummy1036 endp
  30  0007              #pragma debug scope 7 1
  30  0007              acc12 EQU [130]
  30  0007              #pragma debug variable 8 1 acc12 "acc12" 1
  30  0007              rombank 0 @_Adc_funinterrupt
  30  0000              @_Adc_funinterrupt .section at 1036 'code'
  30  0000  0080     E  	mov r1,a
  30  0001  070A        	mov a, status
  30  0002  0080     E  	mov r2,a
  30  0003  2800     R  	jmp _Adc_funinterrupt
  30  0004              rombank 0 _Adc_funinterrupt
  30  0000              _Adc_funinterrupt .section 'code'
  30  0000              _Adc_funinterrupt proc
  31  0000              #line 31 "c:\users\longshuangmin\desktop\worke_space\g-501\g-501\interrupt.c"
  31  0000  3720        	clr [32].6
  33  0001              #line 33 "c:\users\longshuangmin\desktop\worke_space\g-501\g-501\interrupt.c"
  33  0001  38E7        	snz [103].1
  33  0002  2800     R  	jmp _L3
  37  0003              #line 37 "c:\users\longshuangmin\desktop\worke_space\g-501\g-501\interrupt.c"
  37  0003  0F03        	mov a,3
  37  0004  0200     E  	sub a,_SDKADCSourceData[4]
  37  0005  3C0A        	sz c
  37  0006  2800     R  	jmp _L5
  42  0007              #line 42 "c:\users\longshuangmin\desktop\worke_space\g-501\g-501\interrupt.c"
  42  0007  3167        	set [103].2
  43  0008              #line 43 "c:\users\longshuangmin\desktop\worke_space\g-501\g-501\interrupt.c"
  43  0008  0763        	mov a,[99]
  43  0009  0080     E  	mov _SDKADCSourceData[1],a
  44  000A              #line 44 "c:\users\longshuangmin\desktop\worke_space\g-501\g-501\interrupt.c"
  44  000A  0764        	mov a,[100]
  44  000B  0080     E  	mov _SDKADCSourceData[2],a
  45  000C              #line 45 "c:\users\longshuangmin\desktop\worke_space\g-501\g-501\interrupt.c"
  45  000C  0765        	mov a,[101]
  45  000D  0080     E  	mov _SDKADCSourceData[3],a
  46  000E              #line 46 "c:\users\longshuangmin\desktop\worke_space\g-501\g-501\interrupt.c"
文件：interrupt.c  编译器版本 HGASM 0202 页次4

  46  000E  1F00     E  	clr _SDKADCSourceData[0]
  48  000F              #line 48 "c:\users\longshuangmin\desktop\worke_space\g-501\g-501\interrupt.c"
  48  000F  3567        	clr [103].2
  49  0010              #line 49 "c:\users\longshuangmin\desktop\worke_space\g-501\g-501\interrupt.c"
  49  0010  3000     E  	set _SDKADCSourceData[5].0
  49  0011  2800     R  	jmp _L6
  49  0012              _L5:
  52  0012              #line 52 "c:\users\longshuangmin\desktop\worke_space\g-501\g-501\interrupt.c"
  52  0012  1480     E  	inc _SDKADCSourceData[4]
  52  0013              _L6:
  54  0013              #line 54 "c:\users\longshuangmin\desktop\worke_space\g-501\g-501\interrupt.c"
  54  0013  34E7        	clr [103].1
  54  0014              _L3:
  54  0014  0700     E  	mov a,r1
  54  0015  008B        	mov bp,a
  54  0016  0700     E  	mov a,r2
  54  0017  008A        	mov status,a
  54  0018  4702        	mov a,acc12
  54  0019  0004        	reti
  54  001A              _Adc_funinterrupt endp
  54  001A              
  54  001A              #line 54 "c:\users\longshuangmin\desktop\worke_space\g-501\g-501\interrupt.c"
  54  001A              #pragma debug scope 1 1
  54  001A              ___intc1 equ [33]
  54  001A              ___mfi0 equ [27]
  54  001A              _work_time equ [2690]
  54  001A              public _Multi0_funinterrupt
  54  001A              #pragma debug scope 8 1
  65  001A              #line 65 "c:\users\longshuangmin\desktop\worke_space\g-501\g-501\interrupt.c"
  65  001A              #pragma debug scope 1 1
  65  001A              @dummy1040 endp
  65  001A              #pragma debug scope 9 1
  65  001A              acc16 EQU [131]
  65  001A              #pragma debug variable 8 1 acc16 "acc16" 1
  65  001A              rombank 0 @_Multi0_funinterrupt
  65  0000              @_Multi0_funinterrupt .section at 1040 'code'
  65  0000  0080     E  	mov r1,a
  65  0001  070A        	mov a, status
  65  0002  0080     E  	mov r2,a
  65  0003  2800     R  	jmp _Multi0_funinterrupt
  65  0004              rombank 0 _Multi0_funinterrupt
  65  0000              _Multi0_funinterrupt .section 'code'
  65  0000              _Multi0_funinterrupt proc
  66  0000              #line 66 "c:\users\longshuangmin\desktop\worke_space\g-501\g-501\interrupt.c"
  66  0000  3621        	clr [33].4
  67  0001              #line 67 "c:\users\longshuangmin\desktop\worke_space\g-501\g-501\interrupt.c"
  67  0001  379B        	clr [27].7
  81  0002              #line 81 "c:\users\longshuangmin\desktop\worke_space\g-501\g-501\interrupt.c"
  81  0002  1F00     E  	clr _M_Main_cnt[0]
  82  0003              #line 82 "c:\users\longshuangmin\desktop\worke_space\g-501\g-501\interrupt.c"
  82  0003  3000     E  	set _Flag1[0].0
  83  0004              #line 83 "c:\users\longshuangmin\desktop\worke_space\g-501\g-501\interrupt.c"
  83  0004  D482 000A   	linc [2690]
  83  0006  3D0A        	sz z
  83  0007  D483 000A   	linc [2691]
  84  0009              #line 84 "c:\users\longshuangmin\desktop\worke_space\g-501\g-501\interrupt.c"
  84  0009  0700     E  	mov a,_Flag7[0]
  84  000A  0080     E  	mov ra,a
 128  000B              #line 128 "c:\users\longshuangmin\desktop\worke_space\g-501\g-501\interrupt.c"
 128  000B  3800     E  	snz _Flag1[0].3
文件：interrupt.c  编译器版本 HGASM 0202 页次5

 128  000C  2800     R  	jmp _L12
 130  000D              #line 130 "c:\users\longshuangmin\desktop\worke_space\g-501\g-501\interrupt.c"
 130  000D  1480     E  	inc _M_UARTRxTimeOut[0]
 132  000E              #line 132 "c:\users\longshuangmin\desktop\worke_space\g-501\g-501\interrupt.c"
 132  000E  0F63        	mov a,99
 132  000F  0200     E  	sub a,_M_UARTRxTimeOut[0]
 132  0010  3C0A        	sz c
 132  0011  2800     R  	jmp _L11
 134  0012              #line 134 "c:\users\longshuangmin\desktop\worke_space\g-501\g-501\interrupt.c"
 134  0012  1F00     E  	clr _M_UARTRxTimeOut[0]
 135  0013              #line 135 "c:\users\longshuangmin\desktop\worke_space\g-501\g-501\interrupt.c"
 135  0013  3400     E  	clr _Flag1[0].3
 136  0014              #line 136 "c:\users\longshuangmin\desktop\worke_space\g-501\g-501\interrupt.c"
 136  0014  3000     E  	set _Flag1[0].2
 136  0015  2800     R  	jmp _L11
 136  0016              _L12:
 141  0016              #line 141 "c:\users\longshuangmin\desktop\worke_space\g-501\g-501\interrupt.c"
 141  0016  1F00     E  	clr _M_UARTRxTimeOut[0]
 141  0017              _L11:
 141  0017  0700     E  	mov a,r1
 141  0018  008B        	mov bp,a
 141  0019  0700     E  	mov a,r2
 141  001A  008A        	mov status,a
 141  001B  4703        	mov a,acc16
 141  001C  0004        	reti
 141  001D              _Multi0_funinterrupt endp
 141  001D              
 141  001D              #line 141 "c:\users\longshuangmin\desktop\worke_space\g-501\g-501\interrupt.c"
 141  001D              #pragma debug scope 1 1
 141  001D              public _Multi1_funinterrupt
 141  001D              #pragma debug scope 10 1
 151  001D              #line 151 "c:\users\longshuangmin\desktop\worke_space\g-501\g-501\interrupt.c"
 151  001D              #pragma debug scope 1 1
 151  001D              @dummy1044 endp
 151  001D              #pragma debug scope 11 1
 151  001D              acc20 EQU [132]
 151  001D              #pragma debug variable 8 1 acc20 "acc20" 1
 151  001D              rombank 0 @_Multi1_funinterrupt
 151  0000              @_Multi1_funinterrupt .section at 1044 'code'
 151  0000  0080     E  	mov r1,a
 151  0001  070A        	mov a, status
 151  0002  0080     E  	mov r2,a
 151  0003  2800     R  	jmp _Multi1_funinterrupt
 151  0004              rombank 0 _Multi1_funinterrupt
 151  0000              _Multi1_funinterrupt .section 'code'
 151  0000              _Multi1_funinterrupt proc
 152  0000              #line 152 "c:\users\longshuangmin\desktop\worke_space\g-501\g-501\interrupt.c"
 152  0000  36A1        	clr [33].5
 152  0001  0700     E  	mov a,r1
 152  0002  008B        	mov bp,a
 152  0003  0700     E  	mov a,r2
 152  0004  008A        	mov status,a
 152  0005  4704        	mov a,acc20
 152  0006  0004        	reti
 152  0007              _Multi1_funinterrupt endp
 152  0007              
 152  0007              #line 152 "c:\users\longshuangmin\desktop\worke_space\g-501\g-501\interrupt.c"
 152  0007              #pragma debug scope 1 1
 152  0007              public _Multi2_funinterrupt
 152  0007              #pragma debug scope 12 1
文件：interrupt.c  编译器版本 HGASM 0202 页次6

 161  0007              #line 161 "c:\users\longshuangmin\desktop\worke_space\g-501\g-501\interrupt.c"
 161  0007              #pragma debug scope 1 1
 161  0007              @dummy1048 endp
 161  0007              #pragma debug scope 13 1
 161  0007              acc24 EQU [133]
 161  0007              #pragma debug variable 8 1 acc24 "acc24" 1
 161  0007              rombank 0 @_Multi2_funinterrupt
 161  0000              @_Multi2_funinterrupt .section at 1048 'code'
 161  0000  0080     E  	mov r1,a
 161  0001  070A        	mov a, status
 161  0002  0080     E  	mov r2,a
 161  0003  2800     R  	jmp _Multi2_funinterrupt
 161  0004              rombank 0 _Multi2_funinterrupt
 161  0000              _Multi2_funinterrupt .section 'code'
 161  0000              _Multi2_funinterrupt proc
 162  0000              #line 162 "c:\users\longshuangmin\desktop\worke_space\g-501\g-501\interrupt.c"
 162  0000  3721        	clr [33].6
 162  0001  0700     E  	mov a,r1
 162  0002  008B        	mov bp,a
 162  0003  0700     E  	mov a,r2
 162  0004  008A        	mov status,a
 162  0005  4705        	mov a,acc24
 162  0006  0004        	reti
 162  0007              _Multi2_funinterrupt endp
 162  0007              
 162  0007              #line 162 "c:\users\longshuangmin\desktop\worke_space\g-501\g-501\interrupt.c"
 162  0007              #pragma debug scope 1 1
 162  0007              public _Ovp_funinterrupt
 162  0007              #pragma debug scope 14 1
 171  0007              #line 171 "c:\users\longshuangmin\desktop\worke_space\g-501\g-501\interrupt.c"
 171  0007              #pragma debug scope 1 1
 171  0007              @dummy1052 endp
 171  0007              #pragma debug scope 15 1
 171  0007              acc28 EQU [134]
 171  0007              #pragma debug variable 8 1 acc28 "acc28" 1
 171  0007              rombank 0 @_Ovp_funinterrupt
 171  0000              @_Ovp_funinterrupt .section at 1052 'code'
 171  0000  0080     E  	mov r1,a
 171  0001  070A        	mov a, status
 171  0002  0080     E  	mov r2,a
 171  0003  2800     R  	jmp _Ovp_funinterrupt
 171  0004              rombank 0 _Ovp_funinterrupt
 171  0000              _Ovp_funinterrupt .section 'code'
 171  0000              _Ovp_funinterrupt proc
 172  0000              #line 172 "c:\users\longshuangmin\desktop\worke_space\g-501\g-501\interrupt.c"
 172  0000  37A1        	clr [33].7
 172  0001  0700     E  	mov a,r1
 172  0002  008B        	mov bp,a
 172  0003  0700     E  	mov a,r2
 172  0004  008A        	mov status,a
 172  0005  4706        	mov a,acc28
 172  0006  0004        	reti
 172  0007              _Ovp_funinterrupt endp
 172  0007              
 172  0007              #line 172 "c:\users\longshuangmin\desktop\worke_space\g-501\g-501\interrupt.c"
 172  0007              #pragma debug scope 1 1
 172  0007              ___intc2 equ [34]
 172  0007              _wait_sec equ [3720]
 172  0007              public _TimeBase0_funinterrupt
 172  0007              #pragma debug scope 16 1
文件：interrupt.c  编译器版本 HGASM 0202 页次7

 180  0007              #line 180 "c:\users\longshuangmin\desktop\worke_space\g-501\g-501\interrupt.c"
 180  0007              #pragma debug scope 1 1
 180  0007              @dummy1056 endp
 180  0007              #pragma debug scope 17 1
 180  0007              acc32 EQU [135]
 180  0007              #pragma debug variable 8 1 acc32 "acc32" 1
 180  0007              rombank 0 @_TimeBase0_funinterrupt
 180  0000              @_TimeBase0_funinterrupt .section at 1056 'code'
 180  0000  0080     E  	mov r1,a
 180  0001  070A        	mov a, status
 180  0002  0080     E  	mov r2,a
 180  0003  2800     R  	jmp _TimeBase0_funinterrupt
 180  0004              rombank 0 _TimeBase0_funinterrupt
 180  0000              _TimeBase0_funinterrupt .section 'code'
 180  0000              _TimeBase0_funinterrupt proc
 180  0000  0002[       local _TimeBase0_funinterrupt_2 db 2 dup(?)
            00
            ]
 180  0000  0703        	mov a,mp
 180  0001  0080     E  	mov r3,a
 180  0002  0704        	mov a,sbp
 180  0003  0080     E  	mov r4,a
 180  0004  0707        	mov a,tblp
 180  0005  0080     E  	mov r5,a
 180  0006  0709        	mov a,tbhp
 180  0007  0080     E  	mov r6,a
 180  0008              #pragma debug variable 8 17 _TimeBase0_funinterrupt_2+1 "temp"
 183  0008              #line 183 "c:\users\longshuangmin\desktop\worke_space\g-501\g-501\interrupt.c"
 183  0008  3622        	clr [34].4
 185  0009              #line 185 "c:\users\longshuangmin\desktop\worke_space\g-501\g-501\interrupt.c"
 185  0009  1F00     E  	clr ra
 185  000A  3800     E  	snz _Flag1[0].1
 185  000B  3000     E  	set ra.1
 185  000C  3400     E  	clr _Flag1[0].1
 185  000D  0700     E  	mov a,ra
 185  000E  0580     E  	orm a,_Flag1[0]
 187  000F              #line 187 "c:\users\longshuangmin\desktop\worke_space\g-501\g-501\interrupt.c"
 187  000F  3000     E  	set _Flag1[0].7
 189  0010              #line 189 "c:\users\longshuangmin\desktop\worke_space\g-501\g-501\interrupt.c"
 189  0010  0700     E  	mov a,_M_Task[0]
 189  0011  0080     R  	mov _TimeBase0_funinterrupt_2[0],a
 189  0012  0700     R  	mov a,_TimeBase0_funinterrupt_2[0]
 189  0013  0A02        	sub a,2
 189  0014  3D0A        	sz z
 189  0015  2800     R  	jmp _L17
 194  0016              #line 194 "c:\users\longshuangmin\desktop\worke_space\g-501\g-501\interrupt.c"
 194  0016  1480     E  	inc _M_Second_buf[0]
 196  0017              #line 196 "c:\users\longshuangmin\desktop\worke_space\g-501\g-501\interrupt.c"
 196  0017  0F01        	mov a,1
 196  0018  0200     E  	sub a,_M_Second_buf[0]
 196  0019  3C0A        	sz c
 196  001A  2800     R  	jmp _L21
 198  001B              #line 198 "c:\users\longshuangmin\desktop\worke_space\g-501\g-501\interrupt.c"
 198  001B  DE08 000E   	lsnz [3720]
 198  001D  2800     R  	jmp _L22
 199  001E              #line 199 "c:\users\longshuangmin\desktop\worke_space\g-501\g-501\interrupt.c"
 199  001E  D588 000E   	ldec [3720]
 199  0020              _L22:
 201  0020              #line 201 "c:\users\longshuangmin\desktop\worke_space\g-501\g-501\interrupt.c"
 201  0020  1F00     E  	clr _M_Second_buf[0]
文件：interrupt.c  编译器版本 HGASM 0202 页次8

 202  0021              #line 202 "c:\users\longshuangmin\desktop\worke_space\g-501\g-501\interrupt.c"
 202  0021  1480     E  	inc _M_Second[0]
 204  0022              #line 204 "c:\users\longshuangmin\desktop\worke_space\g-501\g-501\interrupt.c"
 204  0022  0F3B        	mov a,59
 204  0023  0200     E  	sub a,_M_Second[0]
 204  0024  3C0A        	sz c
 204  0025  2800     R  	jmp _L21
 206  0026              #line 206 "c:\users\longshuangmin\desktop\worke_space\g-501\g-501\interrupt.c"
 206  0026  1F00     E  	clr _M_Second[0]
 207  0027              #line 207 "c:\users\longshuangmin\desktop\worke_space\g-501\g-501\interrupt.c"
 207  0027  3400     E  	clr _Flag2[0].6
 210  0028              #line 210 "c:\users\longshuangmin\desktop\worke_space\g-501\g-501\interrupt.c"
 210  0028  1480     E  	inc _M_Minutes[0]
 211  0029              #line 211 "c:\users\longshuangmin\desktop\worke_space\g-501\g-501\interrupt.c"
 211  0029  0F3B        	mov a,59
 211  002A  0200     E  	sub a,_M_Minutes[0]
 211  002B  3C0A        	sz c
 211  002C  2800     R  	jmp _L21
 213  002D              #line 213 "c:\users\longshuangmin\desktop\worke_space\g-501\g-501\interrupt.c"
 213  002D  1F00     E  	clr _M_Minutes[0]
 215  002E              #line 215 "c:\users\longshuangmin\desktop\worke_space\g-501\g-501\interrupt.c"
 215  002E  1480     E  	inc _M_Hour[0]
 216  002F              #line 216 "c:\users\longshuangmin\desktop\worke_space\g-501\g-501\interrupt.c"
 216  002F  0F17        	mov a,23
 216  0030  0200     E  	sub a,_M_Hour[0]
 216  0031  3C0A        	sz c
 216  0032  2800     R  	jmp _L21
 218  0033              #line 218 "c:\users\longshuangmin\desktop\worke_space\g-501\g-501\interrupt.c"
 218  0033  1F00     E  	clr _M_Hour[0]
 221  0034              #line 221 "c:\users\longshuangmin\desktop\worke_space\g-501\g-501\interrupt.c"
 221  0034  0F00     E  	mov a,low (offset _Month_TABLE1-1)
 221  0035  0300     E  	add a,_M_Month[0]
 221  0036  0083        	mov mp,a
 221  0037  0F00     E  	mov a,high (offset _Month_TABLE1-1)
 221  0038  1F04        	clr sbp
 221  0039  1384        	adcm a,sbp
 221  003A              	fcall _Crom2Prom
 221  0041  0080     E  	mov ra,a
 224  0042              #line 224 "c:\users\longshuangmin\desktop\worke_space\g-501\g-501\interrupt.c"
 224  0042  0700     E  	mov a,_M_Month[0]
 224  0043  0A02        	sub a,2
 224  0044  390A        	snz z
 224  0045  2800     R  	jmp _L24
 224  0046  1F00     E  	clr rb
 224  0047              _L25:
 229  0047              #line 229 "c:\users\longshuangmin\desktop\worke_space\g-501\g-501\interrupt.c"
 229  0047  0F00     E  	mov a,low offset _LeapYear_TABLE
 229  0048  0300     E  	add a,rb
 229  0049  0083        	mov mp,a
 229  004A  0F00     E  	mov a,high offset _LeapYear_TABLE
 229  004B  1F04        	clr sbp
 229  004C  1384        	adcm a,sbp
 229  004D              	fcall _Crom2Prom
 229  0054  0080     R  	mov _TimeBase0_funinterrupt_2[1],a
 230  0055              #line 230 "c:\users\longshuangmin\desktop\worke_space\g-501\g-501\interrupt.c"
 230  0055  0700     R  	mov a,_TimeBase0_funinterrupt_2[1]
 230  0056  0200     E  	sub a,_M_Year[0]
 230  0057  390A        	snz z
 230  0058  2800     R  	jmp _L27
 231  0059              #line 231 "c:\users\longshuangmin\desktop\worke_space\g-501\g-501\interrupt.c"
文件：interrupt.c  编译器版本 HGASM 0202 页次9

 231  0059  1480     E  	inc ra
 231  005A              _L27:
 232  005A              #line 232 "c:\users\longshuangmin\desktop\worke_space\g-501\g-501\interrupt.c"
 232  005A  0700     E  	mov a,_M_Year[0]
 232  005B  0200     R  	sub a,_TimeBase0_funinterrupt_2[1]
 232  005C  380A        	snz c
 232  005D  2800     R  	jmp _L24
 227  005E              #line 227 "c:\users\longshuangmin\desktop\worke_space\g-501\g-501\interrupt.c"
 227  005E  1480     E  	inc rb
 227  005F  2800     R  	jmp _L25
 227  0060              _L24:
 237  0060              #line 237 "c:\users\longshuangmin\desktop\worke_space\g-501\g-501\interrupt.c"
 237  0060  1480     E  	inc _M_Days[0]
 238  0061              #line 238 "c:\users\longshuangmin\desktop\worke_space\g-501\g-501\interrupt.c"
 238  0061  0700     E  	mov a,ra
 238  0062  0200     E  	sub a,_M_Days[0]
 238  0063  3C0A        	sz c
 238  0064  2800     R  	jmp _L21
 240  0065              #line 240 "c:\users\longshuangmin\desktop\worke_space\g-501\g-501\interrupt.c"
 240  0065  0F01        	mov a,1
 240  0066  0080     E  	mov _M_Days[0],a
 242  0067              #line 242 "c:\users\longshuangmin\desktop\worke_space\g-501\g-501\interrupt.c"
 242  0067  1480     E  	inc _M_Month[0]
 243  0068              #line 243 "c:\users\longshuangmin\desktop\worke_space\g-501\g-501\interrupt.c"
 243  0068  0F0C        	mov a,12
 243  0069  0200     E  	sub a,_M_Month[0]
 243  006A  3C0A        	sz c
 243  006B  2800     R  	jmp _L21
 245  006C              #line 245 "c:\users\longshuangmin\desktop\worke_space\g-501\g-501\interrupt.c"
 245  006C  0F01        	mov a,1
 245  006D  0080     E  	mov _M_Month[0],a
 247  006E              #line 247 "c:\users\longshuangmin\desktop\worke_space\g-501\g-501\interrupt.c"
 247  006E  1480     E  	inc _M_Year[0]
 248  006F              #line 248 "c:\users\longshuangmin\desktop\worke_space\g-501\g-501\interrupt.c"
 248  006F  0F63        	mov a,99
 248  0070  0200     E  	sub a,_M_Year[0]
 248  0071  3C0A        	sz c
 248  0072  2800     R  	jmp _L21
 250  0073              #line 250 "c:\users\longshuangmin\desktop\worke_space\g-501\g-501\interrupt.c"
 250  0073  0F0C        	mov a,12
 250  0074  0080     E  	mov _M_Year[0],a
 250  0075              _L21:
 263  0075              #line 263 "c:\users\longshuangmin\desktop\worke_space\g-501\g-501\interrupt.c"
 263  0075  1080     R  	sz _TimeBase0_funinterrupt_2[0]
 263  0076  2800     R  	jmp _L17
 265  0077              #line 265 "c:\users\longshuangmin\desktop\worke_space\g-501\g-501\interrupt.c"
 265  0077  1080     E  	sz _M_Second[0]
 265  0078  2800     R  	jmp _L17
 268  0079              #line 268 "c:\users\longshuangmin\desktop\worke_space\g-501\g-501\interrupt.c"
 268  0079  3800     E  	snz _Flag6[0].0
 268  007A  2800     R  	jmp _L29
 268  007B  0700     E  	mov a,_M_Alarm1_HR[0]
 268  007C  0200     E  	sub a,_M_Hour[0]
 268  007D  390A        	snz z
 268  007E  2800     R  	jmp _L29
 268  007F  0700     E  	mov a,_M_Alarm1_MIN[0]
 268  0080  0200     E  	sub a,_M_Minutes[0]
 268  0081  390A        	snz z
 268  0082  2800     R  	jmp _L29
 269  0083              #line 269 "c:\users\longshuangmin\desktop\worke_space\g-501\g-501\interrupt.c"
文件：interrupt.c  编译器版本 HGASM 0202 页次10

 269  0083  3000     E  	set _Flag6[0].1
 269  0084  2800     R  	jmp _L17
 269  0085              _L29:
 271  0085              #line 271 "c:\users\longshuangmin\desktop\worke_space\g-501\g-501\interrupt.c"
 271  0085  3800     E  	snz _Flag6[0].2
 271  0086  2800     R  	jmp _L30
 271  0087  0700     E  	mov a,_M_Alarm2_HR[0]
 271  0088  0200     E  	sub a,_M_Hour[0]
 271  0089  390A        	snz z
 271  008A  2800     R  	jmp _L30
 271  008B  0700     E  	mov a,_M_Alarm2_MIN[0]
 271  008C  0200     E  	sub a,_M_Minutes[0]
 271  008D  390A        	snz z
 271  008E  2800     R  	jmp _L30
 272  008F              #line 272 "c:\users\longshuangmin\desktop\worke_space\g-501\g-501\interrupt.c"
 272  008F  3000     E  	set _Flag6[0].3
 272  0090  2800     R  	jmp _L17
 272  0091              _L30:
 274  0091              #line 274 "c:\users\longshuangmin\desktop\worke_space\g-501\g-501\interrupt.c"
 274  0091  3800     E  	snz _Flag6[0].4
 274  0092  2800     R  	jmp _L31
 274  0093  0700     E  	mov a,_M_Alarm3_HR[0]
 274  0094  0200     E  	sub a,_M_Hour[0]
 274  0095  390A        	snz z
 274  0096  2800     R  	jmp _L31
 274  0097  0700     E  	mov a,_M_Alarm3_MIN[0]
 274  0098  0200     E  	sub a,_M_Minutes[0]
 274  0099  390A        	snz z
 274  009A  2800     R  	jmp _L31
 275  009B              #line 275 "c:\users\longshuangmin\desktop\worke_space\g-501\g-501\interrupt.c"
 275  009B  3000     E  	set _Flag6[0].5
 275  009C  2800     R  	jmp _L17
 275  009D              _L31:
 277  009D              #line 277 "c:\users\longshuangmin\desktop\worke_space\g-501\g-501\interrupt.c"
 277  009D  3800     E  	snz _Flag6[0].6
 277  009E  2800     R  	jmp _L17
 277  009F  0700     E  	mov a,_M_Alarm4_HR[0]
 277  00A0  0200     E  	sub a,_M_Hour[0]
 277  00A1  390A        	snz z
 277  00A2  2800     R  	jmp _L17
 277  00A3  0700     E  	mov a,_M_Alarm4_MIN[0]
 277  00A4  0200     E  	sub a,_M_Minutes[0]
 277  00A5  390A        	snz z
 277  00A6  2800     R  	jmp _L17
 278  00A7              #line 278 "c:\users\longshuangmin\desktop\worke_space\g-501\g-501\interrupt.c"
 278  00A7  3000     E  	set _Flag6[0].7
 278  00A8              _L17:
 278  00A8  0700     E  	mov a,r1
 278  00A9  008B        	mov bp,a
 278  00AA  0700     E  	mov a,r2
 278  00AB  008A        	mov status,a
 278  00AC  0700     E  	mov a,r3
 278  00AD  0083        	mov mp,a
 278  00AE  0700     E  	mov a,r4
 278  00AF  0084        	mov sbp,a
 278  00B0  0700     E  	mov a,r5
 278  00B1  0087        	mov tblp,a
 278  00B2  0700     E  	mov a,r6
 278  00B3  0089        	mov tbhp,a
 278  00B4  1D05        	tabrdc acc
文件：interrupt.c  编译器版本 HGASM 0202 页次11

 278  00B5  4707        	mov a,acc32
 278  00B6  0004        	reti
 278  00B7              _TimeBase0_funinterrupt endp
 278  00B7              
 278  00B7              #line 278 "c:\users\longshuangmin\desktop\worke_space\g-501\g-501\interrupt.c"
 278  00B7              #pragma debug scope 1 1
 278  00B7              public _TimeBase1_funinterrupt
 278  00B7              #pragma debug scope 18 1
 289  00B7              #line 289 "c:\users\longshuangmin\desktop\worke_space\g-501\g-501\interrupt.c"
 289  00B7              #pragma debug scope 1 1
 289  00B7              @dummy1060 endp
 289  00B7              #pragma debug scope 19 1
 289  00B7              acc36 EQU [136]
 289  00B7              #pragma debug variable 8 1 acc36 "acc36" 1
 289  00B7              rombank 0 @_TimeBase1_funinterrupt
 289  0000              @_TimeBase1_funinterrupt .section at 1060 'code'
 289  0000  0080     E  	mov r1,a
 289  0001  070A        	mov a, status
 289  0002  0080     E  	mov r2,a
 289  0003  2800     R  	jmp _TimeBase1_funinterrupt
 289  0004              rombank 0 _TimeBase1_funinterrupt
 289  0000              _TimeBase1_funinterrupt .section 'code'
 289  0000              _TimeBase1_funinterrupt proc
 290  0000              #line 290 "c:\users\longshuangmin\desktop\worke_space\g-501\g-501\interrupt.c"
 290  0000  36A2        	clr [34].5
 290  0001  0700     E  	mov a,r1
 290  0002  008B        	mov bp,a
 290  0003  0700     E  	mov a,r2
 290  0004  008A        	mov status,a
 290  0005  4708        	mov a,acc36
 290  0006  0004        	reti
 290  0007              _TimeBase1_funinterrupt endp
 290  0007              
 290  0007              #line 290 "c:\users\longshuangmin\desktop\worke_space\g-501\g-501\interrupt.c"
 290  0007              #pragma debug scope 1 1
 290  0007              public _Int2_funinterrupt
 290  0007              #pragma debug scope 20 1
 299  0007              #line 299 "c:\users\longshuangmin\desktop\worke_space\g-501\g-501\interrupt.c"
 299  0007              #pragma debug scope 1 1
 299  0007              @dummy1064 endp
 299  0007              #pragma debug scope 21 1
 299  0007              acc40 EQU [137]
 299  0007              #pragma debug variable 8 1 acc40 "acc40" 1
 299  0007              rombank 0 @_Int2_funinterrupt
 299  0000              @_Int2_funinterrupt .section at 1064 'code'
 299  0000  0080     E  	mov r1,a
 299  0001  070A        	mov a, status
 299  0002  0080     E  	mov r2,a
 299  0003  2800     R  	jmp _Int2_funinterrupt
 299  0004              rombank 0 _Int2_funinterrupt
 299  0000              _Int2_funinterrupt .section 'code'
 299  0000              _Int2_funinterrupt proc
 300  0000              #line 300 "c:\users\longshuangmin\desktop\worke_space\g-501\g-501\interrupt.c"
 300  0000  3722        	clr [34].6
 300  0001  0700     E  	mov a,r1
 300  0002  008B        	mov bp,a
 300  0003  0700     E  	mov a,r2
 300  0004  008A        	mov status,a
 300  0005  4709        	mov a,acc40
 300  0006  0004        	reti
文件：interrupt.c  编译器版本 HGASM 0202 页次12

 300  0007              _Int2_funinterrupt endp
 300  0007              
 300  0007              #line 300 "c:\users\longshuangmin\desktop\worke_space\g-501\g-501\interrupt.c"
 300  0007              #pragma debug scope 1 1
 300  0007              public _Int32_funinterrupt
 300  0007              #pragma debug scope 22 1
 309  0007              #line 309 "c:\users\longshuangmin\desktop\worke_space\g-501\g-501\interrupt.c"
 309  0007              #pragma debug scope 1 1
 309  0007              @dummy1068 endp
 309  0007              #pragma debug scope 23 1
 309  0007              acc44 EQU [138]
 309  0007              #pragma debug variable 8 1 acc44 "acc44" 1
 309  0007              rombank 0 @_Int32_funinterrupt
 309  0000              @_Int32_funinterrupt .section at 1068 'code'
 309  0000  0080     E  	mov r1,a
 309  0001  070A        	mov a, status
 309  0002  0080     E  	mov r2,a
 309  0003  2800     R  	jmp _Int32_funinterrupt
 309  0004              rombank 0 _Int32_funinterrupt
 309  0000              _Int32_funinterrupt .section 'code'
 309  0000              _Int32_funinterrupt proc
 310  0000              #line 310 "c:\users\longshuangmin\desktop\worke_space\g-501\g-501\interrupt.c"
 310  0000  37A2        	clr [34].7
 310  0001  0700     E  	mov a,r1
 310  0002  008B        	mov bp,a
 310  0003  0700     E  	mov a,r2
 310  0004  008A        	mov status,a
 310  0005  470A        	mov a,acc44
 310  0006  0004        	reti
 310  0007              _Int32_funinterrupt endp
 310  0007              
 310  0007              #line 310 "c:\users\longshuangmin\desktop\worke_space\g-501\g-501\interrupt.c"
 310  0007              #pragma debug scope 1 1
 310  0007              ___intc3 equ [35]
 310  0007              ___u0sr equ [47]
 310  0007              ___txr_rxr0 equ [50]
 310  0007              _M_UART_RxFIFO equ [7808]
 310  0007              _M_UART_TxFIFO equ [8064]
 310  0007              public _Uart0_funinterrupt
 310  0007              #pragma debug scope 24 1
 319  0007              #line 319 "c:\users\longshuangmin\desktop\worke_space\g-501\g-501\interrupt.c"
 319  0007              #pragma debug scope 1 1
 319  0007              @dummy1072 endp
 319  0007              #pragma debug scope 25 1
 319  0007              acc48 EQU [139]
 319  0007              #pragma debug variable 8 1 acc48 "acc48" 1
 319  0007              rombank 0 @_Uart0_funinterrupt
 319  0000              @_Uart0_funinterrupt .section at 1072 'code'
 319  0000  0080     E  	mov r1,a
 319  0001  070A        	mov a, status
 319  0002  0080     E  	mov r2,a
 319  0003  2800     R  	jmp _Uart0_funinterrupt
 319  0004              rombank 0 _Uart0_funinterrupt
 319  0000              _Uart0_funinterrupt .section 'code'
 319  0000              _Uart0_funinterrupt proc
 319  0000  00          local _Uart0_funinterrupt_2 db 1 dup(?)
 319  0000  0703        	mov a,mp
 319  0001  0080     E  	mov r3,a
 319  0002  0704        	mov a,sbp
 319  0003  0080     E  	mov r4,a
文件：interrupt.c  编译器版本 HGASM 0202 页次13

 319  0004  0707        	mov a,tblp
 319  0005  0080     E  	mov r5,a
 319  0006  0709        	mov a,tbhp
 319  0007  0080     E  	mov r6,a
 319  0008              #pragma debug variable 8 25 _Uart0_funinterrupt_2+0 "temp"
 322  0008              #line 322 "c:\users\longshuangmin\desktop\worke_space\g-501\g-501\interrupt.c"
 322  0008  3623        	clr [35].4
 325  0009              #line 325 "c:\users\longshuangmin\desktop\worke_space\g-501\g-501\interrupt.c"
 325  0009  3FAF        	sz [47].7
 325  000A  2800     R  	jmp _L51
 325  000B              #line 325 "c:\users\longshuangmin\desktop\worke_space\g-501\g-501\interrupt.c"
 325  000B  3F2F        	sz [47].6
 325  000C  2800     R  	jmp _L51
 325  000D  3EAF        	sz [47].5
 325  000E  2800     R  	jmp _L51
 325  000F  3A2F        	snz [47].4
 325  0010  2800     R  	jmp _L52
 325  0011              _L51:
 327  0011              #line 327 "c:\users\longshuangmin\desktop\worke_space\g-501\g-501\interrupt.c"
 327  0011  072F        	mov a,[47]
 327  0012  0080     R  	mov _Uart0_funinterrupt_2[0],a
 328  0013              #line 328 "c:\users\longshuangmin\desktop\worke_space\g-501\g-501\interrupt.c"
 328  0013  0732        	mov a,[50]
 328  0014  0080     R  	mov _Uart0_funinterrupt_2[0],a
 329  0015              #line 329 "c:\users\longshuangmin\desktop\worke_space\g-501\g-501\interrupt.c"
 329  0015  2800     R  	jmp _L50
 329  0016              _L52:
 333  0016              #line 333 "c:\users\longshuangmin\desktop\worke_space\g-501\g-501\interrupt.c"
 333  0016  392F        	snz [47].2
 333  0017  2800     R  	jmp _L54
 335  0018              #line 335 "c:\users\longshuangmin\desktop\worke_space\g-501\g-501\interrupt.c"
 335  0018  3000     E  	set _Flag1[0].3
 336  0019              #line 336 "c:\users\longshuangmin\desktop\worke_space\g-501\g-501\interrupt.c"
 336  0019  1F00     E  	clr _M_UARTRxTimeOut[0]
 338  001A              #line 338 "c:\users\longshuangmin\desktop\worke_space\g-501\g-501\interrupt.c"
 338  001A  0F80        	mov a,low offset _M_UART_RxFIFO
 338  001B  0300     E  	add a,_M_UART_RxIndex[0]
 338  001C  0083        	mov mp,a
 338  001D  0F1E        	mov a,high offset _M_UART_RxFIFO
 338  001E  1F04        	clr sbp
 338  001F  1384        	adcm a,sbp
 338  0020  0732        	mov a,[50]
 338  0021  0082        	mov ir,a
 339  0022              #line 339 "c:\users\longshuangmin\desktop\worke_space\g-501\g-501\interrupt.c"
 339  0022  1480     E  	inc _M_UART_RxIndex[0]
 339  0023              _L54:
 343  0023              #line 343 "c:\users\longshuangmin\desktop\worke_space\g-501\g-501\interrupt.c"
 343  0023  0F7E        	mov a,126
 343  0024  0200     E  	sub a,_M_UART_RxIndex[0]
 343  0025  3C0A        	sz c
 343  0026  2800     R  	jmp _L55
 345  0027              #line 345 "c:\users\longshuangmin\desktop\worke_space\g-501\g-501\interrupt.c"
 345  0027  3400     E  	clr _Flag1[0].3
 346  0028              #line 346 "c:\users\longshuangmin\desktop\worke_space\g-501\g-501\interrupt.c"
 346  0028  1F00     E  	clr _M_UARTRxTimeOut[0]
 348  0029              #line 348 "c:\users\longshuangmin\desktop\worke_space\g-501\g-501\interrupt.c"
 348  0029  3000     E  	set _Flag1[0].2
 348  002A              _L55:
 351  002A              #line 351 "c:\users\longshuangmin\desktop\worke_space\g-501\g-501\interrupt.c"
 351  002A  382F        	snz [47].0
文件：interrupt.c  编译器版本 HGASM 0202 页次14

 351  002B  2800     R  	jmp _L50
 353  002C              #line 353 "c:\users\longshuangmin\desktop\worke_space\g-501\g-501\interrupt.c"
 353  002C  1480     E  	inc _M_UART_TxIndex[0]
 354  002D              #line 354 "c:\users\longshuangmin\desktop\worke_space\g-501\g-501\interrupt.c"
 354  002D  0700     E  	mov a,_M_UART_TxIndex[0]
 354  002E  0200     E  	sub a,_M_UART_TxLength[0]
 354  002F  3C0A        	sz c
 354  0030  2800     R  	jmp _L56
 357  0031              #line 357 "c:\users\longshuangmin\desktop\worke_space\g-501\g-501\interrupt.c"
 357  0031  0F80        	mov a,low offset _M_UART_TxFIFO
 357  0032  0300     E  	add a,_M_UART_TxIndex[0]
 357  0033  0083        	mov mp,a
 357  0034  0F1F        	mov a,high offset _M_UART_TxFIFO
 357  0035  1F04        	clr sbp
 357  0036  1384        	adcm a,sbp
 357  0037              	fcall _Crom2Prom
 357  003E  00B2        	mov [50],a
 357  003F  2800     R  	jmp _L50
 357  0040              _L56:
 360  0040              #line 360 "c:\users\longshuangmin\desktop\worke_space\g-501\g-501\interrupt.c"
 360  0040  072F        	mov a,[47]
 360  0041  0080     R  	mov _Uart0_funinterrupt_2[0],a
 360  0042              _L50:
 360  0042  0700     E  	mov a,r1
 360  0043  008B        	mov bp,a
 360  0044  0700     E  	mov a,r2
 360  0045  008A        	mov status,a
 360  0046  0700     E  	mov a,r3
 360  0047  0083        	mov mp,a
 360  0048  0700     E  	mov a,r4
 360  0049  0084        	mov sbp,a
 360  004A  0700     E  	mov a,r5
 360  004B  0087        	mov tblp,a
 360  004C  0700     E  	mov a,r6
 360  004D  0089        	mov tbhp,a
 360  004E  1D05        	tabrdc acc
 360  004F  470B        	mov a,acc48
 360  0050  0004        	reti
 360  0051              _Uart0_funinterrupt endp
 360  0051              
 360  0051              #line 360 "c:\users\longshuangmin\desktop\worke_space\g-501\g-501\interrupt.c"
 360  0051              #pragma debug scope 1 1
 360  0051              public _Sim_funinterrupt
 360  0051              #pragma debug scope 26 1
 371  0051              #line 371 "c:\users\longshuangmin\desktop\worke_space\g-501\g-501\interrupt.c"
 371  0051              #pragma debug scope 1 1
 371  0051              @dummy1076 endp
 371  0051              #pragma debug scope 27 1
 371  0051              acc52 EQU [140]
 371  0051              #pragma debug variable 8 1 acc52 "acc52" 1
 371  0051              rombank 0 @_Sim_funinterrupt
 371  0000              @_Sim_funinterrupt .section at 1076 'code'
 371  0000  0080     E  	mov r1,a
 371  0001  070A        	mov a, status
 371  0002  0080     E  	mov r2,a
 371  0003  2800     R  	jmp _Sim_funinterrupt
 371  0004              rombank 0 _Sim_funinterrupt
 371  0000              _Sim_funinterrupt .section 'code'
 371  0000              _Sim_funinterrupt proc
 372  0000              #line 372 "c:\users\longshuangmin\desktop\worke_space\g-501\g-501\interrupt.c"
文件：interrupt.c  编译器版本 HGASM 0202 页次15

 372  0000  36A3        	clr [35].5
 372  0001  0700     E  	mov a,r1
 372  0002  008B        	mov bp,a
 372  0003  0700     E  	mov a,r2
 372  0004  008A        	mov status,a
 372  0005  470C        	mov a,acc52
 372  0006  0004        	reti
 372  0007              _Sim_funinterrupt endp
 372  0007              
 372  0007              #line 372 "c:\users\longshuangmin\desktop\worke_space\g-501\g-501\interrupt.c"
 372  0007              #pragma debug scope 1 1
 372  0007              public _Spi_funinterrupt
 372  0007              #pragma debug scope 28 1
 381  0007              #line 381 "c:\users\longshuangmin\desktop\worke_space\g-501\g-501\interrupt.c"
 381  0007              #pragma debug scope 1 1
 381  0007              @dummy1080 endp
 381  0007              #pragma debug scope 29 1
 381  0007              acc56 EQU [141]
 381  0007              #pragma debug variable 8 1 acc56 "acc56" 1
 381  0007              rombank 0 @_Spi_funinterrupt
 381  0000              @_Spi_funinterrupt .section at 1080 'code'
 381  0000  0080     E  	mov r1,a
 381  0001  070A        	mov a, status
 381  0002  0080     E  	mov r2,a
 381  0003  2800     R  	jmp _Spi_funinterrupt
 381  0004              rombank 0 _Spi_funinterrupt
 381  0000              _Spi_funinterrupt .section 'code'
 381  0000              _Spi_funinterrupt proc
 382  0000              #line 382 "c:\users\longshuangmin\desktop\worke_space\g-501\g-501\interrupt.c"
 382  0000  3723        	clr [35].6
 382  0001  0700     E  	mov a,r1
 382  0002  008B        	mov bp,a
 382  0003  0700     E  	mov a,r2
 382  0004  008A        	mov status,a
 382  0005  470D        	mov a,acc56
 382  0006  0004        	reti
 382  0007              _Spi_funinterrupt endp
 382  0007              
 382  0007              #line 382 "c:\users\longshuangmin\desktop\worke_space\g-501\g-501\interrupt.c"
 382  0007              #pragma debug scope 1 1
 382  0007              ___u1sr equ [68]
 382  0007              ___txr_rxr1 equ [71]
 382  0007              public _Uart1_funinterrupt
 382  0007              #pragma debug scope 30 1
 391  0007              #line 391 "c:\users\longshuangmin\desktop\worke_space\g-501\g-501\interrupt.c"
 391  0007              #pragma debug scope 1 1
 391  0007              @dummy1084 endp
 391  0007              #pragma debug scope 31 1
 391  0007              acc60 EQU [142]
 391  0007              #pragma debug variable 8 1 acc60 "acc60" 1
 391  0007              rombank 0 @_Uart1_funinterrupt
 391  0000              @_Uart1_funinterrupt .section at 1084 'code'
 391  0000  0080     E  	mov r1,a
 391  0001  070A        	mov a, status
 391  0002  0080     E  	mov r2,a
 391  0003  2800     R  	jmp _Uart1_funinterrupt
 391  0004              rombank 0 _Uart1_funinterrupt
 391  0000              _Uart1_funinterrupt .section 'code'
 391  0000              _Uart1_funinterrupt proc
 391  0000  0703        	mov a,mp
文件：interrupt.c  编译器版本 HGASM 0202 页次16

 391  0001  0080     E  	mov r3,a
 391  0002  0704        	mov a,sbp
 391  0003  0080     E  	mov r4,a
 391  0004  0707        	mov a,tblp
 391  0005  0080     E  	mov r5,a
 391  0006  0709        	mov a,tbhp
 391  0007  0080     E  	mov r6,a
 396  0008              #line 396 "c:\users\longshuangmin\desktop\worke_space\g-501\g-501\interrupt.c"
 396  0008  3FC4        	sz [68].7
 396  0009  2800     R  	jmp _L66
 396  000A              #line 396 "c:\users\longshuangmin\desktop\worke_space\g-501\g-501\interrupt.c"
 396  000A  3F44        	sz [68].6
 396  000B  2800     R  	jmp _L66
 396  000C  3EC4        	sz [68].5
 396  000D  2800     R  	jmp _L66
 396  000E  3A44        	snz [68].4
 396  000F  2800     R  	jmp _L67
 396  0010              _L66:
 398  0010              #line 398 "c:\users\longshuangmin\desktop\worke_space\g-501\g-501\interrupt.c"
 398  0010  0744        	mov a,[68]
 398  0011  0080     E  	mov ra,a
 399  0012              #line 399 "c:\users\longshuangmin\desktop\worke_space\g-501\g-501\interrupt.c"
 399  0012  0747        	mov a,[71]
 399  0013  0080     E  	mov ra,a
 399  0014              _L67:
 404  0014              #line 404 "c:\users\longshuangmin\desktop\worke_space\g-501\g-501\interrupt.c"
 404  0014  3944        	snz [68].2
 404  0015  2800     R  	jmp _L68
 406  0016              #line 406 "c:\users\longshuangmin\desktop\worke_space\g-501\g-501\interrupt.c"
 406  0016  3000     E  	set _Flag1[0].3
 407  0017              #line 407 "c:\users\longshuangmin\desktop\worke_space\g-501\g-501\interrupt.c"
 407  0017  1F00     E  	clr _M_UARTRxTimeOut[0]
 409  0018              #line 409 "c:\users\longshuangmin\desktop\worke_space\g-501\g-501\interrupt.c"
 409  0018  0F80        	mov a,low offset _M_UART_RxFIFO
 409  0019  0300     E  	add a,_M_UART_RxIndex[0]
 409  001A  0083        	mov mp,a
 409  001B  0F1E        	mov a,high offset _M_UART_RxFIFO
 409  001C  1F04        	clr sbp
 409  001D  1384        	adcm a,sbp
 409  001E  0747        	mov a,[71]
 409  001F  0082        	mov ir,a
 410  0020              #line 410 "c:\users\longshuangmin\desktop\worke_space\g-501\g-501\interrupt.c"
 410  0020  1480     E  	inc _M_UART_RxIndex[0]
 410  0021              _L68:
 414  0021              #line 414 "c:\users\longshuangmin\desktop\worke_space\g-501\g-501\interrupt.c"
 414  0021  0F1F        	mov a,31
 414  0022  0200     E  	sub a,_M_UART_RxIndex[0]
 414  0023  3C0A        	sz c
 414  0024  2800     R  	jmp _L69
 416  0025              #line 416 "c:\users\longshuangmin\desktop\worke_space\g-501\g-501\interrupt.c"
 416  0025  3400     E  	clr _Flag1[0].3
 417  0026              #line 417 "c:\users\longshuangmin\desktop\worke_space\g-501\g-501\interrupt.c"
 417  0026  1F00     E  	clr _M_UARTRxTimeOut[0]
 418  0027              #line 418 "c:\users\longshuangmin\desktop\worke_space\g-501\g-501\interrupt.c"
 418  0027  3000     E  	set _Flag1[0].2
 418  0028              _L69:
 422  0028              #line 422 "c:\users\longshuangmin\desktop\worke_space\g-501\g-501\interrupt.c"
 422  0028  3844        	snz [68].0
 422  0029  2800     R  	jmp _L70
 424  002A              #line 424 "c:\users\longshuangmin\desktop\worke_space\g-501\g-501\interrupt.c"
文件：interrupt.c  编译器版本 HGASM 0202 页次17

 424  002A  1480     E  	inc _M_UART_TxIndex[0]
 425  002B              #line 425 "c:\users\longshuangmin\desktop\worke_space\g-501\g-501\interrupt.c"
 425  002B  0700     E  	mov a,_M_UART_TxIndex[0]
 425  002C  0200     E  	sub a,_M_UART_TxLength[0]
 425  002D  3C0A        	sz c
 425  002E  2800     R  	jmp _L71
 427  002F              #line 427 "c:\users\longshuangmin\desktop\worke_space\g-501\g-501\interrupt.c"
 427  002F  0F80        	mov a,low offset _M_UART_TxFIFO
 427  0030  0300     E  	add a,_M_UART_TxIndex[0]
 427  0031  0083        	mov mp,a
 427  0032  0F1F        	mov a,high offset _M_UART_TxFIFO
 427  0033  1F04        	clr sbp
 427  0034  1384        	adcm a,sbp
 427  0035              	fcall _Crom2Prom
 427  003C  00C7        	mov [71],a
 427  003D  2800     R  	jmp _L70
 427  003E              _L71:
 430  003E              #line 430 "c:\users\longshuangmin\desktop\worke_space\g-501\g-501\interrupt.c"
 430  003E  0744        	mov a,[68]
 430  003F  0080     E  	mov ra,a
 430  0040              _L70:
 434  0040              #line 434 "c:\users\longshuangmin\desktop\worke_space\g-501\g-501\interrupt.c"
 434  0040  37A3        	clr [35].7
 434  0041  0700     E  	mov a,r1
 434  0042  008B        	mov bp,a
 434  0043  0700     E  	mov a,r2
 434  0044  008A        	mov status,a
 434  0045  0700     E  	mov a,r3
 434  0046  0083        	mov mp,a
 434  0047  0700     E  	mov a,r4
 434  0048  0084        	mov sbp,a
 434  0049  0700     E  	mov a,r5
 434  004A  0087        	mov tblp,a
 434  004B  0700     E  	mov a,r6
 434  004C  0089        	mov tbhp,a
 434  004D  1D05        	tabrdc acc
 434  004E  470E        	mov a,acc60
 434  004F  0004        	reti
 434  0050              _Uart1_funinterrupt endp
 434  0050              
 434  0050              #line 434 "c:\users\longshuangmin\desktop\worke_space\g-501\g-501\interrupt.c"
 434  0050              #pragma debug scope 1 1
 434  0050              #pragma debug struct_end
 434  0050              #pragma debug struct_end
 434  0050              #pragma debug union_end
 434  0050              #pragma debug union_end
 434  0050              #pragma debug variable 43 1 ___mfi0 "__mfi0" 1
 434  0050              #pragma debug struct_end
 434  0050              #pragma debug struct_end
 434  0050              #pragma debug union_end
 434  0050              #pragma debug union_end
 434  0050              #pragma debug variable 45 1 ___intc0 "__intc0" 1
 434  0050              #pragma debug struct_end
 434  0050              #pragma debug struct_end
 434  0050              #pragma debug union_end
 434  0050              #pragma debug union_end
 434  0050              #pragma debug variable 47 1 ___intc1 "__intc1" 1
 434  0050              #pragma debug struct_end
 434  0050              #pragma debug struct_end
 434  0050              #pragma debug union_end
文件：interrupt.c  编译器版本 HGASM 0202 页次18

 434  0050              #pragma debug union_end
 434  0050              #pragma debug variable 49 1 ___intc2 "__intc2" 1
 434  0050              #pragma debug struct_end
 434  0050              #pragma debug struct_end
 434  0050              #pragma debug union_end
 434  0050              #pragma debug union_end
 434  0050              #pragma debug variable 51 1 ___intc3 "__intc3" 1
 434  0050              #pragma debug struct_end
 434  0050              #pragma debug struct_end
 434  0050              #pragma debug union_end
 434  0050              #pragma debug union_end
 434  0050              #pragma debug variable 53 1 ___u0sr "__u0sr" 1
 434  0050              #pragma debug struct_end
 434  0050              #pragma debug struct_end
 434  0050              #pragma debug union_end
 434  0050              #pragma debug union_end
 434  0050              #pragma debug variable 55 1 ___txr_rxr0 "__txr_rxr0" 1
 434  0050              #pragma debug struct_end
 434  0050              #pragma debug struct_end
 434  0050              #pragma debug union_end
 434  0050              #pragma debug union_end
 434  0050              #pragma debug variable 57 1 ___u1sr "__u1sr" 1
 434  0050              #pragma debug struct_end
 434  0050              #pragma debug struct_end
 434  0050              #pragma debug union_end
 434  0050              #pragma debug union_end
 434  0050              #pragma debug variable 59 1 ___txr_rxr1 "__txr_rxr1" 1
 434  0050              #pragma debug variable 8 1 ___adrl "__adrl" 1
 434  0050              #pragma debug variable 8 1 ___adrm "__adrm" 1
 434  0050              #pragma debug variable 8 1 ___adrh "__adrh" 1
 434  0050              #pragma debug struct_end
 434  0050              #pragma debug struct_end
 434  0050              #pragma debug union_end
 434  0050              #pragma debug union_end
 434  0050              #pragma debug variable 61 1 ___adcr1 "__adcr1" 1
 434  0050              #pragma debug array 62 8 128 1
 434  0050              #pragma debug array 62 8 128 1
 434  0050              #pragma debug variable 62 1 _M_UART_RxFIFO "M_UART_RxFIFO" 128
 434  0050              #pragma debug variable 62 1 _M_UART_TxFIFO "M_UART_TxFIFO" 128
 434  0050              #pragma debug variable 11 1 _work_time "work_time" 2
 434  0050              #pragma debug variable 8 1 _wait_sec "wait_sec" 1
 434  0050              
 434  0050              ; output external variables
 434  0050              extern _M_UART_TxLength:byte
 434  0050              extern _M_UART_TxIndex:byte
 434  0050              extern _M_UART_RxIndex:byte
 434  0050              extern _M_Alarm4_MIN:byte
 434  0050              extern _M_Alarm4_HR:byte
 434  0050              extern _M_Alarm3_MIN:byte
 434  0050              extern _M_Alarm3_HR:byte
 434  0050              extern _M_Alarm2_MIN:byte
 434  0050              extern _M_Alarm2_HR:byte
 434  0050              extern _M_Alarm1_MIN:byte
 434  0050              extern _M_Alarm1_HR:byte
 434  0050              extern _Flag6:byte
 434  0050              extern _M_Days:byte
 434  0050              extern _M_Year:byte
 434  0050              extern _LeapYear_TABLE:near
 434  0050              extern _M_Month:byte
 434  0050              extern _Month_TABLE1:near
文件：interrupt.c  编译器版本 HGASM 0202 页次19

 434  0050              extern _M_Hour:byte
 434  0050              extern _M_Minutes:byte
 434  0050              extern _Flag2:byte
 434  0050              extern _M_Second:byte
 434  0050              extern _M_Second_buf:byte
 434  0050              extern _M_Task:byte
 434  0050              extern _M_UARTRxTimeOut:byte
 434  0050              extern _Flag7:byte
 434  0050              extern _Flag1:byte
 434  0050              extern _M_Main_cnt:byte
 434  0050              extern _SDKADCSourceData:byte
 434  0050              extern r1:byte
 434  0050              extern r2:byte
 434  0050              extern r3:byte
 434  0050              extern r4:byte
 434  0050              extern r5:byte
 434  0050              extern r6:byte
 434  0050              
 434  0050              ; 
 434  0050              ; Generated by holtek-gcc v3.19, Fri May 23 10:39:40 2025
 434  0050              ; Rebuild 718
 434  0050              ; end of file


        0 Errors, 0