文件：LcdScan.c    编译器版本 HGASM 0202 页次1


   1  0000              ; Generated by holtek-gcc v3.19, Fri May 23 10:39:44 2025
   2  0000              ; 
   3  0000              ; Configuration:
   4  0000              ;       with long instruction
   5  0000              ;       Multi-ROM, Multi-RAM
   6  0000              ;       bits_per_rom_unit:16
   7  0000              ;       with mp1
   8  0000              ;       with tbhp, address(0x9)
   9  0000              ;          Use tabrd-const
  10  0000              ;       
  11  0000              ; SFR address of long-instruction arch:
  12  0000              ;    mp0 = -1,1,0
  13  0000              ;    mp1 = 4,3,2
  14  0000              ;    mp2 = 14,13,12
  15  0000              ;    tbp = 9,7,8
  16  0000              ;    acc = 5
  17  0000              ;    pcl = 6
  18  0000              ;    status = 10
  19  0000              ;    bp = 11
  20  0000              ;    intc = 32
  21  0000              ;       
  22  0000              ;       
  23  0000              ; use 'tabrdc' instead of 'tabrd'
  24  0000              ;       
  25  0000              
  26  0000              #pragma translator "holtek-gcc 4.6.4" "3.19" "build 20130711"
  27  0000              ; Rebuild 718
  28  0000              
  29  0000              ir equ [2]
  30  0000              mp equ [3]
  31  0000              sbp equ [4]
  32  0000              acc equ [5]
  33  0000              bp equ [11]
  34  0000              tblp equ [7]
  35  0000              tbhp equ [9]
  36  0000              status equ [10]
  37  0000              c equ [10].0
  38  0000              ac equ [10].1
  39  0000              z equ [10].2
  40  0000              ov equ [10].3
  41  0000              cz equ [10].6
  42  0000              sc equ [10].7
  43  0000              intc equ [32]
  44  0000              mduwr0 equ [59h]
  45  0000              mduwr1 equ [5ah]
  46  0000              mduwr2 equ [5bh]
  47  0000              mduwr3 equ [5ch]
  48  0000              mduwr4 equ [5dh]
  49  0000              mduwr5 equ [5eh]
  50  0000              mduwrctrl equ [5fh]
  51  0000              
  52  0000              extern ra:byte
  53  0000              extern rb:byte
  54  0000              extern rc:byte
  55  0000              extern rd:byte
  56  0000              extern re:byte
  57  0000              extern rf:byte
  58  0000              extern rg:byte
  59  0000              extern rh:byte
文件：LcdScan.ASM  编译器版本 HGASM 0202 页次2

  60  0000              extern _Crom2Prom:near
  61  0000              extern _Crom2PromNext:near
  62  0000              
  63  0000              RAMBANK 0 @BITDATASEC, @BITDATASEC1
  64  0000              @HCCINIT	.section 'data'
  65  0000              @HCCINIT0	.section 'data'
  66  0000              @BITDATASEC	 .section 'data'
  67  0000              @BITDATASEC1	 .section 'data'
  68  0000              
  69  0000              #pragma debug scope 1 1
  70  0000              	extern __DELAY3:near
  71  0000              	extern __DELAYX3:near
  72  0000              	extern __DELAYX6:near
  73  0000              	extern __DELAYY5:near
  74  0000              	extern __DELAYY3:near
  75  0000              	extern _builtin_holtek_delay_2:byte
  76  0000              _Start_Detection_flag equ [4746]
  77  0000              _LcdMappingSize equ [4744]
  78  0000              public _LCD_Par_init
  79  0000              #pragma debug scope 2 1

 519  0000              #line 519 "c:\users\longshuangmin\desktop\worke_space\g-501\g-501\LcdScan.c"
 519  0000              _LCD_Par_init .section 'code'
 519  0000              _LCD_Par_init proc
 520  0000              #line 520 "c:\users\longshuangmin\desktop\worke_space\g-501\g-501\LcdScan.c"
 520  0000  DF0A 0012   	lclr [4746]
 522  0002              #line 522 "c:\users\longshuangmin\desktop\worke_space\g-501\g-501\LcdScan.c"
 522  0002  0F56        	mov a,86
 522  0003  C088 0012   	lmov [4744],a
 522  0005  DF09 0012   	lclr [4745]
 522  0007  0003        	ret
 522  0008              _LCD_Par_init endp
 522  0008              #line 522 "c:\users\longshuangmin\desktop\worke_space\g-501\g-501\LcdScan.c"
 522  0008              #pragma debug scope 1 1
 522  0008              _M_LCD_RAM equ [1024]
 522  0008              public _LCD_BitSetOut
 522  0008              #pragma debug scope 3 1
 527  0008              #line 527 "c:\users\longshuangmin\desktop\worke_space\g-501\g-501\LcdScan.c"
 527  0000              _LCD_BitSetOut .section 'code'
 527  0000              _LCD_BitSetOut proc
 527  0000              public _LCD_BitSetOut_2
 527  0000  0003[           local _LCD_BitSetOut_2 db 3 dup(?)	; 3,0
            00
            ]
 527  0003              #pragma debug variable 12 3 _LCD_BitSetOut_2+0 "LcdBitIndex"
 527  0003              #pragma debug variable 8 3 _LCD_BitSetOut_2+2 "OnOff"
 527  0000  0700     R  	mov a,_LCD_BitSetOut_2[0]
 527  0001  0080     E  	mov rb,a
 527  0002  0700     R  	mov a,_LCD_BitSetOut_2[1]
 527  0003  0080     E  	mov rc,a
 530  0004              #line 530 "c:\users\longshuangmin\desktop\worke_space\g-501\g-501\LcdScan.c"
 530  0004  0F03        	mov a,3
 530  0005              _LI1:
 530  0005  340A        	clr c
 530  0006  1A80     E  	rlc rb
 530  0007  1A80     E  	rlc rc
 530  0008  1785        	sdz acc
 530  0009  2800     R  	jmp _LI1
 530  000A  0F00     R  	mov a,low offset _LCDMappingTab
 530  000B  0300     E  	add a,rb
文件：LcdScan.c    编译器版本 HGASM 0202 页次3

 530  000C  0083        	mov mp,a
 530  000D  0F00     R  	mov a,high offset _LCDMappingTab
 530  000E  1300     E  	adc a,rc
 530  000F  0084        	mov sbp,a
 528  0010              #line 528 "c:\users\longshuangmin\desktop\worke_space\g-501\g-501\LcdScan.c"
 528  0010  1E00     R  	snz _LCD_BitSetOut_2[2]
 528  0011  2800     R  	jmp _L3
 530  0012              #line 530 "c:\users\longshuangmin\desktop\worke_space\g-501\g-501\LcdScan.c"
 530  0012              	fcall _Crom2Prom
 530  0019  0080     E  	mov rd,a
 530  001A              	fcall _Crom2PromNext
 530  0021  0080     E  	mov re,a
 530  0022  0700     E  	mov a,rd
 530  0023  0083        	mov mp,a
 530  0024  0700     E  	mov a,re
 530  0025  0084        	mov sbp,a
 530  0026              	fcall _Crom2Prom
 530  002D  0080     E  	mov rf,a
 530  002E              	fcall _Crom2PromNext
 530  0035  0080     E  	mov rg,a
 530  0036  0F00     R  	mov a,low (offset _LCDMappingTab+2)
 530  0037  0300     E  	add a,rb
 530  0038  0083        	mov mp,a
 530  0039  0F00     R  	mov a,high (offset _LCDMappingTab+2)
 530  003A  1300     E  	adc a,rc
 530  003B  0084        	mov sbp,a
 530  003C              	fcall _Crom2Prom
 530  0043  0080     E  	mov rb,a
 530  0044              	fcall _Crom2PromNext
 530  004B  0080     E  	mov rc,a
 530  004C  0700     E  	mov a,rg
 530  004D  0580     E  	orm a,rc
 530  004E  0700     E  	mov a,rf
 530  004F  0580     E  	orm a,rb
 530  0050  0700     E  	mov a,rd
 530  0051  0083        	mov mp,a
 530  0052  0700     E  	mov a,re
 530  0053  0084        	mov sbp,a
 530  0054  0700     E  	mov a,rb
 530  0055  0082        	mov ir,a
 530  0056  1483        	inc mp
 530  0057  0700     E  	mov a,rc
 530  0058  0082        	mov ir,a
 532  0059              #line 532 "c:\users\longshuangmin\desktop\worke_space\g-501\g-501\LcdScan.c"
 532  0059  0700     R  	mov a,_LCD_BitSetOut_2[0]
 532  005A  0080     E  	mov rd,a
 532  005B  0700     R  	mov a,_LCD_BitSetOut_2[1]
 532  005C  0080     E  	mov re,a
 532  005D  0F03        	mov a,3
 532  005E              _LI2:
 532  005E  340A        	clr c
 532  005F  1A80     E  	rlc rd
 532  0060  1A80     E  	rlc re
 532  0061  1785        	sdz acc
 532  0062  2800     R  	jmp _LI2
 532  0063  0F00     R  	mov a,low (offset _LCDMappingTab+7)
 532  0064  0300     E  	add a,rd
 532  0065  0083        	mov mp,a
 532  0066  0F00     R  	mov a,high (offset _LCDMappingTab+7)
 532  0067  1300     E  	adc a,re
文件：LcdScan.c    编译器版本 HGASM 0202 页次4

 532  0068  0084        	mov sbp,a
 532  0069              	fcall _Crom2Prom
 532  0070  0080     E  	mov rb,a
 532  0071  0F00        	mov a,low offset _M_LCD_RAM
 532  0072  0300     E  	add a,rb
 532  0073  0080     E  	mov rf,a
 532  0074  0F04        	mov a,high offset _M_LCD_RAM
 532  0075  1F00     E  	clr rg
 532  0076  1380     E  	adcm a,rg
 532  0077  0700     E  	mov a,rf
 532  0078  0080     E  	mov rb,a
 532  0079  0700     E  	mov a,rg
 532  007A  0080     E  	mov rc,a
 532  007B  0700     E  	mov a,rf
 532  007C  0083        	mov mp,a
 532  007D  0700     E  	mov a,rg
 532  007E  0084        	mov sbp,a
 532  007F              	fcall _Crom2Prom
 532  0086  0080     E  	mov rf,a
 532  0087  0F00     R  	mov a,low (offset _LCDMappingTab+6)
 532  0088  0300     E  	add a,rd
 532  0089  0083        	mov mp,a
 532  008A  0F00     R  	mov a,high (offset _LCDMappingTab+6)
 532  008B  1300     E  	adc a,re
 532  008C  0084        	mov sbp,a
 532  008D              	fcall _Crom2Prom
 532  0094  0080     E  	mov ra,a
 532  0095  0700     E  	mov a,rf
 532  0096  0580     E  	orm a,ra
 532  0097  2800     R  	jmp _L5
 532  0098              _L3:
 536  0098              #line 536 "c:\users\longshuangmin\desktop\worke_space\g-501\g-501\LcdScan.c"
 536  0098              	fcall _Crom2Prom
 536  009F  0080     E  	mov rf,a
 536  00A0              	fcall _Crom2PromNext
 536  00A7  0080     E  	mov rg,a
 536  00A8  0F00     R  	mov a,low (offset _LCDMappingTab+2)
 536  00A9  0300     E  	add a,rb
 536  00AA  0083        	mov mp,a
 536  00AB  0F00     R  	mov a,high (offset _LCDMappingTab+2)
 536  00AC  1300     E  	adc a,rc
 536  00AD  0084        	mov sbp,a
 536  00AE              	fcall _Crom2Prom
 536  00B5  0080     E  	mov rd,a
 536  00B6              	fcall _Crom2PromNext
 536  00BD  0080     E  	mov re,a
 536  00BE  0180     E  	cpl rd
 536  00BF  0180     E  	cpl re
 536  00C0  0700     E  	mov a,rf
 536  00C1  0083        	mov mp,a
 536  00C2  0700     E  	mov a,rg
 536  00C3  0084        	mov sbp,a
 536  00C4              	fcall _Crom2Prom
 536  00CB  0080     E  	mov rb,a
 536  00CC              	fcall _Crom2PromNext
 536  00D3  0080     E  	mov rc,a
 536  00D4  0700     E  	mov a,rd  
 536  00D5  0680     E  	andm a,rb  
 536  00D6  0700     E  	mov a,re  
 536  00D7  0680     E  	andm a,rc
文件：LcdScan.c    编译器版本 HGASM 0202 页次5

 536  00D8  0700     E  	mov a,rf
 536  00D9  0083        	mov mp,a
 536  00DA  0700     E  	mov a,rg
 536  00DB  0084        	mov sbp,a
 536  00DC  0700     E  	mov a,rb
 536  00DD  0082        	mov ir,a
 536  00DE  1483        	inc mp
 536  00DF  0700     E  	mov a,rc
 536  00E0  0082        	mov ir,a
 537  00E1              #line 537 "c:\users\longshuangmin\desktop\worke_space\g-501\g-501\LcdScan.c"
 537  00E1  0700     R  	mov a,_LCD_BitSetOut_2[0]
 537  00E2  0080     E  	mov rd,a
 537  00E3  0700     R  	mov a,_LCD_BitSetOut_2[1]
 537  00E4  0080     E  	mov re,a
 537  00E5  0F03        	mov a,3
 537  00E6              _LI3:
 537  00E6  340A        	clr c
 537  00E7  1A80     E  	rlc rd
 537  00E8  1A80     E  	rlc re
 537  00E9  1785        	sdz acc
 537  00EA  2800     R  	jmp _LI3
 537  00EB  0F00     R  	mov a,low (offset _LCDMappingTab+7)
 537  00EC  0300     E  	add a,rd
 537  00ED  0083        	mov mp,a
 537  00EE  0F00     R  	mov a,high (offset _LCDMappingTab+7)
 537  00EF  1300     E  	adc a,re
 537  00F0  0084        	mov sbp,a
 537  00F1              	fcall _Crom2Prom
 537  00F8  0080     E  	mov rb,a
 537  00F9  0F00        	mov a,low offset _M_LCD_RAM
 537  00FA  0300     E  	add a,rb
 537  00FB  0080     E  	mov rf,a
 537  00FC  0F04        	mov a,high offset _M_LCD_RAM
 537  00FD  1F00     E  	clr rg
 537  00FE  1380     E  	adcm a,rg
 537  00FF  0700     E  	mov a,rf
 537  0100  0080     E  	mov rb,a
 537  0101  0700     E  	mov a,rg
 537  0102  0080     E  	mov rc,a
 537  0103  0700     E  	mov a,rf
 537  0104  0083        	mov mp,a
 537  0105  0700     E  	mov a,rg
 537  0106  0084        	mov sbp,a
 537  0107              	fcall _Crom2Prom
 537  010E  0080     E  	mov rf,a
 537  010F  0F00     R  	mov a,low (offset _LCDMappingTab+6)
 537  0110  0300     E  	add a,rd
 537  0111  0083        	mov mp,a
 537  0112  0F00     R  	mov a,high (offset _LCDMappingTab+6)
 537  0113  1300     E  	adc a,re
 537  0114  0084        	mov sbp,a
 537  0115              	fcall _Crom2Prom
 537  011C  0080     E  	mov ra,a
 537  011D  0100     E  	cpla ra
 537  011E  0080     E  	mov ra,a
 537  011F  0700     E  	mov a,rf
 537  0120  0680     E  	andm a,ra
 537  0121              _L5:
 537  0121  0700     E  	mov a,rb
 537  0122  0083        	mov mp,a
文件：LcdScan.c    编译器版本 HGASM 0202 页次6

 537  0123  0700     E  	mov a,rc
 537  0124  0084        	mov sbp,a
 537  0125  0700     E  	mov a,ra
 537  0126  0082        	mov ir,a
 537  0127  0003        	ret
 537  0128              _LCD_BitSetOut endp
 537  0128              #line 537 "c:\users\longshuangmin\desktop\worke_space\g-501\g-501\LcdScan.c"
 537  0128              #pragma debug scope 1 1
 537  0128              public _LCD_Clear_Buff
 537  0128              #pragma debug scope 4 1
 670  0128              #line 670 "c:\users\longshuangmin\desktop\worke_space\g-501\g-501\LcdScan.c"
 670  0000              _LCD_Clear_Buff .section 'code'
 670  0000              _LCD_Clear_Buff proc
 670  0000  00              local _LCD_Clear_Buff_2 db 1 dup(?)	; 0,1
 670  0000  0080     R  	mov _LCD_Clear_Buff_2[0],a
 670  0001              #pragma debug variable 8 4 _LCD_Clear_Buff_2+0 "OnOff"
 674  0001              #line 674 "c:\users\longshuangmin\desktop\worke_space\g-501\g-501\LcdScan.c"
 674  0001  1F00     E  	clr rb
 674  0002  1F00     E  	clr rc
 674  0003  2800     R  	jmp _L8
 674  0004              _L9:
 674  0004              #line 674 "c:\users\longshuangmin\desktop\worke_space\g-501\g-501\LcdScan.c"
 674  0004  0F00        	mov a,0
 674  0005  0200     R  	sub a,_LCD_Clear_Buff_2[0]
 674  0006  0080     E  	mov ra,a
 674  0007  0F00     R  	mov a,low (offset _lcd-1)
 674  0008  0300     E  	add a,rb
 674  0009  0083        	mov mp,a
 674  000A  0F00     R  	mov a,high (offset _lcd-1)
 674  000B  1300     E  	adc a,rc
 674  000C  0084        	mov sbp,a
 674  000D  0700     E  	mov a,ra
 674  000E  0082        	mov ir,a
 674  000F              _L8:
 674  000F  1480     E  	inc rb
 674  0010  3D0A        	sz z
 674  0011  1480     E  	inc rc
 674  0012  0700     E  	mov a,rb
 674  0013  0C25        	xor a,37
 674  0014  0500     E  	or a,rc
 674  0015  390A        	snz z
 674  0016  2800     R  	jmp _L9
 674  0017  0003        	ret
 674  0018              _LCD_Clear_Buff endp
 674  0018              #line 674 "c:\users\longshuangmin\desktop\worke_space\g-501\g-501\LcdScan.c"
 674  0018              #pragma debug scope 1 1
 674  0018              public _Show_BigString
 674  0018              #pragma debug scope 5 1
 700  0018              #line 700 "c:\users\longshuangmin\desktop\worke_space\g-501\g-501\LcdScan.c"
 700  0000              _Show_BigString .section 'code'
 700  0000              _Show_BigString proc
 700  0000              public _Show_BigString_2
 700  0000  0002[           local _Show_BigString_2 db 2 dup(?)	; 2,0
            00
            ]
 700  0002              #pragma debug pointer 42 7 5
 700  0002              #pragma debug pointer 42 7 5
 700  0002              #pragma debug variable 42 5 _Show_BigString_2+0 "str"
 701  0002              #line 701 "c:\users\longshuangmin\desktop\worke_space\g-501\g-501\LcdScan.c"
 701  0000  0700     R  	mov a,_Show_BigString_2[0]
文件：LcdScan.c    编译器版本 HGASM 0202 页次7

 701  0001  0080     E  	mov rb,a
 701  0002  0700     R  	mov a,_Show_BigString_2[1]
 701  0003  0080     E  	mov rc,a
 701  0004  0700     E  	mov a,rb
 701  0005  0083        	mov mp,a
 701  0006  0700     E  	mov a,rc
 701  0007  0084        	mov sbp,a
 701  0008              	fcall _Crom2Prom
 701  000F  0080     E  	mov rd,a
 701  0010  1F00     E  	clr re
 701  0011  340A        	clr c
 701  0012  1A80     E  	rlc rd
 701  0013  1A80     E  	rlc re
 701  0014  0F00     R  	mov a,low offset _charTab
 701  0015  0300     E  	add a,rd
 701  0016  0083        	mov mp,a
 701  0017  0F00     R  	mov a,high offset _charTab
 701  0018  1300     E  	adc a,re
 701  0019  0084        	mov sbp,a
 701  001A              	fcall _Crom2Prom
 701  0021  0080     R  	mov _lcd[16],a
 701  0022              	fcall _Crom2PromNext
 701  0029  0080     R  	mov _lcd[17],a
 702  002A              #line 702 "c:\users\longshuangmin\desktop\worke_space\g-501\g-501\LcdScan.c"
 702  002A  0F01        	mov a,1
 702  002B  0300     E  	add a,rb
 702  002C  0083        	mov mp,a
 702  002D  0F00        	mov a,0
 702  002E  1300     E  	adc a,rc
 702  002F  0084        	mov sbp,a
 702  0030              	fcall _Crom2Prom
 702  0037  0080     E  	mov rd,a
 702  0038  1F00     E  	clr re
 702  0039  340A        	clr c
 702  003A  1A80     E  	rlc rd
 702  003B  1A80     E  	rlc re
 702  003C  0F00     R  	mov a,low offset _charTab
 702  003D  0300     E  	add a,rd
 702  003E  0083        	mov mp,a
 702  003F  0F00     R  	mov a,high offset _charTab
 702  0040  1300     E  	adc a,re
 702  0041  0084        	mov sbp,a
 702  0042              	fcall _Crom2Prom
 702  0049  0080     R  	mov _lcd[18],a
 702  004A              	fcall _Crom2PromNext
 702  0051  0080     R  	mov _lcd[19],a
 703  0052              #line 703 "c:\users\longshuangmin\desktop\worke_space\g-501\g-501\LcdScan.c"
 703  0052  0F02        	mov a,2
 703  0053  0300     E  	add a,rb
 703  0054  0083        	mov mp,a
 703  0055  0F00        	mov a,0
 703  0056  1300     E  	adc a,rc
 703  0057  0084        	mov sbp,a
 703  0058              	fcall _Crom2Prom
 703  005F  0080     E  	mov rb,a
 703  0060  1F00     E  	clr rc
 703  0061  340A        	clr c
 703  0062  1A80     E  	rlc rb
 703  0063  1A80     E  	rlc rc
 703  0064  0F00     R  	mov a,low offset _charTab
文件：LcdScan.c    编译器版本 HGASM 0202 页次8

 703  0065  0300     E  	add a,rb
 703  0066  0083        	mov mp,a
 703  0067  0F00     R  	mov a,high offset _charTab
 703  0068  1300     E  	adc a,rc
 703  0069  0084        	mov sbp,a
 703  006A              	fcall _Crom2Prom
 703  0071  0080     R  	mov _lcd[20],a
 703  0072              	fcall _Crom2PromNext
 703  0079  0080     R  	mov _lcd[21],a
 703  007A  0003        	ret
 703  007B              _Show_BigString endp
 703  007B              #line 703 "c:\users\longshuangmin\desktop\worke_space\g-501\g-501\LcdScan.c"
 703  007B              #pragma debug scope 1 1
 703  007B              public _Clr_BigString
 703  007B              #pragma debug scope 6 1
 708  007B              #line 708 "c:\users\longshuangmin\desktop\worke_space\g-501\g-501\LcdScan.c"
 708  0000              _Clr_BigString .section 'code'
 708  0000              _Clr_BigString proc
 709  0000              #line 709 "c:\users\longshuangmin\desktop\worke_space\g-501\g-501\LcdScan.c"
 709  0000  1F00     R  	clr _lcd[16]
 709  0001  1F00     R  	clr _lcd[17]
 710  0002              #line 710 "c:\users\longshuangmin\desktop\worke_space\g-501\g-501\LcdScan.c"
 710  0002  1F00     R  	clr _lcd[18]
 710  0003  1F00     R  	clr _lcd[19]
 711  0004              #line 711 "c:\users\longshuangmin\desktop\worke_space\g-501\g-501\LcdScan.c"
 711  0004  1F00     R  	clr _lcd[20]
 711  0005  1F00     R  	clr _lcd[21]
 711  0006  0003        	ret
 711  0007              _Clr_BigString endp
 711  0007              #line 711 "c:\users\longshuangmin\desktop\worke_space\g-501\g-501\LcdScan.c"
 711  0007              #pragma debug scope 1 1
 711  0007              public _Show_MonthDayString
 711  0007              #pragma debug scope 7 1
 718  0007              #line 718 "c:\users\longshuangmin\desktop\worke_space\g-501\g-501\LcdScan.c"
 718  0000              _Show_MonthDayString .section 'code'
 718  0000              _Show_MonthDayString proc
 718  0000              public _Show_MonthDayString_2
 718  0000  0002[           local _Show_MonthDayString_2 db 2 dup(?)	; 2,0
            00
            ]
 718  0002              #pragma debug pointer 43 7 7
 718  0002              #pragma debug pointer 43 7 7
 718  0002              #pragma debug variable 43 7 _Show_MonthDayString_2+0 "str"
 719  0002              #line 719 "c:\users\longshuangmin\desktop\worke_space\g-501\g-501\LcdScan.c"
 719  0000  0700     R  	mov a,_Show_MonthDayString_2[0]
 719  0001  0080     E  	mov rb,a
 719  0002  0700     R  	mov a,_Show_MonthDayString_2[1]
 719  0003  0080     E  	mov rc,a
 719  0004  0700     E  	mov a,rb
 719  0005  0083        	mov mp,a
 719  0006  0700     E  	mov a,rc
 719  0007  0084        	mov sbp,a
 719  0008              	fcall _Crom2Prom
 719  000F  0080     E  	mov rd,a
 719  0010  1F00     E  	clr re
 719  0011  340A        	clr c
 719  0012  1A80     E  	rlc rd
 719  0013  1A80     E  	rlc re
 719  0014  0F00     R  	mov a,low offset _charTab
 719  0015  0300     E  	add a,rd
文件：LcdScan.c    编译器版本 HGASM 0202 页次9

 719  0016  0083        	mov mp,a
 719  0017  0F00     R  	mov a,high offset _charTab
 719  0018  1300     E  	adc a,re
 719  0019  0084        	mov sbp,a
 719  001A              	fcall _Crom2Prom
 719  0021  0080     R  	mov _lcd[0],a
 719  0022              	fcall _Crom2PromNext
 719  0029  0080     R  	mov _lcd[1],a
 720  002A              #line 720 "c:\users\longshuangmin\desktop\worke_space\g-501\g-501\LcdScan.c"
 720  002A  0F01        	mov a,1
 720  002B  0300     E  	add a,rb
 720  002C  0083        	mov mp,a
 720  002D  0F00        	mov a,0
 720  002E  1300     E  	adc a,rc
 720  002F  0084        	mov sbp,a
 720  0030              	fcall _Crom2Prom
 720  0037  0080     E  	mov rd,a
 720  0038  1F00     E  	clr re
 720  0039  340A        	clr c
 720  003A  1A80     E  	rlc rd
 720  003B  1A80     E  	rlc re
 720  003C  0F00     R  	mov a,low offset _charTab
 720  003D  0300     E  	add a,rd
 720  003E  0083        	mov mp,a
 720  003F  0F00     R  	mov a,high offset _charTab
 720  0040  1300     E  	adc a,re
 720  0041  0084        	mov sbp,a
 720  0042              	fcall _Crom2Prom
 720  0049  0080     R  	mov _lcd[2],a
 720  004A              	fcall _Crom2PromNext
 720  0051  0080     R  	mov _lcd[3],a
 721  0052              #line 721 "c:\users\longshuangmin\desktop\worke_space\g-501\g-501\LcdScan.c"
 721  0052  0F02        	mov a,2
 721  0053  0300     E  	add a,rb
 721  0054  0083        	mov mp,a
 721  0055  0F00        	mov a,0
 721  0056  1300     E  	adc a,rc
 721  0057  0084        	mov sbp,a
 721  0058              	fcall _Crom2Prom
 721  005F  0080     E  	mov rd,a
 721  0060  1F00     E  	clr re
 721  0061  340A        	clr c
 721  0062  1A80     E  	rlc rd
 721  0063  1A80     E  	rlc re
 721  0064  0F00     R  	mov a,low offset _charTab
 721  0065  0300     E  	add a,rd
 721  0066  0083        	mov mp,a
 721  0067  0F00     R  	mov a,high offset _charTab
 721  0068  1300     E  	adc a,re
 721  0069  0084        	mov sbp,a
 721  006A              	fcall _Crom2Prom
 721  0071  0080     R  	mov _lcd[4],a
 721  0072              	fcall _Crom2PromNext
 721  0079  0080     R  	mov _lcd[5],a
 722  007A              #line 722 "c:\users\longshuangmin\desktop\worke_space\g-501\g-501\LcdScan.c"
 722  007A  0F03        	mov a,3
 722  007B  0300     E  	add a,rb
 722  007C  0083        	mov mp,a
 722  007D  0F00        	mov a,0
 722  007E  1300     E  	adc a,rc
文件：LcdScan.c    编译器版本 HGASM 0202 页次10

 722  007F  0084        	mov sbp,a
 722  0080              	fcall _Crom2Prom
 722  0087  0080     E  	mov rb,a
 722  0088  1F00     E  	clr rc
 722  0089  340A        	clr c
 722  008A  1A80     E  	rlc rb
 722  008B  1A80     E  	rlc rc
 722  008C  0F00     R  	mov a,low offset _charTab
 722  008D  0300     E  	add a,rb
 722  008E  0083        	mov mp,a
 722  008F  0F00     R  	mov a,high offset _charTab
 722  0090  1300     E  	adc a,rc
 722  0091  0084        	mov sbp,a
 722  0092              	fcall _Crom2Prom
 722  0099  0080     R  	mov _lcd[6],a
 722  009A              	fcall _Crom2PromNext
 722  00A1  0080     R  	mov _lcd[7],a
 722  00A2  0003        	ret
 722  00A3              _Show_MonthDayString endp
 722  00A3              #line 722 "c:\users\longshuangmin\desktop\worke_space\g-501\g-501\LcdScan.c"
 722  00A3              #pragma debug scope 1 1
 722  00A3              public _Clr_MonthDayString
 722  00A3              #pragma debug scope 8 1
 727  00A3              #line 727 "c:\users\longshuangmin\desktop\worke_space\g-501\g-501\LcdScan.c"
 727  0000              _Clr_MonthDayString .section 'code'
 727  0000              _Clr_MonthDayString proc
 728  0000              #line 728 "c:\users\longshuangmin\desktop\worke_space\g-501\g-501\LcdScan.c"
 728  0000  1F00     R  	clr _lcd[8]
 728  0001  1F00     R  	clr _lcd[9]
 729  0002              #line 729 "c:\users\longshuangmin\desktop\worke_space\g-501\g-501\LcdScan.c"
 729  0002  1F00     R  	clr _lcd[10]
 729  0003  1F00     R  	clr _lcd[11]
 730  0004              #line 730 "c:\users\longshuangmin\desktop\worke_space\g-501\g-501\LcdScan.c"
 730  0004  1F00     R  	clr _lcd[12]
 730  0005  1F00     R  	clr _lcd[13]
 731  0006              #line 731 "c:\users\longshuangmin\desktop\worke_space\g-501\g-501\LcdScan.c"
 731  0006  1F00     R  	clr _lcd[14]
 731  0007  1F00     R  	clr _lcd[15]
 731  0008  0003        	ret
 731  0009              _Clr_MonthDayString endp
 731  0009              #line 731 "c:\users\longshuangmin\desktop\worke_space\g-501\g-501\LcdScan.c"
 731  0009              #pragma debug scope 1 1
 731  0009              public _Clr_MonthString
 731  0009              #pragma debug scope 9 1
 736  0009              #line 736 "c:\users\longshuangmin\desktop\worke_space\g-501\g-501\LcdScan.c"
 736  0000              _Clr_MonthString .section 'code'
 736  0000              _Clr_MonthString proc
 737  0000              #line 737 "c:\users\longshuangmin\desktop\worke_space\g-501\g-501\LcdScan.c"
 737  0000  1F00     R  	clr _lcd[8]
 737  0001  1F00     R  	clr _lcd[9]
 738  0002              #line 738 "c:\users\longshuangmin\desktop\worke_space\g-501\g-501\LcdScan.c"
 738  0002  1F00     R  	clr _lcd[10]
 738  0003  1F00     R  	clr _lcd[11]
 738  0004  0003        	ret
 738  0005              _Clr_MonthString endp
 738  0005              #line 738 "c:\users\longshuangmin\desktop\worke_space\g-501\g-501\LcdScan.c"
 738  0005              #pragma debug scope 1 1
 738  0005              public _Clr_DayString
 738  0005              #pragma debug scope 10 1
 743  0005              #line 743 "c:\users\longshuangmin\desktop\worke_space\g-501\g-501\LcdScan.c"
文件：LcdScan.c    编译器版本 HGASM 0202 页次11

 743  0000              _Clr_DayString .section 'code'
 743  0000              _Clr_DayString proc
 744  0000              #line 744 "c:\users\longshuangmin\desktop\worke_space\g-501\g-501\LcdScan.c"
 744  0000  1F00     R  	clr _lcd[12]
 744  0001  1F00     R  	clr _lcd[13]
 745  0002              #line 745 "c:\users\longshuangmin\desktop\worke_space\g-501\g-501\LcdScan.c"
 745  0002  1F00     R  	clr _lcd[14]
 745  0003  1F00     R  	clr _lcd[15]
 745  0004  0003        	ret
 745  0005              _Clr_DayString endp
 745  0005              #line 745 "c:\users\longshuangmin\desktop\worke_space\g-501\g-501\LcdScan.c"
 745  0005              #pragma debug scope 1 1
 745  0005              public _Show_HourMinString
 745  0005              #pragma debug scope 11 1
 750  0005              #line 750 "c:\users\longshuangmin\desktop\worke_space\g-501\g-501\LcdScan.c"
 750  0000              _Show_HourMinString .section 'code'
 750  0000              _Show_HourMinString proc
 750  0000              public _Show_HourMinString_2
 750  0000  0002[           local _Show_HourMinString_2 db 2 dup(?)	; 2,0
            00
            ]
 750  0002              #pragma debug pointer 44 7 11
 750  0002              #pragma debug pointer 44 7 11
 750  0002              #pragma debug variable 44 11 _Show_HourMinString_2+0 "str"
 751  0002              #line 751 "c:\users\longshuangmin\desktop\worke_space\g-501\g-501\LcdScan.c"
 751  0000  0700     R  	mov a,_Show_HourMinString_2[0]
 751  0001  0080     E  	mov rb,a
 751  0002  0700     R  	mov a,_Show_HourMinString_2[1]
 751  0003  0080     E  	mov rc,a
 751  0004  0700     E  	mov a,rb
 751  0005  0083        	mov mp,a
 751  0006  0700     E  	mov a,rc
 751  0007  0084        	mov sbp,a
 751  0008              	fcall _Crom2Prom
 751  000F  0080     E  	mov rd,a
 751  0010  1F00     E  	clr re
 751  0011  340A        	clr c
 751  0012  1A80     E  	rlc rd
 751  0013  1A80     E  	rlc re
 751  0014  0F00     R  	mov a,low offset _charTab
 751  0015  0300     E  	add a,rd
 751  0016  0083        	mov mp,a
 751  0017  0F00     R  	mov a,high offset _charTab
 751  0018  1300     E  	adc a,re
 751  0019  0084        	mov sbp,a
 751  001A              	fcall _Crom2Prom
 751  0021  0080     R  	mov _lcd[8],a
 751  0022              	fcall _Crom2PromNext
 751  0029  0080     R  	mov _lcd[9],a
 752  002A              #line 752 "c:\users\longshuangmin\desktop\worke_space\g-501\g-501\LcdScan.c"
 752  002A  0F01        	mov a,1
 752  002B  0300     E  	add a,rb
 752  002C  0083        	mov mp,a
 752  002D  0F00        	mov a,0
 752  002E  1300     E  	adc a,rc
 752  002F  0084        	mov sbp,a
 752  0030              	fcall _Crom2Prom
 752  0037  0080     E  	mov rd,a
 752  0038  1F00     E  	clr re
 752  0039  340A        	clr c
文件：LcdScan.c    编译器版本 HGASM 0202 页次12

 752  003A  1A80     E  	rlc rd
 752  003B  1A80     E  	rlc re
 752  003C  0F00     R  	mov a,low offset _charTab
 752  003D  0300     E  	add a,rd
 752  003E  0083        	mov mp,a
 752  003F  0F00     R  	mov a,high offset _charTab
 752  0040  1300     E  	adc a,re
 752  0041  0084        	mov sbp,a
 752  0042              	fcall _Crom2Prom
 752  0049  0080     R  	mov _lcd[10],a
 752  004A              	fcall _Crom2PromNext
 752  0051  0080     R  	mov _lcd[11],a
 753  0052              #line 753 "c:\users\longshuangmin\desktop\worke_space\g-501\g-501\LcdScan.c"
 753  0052  0F02        	mov a,2
 753  0053  0300     E  	add a,rb
 753  0054  0083        	mov mp,a
 753  0055  0F00        	mov a,0
 753  0056  1300     E  	adc a,rc
 753  0057  0084        	mov sbp,a
 753  0058              	fcall _Crom2Prom
 753  005F  0080     E  	mov rd,a
 753  0060  1F00     E  	clr re
 753  0061  340A        	clr c
 753  0062  1A80     E  	rlc rd
 753  0063  1A80     E  	rlc re
 753  0064  0F00     R  	mov a,low offset _charTab
 753  0065  0300     E  	add a,rd
 753  0066  0083        	mov mp,a
 753  0067  0F00     R  	mov a,high offset _charTab
 753  0068  1300     E  	adc a,re
 753  0069  0084        	mov sbp,a
 753  006A              	fcall _Crom2Prom
 753  0071  0080     R  	mov _lcd[12],a
 753  0072              	fcall _Crom2PromNext
 753  0079  0080     R  	mov _lcd[13],a
 754  007A              #line 754 "c:\users\longshuangmin\desktop\worke_space\g-501\g-501\LcdScan.c"
 754  007A  0F03        	mov a,3
 754  007B  0300     E  	add a,rb
 754  007C  0083        	mov mp,a
 754  007D  0F00        	mov a,0
 754  007E  1300     E  	adc a,rc
 754  007F  0084        	mov sbp,a
 754  0080              	fcall _Crom2Prom
 754  0087  0080     E  	mov rb,a
 754  0088  1F00     E  	clr rc
 754  0089  340A        	clr c
 754  008A  1A80     E  	rlc rb
 754  008B  1A80     E  	rlc rc
 754  008C  0F00     R  	mov a,low offset _charTab
 754  008D  0300     E  	add a,rb
 754  008E  0083        	mov mp,a
 754  008F  0F00     R  	mov a,high offset _charTab
 754  0090  1300     E  	adc a,rc
 754  0091  0084        	mov sbp,a
 754  0092              	fcall _Crom2Prom
 754  0099  0080     R  	mov _lcd[14],a
 754  009A              	fcall _Crom2PromNext
 754  00A1  0080     R  	mov _lcd[15],a
 754  00A2  0003        	ret
 754  00A3              _Show_HourMinString endp
文件：LcdScan.c    编译器版本 HGASM 0202 页次13

 754  00A3              #line 754 "c:\users\longshuangmin\desktop\worke_space\g-501\g-501\LcdScan.c"
 754  00A3              #pragma debug scope 1 1
 754  00A3              public _Clr_HourMinString
 754  00A3              #pragma debug scope 12 1
 759  00A3              #line 759 "c:\users\longshuangmin\desktop\worke_space\g-501\g-501\LcdScan.c"
 759  0000              _Clr_HourMinString .section 'code'
 759  0000              _Clr_HourMinString proc
 760  0000              #line 760 "c:\users\longshuangmin\desktop\worke_space\g-501\g-501\LcdScan.c"
 760  0000  1F00     R  	clr _lcd[8]
 760  0001  1F00     R  	clr _lcd[9]
 761  0002              #line 761 "c:\users\longshuangmin\desktop\worke_space\g-501\g-501\LcdScan.c"
 761  0002  1F00     R  	clr _lcd[10]
 761  0003  1F00     R  	clr _lcd[11]
 762  0004              #line 762 "c:\users\longshuangmin\desktop\worke_space\g-501\g-501\LcdScan.c"
 762  0004  1F00     R  	clr _lcd[12]
 762  0005  1F00     R  	clr _lcd[13]
 763  0006              #line 763 "c:\users\longshuangmin\desktop\worke_space\g-501\g-501\LcdScan.c"
 763  0006  1F00     R  	clr _lcd[14]
 763  0007  1F00     R  	clr _lcd[15]
 763  0008  0003        	ret
 763  0009              _Clr_HourMinString endp
 763  0009              #line 763 "c:\users\longshuangmin\desktop\worke_space\g-501\g-501\LcdScan.c"
 763  0009              #pragma debug scope 1 1
 763  0009              public _Clr_HourString
 763  0009              #pragma debug scope 13 1
 768  0009              #line 768 "c:\users\longshuangmin\desktop\worke_space\g-501\g-501\LcdScan.c"
 768  0000              _Clr_HourString .section 'code'
 768  0000              _Clr_HourString proc
 769  0000              #line 769 "c:\users\longshuangmin\desktop\worke_space\g-501\g-501\LcdScan.c"
 769  0000  1F00     R  	clr _lcd[8]
 769  0001  1F00     R  	clr _lcd[9]
 770  0002              #line 770 "c:\users\longshuangmin\desktop\worke_space\g-501\g-501\LcdScan.c"
 770  0002  1F00     R  	clr _lcd[10]
 770  0003  1F00     R  	clr _lcd[11]
 770  0004  0003        	ret
 770  0005              _Clr_HourString endp
 770  0005              #line 770 "c:\users\longshuangmin\desktop\worke_space\g-501\g-501\LcdScan.c"
 770  0005              #pragma debug scope 1 1
 770  0005              public _Clr_MinString
 770  0005              #pragma debug scope 14 1
 775  0005              #line 775 "c:\users\longshuangmin\desktop\worke_space\g-501\g-501\LcdScan.c"
 775  0000              _Clr_MinString .section 'code'
 775  0000              _Clr_MinString proc
 776  0000              #line 776 "c:\users\longshuangmin\desktop\worke_space\g-501\g-501\LcdScan.c"
 776  0000  1F00     R  	clr _lcd[12]
 776  0001  1F00     R  	clr _lcd[13]
 777  0002              #line 777 "c:\users\longshuangmin\desktop\worke_space\g-501\g-501\LcdScan.c"
 777  0002  1F00     R  	clr _lcd[14]
 777  0003  1F00     R  	clr _lcd[15]
 777  0004  0003        	ret
 777  0005              _Clr_MinString endp
 777  0005              #line 777 "c:\users\longshuangmin\desktop\worke_space\g-501\g-501\LcdScan.c"
 777  0005              #pragma debug scope 1 1
 777  0005              public _ShowDec_BigNum
 777  0005              #pragma debug scope 15 1
 782  0005              #line 782 "c:\users\longshuangmin\desktop\worke_space\g-501\g-501\LcdScan.c"
 782  0000              _ShowDec_BigNum .section 'code'
 782  0000              _ShowDec_BigNum proc
 782  0000              public _ShowDec_BigNum_2
 782  0000  0002[           local _ShowDec_BigNum_2 db 2 dup(?)	; 2,0
文件：LcdScan.c    编译器版本 HGASM 0202 页次14

            00
            ]
 782  0002              #pragma debug variable 12 15 _ShowDec_BigNum_2+0 "data"
 783  0002              #line 783 "c:\users\longshuangmin\desktop\worke_space\g-501\g-501\LcdScan.c"
 783  0000  1B20        	rrca intc
 783  0001  3420        	clr intc.0
 783  0002  0700     R  	mov a,_ShowDec_BigNum_2[0]
 783  0003  00D9        	mov mduwr0,a
 783  0004  0700     R  	mov a,_ShowDec_BigNum_2[1]
 783  0005  00DA        	mov mduwr1,a
 783  0006  0FE8        	mov a,232
 783  0007  00DD        	mov mduwr4,a
 783  0008  0F03        	mov a,3
 783  0009  00DE        	mov mduwr5,a
 783  000A  0F06        	mov a,6
 783  000B              _LI4:
 783  000B  1785        	sdz acc
 783  000C  2800     R  	jmp _LI4
 783  000D  075D        	mov a,mduwr4
 783  000E  0080     E  	mov rb,a
 783  000F  075E        	mov a,mduwr5
 783  0010  0080     E  	mov rc,a
 783  0011  3C0A        	sz c
 783  0012  3020        	set intc.0
 784  0013              #line 784 "c:\users\longshuangmin\desktop\worke_space\g-501\g-501\LcdScan.c"
 784  0013  0F63        	mov a,99
 784  0014  0200     E  	sub a,rb
 784  0015  0F00        	mov a,0
 784  0016  1200     E  	sbc a,rc
 784  0017  3C0A        	sz c
 784  0018  2800     R  	jmp _L26
 784  0019              #line 784 "c:\users\longshuangmin\desktop\worke_space\g-501\g-501\LcdScan.c"
 784  0019  1B20        	rrca intc
 784  001A  3420        	clr intc.0
 784  001B  0700     E  	mov a,rb
 784  001C  00D9        	mov mduwr0,a
 784  001D  0700     E  	mov a,rc
 784  001E  00DA        	mov mduwr1,a
 784  001F  0F64        	mov a,100
 784  0020  00DD        	mov mduwr4,a
 784  0021  0F00        	mov a,0
 784  0022  00DE        	mov mduwr5,a
 784  0023  0F06        	mov a,6
 784  0024              _LI5:
 784  0024  1785        	sdz acc
 784  0025  2800     R  	jmp _LI5
 784  0026  0759        	mov a,mduwr0
 784  0027  0080     E  	mov rd,a
 784  0028  075A        	mov a,mduwr1
 784  0029  0080     E  	mov re,a
 784  002A  3C0A        	sz c
 784  002B  3020        	set intc.0
 784  002C  340A        	clr c
 784  002D  1A80     E  	rlc rd
 784  002E  1A80     E  	rlc re
 784  002F  0F00     R  	mov a,low offset _HexTab
 784  0030  0300     E  	add a,rd
 784  0031  0083        	mov mp,a
 784  0032  0F00     R  	mov a,high offset _HexTab
 784  0033  1300     E  	adc a,re
文件：LcdScan.c    编译器版本 HGASM 0202 页次15

 784  0034  0084        	mov sbp,a
 784  0035              	fcall _Crom2Prom
 784  003C  0080     E  	mov rd,a
 784  003D              	fcall _Crom2PromNext
 784  0044  0080     E  	mov re,a
 784  0045  2800     R  	jmp _L21
 784  0046              _L26:
 784  0046  1F00     E  	clr rd
 784  0047  1F00     E  	clr re
 784  0048              _L21:
 784  0048  0700     E  	mov a,rd
 784  0049  0080     R  	mov _lcd[16],a
 784  004A  0700     E  	mov a,re
 784  004B  0080     R  	mov _lcd[17],a
 785  004C              #line 785 "c:\users\longshuangmin\desktop\worke_space\g-501\g-501\LcdScan.c"
 785  004C  1B20        	rrca intc
 785  004D  3420        	clr intc.0
 785  004E  0700     E  	mov a,rb
 785  004F  00D9        	mov mduwr0,a
 785  0050  0700     E  	mov a,rc
 785  0051  00DA        	mov mduwr1,a
 785  0052  0F64        	mov a,100
 785  0053  00DD        	mov mduwr4,a
 785  0054  0F00        	mov a,0
 785  0055  00DE        	mov mduwr5,a
 785  0056  0F06        	mov a,6
 785  0057              _LI6:
 785  0057  1785        	sdz acc
 785  0058  2800     R  	jmp _LI6
 785  0059  075D        	mov a,mduwr4
 785  005A  0080     E  	mov rb,a
 785  005B  075E        	mov a,mduwr5
 785  005C  0080     E  	mov rc,a
 785  005D  3C0A        	sz c
 785  005E  3020        	set intc.0
 786  005F              #line 786 "c:\users\longshuangmin\desktop\worke_space\g-501\g-501\LcdScan.c"
 786  005F  3800     R  	snz _lcd[28].0
 786  0060  2800     R  	jmp _L22
 787  0061              #line 787 "c:\users\longshuangmin\desktop\worke_space\g-501\g-501\LcdScan.c"
 787  0061  1B20        	rrca intc
 787  0062  3420        	clr intc.0
 787  0063  0700     E  	mov a,rb
 787  0064  00D9        	mov mduwr0,a
 787  0065  0700     E  	mov a,rc
 787  0066  00DA        	mov mduwr1,a
 787  0067  0F0A        	mov a,10
 787  0068  00DD        	mov mduwr4,a
 787  0069  0F00        	mov a,0
 787  006A  00DE        	mov mduwr5,a
 787  006B  0F06        	mov a,6
 787  006C              _LI7:
 787  006C  1785        	sdz acc
 787  006D  2800     R  	jmp _LI7
 787  006E  0759        	mov a,mduwr0
 787  006F  0080     E  	mov rd,a
 787  0070  075A        	mov a,mduwr1
 787  0071  0080     E  	mov re,a
 787  0072  3C0A        	sz c
 787  0073  3020        	set intc.0
 787  0074  340A        	clr c
文件：LcdScan.c    编译器版本 HGASM 0202 页次16

 787  0075  1A80     E  	rlc rd
 787  0076  1A80     E  	rlc re
 787  0077  0F00     R  	mov a,low offset _HexTab
 787  0078  0300     E  	add a,rd
 787  0079  0083        	mov mp,a
 787  007A  0F00     R  	mov a,high offset _HexTab
 787  007B  1300     E  	adc a,re
 787  007C  0084        	mov sbp,a
 787  007D              	fcall _Crom2Prom
 787  0084  0080     R  	mov _lcd[18],a
 787  0085              	fcall _Crom2PromNext
 787  008C  0080     R  	mov _lcd[19],a
 787  008D  2800     R  	jmp _L23
 787  008E              _L22:
 789  008E              #line 789 "c:\users\longshuangmin\desktop\worke_space\g-501\g-501\LcdScan.c"
 789  008E  0700     E  	mov a,rd
 789  008F  0500     E  	or a,re
 789  0090  390A        	snz z
 789  0091  2800     R  	jmp _L24
 789  0092  0F09        	mov a,9
 789  0093  0200     E  	sub a,rb
 789  0094  0F00        	mov a,0
 789  0095  1200     E  	sbc a,rc
 789  0096  3C0A        	sz c
 789  0097  2800     R  	jmp _L27
 789  0098              _L24:
 789  0098  1B20        	rrca intc
 789  0099  3420        	clr intc.0
 789  009A  0700     E  	mov a,rb
 789  009B  00D9        	mov mduwr0,a
 789  009C  0700     E  	mov a,rc
 789  009D  00DA        	mov mduwr1,a
 789  009E  0F0A        	mov a,10
 789  009F  00DD        	mov mduwr4,a
 789  00A0  0F00        	mov a,0
 789  00A1  00DE        	mov mduwr5,a
 789  00A2  0F06        	mov a,6
 789  00A3              _LI8:
 789  00A3  1785        	sdz acc
 789  00A4  2800     R  	jmp _LI8
 789  00A5  0759        	mov a,mduwr0
 789  00A6  0080     E  	mov rd,a
 789  00A7  075A        	mov a,mduwr1
 789  00A8  0080     E  	mov re,a
 789  00A9  3C0A        	sz c
 789  00AA  3020        	set intc.0
 789  00AB  340A        	clr c
 789  00AC  1A80     E  	rlc rd
 789  00AD  1A80     E  	rlc re
 789  00AE  0F00     R  	mov a,low offset _HexTab
 789  00AF  0300     E  	add a,rd
 789  00B0  0083        	mov mp,a
 789  00B1  0F00     R  	mov a,high offset _HexTab
 789  00B2  1300     E  	adc a,re
 789  00B3  0084        	mov sbp,a
 789  00B4              	fcall _Crom2Prom
 789  00BB  0080     E  	mov rd,a
 789  00BC              	fcall _Crom2PromNext
 789  00C3  0080     E  	mov re,a
 789  00C4  2800     R  	jmp _L25
文件：LcdScan.c    编译器版本 HGASM 0202 页次17

 789  00C5              _L27:
 789  00C5  1F00     E  	clr rd
 789  00C6  1F00     E  	clr re
 789  00C7              _L25:
 789  00C7  0700     E  	mov a,rd
 789  00C8  0080     R  	mov _lcd[18],a
 789  00C9  0700     E  	mov a,re
 789  00CA  0080     R  	mov _lcd[19],a
 789  00CB              _L23:
 790  00CB              #line 790 "c:\users\longshuangmin\desktop\worke_space\g-501\g-501\LcdScan.c"
 790  00CB  1B20        	rrca intc
 790  00CC  3420        	clr intc.0
 790  00CD  0700     E  	mov a,rb
 790  00CE  00D9        	mov mduwr0,a
 790  00CF  0700     E  	mov a,rc
 790  00D0  00DA        	mov mduwr1,a
 790  00D1  0F0A        	mov a,10
 790  00D2  00DD        	mov mduwr4,a
 790  00D3  0F00        	mov a,0
 790  00D4  00DE        	mov mduwr5,a
 790  00D5  0F06        	mov a,6
 790  00D6              _LI9:
 790  00D6  1785        	sdz acc
 790  00D7  2800     R  	jmp _LI9
 790  00D8  075D        	mov a,mduwr4
 790  00D9  0080     E  	mov rb,a
 790  00DA  075E        	mov a,mduwr5
 790  00DB  0080     E  	mov rc,a
 790  00DC  3C0A        	sz c
 790  00DD  3020        	set intc.0
 791  00DE              #line 791 "c:\users\longshuangmin\desktop\worke_space\g-501\g-501\LcdScan.c"
 791  00DE  340A        	clr c
 791  00DF  1A80     E  	rlc rb
 791  00E0  1A80     E  	rlc rc
 791  00E1  0F00     R  	mov a,low offset _HexTab
 791  00E2  0300     E  	add a,rb
 791  00E3  0083        	mov mp,a
 791  00E4  0F00     R  	mov a,high offset _HexTab
 791  00E5  1300     E  	adc a,rc
 791  00E6  0084        	mov sbp,a
 791  00E7              	fcall _Crom2Prom
 791  00EE  0080     R  	mov _lcd[20],a
 791  00EF              	fcall _Crom2PromNext
 791  00F6  0080     R  	mov _lcd[21],a
 791  00F7  0003        	ret
 791  00F8              _ShowDec_BigNum endp
 791  00F8              #line 791 "c:\users\longshuangmin\desktop\worke_space\g-501\g-501\LcdScan.c"
 791  00F8              #pragma debug scope 1 1
 791  00F8              public _ShowDec_BigNum_for_mem
 791  00F8              #pragma debug scope 16 1
 796  00F8              #line 796 "c:\users\longshuangmin\desktop\worke_space\g-501\g-501\LcdScan.c"
 796  0000              _ShowDec_BigNum_for_mem .section 'code'
 796  0000              _ShowDec_BigNum_for_mem proc
 796  0000              public _ShowDec_BigNum_for_mem_2
 796  0000  0002[           local _ShowDec_BigNum_for_mem_2 db 2 dup(?)	; 2,0
            00
            ]
 796  0002              #pragma debug variable 12 16 _ShowDec_BigNum_for_mem_2+0 "data"
 799  0002              #line 799 "c:\users\longshuangmin\desktop\worke_space\g-501\g-501\LcdScan.c"
 799  0000  0700     R  	mov a,_ShowDec_BigNum_for_mem_2[0]
文件：LcdScan.c    编译器版本 HGASM 0202 页次18

 799  0001  0080     E  	mov rb,a
 799  0002  0700     R  	mov a,_ShowDec_BigNum_for_mem_2[1]
 799  0003  0080     E  	mov rc,a
 799  0004  1B20        	rrca intc
 799  0005  3420        	clr intc.0
 799  0006  0700     E  	mov a,rb
 799  0007  00D9        	mov mduwr0,a
 799  0008  0700     E  	mov a,rc
 799  0009  00DA        	mov mduwr1,a
 799  000A  0F0A        	mov a,10
 799  000B  00DD        	mov mduwr4,a
 799  000C  0F00        	mov a,0
 799  000D  00DE        	mov mduwr5,a
 799  000E  0F06        	mov a,6
 799  000F              _LI10:
 799  000F  1785        	sdz acc
 799  0010  2800     R  	jmp _LI10
 799  0011  0759        	mov a,mduwr0
 799  0012  0080     E  	mov rf,a
 799  0013  075A        	mov a,mduwr1
 799  0014  0080     E  	mov rg,a
 799  0015  3C0A        	sz c
 799  0016  3020        	set intc.0
 799  0017  1B20        	rrca intc
 799  0018  3420        	clr intc.0
 799  0019  0700     E  	mov a,rf
 799  001A  00D9        	mov mduwr0,a
 799  001B  0700     E  	mov a,rg
 799  001C  00DA        	mov mduwr1,a
 799  001D  0F0A        	mov a,10
 799  001E  00DD        	mov mduwr4,a
 799  001F  0F00        	mov a,0
 799  0020  00DE        	mov mduwr5,a
 799  0021  0F06        	mov a,6
 799  0022              _LI11:
 799  0022  1785        	sdz acc
 799  0023  2800     R  	jmp _LI11
 799  0024  075D        	mov a,mduwr4
 799  0025  0080     E  	mov rf,a
 799  0026  075E        	mov a,mduwr5
 799  0027  0080     E  	mov rg,a
 799  0028  3C0A        	sz c
 799  0029  3020        	set intc.0
 800  002A              #line 800 "c:\users\longshuangmin\desktop\worke_space\g-501\g-501\LcdScan.c"
 800  002A  1B20        	rrca intc
 800  002B  3420        	clr intc.0
 800  002C  0700     E  	mov a,rb
 800  002D  00D9        	mov mduwr0,a
 800  002E  0700     E  	mov a,rc
 800  002F  00DA        	mov mduwr1,a
 800  0030  0F0A        	mov a,10
 800  0031  00DD        	mov mduwr4,a
 800  0032  0F00        	mov a,0
 800  0033  00DE        	mov mduwr5,a
 800  0034  0F06        	mov a,6
 800  0035              _LI12:
 800  0035  1785        	sdz acc
 800  0036  2800     R  	jmp _LI12
 800  0037  075D        	mov a,mduwr4
 800  0038  0080     E  	mov rd,a
文件：LcdScan.c    编译器版本 HGASM 0202 页次19

 800  0039  075E        	mov a,mduwr5
 800  003A  0080     E  	mov re,a
 800  003B  3C0A        	sz c
 800  003C  3020        	set intc.0
 802  003D              #line 802 "c:\users\longshuangmin\desktop\worke_space\g-501\g-501\LcdScan.c"
 802  003D  0F63        	mov a,99
 802  003E  0200     E  	sub a,rb
 802  003F  0F00        	mov a,0
 802  0040  1200     E  	sbc a,rc
 802  0041  3C0A        	sz c
 802  0042  2800     R  	jmp _L29
 798  0043              #line 798 "c:\users\longshuangmin\desktop\worke_space\g-501\g-501\LcdScan.c"
 798  0043  1B20        	rrca intc
 798  0044  3420        	clr intc.0
 798  0045  0700     E  	mov a,rb
 798  0046  00D9        	mov mduwr0,a
 798  0047  0700     E  	mov a,rc
 798  0048  00DA        	mov mduwr1,a
 798  0049  0F64        	mov a,100
 798  004A  00DD        	mov mduwr4,a
 798  004B  0F00        	mov a,0
 798  004C  00DE        	mov mduwr5,a
 798  004D  0F06        	mov a,6
 798  004E              _LI13:
 798  004E  1785        	sdz acc
 798  004F  2800     R  	jmp _LI13
 798  0050  0759        	mov a,mduwr0
 798  0051  0080     E  	mov rb,a
 798  0052  075A        	mov a,mduwr1
 798  0053  0080     E  	mov rc,a
 798  0054  3C0A        	sz c
 798  0055  3020        	set intc.0
 798  0056  1B20        	rrca intc
 798  0057  3420        	clr intc.0
 798  0058  0700     E  	mov a,rb
 798  0059  00D9        	mov mduwr0,a
 798  005A  0700     E  	mov a,rc
 798  005B  00DA        	mov mduwr1,a
 798  005C  0F0A        	mov a,10
 798  005D  00DD        	mov mduwr4,a
 798  005E  0F00        	mov a,0
 798  005F  00DE        	mov mduwr5,a
 798  0060  0F06        	mov a,6
 798  0061              _LI14:
 798  0061  1785        	sdz acc
 798  0062  2800     R  	jmp _LI14
 798  0063  075D        	mov a,mduwr4
 798  0064  0080     E  	mov rb,a
 798  0065  075E        	mov a,mduwr5
 798  0066  0080     E  	mov rc,a
 798  0067  3C0A        	sz c
 798  0068  3020        	set intc.0
 803  0069              #line 803 "c:\users\longshuangmin\desktop\worke_space\g-501\g-501\LcdScan.c"
 803  0069  340A        	clr c
 803  006A  1A80     E  	rlc rb
 803  006B  1A80     E  	rlc rc
 803  006C  0F00     R  	mov a,low offset _HexTab
 803  006D  0300     E  	add a,rb
 803  006E  0083        	mov mp,a
 803  006F  0F00     R  	mov a,high offset _HexTab
文件：LcdScan.c    编译器版本 HGASM 0202 页次20

 803  0070  1300     E  	adc a,rc
 803  0071  0084        	mov sbp,a
 803  0072              	fcall _Crom2Prom
 803  0079  0080     R  	mov _lcd[16],a
 803  007A              	fcall _Crom2PromNext
 803  0081  0080     R  	mov _lcd[17],a
 803  0082              _L29:
 805  0082              #line 805 "c:\users\longshuangmin\desktop\worke_space\g-501\g-501\LcdScan.c"
 805  0082  340A        	clr c
 805  0083  1A80     E  	rlc rf
 805  0084  1A80     E  	rlc rg
 805  0085  0F00     R  	mov a,low offset _HexTab
 805  0086  0300     E  	add a,rf
 805  0087  0083        	mov mp,a
 805  0088  0F00     R  	mov a,high offset _HexTab
 805  0089  1300     E  	adc a,rg
 805  008A  0084        	mov sbp,a
 805  008B              	fcall _Crom2Prom
 805  0092  0080     R  	mov _lcd[18],a
 805  0093              	fcall _Crom2PromNext
 805  009A  0080     R  	mov _lcd[19],a
 806  009B              #line 806 "c:\users\longshuangmin\desktop\worke_space\g-501\g-501\LcdScan.c"
 806  009B  340A        	clr c
 806  009C  1A80     E  	rlc rd
 806  009D  1A80     E  	rlc re
 806  009E  0F00     R  	mov a,low offset _HexTab
 806  009F  0300     E  	add a,rd
 806  00A0  0083        	mov mp,a
 806  00A1  0F00     R  	mov a,high offset _HexTab
 806  00A2  1300     E  	adc a,re
 806  00A3  0084        	mov sbp,a
 806  00A4              	fcall _Crom2Prom
 806  00AB  0080     R  	mov _lcd[20],a
 806  00AC              	fcall _Crom2PromNext
 806  00B3  0080     R  	mov _lcd[21],a
 806  00B4  0003        	ret
 806  00B5              _ShowDec_BigNum_for_mem endp
 806  00B5              #line 806 "c:\users\longshuangmin\desktop\worke_space\g-501\g-501\LcdScan.c"
 806  00B5              #pragma debug scope 1 1
 806  00B5              public _ShowDec_MonthDay
 806  00B5              #pragma debug scope 17 1
 834  00B5              #line 834 "c:\users\longshuangmin\desktop\worke_space\g-501\g-501\LcdScan.c"
 834  0000              _ShowDec_MonthDay .section 'code'
 834  0000              _ShowDec_MonthDay proc
 834  0000              public _ShowDec_MonthDay_2
 834  0000  0002[           local _ShowDec_MonthDay_2 db 2 dup(?)	; 2,0
            00
            ]
 834  0002              #pragma debug variable 12 17 _ShowDec_MonthDay_2+0 "data"
 834  0000  0700     R  	mov a,_ShowDec_MonthDay_2[0]
 834  0001  0080     E  	mov rb,a
 834  0002  0700     R  	mov a,_ShowDec_MonthDay_2[1]
 834  0003  0080     E  	mov rc,a
 835  0004              #line 835 "c:\users\longshuangmin\desktop\worke_space\g-501\g-501\LcdScan.c"
 835  0004  0FE7        	mov a,231
 835  0005  0200     E  	sub a,rb
 835  0006  0F03        	mov a,3
 835  0007  1200     E  	sbc a,rc
 835  0008  3C0A        	sz c
 835  0009  2800     R  	jmp _L31
文件：LcdScan.c    编译器版本 HGASM 0202 页次21

 836  000A              #line 836 "c:\users\longshuangmin\desktop\worke_space\g-501\g-501\LcdScan.c"
 836  000A  1B20        	rrca intc
 836  000B  3420        	clr intc.0
 836  000C  0700     E  	mov a,rb
 836  000D  00D9        	mov mduwr0,a
 836  000E  0700     E  	mov a,rc
 836  000F  00DA        	mov mduwr1,a
 836  0010  0FE8        	mov a,232
 836  0011  00DD        	mov mduwr4,a
 836  0012  0F03        	mov a,3
 836  0013  00DE        	mov mduwr5,a
 836  0014  0F06        	mov a,6
 836  0015              _LI15:
 836  0015  1785        	sdz acc
 836  0016  2800     R  	jmp _LI15
 836  0017  0759        	mov a,mduwr0
 836  0018  0080     E  	mov rd,a
 836  0019  075A        	mov a,mduwr1
 836  001A  0080     E  	mov re,a
 836  001B  3C0A        	sz c
 836  001C  3020        	set intc.0
 836  001D  340A        	clr c
 836  001E  1A80     E  	rlc rd
 836  001F  1A80     E  	rlc re
 836  0020  0F00     R  	mov a,low offset _HexTab
 836  0021  0300     E  	add a,rd
 836  0022  0083        	mov mp,a
 836  0023  0F00     R  	mov a,high offset _HexTab
 836  0024  1300     E  	adc a,re
 836  0025  0084        	mov sbp,a
 836  0026              	fcall _Crom2Prom
 836  002D  0080     R  	mov _lcd[0],a
 836  002E              	fcall _Crom2PromNext
 836  0035  0080     R  	mov _lcd[1],a
 836  0036  2800     R  	jmp _L32
 836  0037              _L31:
 838  0037              #line 838 "c:\users\longshuangmin\desktop\worke_space\g-501\g-501\LcdScan.c"
 838  0037  1F00     R  	clr _lcd[0]
 838  0038  1F00     R  	clr _lcd[1]
 838  0039              _L32:
 840  0039              #line 840 "c:\users\longshuangmin\desktop\worke_space\g-501\g-501\LcdScan.c"
 840  0039  1B20        	rrca intc
 840  003A  3420        	clr intc.0
 840  003B  0700     E  	mov a,rb
 840  003C  00D9        	mov mduwr0,a
 840  003D  0700     E  	mov a,rc
 840  003E  00DA        	mov mduwr1,a
 840  003F  0FE8        	mov a,232
 840  0040  00DD        	mov mduwr4,a
 840  0041  0F03        	mov a,3
 840  0042  00DE        	mov mduwr5,a
 840  0043  0F06        	mov a,6
 840  0044              _LI16:
 840  0044  1785        	sdz acc
 840  0045  2800     R  	jmp _LI16
 840  0046  075D        	mov a,mduwr4
 840  0047  0080     E  	mov rb,a
 840  0048  075E        	mov a,mduwr5
 840  0049  0080     E  	mov rc,a
 840  004A  3C0A        	sz c
文件：LcdScan.c    编译器版本 HGASM 0202 页次22

 840  004B  3020        	set intc.0
 841  004C              #line 841 "c:\users\longshuangmin\desktop\worke_space\g-501\g-501\LcdScan.c"
 841  004C  1B20        	rrca intc
 841  004D  3420        	clr intc.0
 841  004E  0700     E  	mov a,rb
 841  004F  00D9        	mov mduwr0,a
 841  0050  0700     E  	mov a,rc
 841  0051  00DA        	mov mduwr1,a
 841  0052  0F64        	mov a,100
 841  0053  00DD        	mov mduwr4,a
 841  0054  0F00        	mov a,0
 841  0055  00DE        	mov mduwr5,a
 841  0056  0F06        	mov a,6
 841  0057              _LI17:
 841  0057  1785        	sdz acc
 841  0058  2800     R  	jmp _LI17
 841  0059  0759        	mov a,mduwr0
 841  005A  0080     E  	mov rd,a
 841  005B  075A        	mov a,mduwr1
 841  005C  0080     E  	mov re,a
 841  005D  3C0A        	sz c
 841  005E  3020        	set intc.0
 841  005F  340A        	clr c
 841  0060  1A80     E  	rlc rd
 841  0061  1A80     E  	rlc re
 841  0062  0F00     R  	mov a,low offset _HexTab
 841  0063  0300     E  	add a,rd
 841  0064  0083        	mov mp,a
 841  0065  0F00     R  	mov a,high offset _HexTab
 841  0066  1300     E  	adc a,re
 841  0067  0084        	mov sbp,a
 841  0068              	fcall _Crom2Prom
 841  006F  0080     R  	mov _lcd[2],a
 841  0070              	fcall _Crom2PromNext
 841  0077  0080     R  	mov _lcd[3],a
 842  0078              #line 842 "c:\users\longshuangmin\desktop\worke_space\g-501\g-501\LcdScan.c"
 842  0078  1B20        	rrca intc
 842  0079  3420        	clr intc.0
 842  007A  0700     E  	mov a,rb
 842  007B  00D9        	mov mduwr0,a
 842  007C  0700     E  	mov a,rc
 842  007D  00DA        	mov mduwr1,a
 842  007E  0F64        	mov a,100
 842  007F  00DD        	mov mduwr4,a
 842  0080  0F00        	mov a,0
 842  0081  00DE        	mov mduwr5,a
 842  0082  0F06        	mov a,6
 842  0083              _LI18:
 842  0083  1785        	sdz acc
 842  0084  2800     R  	jmp _LI18
 842  0085  075D        	mov a,mduwr4
 842  0086  0080     E  	mov rb,a
 842  0087  075E        	mov a,mduwr5
 842  0088  0080     E  	mov rc,a
 842  0089  3C0A        	sz c
 842  008A  3020        	set intc.0
 843  008B              #line 843 "c:\users\longshuangmin\desktop\worke_space\g-501\g-501\LcdScan.c"
 843  008B  1B20        	rrca intc
 843  008C  3420        	clr intc.0
 843  008D  0700     E  	mov a,rb
文件：LcdScan.c    编译器版本 HGASM 0202 页次23

 843  008E  00D9        	mov mduwr0,a
 843  008F  0700     E  	mov a,rc
 843  0090  00DA        	mov mduwr1,a
 843  0091  0F0A        	mov a,10
 843  0092  00DD        	mov mduwr4,a
 843  0093  0F00        	mov a,0
 843  0094  00DE        	mov mduwr5,a
 843  0095  0F06        	mov a,6
 843  0096              _LI19:
 843  0096  1785        	sdz acc
 843  0097  2800     R  	jmp _LI19
 843  0098  0759        	mov a,mduwr0
 843  0099  0080     E  	mov rd,a
 843  009A  075A        	mov a,mduwr1
 843  009B  0080     E  	mov re,a
 843  009C  3C0A        	sz c
 843  009D  3020        	set intc.0
 843  009E  340A        	clr c
 843  009F  1A80     E  	rlc rd
 843  00A0  1A80     E  	rlc re
 843  00A1  0F00     R  	mov a,low offset _HexTab
 843  00A2  0300     E  	add a,rd
 843  00A3  0083        	mov mp,a
 843  00A4  0F00     R  	mov a,high offset _HexTab
 843  00A5  1300     E  	adc a,re
 843  00A6  0084        	mov sbp,a
 843  00A7              	fcall _Crom2Prom
 843  00AE  0080     R  	mov _lcd[4],a
 843  00AF              	fcall _Crom2PromNext
 843  00B6  0080     R  	mov _lcd[5],a
 844  00B7              #line 844 "c:\users\longshuangmin\desktop\worke_space\g-501\g-501\LcdScan.c"
 844  00B7  1B20        	rrca intc
 844  00B8  3420        	clr intc.0
 844  00B9  0700     E  	mov a,rb
 844  00BA  00D9        	mov mduwr0,a
 844  00BB  0700     E  	mov a,rc
 844  00BC  00DA        	mov mduwr1,a
 844  00BD  0F0A        	mov a,10
 844  00BE  00DD        	mov mduwr4,a
 844  00BF  0F00        	mov a,0
 844  00C0  00DE        	mov mduwr5,a
 844  00C1  0F06        	mov a,6
 844  00C2              _LI20:
 844  00C2  1785        	sdz acc
 844  00C3  2800     R  	jmp _LI20
 844  00C4  075D        	mov a,mduwr4
 844  00C5  0080     E  	mov rb,a
 844  00C6  075E        	mov a,mduwr5
 844  00C7  0080     E  	mov rc,a
 844  00C8  3C0A        	sz c
 844  00C9  3020        	set intc.0
 845  00CA              #line 845 "c:\users\longshuangmin\desktop\worke_space\g-501\g-501\LcdScan.c"
 845  00CA  340A        	clr c
 845  00CB  1A80     E  	rlc rb
 845  00CC  1A80     E  	rlc rc
 845  00CD  0F00     R  	mov a,low offset _HexTab
 845  00CE  0300     E  	add a,rb
 845  00CF  0083        	mov mp,a
 845  00D0  0F00     R  	mov a,high offset _HexTab
 845  00D1  1300     E  	adc a,rc
文件：LcdScan.c    编译器版本 HGASM 0202 页次24

 845  00D2  0084        	mov sbp,a
 845  00D3              	fcall _Crom2Prom
 845  00DA  0080     R  	mov _lcd[6],a
 845  00DB              	fcall _Crom2PromNext
 845  00E2  0080     R  	mov _lcd[7],a
 845  00E3  0003        	ret
 845  00E4              _ShowDec_MonthDay endp
 845  00E4              #line 845 "c:\users\longshuangmin\desktop\worke_space\g-501\g-501\LcdScan.c"
 845  00E4              #pragma debug scope 1 1
 845  00E4              public _ShowDec_HourMin
 845  00E4              #pragma debug scope 18 1
 849  00E4              #line 849 "c:\users\longshuangmin\desktop\worke_space\g-501\g-501\LcdScan.c"
 849  0000              _ShowDec_HourMin .section 'code'
 849  0000              _ShowDec_HourMin proc
 849  0000              public _ShowDec_HourMin_2
 849  0000  0002[           local _ShowDec_HourMin_2 db 2 dup(?)	; 2,0
            00
            ]
 849  0002              #pragma debug variable 12 18 _ShowDec_HourMin_2+0 "data"
 849  0000  0700     R  	mov a,_ShowDec_HourMin_2[0]
 849  0001  0080     E  	mov rb,a
 849  0002  0700     R  	mov a,_ShowDec_HourMin_2[1]
 849  0003  0080     E  	mov rc,a
 850  0004              #line 850 "c:\users\longshuangmin\desktop\worke_space\g-501\g-501\LcdScan.c"
 850  0004  0FE7        	mov a,231
 850  0005  0200     E  	sub a,rb
 850  0006  0F03        	mov a,3
 850  0007  1200     E  	sbc a,rc
 850  0008  3C0A        	sz c
 850  0009  2800     R  	jmp _L34
 851  000A              #line 851 "c:\users\longshuangmin\desktop\worke_space\g-501\g-501\LcdScan.c"
 851  000A  1B20        	rrca intc
 851  000B  3420        	clr intc.0
 851  000C  0700     E  	mov a,rb
 851  000D  00D9        	mov mduwr0,a
 851  000E  0700     E  	mov a,rc
 851  000F  00DA        	mov mduwr1,a
 851  0010  0FE8        	mov a,232
 851  0011  00DD        	mov mduwr4,a
 851  0012  0F03        	mov a,3
 851  0013  00DE        	mov mduwr5,a
 851  0014  0F06        	mov a,6
 851  0015              _LI21:
 851  0015  1785        	sdz acc
 851  0016  2800     R  	jmp _LI21
 851  0017  0759        	mov a,mduwr0
 851  0018  0080     E  	mov rd,a
 851  0019  075A        	mov a,mduwr1
 851  001A  0080     E  	mov re,a
 851  001B  3C0A        	sz c
 851  001C  3020        	set intc.0
 851  001D  340A        	clr c
 851  001E  1A80     E  	rlc rd
 851  001F  1A80     E  	rlc re
 851  0020  0F00     R  	mov a,low offset _HexTab
 851  0021  0300     E  	add a,rd
 851  0022  0083        	mov mp,a
 851  0023  0F00     R  	mov a,high offset _HexTab
 851  0024  1300     E  	adc a,re
 851  0025  0084        	mov sbp,a
文件：LcdScan.c    编译器版本 HGASM 0202 页次25

 851  0026              	fcall _Crom2Prom
 851  002D  0080     R  	mov _lcd[8],a
 851  002E              	fcall _Crom2PromNext
 851  0035  0080     R  	mov _lcd[9],a
 851  0036  2800     R  	jmp _L35
 851  0037              _L34:
 853  0037              #line 853 "c:\users\longshuangmin\desktop\worke_space\g-501\g-501\LcdScan.c"
 853  0037  1F00     R  	clr _lcd[8]
 853  0038  1F00     R  	clr _lcd[9]
 853  0039              _L35:
 855  0039              #line 855 "c:\users\longshuangmin\desktop\worke_space\g-501\g-501\LcdScan.c"
 855  0039  1B20        	rrca intc
 855  003A  3420        	clr intc.0
 855  003B  0700     E  	mov a,rb
 855  003C  00D9        	mov mduwr0,a
 855  003D  0700     E  	mov a,rc
 855  003E  00DA        	mov mduwr1,a
 855  003F  0FE8        	mov a,232
 855  0040  00DD        	mov mduwr4,a
 855  0041  0F03        	mov a,3
 855  0042  00DE        	mov mduwr5,a
 855  0043  0F06        	mov a,6
 855  0044              _LI22:
 855  0044  1785        	sdz acc
 855  0045  2800     R  	jmp _LI22
 855  0046  075D        	mov a,mduwr4
 855  0047  0080     E  	mov rb,a
 855  0048  075E        	mov a,mduwr5
 855  0049  0080     E  	mov rc,a
 855  004A  3C0A        	sz c
 855  004B  3020        	set intc.0
 856  004C              #line 856 "c:\users\longshuangmin\desktop\worke_space\g-501\g-501\LcdScan.c"
 856  004C  1B20        	rrca intc
 856  004D  3420        	clr intc.0
 856  004E  0700     E  	mov a,rb
 856  004F  00D9        	mov mduwr0,a
 856  0050  0700     E  	mov a,rc
 856  0051  00DA        	mov mduwr1,a
 856  0052  0F64        	mov a,100
 856  0053  00DD        	mov mduwr4,a
 856  0054  0F00        	mov a,0
 856  0055  00DE        	mov mduwr5,a
 856  0056  0F06        	mov a,6
 856  0057              _LI23:
 856  0057  1785        	sdz acc
 856  0058  2800     R  	jmp _LI23
 856  0059  0759        	mov a,mduwr0
 856  005A  0080     E  	mov rd,a
 856  005B  075A        	mov a,mduwr1
 856  005C  0080     E  	mov re,a
 856  005D  3C0A        	sz c
 856  005E  3020        	set intc.0
 856  005F  340A        	clr c
 856  0060  1A80     E  	rlc rd
 856  0061  1A80     E  	rlc re
 856  0062  0F00     R  	mov a,low offset _HexTab
 856  0063  0300     E  	add a,rd
 856  0064  0083        	mov mp,a
 856  0065  0F00     R  	mov a,high offset _HexTab
 856  0066  1300     E  	adc a,re
文件：LcdScan.c    编译器版本 HGASM 0202 页次26

 856  0067  0084        	mov sbp,a
 856  0068              	fcall _Crom2Prom
 856  006F  0080     R  	mov _lcd[10],a
 856  0070              	fcall _Crom2PromNext
 856  0077  0080     R  	mov _lcd[11],a
 857  0078              #line 857 "c:\users\longshuangmin\desktop\worke_space\g-501\g-501\LcdScan.c"
 857  0078  1B20        	rrca intc
 857  0079  3420        	clr intc.0
 857  007A  0700     E  	mov a,rb
 857  007B  00D9        	mov mduwr0,a
 857  007C  0700     E  	mov a,rc
 857  007D  00DA        	mov mduwr1,a
 857  007E  0F64        	mov a,100
 857  007F  00DD        	mov mduwr4,a
 857  0080  0F00        	mov a,0
 857  0081  00DE        	mov mduwr5,a
 857  0082  0F06        	mov a,6
 857  0083              _LI24:
 857  0083  1785        	sdz acc
 857  0084  2800     R  	jmp _LI24
 857  0085  075D        	mov a,mduwr4
 857  0086  0080     E  	mov rb,a
 857  0087  075E        	mov a,mduwr5
 857  0088  0080     E  	mov rc,a
 857  0089  3C0A        	sz c
 857  008A  3020        	set intc.0
 858  008B              #line 858 "c:\users\longshuangmin\desktop\worke_space\g-501\g-501\LcdScan.c"
 858  008B  1B20        	rrca intc
 858  008C  3420        	clr intc.0
 858  008D  0700     E  	mov a,rb
 858  008E  00D9        	mov mduwr0,a
 858  008F  0700     E  	mov a,rc
 858  0090  00DA        	mov mduwr1,a
 858  0091  0F0A        	mov a,10
 858  0092  00DD        	mov mduwr4,a
 858  0093  0F00        	mov a,0
 858  0094  00DE        	mov mduwr5,a
 858  0095  0F06        	mov a,6
 858  0096              _LI25:
 858  0096  1785        	sdz acc
 858  0097  2800     R  	jmp _LI25
 858  0098  0759        	mov a,mduwr0
 858  0099  0080     E  	mov rd,a
 858  009A  075A        	mov a,mduwr1
 858  009B  0080     E  	mov re,a
 858  009C  3C0A        	sz c
 858  009D  3020        	set intc.0
 858  009E  340A        	clr c
 858  009F  1A80     E  	rlc rd
 858  00A0  1A80     E  	rlc re
 858  00A1  0F00     R  	mov a,low offset _HexTab
 858  00A2  0300     E  	add a,rd
 858  00A3  0083        	mov mp,a
 858  00A4  0F00     R  	mov a,high offset _HexTab
 858  00A5  1300     E  	adc a,re
 858  00A6  0084        	mov sbp,a
 858  00A7              	fcall _Crom2Prom
 858  00AE  0080     R  	mov _lcd[12],a
 858  00AF              	fcall _Crom2PromNext
 858  00B6  0080     R  	mov _lcd[13],a
文件：LcdScan.c    编译器版本 HGASM 0202 页次27

 859  00B7              #line 859 "c:\users\longshuangmin\desktop\worke_space\g-501\g-501\LcdScan.c"
 859  00B7  1B20        	rrca intc
 859  00B8  3420        	clr intc.0
 859  00B9  0700     E  	mov a,rb
 859  00BA  00D9        	mov mduwr0,a
 859  00BB  0700     E  	mov a,rc
 859  00BC  00DA        	mov mduwr1,a
 859  00BD  0F0A        	mov a,10
 859  00BE  00DD        	mov mduwr4,a
 859  00BF  0F00        	mov a,0
 859  00C0  00DE        	mov mduwr5,a
 859  00C1  0F06        	mov a,6
 859  00C2              _LI26:
 859  00C2  1785        	sdz acc
 859  00C3  2800     R  	jmp _LI26
 859  00C4  075D        	mov a,mduwr4
 859  00C5  0080     E  	mov rb,a
 859  00C6  075E        	mov a,mduwr5
 859  00C7  0080     E  	mov rc,a
 859  00C8  3C0A        	sz c
 859  00C9  3020        	set intc.0
 860  00CA              #line 860 "c:\users\longshuangmin\desktop\worke_space\g-501\g-501\LcdScan.c"
 860  00CA  340A        	clr c
 860  00CB  1A80     E  	rlc rb
 860  00CC  1A80     E  	rlc rc
 860  00CD  0F00     R  	mov a,low offset _HexTab
 860  00CE  0300     E  	add a,rb
 860  00CF  0083        	mov mp,a
 860  00D0  0F00     R  	mov a,high offset _HexTab
 860  00D1  1300     E  	adc a,rc
 860  00D2  0084        	mov sbp,a
 860  00D3              	fcall _Crom2Prom
 860  00DA  0080     R  	mov _lcd[14],a
 860  00DB              	fcall _Crom2PromNext
 860  00E2  0080     R  	mov _lcd[15],a
 860  00E3  0003        	ret
 860  00E4              _ShowDec_HourMin endp
 860  00E4              #line 860 "c:\users\longshuangmin\desktop\worke_space\g-501\g-501\LcdScan.c"
 860  00E4              #pragma debug scope 1 1
 860  00E4              public _Lcd_Clock_Process
 860  00E4              #pragma debug scope 19 1
 866  00E4              #line 866 "c:\users\longshuangmin\desktop\worke_space\g-501\g-501\LcdScan.c"
 866  0000              _Lcd_Clock_Process .section 'code'
 866  0000              _Lcd_Clock_Process proc
 866  0000              public _Lcd_Clock_Process_2
 866  0000  0002[           local _Lcd_Clock_Process_2 db 2 dup(?)	; 1,1
            00
            ]
 866  0000  0080     E  	mov rb,a
 866  0001  0080     R  	mov _Lcd_Clock_Process_2[1],a
 866  0002              #pragma debug variable 8 19 _Lcd_Clock_Process_2+1 "hour"
 866  0002              #pragma debug variable 8 19 _Lcd_Clock_Process_2+0 "minutes"
 877  0002              #line 877 "c:\users\longshuangmin\desktop\worke_space\g-501\g-501\LcdScan.c"
 877  0002  3400     R  	clr _lcd[24].3
 900  0003              #line 900 "c:\users\longshuangmin\desktop\worke_space\g-501\g-501\LcdScan.c"
 900  0003  0F09        	mov a,9
 900  0004  0200     E  	sub a,rb
 900  0005  3C0A        	sz c
 900  0006  2800     R  	jmp _L37
 901  0007              #line 901 "c:\users\longshuangmin\desktop\worke_space\g-501\g-501\LcdScan.c"
文件：LcdScan.c    编译器版本 HGASM 0202 页次28

 901  0007  1F00     E  	clr _builtin_holtek_udivmodqi4_2[3]
 901  0008  0700     E  	mov a,rb
 901  0009  0080     E  	mov _builtin_holtek_udivmodqi4_2[0],a
 901  000A  0F0A        	mov a,10
 901  000B  0080     E  	mov _builtin_holtek_udivmodqi4_2[1],a
 901  000C              	fcall _builtin_holtek_udivmodqi4
 901  0013  0700     E  	mov a,_builtin_holtek_udivmodqi4_2[0]
 901  0014  0080     E  	mov rd,a
 901  0015  1F00     E  	clr re
 901  0016  340A        	clr c
 901  0017  1A80     E  	rlc rd
 901  0018  1A80     E  	rlc re
 901  0019  0F00     R  	mov a,low offset _HexTab
 901  001A  0300     E  	add a,rd
 901  001B  0083        	mov mp,a
 901  001C  0F00     R  	mov a,high offset _HexTab
 901  001D  1300     E  	adc a,re
 901  001E  0084        	mov sbp,a
 901  001F              	fcall _Crom2Prom
 901  0026  0080     R  	mov _lcd[8],a
 901  0027              	fcall _Crom2PromNext
 901  002E  0080     R  	mov _lcd[9],a
 901  002F  2800     R  	jmp _L38
 901  0030              _L37:
 903  0030              #line 903 "c:\users\longshuangmin\desktop\worke_space\g-501\g-501\LcdScan.c"
 903  0030  1F00     R  	clr _lcd[8]
 903  0031  1F00     R  	clr _lcd[9]
 903  0032              _L38:
 905  0032              #line 905 "c:\users\longshuangmin\desktop\worke_space\g-501\g-501\LcdScan.c"
 905  0032  1F00     E  	clr _builtin_holtek_udivmodqi4_2[3]
 905  0033  0700     E  	mov a,rb
 905  0034  0080     E  	mov _builtin_holtek_udivmodqi4_2[0],a
 905  0035  0F0A        	mov a,10
 905  0036  0080     E  	mov _builtin_holtek_udivmodqi4_2[1],a
 905  0037              	fcall _builtin_holtek_udivmodqi4
 905  003E  0700     E  	mov a,_builtin_holtek_udivmodqi4_2[2]
 905  003F  0080     E  	mov rb,a
 906  0040              #line 906 "c:\users\longshuangmin\desktop\worke_space\g-501\g-501\LcdScan.c"
 906  0040  1F00     E  	clr rc
 906  0041  340A        	clr c
 906  0042  1A80     E  	rlc rb
 906  0043  1A80     E  	rlc rc
 906  0044  0F00     R  	mov a,low offset _HexTab
 906  0045  0300     E  	add a,rb
 906  0046  0083        	mov mp,a
 906  0047  0F00     R  	mov a,high offset _HexTab
 906  0048  1300     E  	adc a,rc
 906  0049  0084        	mov sbp,a
 906  004A              	fcall _Crom2Prom
 906  0051  0080     R  	mov _lcd[10],a
 906  0052              	fcall _Crom2PromNext
 906  0059  0080     R  	mov _lcd[11],a
 908  005A              #line 908 "c:\users\longshuangmin\desktop\worke_space\g-501\g-501\LcdScan.c"
 908  005A  0700     R  	mov a,_Lcd_Clock_Process_2[0]
 908  005B  0080     E  	mov rb,a
 908  005C  1F00     E  	clr _builtin_holtek_udivmodqi4_2[3]
 908  005D  0700     E  	mov a,rb
 908  005E  0080     E  	mov _builtin_holtek_udivmodqi4_2[0],a
 908  005F  0F0A        	mov a,10
 908  0060  0080     E  	mov _builtin_holtek_udivmodqi4_2[1],a
文件：LcdScan.c    编译器版本 HGASM 0202 页次29

 908  0061              	fcall _builtin_holtek_udivmodqi4
 908  0068  0700     E  	mov a,_builtin_holtek_udivmodqi4_2[0]
 908  0069  0080     E  	mov rd,a
 908  006A  1F00     E  	clr re
 908  006B  340A        	clr c
 908  006C  1A80     E  	rlc rd
 908  006D  1A80     E  	rlc re
 908  006E  0F00     R  	mov a,low offset _HexTab
 908  006F  0300     E  	add a,rd
 908  0070  0083        	mov mp,a
 908  0071  0F00     R  	mov a,high offset _HexTab
 908  0072  1300     E  	adc a,re
 908  0073  0084        	mov sbp,a
 908  0074              	fcall _Crom2Prom
 908  007B  0080     R  	mov _lcd[12],a
 908  007C              	fcall _Crom2PromNext
 908  0083  0080     R  	mov _lcd[13],a
 909  0084              #line 909 "c:\users\longshuangmin\desktop\worke_space\g-501\g-501\LcdScan.c"
 909  0084  1F00     E  	clr _builtin_holtek_udivmodqi4_2[3]
 909  0085  0700     E  	mov a,rb
 909  0086  0080     E  	mov _builtin_holtek_udivmodqi4_2[0],a
 909  0087  0F0A        	mov a,10
 909  0088  0080     E  	mov _builtin_holtek_udivmodqi4_2[1],a
 909  0089              	fcall _builtin_holtek_udivmodqi4
 909  0090  0700     E  	mov a,_builtin_holtek_udivmodqi4_2[2]
 909  0091  0080     E  	mov rb,a
 910  0092              #line 910 "c:\users\longshuangmin\desktop\worke_space\g-501\g-501\LcdScan.c"
 910  0092  1F00     E  	clr rc
 910  0093  340A        	clr c
 910  0094  1A80     E  	rlc rb
 910  0095  1A80     E  	rlc rc
 910  0096  0F00     R  	mov a,low offset _HexTab
 910  0097  0300     E  	add a,rb
 910  0098  0083        	mov mp,a
 910  0099  0F00     R  	mov a,high offset _HexTab
 910  009A  1300     E  	adc a,rc
 910  009B  0084        	mov sbp,a
 910  009C              	fcall _Crom2Prom
 910  00A3  0080     R  	mov _lcd[14],a
 910  00A4              	fcall _Crom2PromNext
 910  00AB  0080     R  	mov _lcd[15],a
 910  00AC  0003        	ret
 910  00AD              _Lcd_Clock_Process endp
 910  00AD              #line 910 "c:\users\longshuangmin\desktop\worke_space\g-501\g-501\LcdScan.c"
 910  00AD              #pragma debug scope 1 1
 910  00AD              public _Lcd_Month_Day_Process
 910  00AD              #pragma debug scope 20 1
 916  00AD              #line 916 "c:\users\longshuangmin\desktop\worke_space\g-501\g-501\LcdScan.c"
 916  0000              _Lcd_Month_Day_Process .section 'code'
 916  0000              _Lcd_Month_Day_Process proc
 916  0000              public _Lcd_Month_Day_Process_2
 916  0000  0002[           local _Lcd_Month_Day_Process_2 db 2 dup(?)	; 1,1
            00
            ]
 916  0000  0080     E  	mov ra,a
 916  0001  0080     R  	mov _Lcd_Month_Day_Process_2[1],a
 916  0002              #pragma debug variable 8 20 _Lcd_Month_Day_Process_2+1 "month"
 916  0002              #pragma debug variable 8 20 _Lcd_Month_Day_Process_2+0 "day"
 918  0002              #line 918 "c:\users\longshuangmin\desktop\worke_space\g-501\g-501\LcdScan.c"
 918  0002  3000     R  	set _lcd[24].3
文件：LcdScan.c    编译器版本 HGASM 0202 页次30

 920  0003              #line 920 "c:\users\longshuangmin\desktop\worke_space\g-501\g-501\LcdScan.c"
 920  0003  1580     E  	dec ra
 920  0004  0F0B        	mov a,11
 920  0005  0200     E  	sub a,ra
 920  0006  380A        	snz c
 920  0007  2800     R  	jmp _L40
 921  0008              #line 921 "c:\users\longshuangmin\desktop\worke_space\g-501\g-501\LcdScan.c"
 921  0008  1500     R  	deca _Lcd_Month_Day_Process_2[0]
 921  0009  0080     E  	mov ra,a
 921  000A  0F1E        	mov a,30
 921  000B  0200     E  	sub a,ra
 921  000C  3C0A        	sz c
 921  000D  2800     R  	jmp _L41
 921  000E              _L40:
 923  000E              #line 923 "c:\users\longshuangmin\desktop\worke_space\g-501\g-501\LcdScan.c"
 923  000E              	fcall _Load_RtcTime_Vaule
 923  0015              _L41:
 923  0015  0700     R  	mov a,_Lcd_Month_Day_Process_2[1]
 923  0016  0080     E  	mov rb,a
 925  0017              #line 925 "c:\users\longshuangmin\desktop\worke_space\g-501\g-501\LcdScan.c"
 925  0017  0F09        	mov a,9
 925  0018  0200     E  	sub a,rb
 925  0019  3C0A        	sz c
 925  001A  2800     R  	jmp _L42
 926  001B              #line 926 "c:\users\longshuangmin\desktop\worke_space\g-501\g-501\LcdScan.c"
 926  001B  1F00     E  	clr _builtin_holtek_udivmodqi4_2[3]
 926  001C  0700     E  	mov a,rb
 926  001D  0080     E  	mov _builtin_holtek_udivmodqi4_2[0],a
 926  001E  0F0A        	mov a,10
 926  001F  0080     E  	mov _builtin_holtek_udivmodqi4_2[1],a
 926  0020              	fcall _builtin_holtek_udivmodqi4
 926  0027  0700     E  	mov a,_builtin_holtek_udivmodqi4_2[0]
 926  0028  0080     E  	mov rd,a
 926  0029  1F00     E  	clr re
 926  002A  340A        	clr c
 926  002B  1A80     E  	rlc rd
 926  002C  1A80     E  	rlc re
 926  002D  0F00     R  	mov a,low offset _HexTab
 926  002E  0300     E  	add a,rd
 926  002F  0083        	mov mp,a
 926  0030  0F00     R  	mov a,high offset _HexTab
 926  0031  1300     E  	adc a,re
 926  0032  0084        	mov sbp,a
 926  0033              	fcall _Crom2Prom
 926  003A  0080     R  	mov _lcd[8],a
 926  003B              	fcall _Crom2PromNext
 926  0042  0080     R  	mov _lcd[9],a
 926  0043  2800     R  	jmp _L43
 926  0044              _L42:
 928  0044              #line 928 "c:\users\longshuangmin\desktop\worke_space\g-501\g-501\LcdScan.c"
 928  0044  1F00     R  	clr _lcd[8]
 928  0045  1F00     R  	clr _lcd[9]
 928  0046              _L43:
 930  0046              #line 930 "c:\users\longshuangmin\desktop\worke_space\g-501\g-501\LcdScan.c"
 930  0046  1F00     E  	clr _builtin_holtek_udivmodqi4_2[3]
 930  0047  0700     E  	mov a,rb
 930  0048  0080     E  	mov _builtin_holtek_udivmodqi4_2[0],a
 930  0049  0F0A        	mov a,10
 930  004A  0080     E  	mov _builtin_holtek_udivmodqi4_2[1],a
 930  004B              	fcall _builtin_holtek_udivmodqi4
文件：LcdScan.c    编译器版本 HGASM 0202 页次31

 930  0052  0700     E  	mov a,_builtin_holtek_udivmodqi4_2[2]
 930  0053  0080     E  	mov rb,a
 931  0054              #line 931 "c:\users\longshuangmin\desktop\worke_space\g-501\g-501\LcdScan.c"
 931  0054  1F00     E  	clr rc
 931  0055  340A        	clr c
 931  0056  1A80     E  	rlc rb
 931  0057  1A80     E  	rlc rc
 931  0058  0F00     R  	mov a,low offset _HexTab
 931  0059  0300     E  	add a,rb
 931  005A  0083        	mov mp,a
 931  005B  0F00     R  	mov a,high offset _HexTab
 931  005C  1300     E  	adc a,rc
 931  005D  0084        	mov sbp,a
 931  005E              	fcall _Crom2Prom
 931  0065  0080     R  	mov _lcd[10],a
 931  0066              	fcall _Crom2PromNext
 931  006D  0080     R  	mov _lcd[11],a
 933  006E              #line 933 "c:\users\longshuangmin\desktop\worke_space\g-501\g-501\LcdScan.c"
 933  006E  0700     R  	mov a,_Lcd_Month_Day_Process_2[0]
 933  006F  0080     E  	mov rb,a
 933  0070  1F00     E  	clr _builtin_holtek_udivmodqi4_2[3]
 933  0071  0700     E  	mov a,rb
 933  0072  0080     E  	mov _builtin_holtek_udivmodqi4_2[0],a
 933  0073  0F0A        	mov a,10
 933  0074  0080     E  	mov _builtin_holtek_udivmodqi4_2[1],a
 933  0075              	fcall _builtin_holtek_udivmodqi4
 933  007C  0700     E  	mov a,_builtin_holtek_udivmodqi4_2[0]
 933  007D  0080     E  	mov rd,a
 933  007E  1F00     E  	clr re
 933  007F  340A        	clr c
 933  0080  1A80     E  	rlc rd
 933  0081  1A80     E  	rlc re
 933  0082  0F00     R  	mov a,low offset _HexTab
 933  0083  0300     E  	add a,rd
 933  0084  0083        	mov mp,a
 933  0085  0F00     R  	mov a,high offset _HexTab
 933  0086  1300     E  	adc a,re
 933  0087  0084        	mov sbp,a
 933  0088              	fcall _Crom2Prom
 933  008F  0080     R  	mov _lcd[12],a
 933  0090              	fcall _Crom2PromNext
 933  0097  0080     R  	mov _lcd[13],a
 934  0098              #line 934 "c:\users\longshuangmin\desktop\worke_space\g-501\g-501\LcdScan.c"
 934  0098  1F00     E  	clr _builtin_holtek_udivmodqi4_2[3]
 934  0099  0700     E  	mov a,rb
 934  009A  0080     E  	mov _builtin_holtek_udivmodqi4_2[0],a
 934  009B  0F0A        	mov a,10
 934  009C  0080     E  	mov _builtin_holtek_udivmodqi4_2[1],a
 934  009D              	fcall _builtin_holtek_udivmodqi4
 934  00A4  0700     E  	mov a,_builtin_holtek_udivmodqi4_2[2]
 934  00A5  0080     E  	mov rb,a
 935  00A6              #line 935 "c:\users\longshuangmin\desktop\worke_space\g-501\g-501\LcdScan.c"
 935  00A6  1F00     E  	clr rc
 935  00A7  340A        	clr c
 935  00A8  1A80     E  	rlc rb
 935  00A9  1A80     E  	rlc rc
 935  00AA  0F00     R  	mov a,low offset _HexTab
 935  00AB  0300     E  	add a,rb
 935  00AC  0083        	mov mp,a
 935  00AD  0F00     R  	mov a,high offset _HexTab
文件：LcdScan.c    编译器版本 HGASM 0202 页次32

 935  00AE  1300     E  	adc a,rc
 935  00AF  0084        	mov sbp,a
 935  00B0              	fcall _Crom2Prom
 935  00B7  0080     R  	mov _lcd[14],a
 935  00B8              	fcall _Crom2PromNext
 935  00BF  0080     R  	mov _lcd[15],a
 935  00C0  0003        	ret
 935  00C1              _Lcd_Month_Day_Process endp
 935  00C1              #line 935 "c:\users\longshuangmin\desktop\worke_space\g-501\g-501\LcdScan.c"
 935  00C1              #pragma debug scope 1 1
 935  00C1              public _ShowDec_MeasDownCount
 935  00C1              #pragma debug scope 21 1
 941  00C1              #line 941 "c:\users\longshuangmin\desktop\worke_space\g-501\g-501\LcdScan.c"
 941  0000              _ShowDec_MeasDownCount .section 'code'
 941  0000              _ShowDec_MeasDownCount proc
 941  0000  0006[           local _ShowDec_MeasDownCount_2 db 6 dup(?)	; 0,6
            00
            ]
 941  0000  0080     E  	mov ra,a
 941  0001  0080     R  	mov _ShowDec_MeasDownCount_2[5],a
 941  0002              #pragma debug variable 8 21 _ShowDec_MeasDownCount_2+5 "data"
 941  0002              #pragma debug array 45 7 5 21
 941  0002              #pragma debug array 45 7 5 21
 941  0002              #pragma debug variable 45 21 _ShowDec_MeasDownCount_2+0 "str"
 942  0002              #line 942 "c:\users\longshuangmin\desktop\worke_space\g-501\g-501\LcdScan.c"
 942  0002  0F20        	mov a,32
 942  0003  0080     R  	mov _ShowDec_MeasDownCount_2[0],a
 942  0004  0F20        	mov a,32
 942  0005  0080     R  	mov _ShowDec_MeasDownCount_2[2],a
 942  0006  0F20        	mov a,32
 942  0007  0080     R  	mov _ShowDec_MeasDownCount_2[3],a
 942  0008  1F00     R  	clr _ShowDec_MeasDownCount_2[4]
 944  0009              #line 944 "c:\users\longshuangmin\desktop\worke_space\g-501\g-501\LcdScan.c"
 944  0009  0F00     R  	mov a,low offset _AsciiTab
 944  000A  0300     E  	add a,ra
 944  000B  0083        	mov mp,a
 944  000C  0F00     R  	mov a,high offset _AsciiTab
 944  000D  1F04        	clr sbp
 944  000E  1384        	adcm a,sbp
 944  000F              	fcall _Crom2Prom
 944  0016  0080     R  	mov _ShowDec_MeasDownCount_2[1],a
 945  0017              #line 945 "c:\users\longshuangmin\desktop\worke_space\g-501\g-501\LcdScan.c"
 945  0017  0F00     R  	mov a,low offset _ShowDec_MeasDownCount_2
 945  0018  0080     R  	mov _Show_BigString_2[0],a
 945  0019  0F00     R  	mov a,high offset _ShowDec_MeasDownCount_2
 945  001A  0080     R  	mov _Show_BigString_2[1],a
 945  001B              	fcall _Show_BigString
 945  0022  0003        	ret
 945  0023              _ShowDec_MeasDownCount endp
 945  0023              #line 945 "c:\users\longshuangmin\desktop\worke_space\g-501\g-501\LcdScan.c"
 945  0023              #pragma debug scope 1 1
 945  0023              public _WriteAll_LCD
 945  0023              #pragma debug scope 22 1
 950  0023              #line 950 "c:\users\longshuangmin\desktop\worke_space\g-501\g-501\LcdScan.c"
 950  0000              _WriteAll_LCD .section 'code'
 950  0000              _WriteAll_LCD proc
 950  0000              public _WriteAll_LCD_2
 950  0000  0005[           local _WriteAll_LCD_2 db 5 dup(?)	; 3,2
            00
            ]
文件：LcdScan.c    编译器版本 HGASM 0202 页次33

 950  0005              #pragma debug pointer 46 8 22
 950  0005              #pragma debug pointer 46 8 22
 950  0005              #pragma debug variable 46 22 _WriteAll_LCD_2+0 "p"
 950  0005              #pragma debug variable 8 22 _WriteAll_LCD_2+2 "cnt"
 950  0000  0700     R  	mov a,_WriteAll_LCD_2[0]
 950  0001  0080     E  	mov rd,a
 950  0002  0700     R  	mov a,_WriteAll_LCD_2[1]
 950  0003  0080     E  	mov re,a
 950  0004  0700     E  	mov a,rd
 950  0005  0080     E  	mov rb,a
 950  0006  0700     E  	mov a,re
 950  0007  0080     E  	mov rc,a
 951  0008              #line 951 "c:\users\longshuangmin\desktop\worke_space\g-501\g-501\LcdScan.c"
 951  0008  1F00     E  	clr ra
 951  0009              _L47:
 954  0009              #line 954 "c:\users\longshuangmin\desktop\worke_space\g-501\g-501\LcdScan.c"
 954  0009  1480     E  	inc ra
 954  000A  0700     E  	mov a,rb
 954  000B  0200     E  	sub a,rd
 954  000C  0080     E  	mov rf,a
 954  000D  0700     E  	mov a,rc
 954  000E  1200     E  	sbc a,re
 954  000F  0080     E  	mov rg,a
 954  0010  0700     E  	mov a,rb
 954  0011  0083        	mov mp,a
 954  0012  0700     E  	mov a,rc
 954  0013  0084        	mov sbp,a
 954  0014              	fcall _Crom2Prom
 954  001B  0080     E  	mov rh,a
 954  001C  0F00        	mov a,low offset _M_LCD_RAM
 954  001D  0300     E  	add a,rf
 954  001E  0083        	mov mp,a
 954  001F  0F04        	mov a,high offset _M_LCD_RAM
 954  0020  1300     E  	adc a,rg
 954  0021  0084        	mov sbp,a
 954  0022  0700     E  	mov a,rh
 954  0023  0082        	mov ir,a
 954  0024  1480     E  	inc rb
 954  0025  3D0A        	sz z
 954  0026  1480     E  	inc rc
 955  0027              #line 955 "c:\users\longshuangmin\desktop\worke_space\g-501\g-501\LcdScan.c"
 955  0027  0700     E  	mov a,ra
 955  0028  0200     R  	sub a,_WriteAll_LCD_2[2]
 955  0029  380A        	snz c
 955  002A  2800     R  	jmp _L47
 955  002B  0003        	ret
 955  002C              _WriteAll_LCD endp
 955  002C              #line 955 "c:\users\longshuangmin\desktop\worke_space\g-501\g-501\LcdScan.c"
 955  002C              #pragma debug scope 1 1
 955  002C              _lcd_scan_index equ [4742]
 955  002C              public _LCD_ScanOut1
 955  002C              #pragma debug scope 23 1
 326  002C              #line 326 "c:\users\longshuangmin\desktop\worke_space\g-501\g-501\LcdScan.c"
 326  0000              _LCD_ScanOut1 .section 'code'
 326  0000              _LCD_ScanOut1 proc
 326  0000  00              local _LCD_ScanOut1_2 db 1 dup(?)	; 0,1
 328  0001              #line 328 "c:\users\longshuangmin\desktop\worke_space\g-501\g-501\LcdScan.c"
 328  0000  C706 0012   	lmov a,[4742]
 328  0002  0080     E  	mov rb,a
 328  0003  C707 0012   	lmov a,[4743]
文件：LcdScan.c    编译器版本 HGASM 0202 页次34

 328  0005  0080     E  	mov rc,a
 328  0006  0F03        	mov a,3
 328  0007              _LI27:
 328  0007  340A        	clr c
 328  0008  1A80     E  	rlc rb
 328  0009  1A80     E  	rlc rc
 328  000A  1785        	sdz acc
 328  000B  2800     R  	jmp _LI27
 328  000C  0F00     R  	mov a,low offset _LCDMappingTab
 328  000D  0300     E  	add a,rb
 328  000E  0083        	mov mp,a
 328  000F  0F00     R  	mov a,high offset _LCDMappingTab
 328  0010  1300     E  	adc a,rc
 328  0011  0084        	mov sbp,a
 328  0012              	fcall _Crom2Prom
 328  0019  0080     E  	mov rb,a
 328  001A              	fcall _Crom2PromNext
 328  0021  0080     E  	mov rc,a
 328  0022  C706 0012   	lmov a,[4742]
 328  0024  0080     E  	mov rd,a
 328  0025  C707 0012   	lmov a,[4743]
 328  0027  0080     E  	mov re,a
 328  0028  0F03        	mov a,3
 328  0029              _LI28:
 328  0029  340A        	clr c
 328  002A  1A80     E  	rlc rd
 328  002B  1A80     E  	rlc re
 328  002C  1785        	sdz acc
 328  002D  2800     R  	jmp _LI28
 328  002E  0700     E  	mov a,rb
 328  002F  0083        	mov mp,a
 328  0030  0700     E  	mov a,rc
 328  0031  0084        	mov sbp,a
 328  0032              	fcall _Crom2Prom
 328  0039  0080     E  	mov rb,a
 328  003A              	fcall _Crom2PromNext
 328  0041  0080     E  	mov rc,a
 328  0042  0F00     R  	mov a,low (offset _LCDMappingTab+2)
 328  0043  0300     E  	add a,rd
 328  0044  0083        	mov mp,a
 328  0045  0F00     R  	mov a,high (offset _LCDMappingTab+2)
 328  0046  1300     E  	adc a,re
 328  0047  0084        	mov sbp,a
 328  0048              	fcall _Crom2Prom
 328  004F  0080     E  	mov rd,a
 328  0050              	fcall _Crom2PromNext
 328  0057  0080     E  	mov re,a
 328  0058  0700     E  	mov a,rd  
 328  0059  0680     E  	andm a,rb  
 328  005A  0700     E  	mov a,re  
 328  005B  0680     E  	andm a,rc
 328  005C  0700     E  	mov a,rb
 328  005D  0500     E  	or a,rc
 328  005E  3D0A        	sz z
 328  005F  2800     R  	jmp _L49
 329  0060              #line 329 "c:\users\longshuangmin\desktop\worke_space\g-501\g-501\LcdScan.c"
 329  0060  C706 0012   	lmov a,[4742]
 329  0062  0080     E  	mov rb,a
 329  0063  C707 0012   	lmov a,[4743]
 329  0065  0080     E  	mov rc,a
文件：LcdScan.c    编译器版本 HGASM 0202 页次35

 329  0066  0F03        	mov a,3
 329  0067              _LI29:
 329  0067  340A        	clr c
 329  0068  1A80     E  	rlc rb
 329  0069  1A80     E  	rlc rc
 329  006A  1785        	sdz acc
 329  006B  2800     R  	jmp _LI29
 329  006C  0F00     R  	mov a,low (offset _LCDMappingTab+4)
 329  006D  0300     E  	add a,rb
 329  006E  0083        	mov mp,a
 329  006F  0F00     R  	mov a,high (offset _LCDMappingTab+4)
 329  0070  1300     E  	adc a,rc
 329  0071  0084        	mov sbp,a
 329  0072              	fcall _Crom2Prom
 329  0079  0080     E  	mov rb,a
 329  007A              	fcall _Crom2PromNext
 329  0081  0080     E  	mov rc,a
 329  0082  C706 0012   	lmov a,[4742]
 329  0084  0080     E  	mov rd,a
 329  0085  C707 0012   	lmov a,[4743]
 329  0087  0080     E  	mov re,a
 329  0088  0F03        	mov a,3
 329  0089              _LI30:
 329  0089  340A        	clr c
 329  008A  1A80     E  	rlc rd
 329  008B  1A80     E  	rlc re
 329  008C  1785        	sdz acc
 329  008D  2800     R  	jmp _LI30
 329  008E  0700     E  	mov a,rb
 329  008F  0083        	mov mp,a
 329  0090  0700     E  	mov a,rc
 329  0091  0084        	mov sbp,a
 329  0092              	fcall _Crom2Prom
 329  0099  0080     E  	mov rf,a
 329  009A  0F00     R  	mov a,low (offset _LCDMappingTab+6)
 329  009B  0300     E  	add a,rd
 329  009C  0083        	mov mp,a
 329  009D  0F00     R  	mov a,high (offset _LCDMappingTab+6)
 329  009E  1300     E  	adc a,re
 329  009F  0084        	mov sbp,a
 329  00A0              	fcall _Crom2Prom
 329  00A7  0080     E  	mov ra,a
 329  00A8  0700     E  	mov a,rf
 329  00A9  0580     E  	orm a,ra
 329  00AA  0700     E  	mov a,rb
 329  00AB  0083        	mov mp,a
 329  00AC  0700     E  	mov a,rc
 329  00AD  0084        	mov sbp,a
 329  00AE  2800     R  	jmp _L52
 329  00AF              _L49:
 331  00AF              #line 331 "c:\users\longshuangmin\desktop\worke_space\g-501\g-501\LcdScan.c"
 331  00AF  C706 0012   	lmov a,[4742]
 331  00B1  0080     E  	mov rb,a
 331  00B2  C707 0012   	lmov a,[4743]
 331  00B4  0080     E  	mov rc,a
 331  00B5  0F03        	mov a,3
 331  00B6              _LI31:
 331  00B6  340A        	clr c
 331  00B7  1A80     E  	rlc rb
 331  00B8  1A80     E  	rlc rc
文件：LcdScan.c    编译器版本 HGASM 0202 页次36

 331  00B9  1785        	sdz acc
 331  00BA  2800     R  	jmp _LI31
 331  00BB  0F00     R  	mov a,low (offset _LCDMappingTab+4)
 331  00BC  0300     E  	add a,rb
 331  00BD  0083        	mov mp,a
 331  00BE  0F00     R  	mov a,high (offset _LCDMappingTab+4)
 331  00BF  1300     E  	adc a,rc
 331  00C0  0084        	mov sbp,a
 331  00C1              	fcall _Crom2Prom
 331  00C8  0080     E  	mov rb,a
 331  00C9              	fcall _Crom2PromNext
 331  00D0  0080     E  	mov rc,a
 331  00D1  C706 0012   	lmov a,[4742]
 331  00D3  0080     E  	mov rd,a
 331  00D4  C707 0012   	lmov a,[4743]
 331  00D6  0080     E  	mov re,a
 331  00D7  0F03        	mov a,3
 331  00D8              _LI32:
 331  00D8  340A        	clr c
 331  00D9  1A80     E  	rlc rd
 331  00DA  1A80     E  	rlc re
 331  00DB  1785        	sdz acc
 331  00DC  2800     R  	jmp _LI32
 331  00DD  0F00     R  	mov a,low (offset _LCDMappingTab+6)
 331  00DE  0300     E  	add a,rd
 331  00DF  0083        	mov mp,a
 331  00E0  0F00     R  	mov a,high (offset _LCDMappingTab+6)
 331  00E1  1300     E  	adc a,re
 331  00E2  0084        	mov sbp,a
 331  00E3              	fcall _Crom2Prom
 331  00EA  0080     E  	mov ra,a
 331  00EB  0100     E  	cpla ra
 331  00EC  0080     E  	mov ra,a
 331  00ED  0700     E  	mov a,rb
 331  00EE  0083        	mov mp,a
 331  00EF  0700     E  	mov a,rc
 331  00F0  0084        	mov sbp,a
 331  00F1              	fcall _Crom2Prom
 331  00F8  0080     R  	mov _LCD_ScanOut1_2[0],a
 331  00F9  0700     R  	mov a,_LCD_ScanOut1_2[0]
 331  00FA  0680     E  	andm a,ra
 331  00FB              _L52:
 331  00FB  0700     E  	mov a,ra
 331  00FC  0082        	mov ir,a
 335  00FD              #line 335 "c:\users\longshuangmin\desktop\worke_space\g-501\g-501\LcdScan.c"
 335  00FD  0F01        	mov a,1
 335  00FE  C306 0012   	ladd a,[4742]
 335  0100  0080     E  	mov rb,a
 335  0101  0F00        	mov a,0
 335  0102  D307 0012   	ladc a,[4743]
 335  0104  0080     E  	mov rc,a
 335  0105  0700     E  	mov a,rb
 335  0106  C086 0012   	lmov [4742],a
 335  0108  0700     E  	mov a,rc
 335  0109  C087 0012   	lmov [4743],a
 335  010B  0700     E  	mov a,rb
 335  010C  C208 0012   	lsub a,[4744]
 335  010E  0700     E  	mov a,rc
 335  010F  D209 0012   	lsbc a,[4745]
 335  0111  380A        	snz c
文件：LcdScan.c    编译器版本 HGASM 0202 页次37

 335  0112  2800     R  	jmp _L48
 336  0113              #line 336 "c:\users\longshuangmin\desktop\worke_space\g-501\g-501\LcdScan.c"
 336  0113  0F14        	mov a,20
 336  0114  0080     R  	mov _WriteAll_LCD_2[2],a
 336  0115  0F00     R  	mov a,low offset _LcdBuf
 336  0116  0080     R  	mov _WriteAll_LCD_2[0],a
 336  0117  0F00     R  	mov a,high offset _LcdBuf
 336  0118  0080     R  	mov _WriteAll_LCD_2[1],a
 336  0119              	fcall _WriteAll_LCD
 336  0120              _L48:
 336  0120  0003        	ret
 336  0121              _LCD_ScanOut1 endp
 336  0121              #line 336 "c:\users\longshuangmin\desktop\worke_space\g-501\g-501\LcdScan.c"
 336  0121              #pragma debug scope 1 1
 336  0121              public _LCD_ScanOut
 336  0121              #pragma debug scope 24 1
 341  0121              #line 341 "c:\users\longshuangmin\desktop\worke_space\g-501\g-501\LcdScan.c"
 341  0000              _LCD_ScanOut .section 'code'
 341  0000              _LCD_ScanOut proc
 341  0000  00              local _LCD_ScanOut_2 db 1 dup(?)	; 0,1
 341  0000  0F56        	mov a,86
 341  0001  0080     E  	mov rh,a
 346  0002              #line 346 "c:\users\longshuangmin\desktop\worke_space\g-501\g-501\LcdScan.c"
 346  0002  1F00     E  	clr ra
 346  0003              _L57:
 348  0003              #line 348 "c:\users\longshuangmin\desktop\worke_space\g-501\g-501\LcdScan.c"
 348  0003  0700     E  	mov a,ra
 348  0004  0080     E  	mov rb,a
 348  0005  1F00     E  	clr rc
 348  0006  0F03        	mov a,3
 348  0007              _LI33:
 348  0007  340A        	clr c
 348  0008  1A80     E  	rlc rb
 348  0009  1A80     E  	rlc rc
 348  000A  1785        	sdz acc
 348  000B  2800     R  	jmp _LI33
 348  000C  0F00     R  	mov a,low offset _LCDMappingTab
 348  000D  0300     E  	add a,rb
 348  000E  0083        	mov mp,a
 348  000F  0F00     R  	mov a,high offset _LCDMappingTab
 348  0010  1300     E  	adc a,rc
 348  0011  0084        	mov sbp,a
 348  0012              	fcall _Crom2Prom
 348  0019  0080     E  	mov rd,a
 348  001A              	fcall _Crom2PromNext
 348  0021  0080     E  	mov re,a
 348  0022  0700     E  	mov a,rd
 348  0023  0083        	mov mp,a
 348  0024  0700     E  	mov a,re
 348  0025  0084        	mov sbp,a
 348  0026              	fcall _Crom2Prom
 348  002D  0080     E  	mov rd,a
 348  002E              	fcall _Crom2PromNext
 348  0035  0080     E  	mov re,a
 348  0036  0F00     R  	mov a,low (offset _LCDMappingTab+2)
 348  0037  0300     E  	add a,rb
 348  0038  0083        	mov mp,a
 348  0039  0F00     R  	mov a,high (offset _LCDMappingTab+2)
 348  003A  1300     E  	adc a,rc
 348  003B  0084        	mov sbp,a
文件：LcdScan.c    编译器版本 HGASM 0202 页次38

 348  003C              	fcall _Crom2Prom
 348  0043  0080     E  	mov rf,a
 348  0044              	fcall _Crom2PromNext
 348  004B  0080     E  	mov rg,a
 348  004C  0700     E  	mov a,rf  
 348  004D  0680     E  	andm a,rd  
 348  004E  0700     E  	mov a,rg  
 348  004F  0680     E  	andm a,re
 349  0050              #line 349 "c:\users\longshuangmin\desktop\worke_space\g-501\g-501\LcdScan.c"
 349  0050  0F00     R  	mov a,low (offset _LCDMappingTab+4)
 349  0051  0300     E  	add a,rb
 349  0052  0083        	mov mp,a
 349  0053  0F00     R  	mov a,high (offset _LCDMappingTab+4)
 349  0054  1300     E  	adc a,rc
 349  0055  0084        	mov sbp,a
 348  0056              #line 348 "c:\users\longshuangmin\desktop\worke_space\g-501\g-501\LcdScan.c"
 348  0056  0700     E  	mov a,rd
 348  0057  0500     E  	or a,re
 348  0058  3D0A        	sz z
 348  0059  2800     R  	jmp _L54
 349  005A              #line 349 "c:\users\longshuangmin\desktop\worke_space\g-501\g-501\LcdScan.c"
 349  005A              	fcall _Crom2Prom
 349  0061  0080     E  	mov rd,a
 349  0062              	fcall _Crom2PromNext
 349  0069  0080     E  	mov re,a
 349  006A  0700     E  	mov a,rd
 349  006B  0083        	mov mp,a
 349  006C  0700     E  	mov a,re
 349  006D  0084        	mov sbp,a
 349  006E              	fcall _Crom2Prom
 349  0075  0080     E  	mov rf,a
 349  0076  0F00     R  	mov a,low (offset _LCDMappingTab+6)
 349  0077  0300     E  	add a,rb
 349  0078  0083        	mov mp,a
 349  0079  0F00     R  	mov a,high (offset _LCDMappingTab+6)
 349  007A  1300     E  	adc a,rc
 349  007B  0084        	mov sbp,a
 349  007C              	fcall _Crom2Prom
 349  0083  0080     E  	mov rb,a
 349  0084  0700     E  	mov a,rf
 349  0085  0580     E  	orm a,rb
 349  0086  0700     E  	mov a,rd
 349  0087  0083        	mov mp,a
 349  0088  0700     E  	mov a,re
 349  0089  0084        	mov sbp,a
 349  008A  2800     R  	jmp _L58
 349  008B              _L54:
 351  008B              #line 351 "c:\users\longshuangmin\desktop\worke_space\g-501\g-501\LcdScan.c"
 351  008B              	fcall _Crom2Prom
 351  0092  0080     E  	mov rd,a
 351  0093              	fcall _Crom2PromNext
 351  009A  0080     E  	mov re,a
 351  009B  0F00     R  	mov a,low (offset _LCDMappingTab+6)
 351  009C  0300     E  	add a,rb
 351  009D  0083        	mov mp,a
 351  009E  0F00     R  	mov a,high (offset _LCDMappingTab+6)
 351  009F  1300     E  	adc a,rc
 351  00A0  0084        	mov sbp,a
 351  00A1              	fcall _Crom2Prom
 351  00A8  0080     E  	mov rb,a
文件：LcdScan.c    编译器版本 HGASM 0202 页次39

 351  00A9  0100     E  	cpla rb
 351  00AA  0080     E  	mov rb,a
 351  00AB  0700     E  	mov a,rd
 351  00AC  0083        	mov mp,a
 351  00AD  0700     E  	mov a,re
 351  00AE  0084        	mov sbp,a
 351  00AF              	fcall _Crom2Prom
 351  00B6  0080     R  	mov _LCD_ScanOut_2[0],a
 351  00B7  0700     R  	mov a,_LCD_ScanOut_2[0]
 351  00B8  0680     E  	andm a,rb
 351  00B9              _L58:
 351  00B9  0700     E  	mov a,rb
 351  00BA  0082        	mov ir,a
 354  00BB              #line 354 "c:\users\longshuangmin\desktop\worke_space\g-501\g-501\LcdScan.c"
 354  00BB  1480     E  	inc ra
 354  00BC  1780     E  	sdz rh
 354  00BD  2800     R  	jmp _L57
 356  00BE              #line 356 "c:\users\longshuangmin\desktop\worke_space\g-501\g-501\LcdScan.c"
 356  00BE  0F14        	mov a,20
 356  00BF  0080     R  	mov _WriteAll_LCD_2[2],a
 356  00C0  0F00     R  	mov a,low offset _LcdBuf
 356  00C1  0080     R  	mov _WriteAll_LCD_2[0],a
 356  00C2  0F00     R  	mov a,high offset _LcdBuf
 356  00C3  0080     R  	mov _WriteAll_LCD_2[1],a
 356  00C4              	fcall _WriteAll_LCD
 356  00CB  0003        	ret
 356  00CC              _LCD_ScanOut endp
 356  00CC              #line 356 "c:\users\longshuangmin\desktop\worke_space\g-501\g-501\LcdScan.c"
 356  00CC              #pragma debug scope 1 1
 356  00CC              public _LCD_Clear
 356  00CC              #pragma debug scope 25 1
 680  00CC              #line 680 "c:\users\longshuangmin\desktop\worke_space\g-501\g-501\LcdScan.c"
 680  0000              _LCD_Clear .section 'code'
 680  0000              _LCD_Clear proc
 680  0000  00              local _LCD_Clear_2 db 1 dup(?)	; 0,1
 680  0000  0080     E  	mov ra,a
 680  0001              #pragma debug variable 8 25 _LCD_Clear_2+0 "OnOff"
 681  0001              #line 681 "c:\users\longshuangmin\desktop\worke_space\g-501\g-501\LcdScan.c"
 681  0001  0700     E  	mov a,ra
 681  0002              	fcall _LCD_Clear_Buff
 687  0009              #line 687 "c:\users\longshuangmin\desktop\worke_space\g-501\g-501\LcdScan.c"
 687  0009              	fcall _LCD_ScanOut
 687  0010  0003        	ret
 687  0011              _LCD_Clear endp
 687  0011              #line 687 "c:\users\longshuangmin\desktop\worke_space\g-501\g-501\LcdScan.c"
 687  0011              #pragma debug scope 1 1
 687  0011              public _LCD_Seg_TestScan
 687  0011              #pragma debug scope 26 1
 541  0011              #line 541 "c:\users\longshuangmin\desktop\worke_space\g-501\g-501\LcdScan.c"
 541  0000              _LCD_Seg_TestScan .section 'code'
 541  0000              _LCD_Seg_TestScan proc
 541  0000  0002[           local _LCD_Seg_TestScan_2 db 2 dup(?)	; 0,2
            00
            ]
 541  0002              #pragma debug variable 8 26 _LCD_Seg_TestScan_2+1 "lcdbuf_idle"
 541  0002              #pragma debug variable 8 26 _LCD_Seg_TestScan_2+0 "lcd_seg"
 548  0002              #line 548 "c:\users\longshuangmin\desktop\worke_space\g-501\g-501\LcdScan.c"
 548  0000  1F00     R  	clr _LCD_Seg_TestScan_2[0]
 547  0001              #line 547 "c:\users\longshuangmin\desktop\worke_space\g-501\g-501\LcdScan.c"
 547  0001  0F0A        	mov a,10
文件：LcdScan.c    编译器版本 HGASM 0202 页次40

 547  0002  0080     R  	mov _LCD_Seg_TestScan_2[1],a
 547  0003              _L68:
 551  0003              #line 551 "c:\users\longshuangmin\desktop\worke_space\g-501\g-501\LcdScan.c"
 551  0003              ;# 551 "c:\users\longshuangmin\desktop\worke_space\g-501\g-501\LcdScan.c" 1
 551  0003  0001        	clr wdt
 552  0004              #line 552 "c:\users\longshuangmin\desktop\worke_space\g-501\g-501\LcdScan.c"
 552  0004  0F0A        	mov a,10
 552  0005              	fcall _delay
 555  000C              #line 555 "c:\users\longshuangmin\desktop\worke_space\g-501\g-501\LcdScan.c"
 555  000C  0F64        	mov a,100
 555  000D              	fcall _delay
 558  0014              #line 558 "c:\users\longshuangmin\desktop\worke_space\g-501\g-501\LcdScan.c"
 558  0014  1080     R  	sz _LCD_Seg_TestScan_2[0]
 558  0015  2800     R  	jmp _L61
 560  0016              #line 560 "c:\users\longshuangmin\desktop\worke_space\g-501\g-501\LcdScan.c"
 560  0016  0F00     R  	mov a,low offset _LcdBuf
 560  0017  0300     R  	add a,_LCD_Seg_TestScan_2[1]
 560  0018  0083        	mov mp,a
 560  0019  0F00     R  	mov a,high offset _LcdBuf
 560  001A  1F04        	clr sbp
 560  001B  1384        	adcm a,sbp
 560  001C              	fcall _Crom2Prom
 560  0023  0080     E  	mov ra,a
 560  0024  3000     E  	set ra.0
 560  0025  2800     R  	jmp _L69
 560  0026              _L61:
 562  0026              #line 562 "c:\users\longshuangmin\desktop\worke_space\g-501\g-501\LcdScan.c"
 562  0026  1700     R  	sdza _LCD_Seg_TestScan_2[0]
 562  0027  2800     R  	jmp _L63
 564  0028              #line 564 "c:\users\longshuangmin\desktop\worke_space\g-501\g-501\LcdScan.c"
 564  0028  0F00     R  	mov a,low offset _LcdBuf
 564  0029  0300     R  	add a,_LCD_Seg_TestScan_2[1]
 564  002A  0083        	mov mp,a
 564  002B  0F00     R  	mov a,high offset _LcdBuf
 564  002C  1F04        	clr sbp
 564  002D  1384        	adcm a,sbp
 564  002E              	fcall _Crom2Prom
 564  0035  0080     E  	mov ra,a
 564  0036  3000     E  	set ra.1
 564  0037  2800     R  	jmp _L69
 564  0038              _L63:
 566  0038              #line 566 "c:\users\longshuangmin\desktop\worke_space\g-501\g-501\LcdScan.c"
 566  0038  0700     R  	mov a,_LCD_Seg_TestScan_2[0]
 566  0039  0A02        	sub a,2
 566  003A  390A        	snz z
 566  003B  2800     R  	jmp _L64
 568  003C              #line 568 "c:\users\longshuangmin\desktop\worke_space\g-501\g-501\LcdScan.c"
 568  003C  0F00     R  	mov a,low offset _LcdBuf
 568  003D  0300     R  	add a,_LCD_Seg_TestScan_2[1]
 568  003E  0083        	mov mp,a
 568  003F  0F00     R  	mov a,high offset _LcdBuf
 568  0040  1F04        	clr sbp
 568  0041  1384        	adcm a,sbp
 568  0042              	fcall _Crom2Prom
 568  0049  0080     E  	mov ra,a
 568  004A  3000     E  	set ra.2
 568  004B  2800     R  	jmp _L69
 568  004C              _L64:
 570  004C              #line 570 "c:\users\longshuangmin\desktop\worke_space\g-501\g-501\LcdScan.c"
 570  004C  0700     R  	mov a,_LCD_Seg_TestScan_2[0]
文件：LcdScan.c    编译器版本 HGASM 0202 页次41

 570  004D  0A03        	sub a,3
 570  004E  390A        	snz z
 570  004F  2800     R  	jmp _L65
 572  0050              #line 572 "c:\users\longshuangmin\desktop\worke_space\g-501\g-501\LcdScan.c"
 572  0050  0F00     R  	mov a,low offset _LcdBuf
 572  0051  0300     R  	add a,_LCD_Seg_TestScan_2[1]
 572  0052  0083        	mov mp,a
 572  0053  0F00     R  	mov a,high offset _LcdBuf
 572  0054  1F04        	clr sbp
 572  0055  1384        	adcm a,sbp
 572  0056              	fcall _Crom2Prom
 572  005D  0080     E  	mov ra,a
 572  005E  3000     E  	set ra.3
 572  005F  2800     R  	jmp _L69
 572  0060              _L65:
 574  0060              #line 574 "c:\users\longshuangmin\desktop\worke_space\g-501\g-501\LcdScan.c"
 574  0060  0700     R  	mov a,_LCD_Seg_TestScan_2[0]
 574  0061  0A04        	sub a,4
 574  0062  390A        	snz z
 574  0063  2800     R  	jmp _L66
 576  0064              #line 576 "c:\users\longshuangmin\desktop\worke_space\g-501\g-501\LcdScan.c"
 576  0064  0F00     R  	mov a,low offset _LcdBuf
 576  0065  0300     R  	add a,_LCD_Seg_TestScan_2[1]
 576  0066  0083        	mov mp,a
 576  0067  0F00     R  	mov a,high offset _LcdBuf
 576  0068  1F04        	clr sbp
 576  0069  1384        	adcm a,sbp
 576  006A              	fcall _Crom2Prom
 576  0071  0080     E  	mov ra,a
 576  0072  3000     E  	set ra.4
 576  0073  2800     R  	jmp _L69
 576  0074              _L66:
 578  0074              #line 578 "c:\users\longshuangmin\desktop\worke_space\g-501\g-501\LcdScan.c"
 578  0074  0700     R  	mov a,_LCD_Seg_TestScan_2[0]
 578  0075  0A05        	sub a,5
 578  0076  390A        	snz z
 578  0077  2800     R  	jmp _L62
 580  0078              #line 580 "c:\users\longshuangmin\desktop\worke_space\g-501\g-501\LcdScan.c"
 580  0078  0F00     R  	mov a,low offset _LcdBuf
 580  0079  0300     R  	add a,_LCD_Seg_TestScan_2[1]
 580  007A  0083        	mov mp,a
 580  007B  0F00     R  	mov a,high offset _LcdBuf
 580  007C  1F04        	clr sbp
 580  007D  1384        	adcm a,sbp
 580  007E              	fcall _Crom2Prom
 580  0085  0080     E  	mov ra,a
 580  0086  3000     E  	set ra.5
 580  0087              _L69:
 580  0087  0700     E  	mov a,ra
 580  0088  0082        	mov ir,a
 580  0089              _L62:
 587  0089              #line 587 "c:\users\longshuangmin\desktop\worke_space\g-501\g-501\LcdScan.c"
 587  0089  0F14        	mov a,20
 587  008A  0080     R  	mov _WriteAll_LCD_2[2],a
 587  008B  0F00     R  	mov a,low offset _LcdBuf
 587  008C  0080     R  	mov _WriteAll_LCD_2[0],a
 587  008D  0F00     R  	mov a,high offset _LcdBuf
 587  008E  0080     R  	mov _WriteAll_LCD_2[1],a
 587  008F              	fcall _WriteAll_LCD
 588  0096              #line 588 "c:\users\longshuangmin\desktop\worke_space\g-501\g-501\LcdScan.c"
文件：LcdScan.c    编译器版本 HGASM 0202 页次42

 588  0096  0F64        	mov a,100
 588  0097              	fcall _delay
 590  009E              #line 590 "c:\users\longshuangmin\desktop\worke_space\g-501\g-501\LcdScan.c"
 590  009E  0F14        	mov a,20
 590  009F  0080     E  	mov _memset_2[4],a
 590  00A0  1F00     E  	clr _memset_2[5]
 590  00A1  1F00     E  	clr _memset_2[2]
 590  00A2  1F00     E  	clr _memset_2[3]
 590  00A3  0F00     R  	mov a,low offset _LcdBuf
 590  00A4  0080     E  	mov _memset_2[0],a
 590  00A5  0F00     R  	mov a,high offset _LcdBuf
 590  00A6  0080     E  	mov _memset_2[1],a
 590  00A7              	fcall _memset
 593  00AE              #line 593 "c:\users\longshuangmin\desktop\worke_space\g-501\g-501\LcdScan.c"
 593  00AE  1480     R  	inc _LCD_Seg_TestScan_2[0]
 594  00AF              #line 594 "c:\users\longshuangmin\desktop\worke_space\g-501\g-501\LcdScan.c"
 594  00AF  0700     R  	mov a,_LCD_Seg_TestScan_2[0]
 594  00B0  0A06        	sub a,6
 594  00B1  390A        	snz z
 594  00B2  2800     R  	jmp _L67
 596  00B3              #line 596 "c:\users\longshuangmin\desktop\worke_space\g-501\g-501\LcdScan.c"
 596  00B3  1480     R  	inc _LCD_Seg_TestScan_2[1]
 597  00B4              #line 597 "c:\users\longshuangmin\desktop\worke_space\g-501\g-501\LcdScan.c"
 597  00B4  1F00     R  	clr _LCD_Seg_TestScan_2[0]
 597  00B5              _L67:
 602  00B5              #line 602 "c:\users\longshuangmin\desktop\worke_space\g-501\g-501\LcdScan.c"
 602  00B5              ;# 602 "c:\users\longshuangmin\desktop\worke_space\g-501\g-501\LcdScan.c" 1
 602  00B5  0001        	clr wdt
 603  00B6              #line 603 "c:\users\longshuangmin\desktop\worke_space\g-501\g-501\LcdScan.c"
 603  00B6  0F0A        	mov a,10
 603  00B7              	fcall _delay
 607  00BE              #line 607 "c:\users\longshuangmin\desktop\worke_space\g-501\g-501\LcdScan.c"
 607  00BE  2800     R  	jmp _L68
 607  00BF  0003        	ret
 607  00C0              _LCD_Seg_TestScan endp
 607  00C0              #line 607 "c:\users\longshuangmin\desktop\worke_space\g-501\g-501\LcdScan.c"
 607  00C0              #pragma debug scope 1 1
 607  00C0              public _LCD_Clear1
 607  00C0              #pragma debug scope 27 1
 691  00C0              #line 691 "c:\users\longshuangmin\desktop\worke_space\g-501\g-501\LcdScan.c"
 691  0000              _LCD_Clear1 .section 'code'
 691  0000              _LCD_Clear1 proc
 691  0000  00              local _LCD_Clear1_2 db 1 dup(?)	; 0,1
 691  0000  0080     E  	mov ra,a
 691  0001              #pragma debug variable 8 27 _LCD_Clear1_2+0 "OnOff"
 692  0001              #line 692 "c:\users\longshuangmin\desktop\worke_space\g-501\g-501\LcdScan.c"
 692  0001  0700     E  	mov a,ra
 692  0002              	fcall _LCD_Clear_Buff
 693  0009              #line 693 "c:\users\longshuangmin\desktop\worke_space\g-501\g-501\LcdScan.c"
 693  0009  0F14        	mov a,20
 693  000A  0080     E  	mov _memset_2[4],a
 693  000B  1F00     E  	clr _memset_2[5]
 693  000C  1F00     E  	clr _memset_2[2]
 693  000D  1F00     E  	clr _memset_2[3]
 693  000E  0F00     R  	mov a,low offset _LcdBuf
 693  000F  0080     E  	mov _memset_2[0],a
 693  0010  0F00     R  	mov a,high offset _LcdBuf
 693  0011  0080     E  	mov _memset_2[1],a
 693  0012              	fcall _memset
 694  0019              #line 694 "c:\users\longshuangmin\desktop\worke_space\g-501\g-501\LcdScan.c"
文件：LcdScan.c    编译器版本 HGASM 0202 页次43

 694  0019  0F14        	mov a,20
 694  001A  0080     R  	mov _WriteAll_LCD_2[2],a
 694  001B  0F00     R  	mov a,low offset _LcdBuf
 694  001C  0080     R  	mov _WriteAll_LCD_2[0],a
 694  001D  0F00     R  	mov a,high offset _LcdBuf
 694  001E  0080     R  	mov _WriteAll_LCD_2[1],a
 694  001F              	fcall _WriteAll_LCD
 694  0026  0003        	ret
 694  0027              _LCD_Clear1 endp
 694  0027              #line 694 "c:\users\longshuangmin\desktop\worke_space\g-501\g-501\LcdScan.c"
 694  0027              #pragma debug scope 1 1
 694  0027              public _ReadAll_LCD
 694  0027              #pragma debug scope 28 1
 960  0027              #line 960 "c:\users\longshuangmin\desktop\worke_space\g-501\g-501\LcdScan.c"
 960  0000              _ReadAll_LCD .section 'code'
 960  0000              _ReadAll_LCD proc
 960  0000              public _ReadAll_LCD_2
 960  0000  0005[           local _ReadAll_LCD_2 db 5 dup(?)	; 3,2
            00
            ]
 960  0005              #pragma debug pointer 47 8 28
 960  0005              #pragma debug pointer 47 8 28
 960  0005              #pragma debug variable 47 28 _ReadAll_LCD_2+0 "p"
 960  0005              #pragma debug variable 8 28 _ReadAll_LCD_2+2 "cnt"
 960  0000  0700     R  	mov a,_ReadAll_LCD_2[0]
 960  0001  0080     E  	mov rd,a
 960  0002  0700     R  	mov a,_ReadAll_LCD_2[1]
 960  0003  0080     E  	mov re,a
 960  0004  0700     E  	mov a,rd
 960  0005  0080     E  	mov rb,a
 960  0006  0700     E  	mov a,re
 960  0007  0080     E  	mov rc,a
 961  0008              #line 961 "c:\users\longshuangmin\desktop\worke_space\g-501\g-501\LcdScan.c"
 961  0008  1F00     E  	clr ra
 961  0009              _L73:
 964  0009              #line 964 "c:\users\longshuangmin\desktop\worke_space\g-501\g-501\LcdScan.c"
 964  0009  1480     E  	inc ra
 964  000A  0700     E  	mov a,rb
 964  000B  0200     E  	sub a,rd
 964  000C  0080     E  	mov rf,a
 964  000D  0700     E  	mov a,rc
 964  000E  1200     E  	sbc a,re
 964  000F  0080     E  	mov rg,a
 964  0010  0F00        	mov a,low offset _M_LCD_RAM
 964  0011  0300     E  	add a,rf
 964  0012  0083        	mov mp,a
 964  0013  0F04        	mov a,high offset _M_LCD_RAM
 964  0014  1300     E  	adc a,rg
 964  0015  0084        	mov sbp,a
 964  0016              	fcall _Crom2Prom
 964  001D  0080     E  	mov rf,a
 964  001E  0700     E  	mov a,rb
 964  001F  0083        	mov mp,a
 964  0020  0700     E  	mov a,rc
 964  0021  0084        	mov sbp,a
 964  0022  0700     E  	mov a,rf
 964  0023  0082        	mov ir,a
 964  0024  1480     E  	inc rb
 964  0025  3D0A        	sz z
 964  0026  1480     E  	inc rc
文件：LcdScan.c    编译器版本 HGASM 0202 页次44

 965  0027              #line 965 "c:\users\longshuangmin\desktop\worke_space\g-501\g-501\LcdScan.c"
 965  0027  0700     E  	mov a,ra
 965  0028  0200     R  	sub a,_ReadAll_LCD_2[2]
 965  0029  380A        	snz c
 965  002A  2800     R  	jmp _L73
 965  002B  0003        	ret
 965  002C              _ReadAll_LCD endp
 965  002C              #line 965 "c:\users\longshuangmin\desktop\worke_space\g-501\g-501\LcdScan.c"
 965  002C              #pragma debug scope 1 1
 965  002C              public _LCD_ScanIn
 965  002C              #pragma debug scope 29 1
 312  002C              #line 312 "c:\users\longshuangmin\desktop\worke_space\g-501\g-501\LcdScan.c"
 312  0000              _LCD_ScanIn .section 'code'
 312  0000              _LCD_ScanIn proc
 315  0000              #line 315 "c:\users\longshuangmin\desktop\worke_space\g-501\g-501\LcdScan.c"
 315  0000  0F14        	mov a,20
 315  0001  0080     R  	mov _ReadAll_LCD_2[2],a
 315  0002  0F00     R  	mov a,low offset _LcdBuf
 315  0003  0080     R  	mov _ReadAll_LCD_2[0],a
 315  0004  0F00     R  	mov a,high offset _LcdBuf
 315  0005  0080     R  	mov _ReadAll_LCD_2[1],a
 315  0006              	fcall _ReadAll_LCD
 315  000D  0F56        	mov a,86
 315  000E  0080     E  	mov rh,a
 317  000F              #line 317 "c:\users\longshuangmin\desktop\worke_space\g-501\g-501\LcdScan.c"
 317  000F  1F00     E  	clr ra
 317  0010              _L78:
 319  0010              #line 319 "c:\users\longshuangmin\desktop\worke_space\g-501\g-501\LcdScan.c"
 319  0010  0700     E  	mov a,ra
 319  0011  0080     E  	mov rb,a
 319  0012  1F00     E  	clr rc
 319  0013  0F03        	mov a,3
 319  0014              _LI34:
 319  0014  340A        	clr c
 319  0015  1A80     E  	rlc rb
 319  0016  1A80     E  	rlc rc
 319  0017  1785        	sdz acc
 319  0018  2800     R  	jmp _LI34
 319  0019  0F00     R  	mov a,low (offset _LCDMappingTab+4)
 319  001A  0300     E  	add a,rb
 319  001B  0083        	mov mp,a
 319  001C  0F00     R  	mov a,high (offset _LCDMappingTab+4)
 319  001D  1300     E  	adc a,rc
 319  001E  0084        	mov sbp,a
 319  001F              	fcall _Crom2Prom
 319  0026  0080     E  	mov rd,a
 319  0027              	fcall _Crom2PromNext
 319  002E  0080     E  	mov re,a
 319  002F  0700     E  	mov a,rd
 319  0030  0083        	mov mp,a
 319  0031  0700     E  	mov a,re
 319  0032  0084        	mov sbp,a
 319  0033              	fcall _Crom2Prom
 319  003A  0080     E  	mov re,a
 319  003B  0F00     R  	mov a,low (offset _LCDMappingTab+6)
 319  003C  0300     E  	add a,rb
 319  003D  0083        	mov mp,a
 319  003E  0F00     R  	mov a,high (offset _LCDMappingTab+6)
 319  003F  1300     E  	adc a,rc
 319  0040  0084        	mov sbp,a
文件：LcdScan.c    编译器版本 HGASM 0202 页次45

 319  0041              	fcall _Crom2Prom
 319  0048  0080     E  	mov rd,a
 319  0049  0700     E  	mov a,re
 319  004A  0680     E  	andm a,rd
 319  004B  0F00     R  	mov a,low offset _LCDMappingTab
 319  004C  0300     E  	add a,rb
 319  004D  0083        	mov mp,a
 319  004E  0F00     R  	mov a,high offset _LCDMappingTab
 319  004F  1300     E  	adc a,rc
 319  0050  0084        	mov sbp,a
 319  0051  1E00     E  	snz rd
 319  0052  2800     R  	jmp _L75
 319  0053              	fcall _Crom2Prom
 319  005A  0080     E  	mov rd,a
 319  005B              	fcall _Crom2PromNext
 319  0062  0080     E  	mov re,a
 319  0063  0700     E  	mov a,rd
 319  0064  0083        	mov mp,a
 319  0065  0700     E  	mov a,re
 319  0066  0084        	mov sbp,a
 319  0067              	fcall _Crom2Prom
 319  006E  0080     E  	mov rf,a
 319  006F              	fcall _Crom2PromNext
 319  0076  0080     E  	mov rg,a
 319  0077  0F00     R  	mov a,low (offset _LCDMappingTab+2)
 319  0078  0300     E  	add a,rb
 319  0079  0083        	mov mp,a
 319  007A  0F00     R  	mov a,high (offset _LCDMappingTab+2)
 319  007B  1300     E  	adc a,rc
 319  007C  0084        	mov sbp,a
 319  007D              	fcall _Crom2Prom
 319  0084  0080     E  	mov rb,a
 319  0085              	fcall _Crom2PromNext
 319  008C  0080     E  	mov rc,a
 319  008D  0700     E  	mov a,rc
 319  008E  0580     E  	orm a,rg
 319  008F  0700     E  	mov a,rb
 319  0090  0580     E  	orm a,rf
 319  0091  0700     E  	mov a,rd
 319  0092  0083        	mov mp,a
 319  0093  0700     E  	mov a,re
 319  0094  0084        	mov sbp,a
 319  0095  0700     E  	mov a,rf
 319  0096  0082        	mov ir,a
 319  0097  1483        	inc mp
 319  0098  0700     E  	mov a,rg
 319  0099  0082        	mov ir,a
 319  009A  2800     R  	jmp _L76
 319  009B              _L75:
 320  009B              #line 320 "c:\users\longshuangmin\desktop\worke_space\g-501\g-501\LcdScan.c"
 320  009B              	fcall _Crom2Prom
 320  00A2  0080     E  	mov rd,a
 320  00A3              	fcall _Crom2PromNext
 320  00AA  0080     E  	mov re,a
 320  00AB  0F00     R  	mov a,low (offset _LCDMappingTab+2)
 320  00AC  0300     E  	add a,rb
 320  00AD  0083        	mov mp,a
 320  00AE  0F00     R  	mov a,high (offset _LCDMappingTab+2)
 320  00AF  1300     E  	adc a,rc
 320  00B0  0084        	mov sbp,a
文件：LcdScan.c    编译器版本 HGASM 0202 页次46

 320  00B1              	fcall _Crom2Prom
 320  00B8  0080     E  	mov rf,a
 320  00B9              	fcall _Crom2PromNext
 320  00C0  0080     E  	mov rg,a
 320  00C1  0180     E  	cpl rf
 320  00C2  0180     E  	cpl rg
 320  00C3  0700     E  	mov a,rd
 320  00C4  0083        	mov mp,a
 320  00C5  0700     E  	mov a,re
 320  00C6  0084        	mov sbp,a
 320  00C7              	fcall _Crom2Prom
 320  00CE  0080     E  	mov rb,a
 320  00CF              	fcall _Crom2PromNext
 320  00D6  0080     E  	mov rc,a
 320  00D7  0700     E  	mov a,rf  
 320  00D8  0680     E  	andm a,rb  
 320  00D9  0700     E  	mov a,rg  
 320  00DA  0680     E  	andm a,rc
 320  00DB  0700     E  	mov a,rd
 320  00DC  0083        	mov mp,a
 320  00DD  0700     E  	mov a,re
 320  00DE  0084        	mov sbp,a
 320  00DF  0700     E  	mov a,rb
 320  00E0  0082        	mov ir,a
 320  00E1  1483        	inc mp
 320  00E2  0700     E  	mov a,rc
 320  00E3  0082        	mov ir,a
 320  00E4              _L76:
 321  00E4              #line 321 "c:\users\longshuangmin\desktop\worke_space\g-501\g-501\LcdScan.c"
 321  00E4  1480     E  	inc ra
 321  00E5  1780     E  	sdz rh
 321  00E6  2800     R  	jmp _L78
 321  00E7  0003        	ret
 321  00E8              _LCD_ScanIn endp
 321  00E8              #line 321 "c:\users\longshuangmin\desktop\worke_space\g-501\g-501\LcdScan.c"
 321  00E8              #pragma debug scope 1 1
 321  00E8              public _Lcd_Year_Process
 321  00E8              #pragma debug scope 30 1
 970  00E8              #line 970 "c:\users\longshuangmin\desktop\worke_space\g-501\g-501\LcdScan.c"
 970  0000              _Lcd_Year_Process .section 'code'
 970  0000              _Lcd_Year_Process proc
 970  0000  00              local _Lcd_Year_Process_2 db 1 dup(?)	; 0,1
 970  0000  0080     E  	mov rb,a
 970  0001              #pragma debug variable 8 30 _Lcd_Year_Process_2+0 "Year"
 977  0001              #line 977 "c:\users\longshuangmin\desktop\worke_space\g-501\g-501\LcdScan.c"
 977  0001  1F00     E  	clr _builtin_holtek_udivmodqi4_2[3]
 977  0002  0700     E  	mov a,rb
 977  0003  0080     E  	mov _builtin_holtek_udivmodqi4_2[0],a
 977  0004  0F0A        	mov a,10
 977  0005  0080     E  	mov _builtin_holtek_udivmodqi4_2[1],a
 977  0006              	fcall _builtin_holtek_udivmodqi4
 977  000D  0700     E  	mov a,_builtin_holtek_udivmodqi4_2[0]
 977  000E  0080     E  	mov rd,a
 977  000F  1F00     E  	clr re
 977  0010  340A        	clr c
 977  0011  1A80     E  	rlc rd
 977  0012  1A80     E  	rlc re
 977  0013  0F00     R  	mov a,low offset _HexTab
 977  0014  0300     E  	add a,rd
 977  0015  0083        	mov mp,a
文件：LcdScan.c    编译器版本 HGASM 0202 页次47

 977  0016  0F00     R  	mov a,high offset _HexTab
 977  0017  1300     E  	adc a,re
 977  0018  0084        	mov sbp,a
 977  0019              	fcall _Crom2Prom
 977  0020  0080     R  	mov _lcd[18],a
 977  0021              	fcall _Crom2PromNext
 977  0028  0080     R  	mov _lcd[19],a
 978  0029              #line 978 "c:\users\longshuangmin\desktop\worke_space\g-501\g-501\LcdScan.c"
 978  0029  1F00     E  	clr _builtin_holtek_udivmodqi4_2[3]
 978  002A  0700     E  	mov a,rb
 978  002B  0080     E  	mov _builtin_holtek_udivmodqi4_2[0],a
 978  002C  0F0A        	mov a,10
 978  002D  0080     E  	mov _builtin_holtek_udivmodqi4_2[1],a
 978  002E              	fcall _builtin_holtek_udivmodqi4
 978  0035  0700     E  	mov a,_builtin_holtek_udivmodqi4_2[2]
 978  0036  0080     E  	mov rb,a
 979  0037              #line 979 "c:\users\longshuangmin\desktop\worke_space\g-501\g-501\LcdScan.c"
 979  0037  1F00     E  	clr rc
 979  0038  340A        	clr c
 979  0039  1A80     E  	rlc rb
 979  003A  1A80     E  	rlc rc
 979  003B  0F00     R  	mov a,low offset _HexTab
 979  003C  0300     E  	add a,rb
 979  003D  0083        	mov mp,a
 979  003E  0F00     R  	mov a,high offset _HexTab
 979  003F  1300     E  	adc a,rc
 979  0040  0084        	mov sbp,a
 979  0041              	fcall _Crom2Prom
 979  0048  0080     R  	mov _lcd[20],a
 979  0049              	fcall _Crom2PromNext
 979  0050  0080     R  	mov _lcd[21],a
 979  0051  0003        	ret
 979  0052              _Lcd_Year_Process endp
 979  0052              #line 979 "c:\users\longshuangmin\desktop\worke_space\g-501\g-501\LcdScan.c"
 979  0052              #pragma debug scope 1 1
 979  0052              public _Lcd_Unit
 979  0052              #pragma debug scope 31 1
 984  0052              #line 984 "c:\users\longshuangmin\desktop\worke_space\g-501\g-501\LcdScan.c"
 984  0000              _Lcd_Unit .section 'code'
 984  0000              _Lcd_Unit proc
 986  0000              #line 986 "c:\users\longshuangmin\desktop\worke_space\g-501\g-501\LcdScan.c"
 986  0000  3800     E  	snz _M_Unit[0].0
 986  0001  2800     R  	jmp _L81
 988  0002              #line 988 "c:\users\longshuangmin\desktop\worke_space\g-501\g-501\LcdScan.c"
 988  0002  3000     R  	set _lcd[24].0
 989  0003              #line 989 "c:\users\longshuangmin\desktop\worke_space\g-501\g-501\LcdScan.c"
 989  0003  3400     R  	clr _lcd[24].1
 989  0004  2800     R  	jmp _L80
 989  0005              _L81:
 993  0005              #line 993 "c:\users\longshuangmin\desktop\worke_space\g-501\g-501\LcdScan.c"
 993  0005  3400     R  	clr _lcd[24].0
 994  0006              #line 994 "c:\users\longshuangmin\desktop\worke_space\g-501\g-501\LcdScan.c"
 994  0006  3000     R  	set _lcd[24].1
 994  0007              _L80:
 994  0007  0003        	ret
 994  0008              _Lcd_Unit endp
 994  0008              #line 994 "c:\users\longshuangmin\desktop\worke_space\g-501\g-501\LcdScan.c"
 994  0008              #pragma debug scope 1 1
 994  0008              public _Clr_Unit
 994  0008              #pragma debug scope 32 1
文件：LcdScan.c    编译器版本 HGASM 0202 页次48

1000  0008              #line 1000 "c:\users\longshuangmin\desktop\worke_space\g-501\g-501\LcdScan.c"
1000  0000              _Clr_Unit .section 'code'
1000  0000              _Clr_Unit proc
1001  0000              #line 1001 "c:\users\longshuangmin\desktop\worke_space\g-501\g-501\LcdScan.c"
1001  0000  3400     R  	clr _lcd[24].0
1002  0001              #line 1002 "c:\users\longshuangmin\desktop\worke_space\g-501\g-501\LcdScan.c"
1002  0001  3400     R  	clr _lcd[24].1
1002  0002  0003        	ret
1002  0003              _Clr_Unit endp
1002  0003              #line 1002 "c:\users\longshuangmin\desktop\worke_space\g-501\g-501\LcdScan.c"
1002  0003              #pragma debug scope 1 1
1002  0003              public _Lcd_Bat
1002  0003              #pragma debug scope 33 1
1007  0003              #line 1007 "c:\users\longshuangmin\desktop\worke_space\g-501\g-501\LcdScan.c"
1007  0000              _Lcd_Bat .section 'code'
1007  0000              _Lcd_Bat proc
1007  0000  00              local _Lcd_Bat_2 db 1 dup(?)	; 0,1
1007  0000  0080     E  	mov ra,a
1007  0001              #pragma debug variable 8 33 _Lcd_Bat_2+0 "BatLevel"
1010  0001              #line 1010 "c:\users\longshuangmin\desktop\worke_space\g-501\g-501\LcdScan.c"
1010  0001  1080     E  	sz ra
1010  0002  2800     R  	jmp _L85
1015  0003              #line 1015 "c:\users\longshuangmin\desktop\worke_space\g-501\g-501\LcdScan.c"
1015  0003  3000     R  	set _lcd[28].1
1015  0004  2800     R  	jmp _L84
1015  0005              _L85:
1019  0005              #line 1019 "c:\users\longshuangmin\desktop\worke_space\g-501\g-501\LcdScan.c"
1019  0005  3400     R  	clr _lcd[28].1
1019  0006              _L84:
1019  0006  0003        	ret
1019  0007              _Lcd_Bat endp
1019  0007              #line 1019 "c:\users\longshuangmin\desktop\worke_space\g-501\g-501\LcdScan.c"
1019  0007              #pragma debug scope 1 1
1019  0007              public _Clr_Bat
1019  0007              #pragma debug scope 34 1
1046  0007              #line 1046 "c:\users\longshuangmin\desktop\worke_space\g-501\g-501\LcdScan.c"
1046  0000              _Clr_Bat .section 'code'
1046  0000              _Clr_Bat proc
1047  0000              #line 1047 "c:\users\longshuangmin\desktop\worke_space\g-501\g-501\LcdScan.c"
1047  0000  3400     R  	clr _lcd[28].1
1047  0001  0003        	ret
1047  0002              _Clr_Bat endp
1047  0002              #line 1047 "c:\users\longshuangmin\desktop\worke_space\g-501\g-501\LcdScan.c"
1047  0002              #pragma debug scope 1 1
1047  0002              public _Lcd_ControlOption
1047  0002              #pragma debug scope 35 1
1091  0002              #line 1091 "c:\users\longshuangmin\desktop\worke_space\g-501\g-501\LcdScan.c"
1091  0000              _Lcd_ControlOption .section 'code'
1091  0000              _Lcd_ControlOption proc
1093  0000              #line 1093 "c:\users\longshuangmin\desktop\worke_space\g-501\g-501\LcdScan.c"
1093  0000  3800     E  	snz _Flag1[0].4
1093  0001  2800     R  	jmp _L89
1094  0002              #line 1094 "c:\users\longshuangmin\desktop\worke_space\g-501\g-501\LcdScan.c"
1094  0002  3000     R  	set _lcd[28].5
1094  0003  2800     R  	jmp _L88
1094  0004              _L89:
1096  0004              #line 1096 "c:\users\longshuangmin\desktop\worke_space\g-501\g-501\LcdScan.c"
1096  0004  3400     R  	clr _lcd[28].5
1096  0005              _L88:
1096  0005  0003        	ret
文件：LcdScan.c    编译器版本 HGASM 0202 页次49

1096  0006              _Lcd_ControlOption endp
1096  0006              #line 1096 "c:\users\longshuangmin\desktop\worke_space\g-501\g-501\LcdScan.c"
1096  0006              #pragma debug scope 1 1
1096  0000              @crom	.section 'crom'
1096  0000              _LC0:
1096  0000              	db 020h,04ch,06fh,00h
1096  0002              @crom	.section 'crom'
1096  0002              _LC1:
1096  0002              	db 020h,048h,049h,00h
1096  0004              public _Lcd_Glucose
1096  0004              #pragma debug scope 36 1
1101  0004              #line 1101 "c:\users\longshuangmin\desktop\worke_space\g-501\g-501\LcdScan.c"
1101  0000              _Lcd_Glucose .section 'code'
1101  0000              _Lcd_Glucose proc
1101  0000              public _Lcd_Glucose_2
1101  0000  0002[           local _Lcd_Glucose_2 db 2 dup(?)	; 2,0
            00
            ]
1101  0002              #pragma debug variable 11 36 _Lcd_Glucose_2+0 "data"
1105  0002              #line 1105 "c:\users\longshuangmin\desktop\worke_space\g-501\g-501\LcdScan.c"
1105  0000  0FEC        	mov a,236
1105  0001  0300     R  	add a,_Lcd_Glucose_2[0]
1105  0002  0080     E  	mov rb,a
1105  0003  0FFF        	mov a,255
1105  0004  1300     R  	adc a,_Lcd_Glucose_2[1]
1105  0005  0080     E  	mov rc,a
1105  0006  0F44        	mov a,68
1105  0007  0200     E  	sub a,rb
1105  0008  0F02        	mov a,2
1105  0009  1200     E  	sbc a,rc
1105  000A  380A        	snz c
1105  000B  2800     R  	jmp _L92
1109  000C              #line 1109 "c:\users\longshuangmin\desktop\worke_space\g-501\g-501\LcdScan.c"
1109  000C              	fcall _Lcd_Unit
1112  0013              #line 1112 "c:\users\longshuangmin\desktop\worke_space\g-501\g-501\LcdScan.c"
1112  0013  0700     R  	mov a,_Lcd_Glucose_2[0]
1112  0014  0080     E  	mov _builtin_holtek_udivmodhi4_2[0],a
1112  0015  0700     R  	mov a,_Lcd_Glucose_2[1]
1112  0016  0080     E  	mov _builtin_holtek_udivmodhi4_2[1],a
1112  0017  0FE8        	mov a,232
1112  0018  0080     E  	mov _builtin_holtek_udivmodhi4_2[2],a
1112  0019  0F03        	mov a,3
1112  001A  0080     E  	mov _builtin_holtek_udivmodhi4_2[3],a
1112  001B              	fcall _builtin_holtek_divmodhi4
1112  0022  0700     E  	mov a,_builtin_holtek_udivmodhi4_2[4]
1112  0023  0080     E  	mov rb,a
1112  0024  0700     E  	mov a,_builtin_holtek_udivmodhi4_2[5]
1112  0025  0080     E  	mov rc,a
1114  0026              #line 1114 "c:\users\longshuangmin\desktop\worke_space\g-501\g-501\LcdScan.c"
1114  0026  3800     E  	snz _M_Unit[0].0
1114  0027  2800     R  	jmp _L93
1118  0028              #line 1118 "c:\users\longshuangmin\desktop\worke_space\g-501\g-501\LcdScan.c"
1118  0028  1B20        	rrca intc
1118  0029  3420        	clr intc.0
1118  002A  0700     E  	mov a,rb
1118  002B  00D9        	mov mduwr0,a
1118  002C  0F64        	mov a,100
1118  002D  00DD        	mov mduwr4,a
1118  002E  0700     E  	mov a,rc
1118  002F  00DA        	mov mduwr1,a
文件：LcdScan.c    编译器版本 HGASM 0202 页次50

1118  0030  0F00        	mov a,0
1118  0031  00DE        	mov mduwr5,a
1118  0032  0F06        	mov a,6
1118  0033              _LI35:
1118  0033  1785        	sdz acc
1118  0034  2800     R  	jmp _LI35
1118  0035  0759        	mov a,mduwr0
1118  0036  0080     E  	mov rb,a
1118  0037  075A        	mov a,mduwr1
1118  0038  0080     E  	mov rc,a
1118  0039  3C0A        	sz c
1118  003A  3020        	set intc.0
1119  003B              #line 1119 "c:\users\longshuangmin\desktop\worke_space\g-501\g-501\LcdScan.c"
1119  003B  1B20        	rrca intc
1119  003C  3420        	clr intc.0
1119  003D  0700     E  	mov a,rb
1119  003E  00D9        	mov mduwr0,a
1119  003F  0700     E  	mov a,rc
1119  0040  00DA        	mov mduwr1,a
1119  0041  0F12        	mov a,18
1119  0042  00DD        	mov mduwr4,a
1119  0043  0F00        	mov a,0
1119  0044  00DE        	mov mduwr5,a
1119  0045  0F06        	mov a,6
1119  0046              _LI36:
1119  0046  1785        	sdz acc
1119  0047  2800     R  	jmp _LI36
1119  0048  0759        	mov a,mduwr0
1119  0049  0080     E  	mov rd,a
1119  004A  075A        	mov a,mduwr1
1119  004B  0080     E  	mov re,a
1119  004C  3C0A        	sz c
1119  004D  3020        	set intc.0
1120  004E              #line 1120 "c:\users\longshuangmin\desktop\worke_space\g-501\g-501\LcdScan.c"
1120  004E  1B20        	rrca intc
1120  004F  3420        	clr intc.0
1120  0050  0700     E  	mov a,rd
1120  0051  00D9        	mov mduwr0,a
1120  0052  0700     E  	mov a,re
1120  0053  00DA        	mov mduwr1,a
1120  0054  0F0A        	mov a,10
1120  0055  00DD        	mov mduwr4,a
1120  0056  0F00        	mov a,0
1120  0057  00DE        	mov mduwr5,a
1120  0058  0F06        	mov a,6
1120  0059              _LI37:
1120  0059  1785        	sdz acc
1120  005A  2800     R  	jmp _LI37
1120  005B  0759        	mov a,mduwr0
1120  005C  0080     E  	mov rb,a
1120  005D  075A        	mov a,mduwr1
1120  005E  0080     E  	mov rc,a
1120  005F  3C0A        	sz c
1120  0060  3020        	set intc.0
1121  0061              #line 1121 "c:\users\longshuangmin\desktop\worke_space\g-501\g-501\LcdScan.c"
1121  0061  1B20        	rrca intc
1121  0062  3420        	clr intc.0
1121  0063  0700     E  	mov a,rd
1121  0064  00D9        	mov mduwr0,a
1121  0065  0700     E  	mov a,re
文件：LcdScan.c    编译器版本 HGASM 0202 页次51

1121  0066  00DA        	mov mduwr1,a
1121  0067  0F0A        	mov a,10
1121  0068  00DD        	mov mduwr4,a
1121  0069  0F00        	mov a,0
1121  006A  00DE        	mov mduwr5,a
1121  006B  0F06        	mov a,6
1121  006C              _LI38:
1121  006C  1785        	sdz acc
1121  006D  2800     R  	jmp _LI38
1121  006E  075D        	mov a,mduwr4
1121  006F  0080     E  	mov rd,a
1121  0070  075E        	mov a,mduwr5
1121  0071  0080     E  	mov re,a
1121  0072  3C0A        	sz c
1121  0073  3020        	set intc.0
1123  0074              #line 1123 "c:\users\longshuangmin\desktop\worke_space\g-501\g-501\LcdScan.c"
1123  0074  0F04        	mov a,4
1123  0075  0200     E  	sub a,rd
1123  0076  0F00        	mov a,0
1123  0077  1200     E  	sbc a,re
1123  0078  3C0A        	sz c
1123  0079  2800     R  	jmp _L94
1124  007A              #line 1124 "c:\users\longshuangmin\desktop\worke_space\g-501\g-501\LcdScan.c"
1124  007A  1480     E  	inc rb
1124  007B  3D0A        	sz z
1124  007C  1480     E  	inc rc
1124  007D              _L94:
1126  007D              #line 1126 "c:\users\longshuangmin\desktop\worke_space\g-501\g-501\LcdScan.c"
1126  007D  3000     R  	set _lcd[28].0
1126  007E              _L93:
1133  007E              #line 1133 "c:\users\longshuangmin\desktop\worke_space\g-501\g-501\LcdScan.c"
1133  007E  0700     E  	mov a,rb
1133  007F  0080     R  	mov _ShowDec_BigNum_2[0],a
1133  0080  0700     E  	mov a,rc
1133  0081  0080     R  	mov _ShowDec_BigNum_2[1],a
1133  0082              	fcall _ShowDec_BigNum
1133  0089  2800     R  	jmp _L91
1133  008A              _L92:
1136  008A              #line 1136 "c:\users\longshuangmin\desktop\worke_space\g-501\g-501\LcdScan.c"
1136  008A  0F13        	mov a,19
1136  008B  0200     R  	sub a,_Lcd_Glucose_2[0]
1136  008C  0F00        	mov a,0
1136  008D  1200     R  	sbc a,_Lcd_Glucose_2[1]
1136  008E  3F8A        	sz sc
1136  008F  2800     R  	jmp _L96
1137  0090              #line 1137 "c:\users\longshuangmin\desktop\worke_space\g-501\g-501\LcdScan.c"
1137  0090              	fcall _Lcd_Unit
1138  0097              #line 1138 "c:\users\longshuangmin\desktop\worke_space\g-501\g-501\LcdScan.c"
1138  0097  0F00     R  	mov a,low offset _LC0
1138  0098  0080     R  	mov _Show_BigString_2[0],a
1138  0099  0F00     R  	mov a,high offset _LC0
1138  009A  0080     R  	mov _Show_BigString_2[1],a
1138  009B  2800     R  	jmp _L97
1138  009C              _L96:
1141  009C              #line 1141 "c:\users\longshuangmin\desktop\worke_space\g-501\g-501\LcdScan.c"
1141  009C  0F58        	mov a,88
1141  009D  0200     R  	sub a,_Lcd_Glucose_2[0]
1141  009E  0F02        	mov a,2
1141  009F  1200     R  	sbc a,_Lcd_Glucose_2[1]
1141  00A0  3B8A        	snz sc
文件：LcdScan.c    编译器版本 HGASM 0202 页次52

1141  00A1  2800     R  	jmp _L91
1142  00A2              #line 1142 "c:\users\longshuangmin\desktop\worke_space\g-501\g-501\LcdScan.c"
1142  00A2              	fcall _Lcd_Unit
1143  00A9              #line 1143 "c:\users\longshuangmin\desktop\worke_space\g-501\g-501\LcdScan.c"
1143  00A9  0F00     R  	mov a,low offset _LC1
1143  00AA  0080     R  	mov _Show_BigString_2[0],a
1143  00AB  0F00     R  	mov a,high offset _LC1
1143  00AC  0080     R  	mov _Show_BigString_2[1],a
1143  00AD              _L97:
1143  00AD              	fcall _Show_BigString
1143  00B4              _L91:
1143  00B4  0003        	ret
1143  00B5              _Lcd_Glucose endp
1143  00B5              #line 1143 "c:\users\longshuangmin\desktop\worke_space\g-501\g-501\LcdScan.c"
1143  00B5              #pragma debug scope 1 1
1143  00B5              public _Lcd_ShowHW
1143  00B5              #pragma debug scope 37 1
1157  00B5              #line 1157 "c:\users\longshuangmin\desktop\worke_space\g-501\g-501\LcdScan.c"
1157  0000              _Lcd_ShowHW .section 'code'
1157  0000              _Lcd_ShowHW proc
1157  0000              public _Lcd_ShowHW_2
1157  0000  0002[           local _Lcd_ShowHW_2 db 2 dup(?)	; 2,0
            00
            ]
1157  0002              #pragma debug variable 12 37 _Lcd_ShowHW_2+0 "data"
1158  0002              #line 1158 "c:\users\longshuangmin\desktop\worke_space\g-501\g-501\LcdScan.c"
1158  0000  3000     R  	set _lcd[24].4
1160  0001              #line 1160 "c:\users\longshuangmin\desktop\worke_space\g-501\g-501\LcdScan.c"
1160  0001  1B20        	rrca intc
1160  0002  3420        	clr intc.0
1160  0003  0700     R  	mov a,_Lcd_ShowHW_2[0]
1160  0004  00D9        	mov mduwr0,a
1160  0005  0700     R  	mov a,_Lcd_ShowHW_2[1]
1160  0006  00DA        	mov mduwr1,a
1160  0007  0FE8        	mov a,232
1160  0008  00DD        	mov mduwr4,a
1160  0009  0F03        	mov a,3
1160  000A  00DE        	mov mduwr5,a
1160  000B  0F06        	mov a,6
1160  000C              _LI39:
1160  000C  1785        	sdz acc
1160  000D  2800     R  	jmp _LI39
1160  000E  075D        	mov a,mduwr4
1160  000F  0080     E  	mov rb,a
1160  0010  075E        	mov a,mduwr5
1160  0011  0080     E  	mov rc,a
1160  0012  3C0A        	sz c
1160  0013  3020        	set intc.0
1162  0014              #line 1162 "c:\users\longshuangmin\desktop\worke_space\g-501\g-501\LcdScan.c"
1162  0014  1B20        	rrca intc
1162  0015  3420        	clr intc.0
1162  0016  0700     E  	mov a,rb
1162  0017  00D9        	mov mduwr0,a
1162  0018  0700     E  	mov a,rc
1162  0019  00DA        	mov mduwr1,a
1162  001A  0F64        	mov a,100
1162  001B  00DD        	mov mduwr4,a
1162  001C  0F00        	mov a,0
1162  001D  00DE        	mov mduwr5,a
1162  001E  0F06        	mov a,6
文件：LcdScan.c    编译器版本 HGASM 0202 页次53

1162  001F              _LI40:
1162  001F  1785        	sdz acc
1162  0020  2800     R  	jmp _LI40
1162  0021  0759        	mov a,mduwr0
1162  0022  0080     E  	mov rd,a
1162  0023  075A        	mov a,mduwr1
1162  0024  0080     E  	mov re,a
1162  0025  3C0A        	sz c
1162  0026  3020        	set intc.0
1162  0027  340A        	clr c
1162  0028  1A80     E  	rlc rd
1162  0029  1A80     E  	rlc re
1162  002A  0F00     R  	mov a,low offset _HexTab
1162  002B  0300     E  	add a,rd
1162  002C  0083        	mov mp,a
1162  002D  0F00     R  	mov a,high offset _HexTab
1162  002E  1300     E  	adc a,re
1162  002F  0084        	mov sbp,a
1162  0030              	fcall _Crom2Prom
1162  0037  0080     R  	mov _lcd[10],a
1162  0038              	fcall _Crom2PromNext
1162  003F  0080     R  	mov _lcd[11],a
1163  0040              #line 1163 "c:\users\longshuangmin\desktop\worke_space\g-501\g-501\LcdScan.c"
1163  0040  1B20        	rrca intc
1163  0041  3420        	clr intc.0
1163  0042  0700     E  	mov a,rb
1163  0043  00D9        	mov mduwr0,a
1163  0044  0700     E  	mov a,rc
1163  0045  00DA        	mov mduwr1,a
1163  0046  0F64        	mov a,100
1163  0047  00DD        	mov mduwr4,a
1163  0048  0F00        	mov a,0
1163  0049  00DE        	mov mduwr5,a
1163  004A  0F06        	mov a,6
1163  004B              _LI41:
1163  004B  1785        	sdz acc
1163  004C  2800     R  	jmp _LI41
1163  004D  075D        	mov a,mduwr4
1163  004E  0080     E  	mov rb,a
1163  004F  075E        	mov a,mduwr5
1163  0050  0080     E  	mov rc,a
1163  0051  3C0A        	sz c
1163  0052  3020        	set intc.0
1164  0053              #line 1164 "c:\users\longshuangmin\desktop\worke_space\g-501\g-501\LcdScan.c"
1164  0053  1B20        	rrca intc
1164  0054  3420        	clr intc.0
1164  0055  0700     E  	mov a,rb
1164  0056  00D9        	mov mduwr0,a
1164  0057  0700     E  	mov a,rc
1164  0058  00DA        	mov mduwr1,a
1164  0059  0F0A        	mov a,10
1164  005A  00DD        	mov mduwr4,a
1164  005B  0F00        	mov a,0
1164  005C  00DE        	mov mduwr5,a
1164  005D  0F06        	mov a,6
1164  005E              _LI42:
1164  005E  1785        	sdz acc
1164  005F  2800     R  	jmp _LI42
1164  0060  0759        	mov a,mduwr0
1164  0061  0080     E  	mov rd,a
文件：LcdScan.c    编译器版本 HGASM 0202 页次54

1164  0062  075A        	mov a,mduwr1
1164  0063  0080     E  	mov re,a
1164  0064  3C0A        	sz c
1164  0065  3020        	set intc.0
1164  0066  340A        	clr c
1164  0067  1A80     E  	rlc rd
1164  0068  1A80     E  	rlc re
1164  0069  0F00     R  	mov a,low offset _HexTab
1164  006A  0300     E  	add a,rd
1164  006B  0083        	mov mp,a
1164  006C  0F00     R  	mov a,high offset _HexTab
1164  006D  1300     E  	adc a,re
1164  006E  0084        	mov sbp,a
1164  006F              	fcall _Crom2Prom
1164  0076  0080     R  	mov _lcd[12],a
1164  0077              	fcall _Crom2PromNext
1164  007E  0080     R  	mov _lcd[13],a
1165  007F              #line 1165 "c:\users\longshuangmin\desktop\worke_space\g-501\g-501\LcdScan.c"
1165  007F  1B20        	rrca intc
1165  0080  3420        	clr intc.0
1165  0081  0700     E  	mov a,rb
1165  0082  00D9        	mov mduwr0,a
1165  0083  0700     E  	mov a,rc
1165  0084  00DA        	mov mduwr1,a
1165  0085  0F0A        	mov a,10
1165  0086  00DD        	mov mduwr4,a
1165  0087  0F00        	mov a,0
1165  0088  00DE        	mov mduwr5,a
1165  0089  0F06        	mov a,6
1165  008A              _LI43:
1165  008A  1785        	sdz acc
1165  008B  2800     R  	jmp _LI43
1165  008C  075D        	mov a,mduwr4
1165  008D  0080     E  	mov rb,a
1165  008E  075E        	mov a,mduwr5
1165  008F  0080     E  	mov rc,a
1165  0090  3C0A        	sz c
1165  0091  3020        	set intc.0
1166  0092              #line 1166 "c:\users\longshuangmin\desktop\worke_space\g-501\g-501\LcdScan.c"
1166  0092  340A        	clr c
1166  0093  1A80     E  	rlc rb
1166  0094  1A80     E  	rlc rc
1166  0095  0F00     R  	mov a,low offset _HexTab
1166  0096  0300     E  	add a,rb
1166  0097  0083        	mov mp,a
1166  0098  0F00     R  	mov a,high offset _HexTab
1166  0099  1300     E  	adc a,rc
1166  009A  0084        	mov sbp,a
1166  009B              	fcall _Crom2Prom
1166  00A2  0080     R  	mov _lcd[14],a
1166  00A3              	fcall _Crom2PromNext
1166  00AA  0080     R  	mov _lcd[15],a
1166  00AB  0003        	ret
1166  00AC              _Lcd_ShowHW endp
1166  00AC              #line 1166 "c:\users\longshuangmin\desktop\worke_space\g-501\g-501\LcdScan.c"
1166  00AC              #pragma debug scope 1 1
1166  00AC              public _Lcd_ShowFW
1166  00AC              #pragma debug scope 38 1
1171  00AC              #line 1171 "c:\users\longshuangmin\desktop\worke_space\g-501\g-501\LcdScan.c"
1171  0000              _Lcd_ShowFW .section 'code'
文件：LcdScan.c    编译器版本 HGASM 0202 页次55

1171  0000              _Lcd_ShowFW proc
1171  0000              public _Lcd_ShowFW_2
1171  0000  0002[           local _Lcd_ShowFW_2 db 2 dup(?)	; 2,0
            00
            ]
1171  0002              #pragma debug variable 12 38 _Lcd_ShowFW_2+0 "data"
1172  0002              #line 1172 "c:\users\longshuangmin\desktop\worke_space\g-501\g-501\LcdScan.c"
1172  0000  3000     R  	set _lcd[24].3
1172  0001  0700     R  	mov a,_Lcd_ShowFW_2[0]
1172  0002  0080     E  	mov rb,a
1172  0003  0700     R  	mov a,_Lcd_ShowFW_2[1]
1172  0004  0080     E  	mov rc,a
1174  0005              #line 1174 "c:\users\longshuangmin\desktop\worke_space\g-501\g-501\LcdScan.c"
1174  0005  0FE7        	mov a,231
1174  0006  0200     E  	sub a,rb
1174  0007  0F03        	mov a,3
1174  0008  1200     E  	sbc a,rc
1174  0009  3C0A        	sz c
1174  000A  2800     R  	jmp _L100
1175  000B              #line 1175 "c:\users\longshuangmin\desktop\worke_space\g-501\g-501\LcdScan.c"
1175  000B  1B20        	rrca intc
1175  000C  3420        	clr intc.0
1175  000D  0700     E  	mov a,rb
1175  000E  00D9        	mov mduwr0,a
1175  000F  0700     E  	mov a,rc
1175  0010  00DA        	mov mduwr1,a
1175  0011  0FE8        	mov a,232
1175  0012  00DD        	mov mduwr4,a
1175  0013  0F03        	mov a,3
1175  0014  00DE        	mov mduwr5,a
1175  0015  0F06        	mov a,6
1175  0016              _LI44:
1175  0016  1785        	sdz acc
1175  0017  2800     R  	jmp _LI44
1175  0018  0759        	mov a,mduwr0
1175  0019  0080     E  	mov rd,a
1175  001A  075A        	mov a,mduwr1
1175  001B  0080     E  	mov re,a
1175  001C  3C0A        	sz c
1175  001D  3020        	set intc.0
1175  001E  340A        	clr c
1175  001F  1A80     E  	rlc rd
1175  0020  1A80     E  	rlc re
1175  0021  0F00     R  	mov a,low offset _HexTab
1175  0022  0300     E  	add a,rd
1175  0023  0083        	mov mp,a
1175  0024  0F00     R  	mov a,high offset _HexTab
1175  0025  1300     E  	adc a,re
1175  0026  0084        	mov sbp,a
1175  0027              	fcall _Crom2Prom
1175  002E  0080     R  	mov _lcd[0],a
1175  002F              	fcall _Crom2PromNext
1175  0036  0080     R  	mov _lcd[1],a
1175  0037  2800     R  	jmp _L101
1175  0038              _L100:
1177  0038              #line 1177 "c:\users\longshuangmin\desktop\worke_space\g-501\g-501\LcdScan.c"
1177  0038  1F00     R  	clr _lcd[0]
1177  0039  1F00     R  	clr _lcd[1]
1177  003A              _L101:
1179  003A              #line 1179 "c:\users\longshuangmin\desktop\worke_space\g-501\g-501\LcdScan.c"
文件：LcdScan.c    编译器版本 HGASM 0202 页次56

1179  003A  1B20        	rrca intc
1179  003B  3420        	clr intc.0
1179  003C  0700     E  	mov a,rb
1179  003D  00D9        	mov mduwr0,a
1179  003E  0700     E  	mov a,rc
1179  003F  00DA        	mov mduwr1,a
1179  0040  0FE8        	mov a,232
1179  0041  00DD        	mov mduwr4,a
1179  0042  0F03        	mov a,3
1179  0043  00DE        	mov mduwr5,a
1179  0044  0F06        	mov a,6
1179  0045              _LI45:
1179  0045  1785        	sdz acc
1179  0046  2800     R  	jmp _LI45
1179  0047  075D        	mov a,mduwr4
1179  0048  0080     E  	mov rb,a
1179  0049  075E        	mov a,mduwr5
1179  004A  0080     E  	mov rc,a
1179  004B  3C0A        	sz c
1179  004C  3020        	set intc.0
1180  004D              #line 1180 "c:\users\longshuangmin\desktop\worke_space\g-501\g-501\LcdScan.c"
1180  004D  1B20        	rrca intc
1180  004E  3420        	clr intc.0
1180  004F  0700     E  	mov a,rb
1180  0050  00D9        	mov mduwr0,a
1180  0051  0700     E  	mov a,rc
1180  0052  00DA        	mov mduwr1,a
1180  0053  0F64        	mov a,100
1180  0054  00DD        	mov mduwr4,a
1180  0055  0F00        	mov a,0
1180  0056  00DE        	mov mduwr5,a
1180  0057  0F06        	mov a,6
1180  0058              _LI46:
1180  0058  1785        	sdz acc
1180  0059  2800     R  	jmp _LI46
1180  005A  0759        	mov a,mduwr0
1180  005B  0080     E  	mov rd,a
1180  005C  075A        	mov a,mduwr1
1180  005D  0080     E  	mov re,a
1180  005E  3C0A        	sz c
1180  005F  3020        	set intc.0
1180  0060  340A        	clr c
1180  0061  1A80     E  	rlc rd
1180  0062  1A80     E  	rlc re
1180  0063  0F00     R  	mov a,low offset _HexTab
1180  0064  0300     E  	add a,rd
1180  0065  0083        	mov mp,a
1180  0066  0F00     R  	mov a,high offset _HexTab
1180  0067  1300     E  	adc a,re
1180  0068  0084        	mov sbp,a
1180  0069              	fcall _Crom2Prom
1180  0070  0080     R  	mov _lcd[2],a
1180  0071              	fcall _Crom2PromNext
1180  0078  0080     R  	mov _lcd[3],a
1181  0079              #line 1181 "c:\users\longshuangmin\desktop\worke_space\g-501\g-501\LcdScan.c"
1181  0079  1B20        	rrca intc
1181  007A  3420        	clr intc.0
1181  007B  0700     E  	mov a,rb
1181  007C  00D9        	mov mduwr0,a
1181  007D  0700     E  	mov a,rc
文件：LcdScan.c    编译器版本 HGASM 0202 页次57

1181  007E  00DA        	mov mduwr1,a
1181  007F  0F64        	mov a,100
1181  0080  00DD        	mov mduwr4,a
1181  0081  0F00        	mov a,0
1181  0082  00DE        	mov mduwr5,a
1181  0083  0F06        	mov a,6
1181  0084              _LI47:
1181  0084  1785        	sdz acc
1181  0085  2800     R  	jmp _LI47
1181  0086  075D        	mov a,mduwr4
1181  0087  0080     E  	mov rb,a
1181  0088  075E        	mov a,mduwr5
1181  0089  0080     E  	mov rc,a
1181  008A  3C0A        	sz c
1181  008B  3020        	set intc.0
1182  008C              #line 1182 "c:\users\longshuangmin\desktop\worke_space\g-501\g-501\LcdScan.c"
1182  008C  340A        	clr c
1182  008D  1A80     E  	rlc rb
1182  008E  1A80     E  	rlc rc
1182  008F  0F00     R  	mov a,low offset _HexTab
1182  0090  0300     E  	add a,rb
1182  0091  0083        	mov mp,a
1182  0092  0F00     R  	mov a,high offset _HexTab
1182  0093  1300     E  	adc a,rc
1182  0094  0084        	mov sbp,a
1182  0095              	fcall _Crom2Prom
1182  009C  0080     R  	mov _lcd[4],a
1182  009D              	fcall _Crom2PromNext
1182  00A4  0080     R  	mov _lcd[5],a
1182  00A5  0003        	ret
1182  00A6              _Lcd_ShowFW endp
1182  00A6              #line 1182 "c:\users\longshuangmin\desktop\worke_space\g-501\g-501\LcdScan.c"
1182  00A6              #pragma debug scope 1 1
1182  00A6              public _Lcd_ShowAvgNum
1182  00A6              #pragma debug scope 39 1
1187  00A6              #line 1187 "c:\users\longshuangmin\desktop\worke_space\g-501\g-501\LcdScan.c"
1187  0000              _Lcd_ShowAvgNum .section 'code'
1187  0000              _Lcd_ShowAvgNum proc
1187  0000              public _Lcd_ShowAvgNum_2
1187  0000  0002[           local _Lcd_ShowAvgNum_2 db 2 dup(?)	; 2,0
            00
            ]
1187  0002              #pragma debug variable 12 39 _Lcd_ShowAvgNum_2+0 "data"
1188  0002              #line 1188 "c:\users\longshuangmin\desktop\worke_space\g-501\g-501\LcdScan.c"
1188  0000  1B20        	rrca intc
1188  0001  3420        	clr intc.0
1188  0002  0700     R  	mov a,_Lcd_ShowAvgNum_2[0]
1188  0003  00D9        	mov mduwr0,a
1188  0004  0700     R  	mov a,_Lcd_ShowAvgNum_2[1]
1188  0005  00DA        	mov mduwr1,a
1188  0006  0FE8        	mov a,232
1188  0007  00DD        	mov mduwr4,a
1188  0008  0F03        	mov a,3
1188  0009  00DE        	mov mduwr5,a
1188  000A  0F06        	mov a,6
1188  000B              _LI48:
1188  000B  1785        	sdz acc
1188  000C  2800     R  	jmp _LI48
1188  000D  075D        	mov a,mduwr4
1188  000E  0080     E  	mov rb,a
文件：LcdScan.c    编译器版本 HGASM 0202 页次58

1188  000F  075E        	mov a,mduwr5
1188  0010  0080     E  	mov rc,a
1188  0011  3C0A        	sz c
1188  0012  3020        	set intc.0
1189  0013              #line 1189 "c:\users\longshuangmin\desktop\worke_space\g-501\g-501\LcdScan.c"
1189  0013  0F63        	mov a,99
1189  0014  0200     E  	sub a,rb
1189  0015  0F00        	mov a,0
1189  0016  1200     E  	sbc a,rc
1189  0017  3C0A        	sz c
1189  0018  2800     R  	jmp _L103
1190  0019              #line 1190 "c:\users\longshuangmin\desktop\worke_space\g-501\g-501\LcdScan.c"
1190  0019  1B20        	rrca intc
1190  001A  3420        	clr intc.0
1190  001B  0700     E  	mov a,rb
1190  001C  00D9        	mov mduwr0,a
1190  001D  0700     E  	mov a,rc
1190  001E  00DA        	mov mduwr1,a
1190  001F  0F64        	mov a,100
1190  0020  00DD        	mov mduwr4,a
1190  0021  0F00        	mov a,0
1190  0022  00DE        	mov mduwr5,a
1190  0023  0F06        	mov a,6
1190  0024              _LI49:
1190  0024  1785        	sdz acc
1190  0025  2800     R  	jmp _LI49
1190  0026  0759        	mov a,mduwr0
1190  0027  0080     E  	mov rd,a
1190  0028  075A        	mov a,mduwr1
1190  0029  0080     E  	mov re,a
1190  002A  3C0A        	sz c
1190  002B  3020        	set intc.0
1190  002C  340A        	clr c
1190  002D  1A80     E  	rlc rd
1190  002E  1A80     E  	rlc re
1190  002F  0F00     R  	mov a,low offset _HexTab
1190  0030  0300     E  	add a,rd
1190  0031  0083        	mov mp,a
1190  0032  0F00     R  	mov a,high offset _HexTab
1190  0033  1300     E  	adc a,re
1190  0034  0084        	mov sbp,a
1190  0035              	fcall _Crom2Prom
1190  003C  0080     R  	mov _lcd[10],a
1190  003D              	fcall _Crom2PromNext
1190  0044  0080     R  	mov _lcd[11],a
1190  0045  2800     R  	jmp _L104
1190  0046              _L103:
1192  0046              #line 1192 "c:\users\longshuangmin\desktop\worke_space\g-501\g-501\LcdScan.c"
1192  0046  1F00     R  	clr _lcd[10]
1192  0047  1F00     R  	clr _lcd[11]
1192  0048              _L104:
1193  0048              #line 1193 "c:\users\longshuangmin\desktop\worke_space\g-501\g-501\LcdScan.c"
1193  0048  1B20        	rrca intc
1193  0049  3420        	clr intc.0
1193  004A  0700     E  	mov a,rb
1193  004B  00D9        	mov mduwr0,a
1193  004C  0700     E  	mov a,rc
1193  004D  00DA        	mov mduwr1,a
1193  004E  0F64        	mov a,100
1193  004F  00DD        	mov mduwr4,a
文件：LcdScan.c    编译器版本 HGASM 0202 页次59

1193  0050  0F00        	mov a,0
1193  0051  00DE        	mov mduwr5,a
1193  0052  0F06        	mov a,6
1193  0053              _LI50:
1193  0053  1785        	sdz acc
1193  0054  2800     R  	jmp _LI50
1193  0055  075D        	mov a,mduwr4
1193  0056  0080     E  	mov rb,a
1193  0057  075E        	mov a,mduwr5
1193  0058  0080     E  	mov rc,a
1193  0059  3C0A        	sz c
1193  005A  3020        	set intc.0
1194  005B              #line 1194 "c:\users\longshuangmin\desktop\worke_space\g-501\g-501\LcdScan.c"
1194  005B  1B20        	rrca intc
1194  005C  3420        	clr intc.0
1194  005D  0700     E  	mov a,rb
1194  005E  00D9        	mov mduwr0,a
1194  005F  0700     E  	mov a,rc
1194  0060  00DA        	mov mduwr1,a
1194  0061  0F0A        	mov a,10
1194  0062  00DD        	mov mduwr4,a
1194  0063  0F00        	mov a,0
1194  0064  00DE        	mov mduwr5,a
1194  0065  0F06        	mov a,6
1194  0066              _LI51:
1194  0066  1785        	sdz acc
1194  0067  2800     R  	jmp _LI51
1194  0068  0759        	mov a,mduwr0
1194  0069  0080     E  	mov rd,a
1194  006A  075A        	mov a,mduwr1
1194  006B  0080     E  	mov re,a
1194  006C  3C0A        	sz c
1194  006D  3020        	set intc.0
1194  006E  340A        	clr c
1194  006F  1A80     E  	rlc rd
1194  0070  1A80     E  	rlc re
1194  0071  0F00     R  	mov a,low offset _HexTab
1194  0072  0300     E  	add a,rd
1194  0073  0083        	mov mp,a
1194  0074  0F00     R  	mov a,high offset _HexTab
1194  0075  1300     E  	adc a,re
1194  0076  0084        	mov sbp,a
1194  0077              	fcall _Crom2Prom
1194  007E  0080     R  	mov _lcd[12],a
1194  007F              	fcall _Crom2PromNext
1194  0086  0080     R  	mov _lcd[13],a
1195  0087              #line 1195 "c:\users\longshuangmin\desktop\worke_space\g-501\g-501\LcdScan.c"
1195  0087  1B20        	rrca intc
1195  0088  3420        	clr intc.0
1195  0089  0700     E  	mov a,rb
1195  008A  00D9        	mov mduwr0,a
1195  008B  0700     E  	mov a,rc
1195  008C  00DA        	mov mduwr1,a
1195  008D  0F0A        	mov a,10
1195  008E  00DD        	mov mduwr4,a
1195  008F  0F00        	mov a,0
1195  0090  00DE        	mov mduwr5,a
1195  0091  0F06        	mov a,6
1195  0092              _LI52:
1195  0092  1785        	sdz acc
文件：LcdScan.c    编译器版本 HGASM 0202 页次60

1195  0093  2800     R  	jmp _LI52
1195  0094  075D        	mov a,mduwr4
1195  0095  0080     E  	mov rb,a
1195  0096  075E        	mov a,mduwr5
1195  0097  0080     E  	mov rc,a
1195  0098  3C0A        	sz c
1195  0099  3020        	set intc.0
1196  009A              #line 1196 "c:\users\longshuangmin\desktop\worke_space\g-501\g-501\LcdScan.c"
1196  009A  340A        	clr c
1196  009B  1A80     E  	rlc rb
1196  009C  1A80     E  	rlc rc
1196  009D  0F00     R  	mov a,low offset _HexTab
1196  009E  0300     E  	add a,rb
1196  009F  0083        	mov mp,a
1196  00A0  0F00     R  	mov a,high offset _HexTab
1196  00A1  1300     E  	adc a,rc
1196  00A2  0084        	mov sbp,a
1196  00A3              	fcall _Crom2Prom
1196  00AA  0080     R  	mov _lcd[14],a
1196  00AB              	fcall _Crom2PromNext
1196  00B2  0080     R  	mov _lcd[15],a
1196  00B3  0003        	ret
1196  00B4              _Lcd_ShowAvgNum endp
1196  00B4              #line 1196 "c:\users\longshuangmin\desktop\worke_space\g-501\g-501\LcdScan.c"
1196  00B4              #pragma debug scope 1 1
1196  00B4              public _Lcd_ShowAvgDay
1196  00B4              #pragma debug scope 40 1
1201  00B4              #line 1201 "c:\users\longshuangmin\desktop\worke_space\g-501\g-501\LcdScan.c"
1201  0000              _Lcd_ShowAvgDay .section 'code'
1201  0000              _Lcd_ShowAvgDay proc
1201  0000  00              local _Lcd_ShowAvgDay_2 db 1 dup(?)	; 0,1
1201  0000  0080     E  	mov rb,a
1201  0001  0080     R  	mov _Lcd_ShowAvgDay_2[0],a
1201  0002              #pragma debug variable 8 40 _Lcd_ShowAvgDay_2+0 "data"
1202  0002              #line 1202 "c:\users\longshuangmin\desktop\worke_space\g-501\g-501\LcdScan.c"
1202  0002  1F00     E  	clr _builtin_holtek_udivmodqi4_2[3]
1202  0003  0700     E  	mov a,rb
1202  0004  0080     E  	mov _builtin_holtek_udivmodqi4_2[0],a
1202  0005  0F64        	mov a,100
1202  0006  0080     E  	mov _builtin_holtek_udivmodqi4_2[1],a
1202  0007              	fcall _builtin_holtek_udivmodqi4
1202  000E  0700     E  	mov a,_builtin_holtek_udivmodqi4_2[2]
1202  000F  0080     E  	mov rb,a
1203  0010              #line 1203 "c:\users\longshuangmin\desktop\worke_space\g-501\g-501\LcdScan.c"
1203  0010  0F09        	mov a,9
1203  0011  0200     E  	sub a,rb
1203  0012  3C0A        	sz c
1203  0013  2800     R  	jmp _L106
1204  0014              #line 1204 "c:\users\longshuangmin\desktop\worke_space\g-501\g-501\LcdScan.c"
1204  0014  1F00     E  	clr _builtin_holtek_udivmodqi4_2[3]
1204  0015  0700     E  	mov a,rb
1204  0016  0080     E  	mov _builtin_holtek_udivmodqi4_2[0],a
1204  0017  0F0A        	mov a,10
1204  0018  0080     E  	mov _builtin_holtek_udivmodqi4_2[1],a
1204  0019              	fcall _builtin_holtek_udivmodqi4
1204  0020  0700     E  	mov a,_builtin_holtek_udivmodqi4_2[0]
1204  0021  0080     E  	mov rd,a
1204  0022  1F00     E  	clr re
1204  0023  340A        	clr c
1204  0024  1A80     E  	rlc rd
文件：LcdScan.c    编译器版本 HGASM 0202 页次61

1204  0025  1A80     E  	rlc re
1204  0026  0F00     R  	mov a,low offset _HexTab
1204  0027  0300     E  	add a,rd
1204  0028  0083        	mov mp,a
1204  0029  0F00     R  	mov a,high offset _HexTab
1204  002A  1300     E  	adc a,re
1204  002B  0084        	mov sbp,a
1204  002C              	fcall _Crom2Prom
1204  0033  0080     R  	mov _lcd[0],a
1204  0034              	fcall _Crom2PromNext
1204  003B  0080     R  	mov _lcd[1],a
1204  003C  2800     R  	jmp _L107
1204  003D              _L106:
1206  003D              #line 1206 "c:\users\longshuangmin\desktop\worke_space\g-501\g-501\LcdScan.c"
1206  003D  1F00     R  	clr _lcd[0]
1206  003E  1F00     R  	clr _lcd[1]
1206  003F              _L107:
1208  003F              #line 1208 "c:\users\longshuangmin\desktop\worke_space\g-501\g-501\LcdScan.c"
1208  003F  1F00     E  	clr _builtin_holtek_udivmodqi4_2[3]
1208  0040  0700     E  	mov a,rb
1208  0041  0080     E  	mov _builtin_holtek_udivmodqi4_2[0],a
1208  0042  0F0A        	mov a,10
1208  0043  0080     E  	mov _builtin_holtek_udivmodqi4_2[1],a
1208  0044              	fcall _builtin_holtek_udivmodqi4
1208  004B  0700     E  	mov a,_builtin_holtek_udivmodqi4_2[2]
1208  004C  0080     E  	mov rb,a
1209  004D              #line 1209 "c:\users\longshuangmin\desktop\worke_space\g-501\g-501\LcdScan.c"
1209  004D  1F00     E  	clr rc
1209  004E  340A        	clr c
1209  004F  1A80     E  	rlc rb
1209  0050  1A80     E  	rlc rc
1209  0051  0F00     R  	mov a,low offset _HexTab
1209  0052  0300     E  	add a,rb
1209  0053  0083        	mov mp,a
1209  0054  0F00     R  	mov a,high offset _HexTab
1209  0055  1300     E  	adc a,rc
1209  0056  0084        	mov sbp,a
1209  0057              	fcall _Crom2Prom
1209  005E  0080     R  	mov _lcd[2],a
1209  005F              	fcall _Crom2PromNext
1209  0066  0080     R  	mov _lcd[3],a
1211  0067              #line 1211 "c:\users\longshuangmin\desktop\worke_space\g-501\g-501\LcdScan.c"
1211  0067  0F5E        	mov a,94
1211  0068  0080     R  	mov _lcd[4],a
1211  0069  1F00     R  	clr _lcd[5]
1213  006A              #line 1213 "c:\users\longshuangmin\desktop\worke_space\g-501\g-501\LcdScan.c"
1213  006A  3000     R  	set _lcd[24].3
1213  006B  0003        	ret
1213  006C              _Lcd_ShowAvgDay endp
1213  006C              #line 1213 "c:\users\longshuangmin\desktop\worke_space\g-501\g-501\LcdScan.c"
1213  006C              #pragma debug scope 1 1
1213  006C              public _Lcd_ShowC1
1213  006C              #pragma debug scope 41 1
1218  006C              #line 1218 "c:\users\longshuangmin\desktop\worke_space\g-501\g-501\LcdScan.c"
1218  0000              _Lcd_ShowC1 .section 'code'
1218  0000              _Lcd_ShowC1 proc
1218  0000  00              local _Lcd_ShowC1_2 db 1 dup(?)	; 0,1
1218  0000  0080     E  	mov rb,a
1218  0001  0080     R  	mov _Lcd_ShowC1_2[0],a
1218  0002              #pragma debug variable 8 41 _Lcd_ShowC1_2+0 "data"
文件：LcdScan.c    编译器版本 HGASM 0202 页次62

1219  0002              #line 1219 "c:\users\longshuangmin\desktop\worke_space\g-501\g-501\LcdScan.c"
1219  0002  0F09        	mov a,9
1219  0003  0200     E  	sub a,rb
1219  0004  3C0A        	sz c
1219  0005  2800     R  	jmp _L109
1220  0006              #line 1220 "c:\users\longshuangmin\desktop\worke_space\g-501\g-501\LcdScan.c"
1220  0006  1F00     E  	clr _builtin_holtek_udivmodqi4_2[3]
1220  0007  0700     E  	mov a,rb
1220  0008  0080     E  	mov _builtin_holtek_udivmodqi4_2[0],a
1220  0009  0F0A        	mov a,10
1220  000A  0080     E  	mov _builtin_holtek_udivmodqi4_2[1],a
1220  000B              	fcall _builtin_holtek_udivmodqi4
1220  0012  0700     E  	mov a,_builtin_holtek_udivmodqi4_2[0]
1220  0013  0080     E  	mov rd,a
1220  0014  1F00     E  	clr re
1220  0015  340A        	clr c
1220  0016  1A80     E  	rlc rd
1220  0017  1A80     E  	rlc re
1220  0018  0F00     R  	mov a,low offset _HexTab
1220  0019  0300     E  	add a,rd
1220  001A  0083        	mov mp,a
1220  001B  0F00     R  	mov a,high offset _HexTab
1220  001C  1300     E  	adc a,re
1220  001D  0084        	mov sbp,a
1220  001E              	fcall _Crom2Prom
1220  0025  0080     R  	mov _lcd[0],a
1220  0026              	fcall _Crom2PromNext
1220  002D  0080     R  	mov _lcd[1],a
1220  002E  2800     R  	jmp _L110
1220  002F              _L109:
1222  002F              #line 1222 "c:\users\longshuangmin\desktop\worke_space\g-501\g-501\LcdScan.c"
1222  002F  1F00     R  	clr _lcd[0]
1222  0030  1F00     R  	clr _lcd[1]
1222  0031              _L110:
1224  0031              #line 1224 "c:\users\longshuangmin\desktop\worke_space\g-501\g-501\LcdScan.c"
1224  0031  1F00     E  	clr _builtin_holtek_udivmodqi4_2[3]
1224  0032  0700     E  	mov a,rb
1224  0033  0080     E  	mov _builtin_holtek_udivmodqi4_2[0],a
1224  0034  0F0A        	mov a,10
1224  0035  0080     E  	mov _builtin_holtek_udivmodqi4_2[1],a
1224  0036              	fcall _builtin_holtek_udivmodqi4
1224  003D  0700     E  	mov a,_builtin_holtek_udivmodqi4_2[2]
1224  003E  0080     E  	mov rb,a
1225  003F              #line 1225 "c:\users\longshuangmin\desktop\worke_space\g-501\g-501\LcdScan.c"
1225  003F  1F00     E  	clr rc
1225  0040  340A        	clr c
1225  0041  1A80     E  	rlc rb
1225  0042  1A80     E  	rlc rc
1225  0043  0F00     R  	mov a,low offset _HexTab
1225  0044  0300     E  	add a,rb
1225  0045  0083        	mov mp,a
1225  0046  0F00     R  	mov a,high offset _HexTab
1225  0047  1300     E  	adc a,rc
1225  0048  0084        	mov sbp,a
1225  0049              	fcall _Crom2Prom
1225  0050  0080     R  	mov _lcd[2],a
1225  0051              	fcall _Crom2PromNext
1225  0058  0080     R  	mov _lcd[3],a
1225  0059  0003        	ret
1225  005A              _Lcd_ShowC1 endp
文件：LcdScan.c    编译器版本 HGASM 0202 页次63

1225  005A              #line 1225 "c:\users\longshuangmin\desktop\worke_space\g-501\g-501\LcdScan.c"
1225  005A              #pragma debug scope 1 1
1225  005A              public _Lcd_ShowC2
1225  005A              #pragma debug scope 42 1
1230  005A              #line 1230 "c:\users\longshuangmin\desktop\worke_space\g-501\g-501\LcdScan.c"
1230  0000              _Lcd_ShowC2 .section 'code'
1230  0000              _Lcd_ShowC2 proc
1230  0000  00              local _Lcd_ShowC2_2 db 1 dup(?)	; 0,1
1230  0000  0080     E  	mov rb,a
1230  0001              #pragma debug variable 8 42 _Lcd_ShowC2_2+0 "data"
1231  0001              #line 1231 "c:\users\longshuangmin\desktop\worke_space\g-501\g-501\LcdScan.c"
1231  0001  1F00     E  	clr _builtin_holtek_udivmodqi4_2[3]
1231  0002  0700     E  	mov a,rb
1231  0003  0080     E  	mov _builtin_holtek_udivmodqi4_2[0],a
1231  0004  0F0A        	mov a,10
1231  0005  0080     E  	mov _builtin_holtek_udivmodqi4_2[1],a
1231  0006              	fcall _builtin_holtek_udivmodqi4
1231  000D  0700     E  	mov a,_builtin_holtek_udivmodqi4_2[0]
1231  000E  0080     E  	mov rd,a
1231  000F  1F00     E  	clr re
1231  0010  340A        	clr c
1231  0011  1A80     E  	rlc rd
1231  0012  1A80     E  	rlc re
1231  0013  0F00     R  	mov a,low offset _HexTab
1231  0014  0300     E  	add a,rd
1231  0015  0083        	mov mp,a
1231  0016  0F00     R  	mov a,high offset _HexTab
1231  0017  1300     E  	adc a,re
1231  0018  0084        	mov sbp,a
1231  0019              	fcall _Crom2Prom
1231  0020  0080     R  	mov _lcd[4],a
1231  0021              	fcall _Crom2PromNext
1231  0028  0080     R  	mov _lcd[5],a
1232  0029              #line 1232 "c:\users\longshuangmin\desktop\worke_space\g-501\g-501\LcdScan.c"
1232  0029  1F00     E  	clr _builtin_holtek_udivmodqi4_2[3]
1232  002A  0700     E  	mov a,rb
1232  002B  0080     E  	mov _builtin_holtek_udivmodqi4_2[0],a
1232  002C  0F0A        	mov a,10
1232  002D  0080     E  	mov _builtin_holtek_udivmodqi4_2[1],a
1232  002E              	fcall _builtin_holtek_udivmodqi4
1232  0035  0700     E  	mov a,_builtin_holtek_udivmodqi4_2[2]
1232  0036  0080     E  	mov rb,a
1233  0037              #line 1233 "c:\users\longshuangmin\desktop\worke_space\g-501\g-501\LcdScan.c"
1233  0037  1F00     E  	clr rc
1233  0038  340A        	clr c
1233  0039  1A80     E  	rlc rb
1233  003A  1A80     E  	rlc rc
1233  003B  0F00     R  	mov a,low offset _HexTab
1233  003C  0300     E  	add a,rb
1233  003D  0083        	mov mp,a
1233  003E  0F00     R  	mov a,high offset _HexTab
1233  003F  1300     E  	adc a,rc
1233  0040  0084        	mov sbp,a
1233  0041              	fcall _Crom2Prom
1233  0048  0080     R  	mov _lcd[6],a
1233  0049              	fcall _Crom2PromNext
1233  0050  0080     R  	mov _lcd[7],a
1233  0051  0003        	ret
1233  0052              _Lcd_ShowC2 endp
1233  0052              #line 1233 "c:\users\longshuangmin\desktop\worke_space\g-501\g-501\LcdScan.c"
文件：LcdScan.c    编译器版本 HGASM 0202 页次64

1233  0052              #pragma debug scope 1 1
1233  0052              public _Lcd_ShowRecordLength
1233  0052              #pragma debug scope 43 1
1238  0052              #line 1238 "c:\users\longshuangmin\desktop\worke_space\g-501\g-501\LcdScan.c"
1238  0000              _Lcd_ShowRecordLength .section 'code'
1238  0000              _Lcd_ShowRecordLength proc
1238  0000              public _Lcd_ShowRecordLength_2
1238  0000  0002[           local _Lcd_ShowRecordLength_2 db 2 dup(?)	; 2,0
            00
            ]
1238  0002              #pragma debug variable 12 43 _Lcd_ShowRecordLength_2+0 "data"
1239  0002              #line 1239 "c:\users\longshuangmin\desktop\worke_space\g-501\g-501\LcdScan.c"
1239  0000  1B20        	rrca intc
1239  0001  3420        	clr intc.0
1239  0002  0700     R  	mov a,_Lcd_ShowRecordLength_2[0]
1239  0003  00D9        	mov mduwr0,a
1239  0004  0700     R  	mov a,_Lcd_ShowRecordLength_2[1]
1239  0005  00DA        	mov mduwr1,a
1239  0006  0FE8        	mov a,232
1239  0007  00DD        	mov mduwr4,a
1239  0008  0F03        	mov a,3
1239  0009  00DE        	mov mduwr5,a
1239  000A  0F06        	mov a,6
1239  000B              _LI53:
1239  000B  1785        	sdz acc
1239  000C  2800     R  	jmp _LI53
1239  000D  075D        	mov a,mduwr4
1239  000E  0080     E  	mov rb,a
1239  000F  075E        	mov a,mduwr5
1239  0010  0080     E  	mov rc,a
1239  0011  3C0A        	sz c
1239  0012  3020        	set intc.0
1241  0013              #line 1241 "c:\users\longshuangmin\desktop\worke_space\g-501\g-501\LcdScan.c"
1241  0013  1B20        	rrca intc
1241  0014  3420        	clr intc.0
1241  0015  0700     E  	mov a,rb
1241  0016  00D9        	mov mduwr0,a
1241  0017  0700     E  	mov a,rc
1241  0018  00DA        	mov mduwr1,a
1241  0019  0F64        	mov a,100
1241  001A  00DD        	mov mduwr4,a
1241  001B  0F00        	mov a,0
1241  001C  00DE        	mov mduwr5,a
1241  001D  0F06        	mov a,6
1241  001E              _LI54:
1241  001E  1785        	sdz acc
1241  001F  2800     R  	jmp _LI54
1241  0020  0759        	mov a,mduwr0
1241  0021  0080     E  	mov rd,a
1241  0022  075A        	mov a,mduwr1
1241  0023  0080     E  	mov re,a
1241  0024  3C0A        	sz c
1241  0025  3020        	set intc.0
1241  0026  340A        	clr c
1241  0027  1A80     E  	rlc rd
1241  0028  1A80     E  	rlc re
1241  0029  0F00     R  	mov a,low offset _HexTab
1241  002A  0300     E  	add a,rd
1241  002B  0083        	mov mp,a
1241  002C  0F00     R  	mov a,high offset _HexTab
文件：LcdScan.c    编译器版本 HGASM 0202 页次65

1241  002D  1300     E  	adc a,re
1241  002E  0084        	mov sbp,a
1241  002F              	fcall _Crom2Prom
1241  0036  0080     R  	mov _lcd[10],a
1241  0037              	fcall _Crom2PromNext
1241  003E  0080     R  	mov _lcd[11],a
1242  003F              #line 1242 "c:\users\longshuangmin\desktop\worke_space\g-501\g-501\LcdScan.c"
1242  003F  1B20        	rrca intc
1242  0040  3420        	clr intc.0
1242  0041  0700     E  	mov a,rb
1242  0042  00D9        	mov mduwr0,a
1242  0043  0700     E  	mov a,rc
1242  0044  00DA        	mov mduwr1,a
1242  0045  0F64        	mov a,100
1242  0046  00DD        	mov mduwr4,a
1242  0047  0F00        	mov a,0
1242  0048  00DE        	mov mduwr5,a
1242  0049  0F06        	mov a,6
1242  004A              _LI55:
1242  004A  1785        	sdz acc
1242  004B  2800     R  	jmp _LI55
1242  004C  075D        	mov a,mduwr4
1242  004D  0080     E  	mov rb,a
1242  004E  075E        	mov a,mduwr5
1242  004F  0080     E  	mov rc,a
1242  0050  3C0A        	sz c
1242  0051  3020        	set intc.0
1243  0052              #line 1243 "c:\users\longshuangmin\desktop\worke_space\g-501\g-501\LcdScan.c"
1243  0052  1B20        	rrca intc
1243  0053  3420        	clr intc.0
1243  0054  0700     E  	mov a,rb
1243  0055  00D9        	mov mduwr0,a
1243  0056  0700     E  	mov a,rc
1243  0057  00DA        	mov mduwr1,a
1243  0058  0F0A        	mov a,10
1243  0059  00DD        	mov mduwr4,a
1243  005A  0F00        	mov a,0
1243  005B  00DE        	mov mduwr5,a
1243  005C  0F06        	mov a,6
1243  005D              _LI56:
1243  005D  1785        	sdz acc
1243  005E  2800     R  	jmp _LI56
1243  005F  0759        	mov a,mduwr0
1243  0060  0080     E  	mov rd,a
1243  0061  075A        	mov a,mduwr1
1243  0062  0080     E  	mov re,a
1243  0063  3C0A        	sz c
1243  0064  3020        	set intc.0
1243  0065  340A        	clr c
1243  0066  1A80     E  	rlc rd
1243  0067  1A80     E  	rlc re
1243  0068  0F00     R  	mov a,low offset _HexTab
1243  0069  0300     E  	add a,rd
1243  006A  0083        	mov mp,a
1243  006B  0F00     R  	mov a,high offset _HexTab
1243  006C  1300     E  	adc a,re
1243  006D  0084        	mov sbp,a
1243  006E              	fcall _Crom2Prom
1243  0075  0080     R  	mov _lcd[12],a
1243  0076              	fcall _Crom2PromNext
文件：LcdScan.c    编译器版本 HGASM 0202 页次66

1243  007D  0080     R  	mov _lcd[13],a
1244  007E              #line 1244 "c:\users\longshuangmin\desktop\worke_space\g-501\g-501\LcdScan.c"
1244  007E  1B20        	rrca intc
1244  007F  3420        	clr intc.0
1244  0080  0700     E  	mov a,rb
1244  0081  00D9        	mov mduwr0,a
1244  0082  0700     E  	mov a,rc
1244  0083  00DA        	mov mduwr1,a
1244  0084  0F0A        	mov a,10
1244  0085  00DD        	mov mduwr4,a
1244  0086  0F00        	mov a,0
1244  0087  00DE        	mov mduwr5,a
1244  0088  0F06        	mov a,6
1244  0089              _LI57:
1244  0089  1785        	sdz acc
1244  008A  2800     R  	jmp _LI57
1244  008B  075D        	mov a,mduwr4
1244  008C  0080     E  	mov rb,a
1244  008D  075E        	mov a,mduwr5
1244  008E  0080     E  	mov rc,a
1244  008F  3C0A        	sz c
1244  0090  3020        	set intc.0
1245  0091              #line 1245 "c:\users\longshuangmin\desktop\worke_space\g-501\g-501\LcdScan.c"
1245  0091  340A        	clr c
1245  0092  1A80     E  	rlc rb
1245  0093  1A80     E  	rlc rc
1245  0094  0F00     R  	mov a,low offset _HexTab
1245  0095  0300     E  	add a,rb
1245  0096  0083        	mov mp,a
1245  0097  0F00     R  	mov a,high offset _HexTab
1245  0098  1300     E  	adc a,rc
1245  0099  0084        	mov sbp,a
1245  009A              	fcall _Crom2Prom
1245  00A1  0080     R  	mov _lcd[14],a
1245  00A2              	fcall _Crom2PromNext
1245  00A9  0080     R  	mov _lcd[15],a
1245  00AA  0003        	ret
1245  00AB              _Lcd_ShowRecordLength endp
1245  00AB              #line 1245 "c:\users\longshuangmin\desktop\worke_space\g-501\g-501\LcdScan.c"
1245  00AB              #pragma debug scope 1 1
1245  00AB              public _Lcd_Display_Tes
1245  00AB              #pragma debug scope 44 1
1312  00AB              #line 1312 "c:\users\longshuangmin\desktop\worke_space\g-501\g-501\LcdScan.c"
1312  0000              _Lcd_Display_Tes .section 'code'
1312  0000              _Lcd_Display_Tes proc
1314  0000              #line 1314 "c:\users\longshuangmin\desktop\worke_space\g-501\g-501\LcdScan.c"
1314  0000  0F78        	mov a,120
1314  0001  0080     R  	mov _lcd[16],a
1314  0002  1F00     R  	clr _lcd[17]
1316  0003              #line 1316 "c:\users\longshuangmin\desktop\worke_space\g-501\g-501\LcdScan.c"
1316  0003  0F79        	mov a,121
1316  0004  0080     R  	mov _lcd[18],a
1316  0005  1F00     R  	clr _lcd[19]
1318  0006              #line 1318 "c:\users\longshuangmin\desktop\worke_space\g-501\g-501\LcdScan.c"
1318  0006  0F6D        	mov a,109
1318  0007  0080     R  	mov _lcd[20],a
1318  0008  1F00     R  	clr _lcd[21]
1318  0009  0003        	ret
1318  000A              _Lcd_Display_Tes endp
1318  000A              #line 1318 "c:\users\longshuangmin\desktop\worke_space\g-501\g-501\LcdScan.c"
文件：LcdScan.c    编译器版本 HGASM 0202 页次67

1318  000A              #pragma debug scope 1 1
1318  0004              @crom	.section 'crom'
 169  0004              #line 169 "c:\users\longshuangmin\desktop\worke_space\g-501\g-501\LcdScan.c"
 169  0004              @crom	.section	'crom'
 169  0004              _LCDMappingTab:
 169  0004              #pragma debug struct_end
 169  0004              #pragma debug struct_end
 169  0004              #pragma debug array 49 48 86 1
 169  0004              #pragma debug array 49 48 86 1
 169  0004              #pragma debug variable 49 1 _LCDMappingTab "LCDMappingTab"
 169  0004  0000     R  	dc (offset _lcd+22)
 169  0005  0001        	dc 1
 169  0006  0000     R  	dc (offset _LcdBuf+16)
 169  0007              	db 32
 169  0008              	db 16
 169  0008  0000     R  	dc (offset _lcd+22)
 169  0009  0002        	dc 2
 169  000A  0000     R  	dc (offset _LcdBuf+16)
 169  000B              	db 16
 169  000C              	db 16
 169  000C  0000     R  	dc (offset _lcd+24)
 169  000D  0001        	dc 1
 169  000E  0000     R  	dc (offset _LcdBuf+3)
 169  000F              	db 2
 169  0010              	db 3
 169  0010  0000     R  	dc (offset _lcd+24)
 169  0011  0002        	dc 2
 169  0012  0000     R  	dc (offset _LcdBuf+10)
 169  0013              	db 1
 169  0014              	db 10
 169  0014  0000     R  	dc (offset _lcd+24)
 169  0015  0004        	dc 4
 169  0016  0000     R  	dc (offset _LcdBuf+3)
 169  0017              	db 1
 169  0018              	db 3
 169  0018  0000     R  	dc (offset _lcd+24)
 169  0019  0008        	dc 8
 169  001A  0000     R  	dc (offset _LcdBuf+7)
 169  001B              	db 32
 169  001C              	db 7
 169  001C  0000     R  	dc (offset _lcd+24)
 169  001D  0010        	dc 16
 169  001E  0000     R  	dc (offset _LcdBuf+7)
 169  001F              	db 16
 169  0020              	db 7
 169  0020  0000     R  	dc (offset _lcd+24)
 169  0021  0020        	dc 32
 169  0022  0000     R  	dc (offset _LcdBuf+11)
 169  0023              	db 4
 169  0024              	db 11
 169  0024  0000     R  	dc (offset _lcd+24)
 169  0025  0040        	dc 64
 169  0026  0000     R  	dc (offset _LcdBuf+11)
 169  0027              	db 2
 169  0028              	db 11
 169  0028  0000     R  	dc (offset _lcd+24)
 169  0029  0080        	dc 128
 169  002A  0000     R  	dc (offset _LcdBuf+14)
 169  002B              	db 16
 169  002C              	db 14
文件：LcdScan.c    编译器版本 HGASM 0202 页次68

 169  002C  0000     R  	dc (offset _lcd+26)
 169  002D  0001        	dc 1
 169  002E  0000     R  	dc (offset _LcdBuf+4)
 169  002F              	db 2
 169  0030              	db 4
 169  0030  0000     R  	dc (offset _lcd+26)
 169  0031  0002        	dc 2
 169  0032  0000     R  	dc (offset _LcdBuf+4)
 169  0033              	db 1
 169  0034              	db 4
 169  0034  0000     R  	dc (offset _lcd+26)
 169  0035  0004        	dc 4
 169  0036  0000     R  	dc (offset _LcdBuf+10)
 169  0037              	db 2
 169  0038              	db 10
 169  0038  0000     R  	dc (offset _lcd+28)
 169  0039  0001        	dc 1
 169  003A  0000     R  	dc (offset _LcdBuf+14)
 169  003B              	db 1
 169  003C              	db 14
 169  003C  0000     R  	dc (offset _lcd+28)
 169  003D  0002        	dc 2
 169  003E  0000     R  	dc (offset _LcdBuf+2)
 169  003F              	db 32
 169  0040              	db 2
 169  0040  0000     R  	dc (offset _lcd+28)
 169  0041  0004        	dc 4
 169  0042  0000     R  	dc (offset _LcdBuf+15)
 169  0043              	db 16
 169  0044              	db 15
 169  0044  0000     R  	dc (offset _lcd+28)
 169  0045  0008        	dc 8
 169  0046  0000     R  	dc (offset _LcdBuf+16)
 169  0047              	db 8
 169  0048              	db 16
 169  0048  0000     R  	dc (offset _lcd+28)
 169  0049  0010        	dc 16
 169  004A  0000     R  	dc (offset _LcdBuf+17)
 169  004B              	db 16
 169  004C              	db 17
 169  004C  0000     R  	dc (offset _lcd+28)
 169  004D  0020        	dc 32
 169  004E  0000     R  	dc (offset _LcdBuf+14)
 169  004F              	db 32
 169  0050              	db 14
 169  0050  0000     R  	dc (offset _lcd+28)
 169  0051  0040        	dc 64
 169  0052  0000     R  	dc (offset _LcdBuf+15)
 169  0053              	db 32
 169  0054              	db 15
 169  0054  0000     R  	dc (offset _lcd+30)
 169  0055  0001        	dc 1
 169  0056  0000     R  	dc (offset _LcdBuf+3)
 169  0057              	db 32
 169  0058              	db 3
 169  0058  0000     R  	dc (offset _lcd+30)
 169  0059  0002        	dc 2
 169  005A  0000     R  	dc (offset _LcdBuf+3)
 169  005B              	db 16
 169  005C              	db 3
文件：LcdScan.c    编译器版本 HGASM 0202 页次69

 169  005C  0000     R  	dc (offset _lcd+30)
 169  005D  0004        	dc 4
 169  005E  0000     R  	dc (offset _LcdBuf+3)
 169  005F              	db 8
 169  0060              	db 3
 169  0060  0000     R  	dc (offset _lcd+30)
 169  0061  0008        	dc 8
 169  0062  0000     R  	dc (offset _LcdBuf+3)
 169  0063              	db 4
 169  0064              	db 3
 169  0064  0000     R  	dc (offset _lcd+30)
 169  0065  0010        	dc 16
 169  0066  0000     R  	dc (offset _LcdBuf+17)
 169  0067              	db 32
 169  0068              	db 17
 169  0068  0000     R  	dc (offset _lcd+30)
 169  0069  0020        	dc 32
 169  006A  0000     R  	dc (offset _LcdBuf+18)
 169  006B              	db 32
 169  006C              	db 18
 169  006C  0000     R  	dc (offset _lcd+32)
 169  006D  0001        	dc 1
 169  006E  0000     R  	dc (offset _LcdBuf+18)
 169  006F              	db 2
 169  0070              	db 18
 169  0070  0000     R  	dc (offset _lcd+32)
 169  0071  0002        	dc 2
 169  0072  0000     R  	dc (offset _LcdBuf+18)
 169  0073              	db 4
 169  0074              	db 18
 169  0074  0000     R  	dc (offset _lcd+32)
 169  0075  0004        	dc 4
 169  0076  0000     R  	dc (offset _LcdBuf+18)
 169  0077              	db 8
 169  0078              	db 18
 169  0078  0000     R  	dc (offset _lcd+32)
 169  0079  0008        	dc 8
 169  007A  0000     R  	dc (offset _LcdBuf+18)
 169  007B              	db 16
 169  007C              	db 18
 169  007C  0000     R  	dc (offset _lcd+34)
 169  007D  0001        	dc 1
 169  007E  0000     R  	dc (offset _LcdBuf+2)
 169  007F              	db 4
 169  0080              	db 2
 169  0080  0000     R  	dc (offset _lcd+34)
 169  0081  0002        	dc 2
 169  0082  0000     R  	dc (offset _LcdBuf+2)
 169  0083              	db 1
 169  0084              	db 2
 169  0084  0000     R  	dc (offset _lcd+34)
 169  0085  0004        	dc 4
 169  0086  0000     R  	dc (offset _LcdBuf+2)
 169  0087              	db 2
 169  0088              	db 2
 169  0088  0000     R  	dc (offset _lcd+34)
 169  0089  0008        	dc 8
 169  008A  0000     R  	dc (offset _LcdBuf+2)
 169  008B              	db 8
 169  008C              	db 2
文件：LcdScan.c    编译器版本 HGASM 0202 页次70

 169  008C  0000     R  	dc (offset _lcd+34)
 169  008D  0010        	dc 16
 169  008E  0000     R  	dc (offset _LcdBuf+2)
 169  008F              	db 16
 169  0090              	db 2
 169  0090  0000     R  	dc (offset _lcd+8)
 169  0091  0001        	dc 1
 169  0092  0000     R  	dc (offset _LcdBuf+4)
 169  0093              	db 4
 169  0094              	db 4
 169  0094  0000     R  	dc (offset _lcd+8)
 169  0095  0002        	dc 2
 169  0096  0000     R  	dc (offset _LcdBuf+5)
 169  0097              	db 4
 169  0098              	db 5
 169  0098  0000     R  	dc (offset _lcd+8)
 169  0099  0004        	dc 4
 169  009A  0000     R  	dc (offset _LcdBuf+5)
 169  009B              	db 16
 169  009C              	db 5
 169  009C  0000     R  	dc (offset _lcd+8)
 169  009D  0008        	dc 8
 169  009E  0000     R  	dc (offset _LcdBuf+4)
 169  009F              	db 32
 169  00A0              	db 4
 169  00A0  0000     R  	dc (offset _lcd+8)
 169  00A1  0010        	dc 16
 169  00A2  0000     R  	dc (offset _LcdBuf+4)
 169  00A3              	db 16
 169  00A4              	db 4
 169  00A4  0000     R  	dc (offset _lcd+8)
 169  00A5  0020        	dc 32
 169  00A6  0000     R  	dc (offset _LcdBuf+4)
 169  00A7              	db 8
 169  00A8              	db 4
 169  00A8  0000     R  	dc (offset _lcd+8)
 169  00A9  0040        	dc 64
 169  00AA  0000     R  	dc (offset _LcdBuf+5)
 169  00AB              	db 8
 169  00AC              	db 5
 169  00AC  0000     R  	dc (offset _lcd+10)
 169  00AD  0001        	dc 1
 169  00AE  0000     R  	dc (offset _LcdBuf+5)
 169  00AF              	db 1
 169  00B0              	db 5
 169  00B0  0000     R  	dc (offset _lcd+10)
 169  00B1  0002        	dc 2
 169  00B2  0000     R  	dc (offset _LcdBuf+6)
 169  00B3              	db 4
 169  00B4              	db 6
 169  00B4  0000     R  	dc (offset _lcd+10)
 169  00B5  0004        	dc 4
 169  00B6  0000     R  	dc (offset _LcdBuf+6)
 169  00B7              	db 16
 169  00B8              	db 6
 169  00B8  0000     R  	dc (offset _lcd+10)
 169  00B9  0008        	dc 8
 169  00BA  0000     R  	dc (offset _LcdBuf+6)
 169  00BB              	db 32
 169  00BC              	db 6
文件：LcdScan.c    编译器版本 HGASM 0202 页次71

 169  00BC  0000     R  	dc (offset _lcd+10)
 169  00BD  0010        	dc 16
 169  00BE  0000     R  	dc (offset _LcdBuf+5)
 169  00BF              	db 32
 169  00C0              	db 5
 169  00C0  0000     R  	dc (offset _lcd+10)
 169  00C1  0020        	dc 32
 169  00C2  0000     R  	dc (offset _LcdBuf+5)
 169  00C3              	db 2
 169  00C4              	db 5
 169  00C4  0000     R  	dc (offset _lcd+10)
 169  00C5  0040        	dc 64
 169  00C6  0000     R  	dc (offset _LcdBuf+6)
 169  00C7              	db 8
 169  00C8              	db 6
 169  00C8  0000     R  	dc (offset _lcd+12)
 169  00C9  0001        	dc 1
 169  00CA  0000     R  	dc (offset _LcdBuf+8)
 169  00CB              	db 4
 169  00CC              	db 8
 169  00CC  0000     R  	dc (offset _lcd+12)
 169  00CD  0002        	dc 2
 169  00CE  0000     R  	dc (offset _LcdBuf+9)
 169  00CF              	db 8
 169  00D0              	db 9
 169  00D0  0000     R  	dc (offset _lcd+12)
 169  00D1  0004        	dc 4
 169  00D2  0000     R  	dc (offset _LcdBuf+9)
 169  00D3              	db 32
 169  00D4              	db 9
 169  00D4  0000     R  	dc (offset _lcd+12)
 169  00D5  0008        	dc 8
 169  00D6  0000     R  	dc (offset _LcdBuf+8)
 169  00D7              	db 32
 169  00D8              	db 8
 169  00D8  0000     R  	dc (offset _lcd+12)
 169  00D9  0010        	dc 16
 169  00DA  0000     R  	dc (offset _LcdBuf+8)
 169  00DB              	db 16
 169  00DC              	db 8
 169  00DC  0000     R  	dc (offset _lcd+12)
 169  00DD  0020        	dc 32
 169  00DE  0000     R  	dc (offset _LcdBuf+8)
 169  00DF              	db 8
 169  00E0              	db 8
 169  00E0  0000     R  	dc (offset _lcd+12)
 169  00E1  0040        	dc 64
 169  00E2  0000     R  	dc (offset _LcdBuf+9)
 169  00E3              	db 16
 169  00E4              	db 9
 169  00E4  0000     R  	dc (offset _lcd+14)
 169  00E5  0001        	dc 1
 169  00E6  0000     R  	dc (offset _LcdBuf+10)
 169  00E7              	db 4
 169  00E8              	db 10
 169  00E8  0000     R  	dc (offset _lcd+14)
 169  00E9  0002        	dc 2
 169  00EA  0000     R  	dc (offset _LcdBuf+11)
 169  00EB              	db 8
 169  00EC              	db 11
文件：LcdScan.c    编译器版本 HGASM 0202 页次72

 169  00EC  0000     R  	dc (offset _lcd+14)
 169  00ED  0004        	dc 4
 169  00EE  0000     R  	dc (offset _LcdBuf+11)
 169  00EF              	db 32
 169  00F0              	db 11
 169  00F0  0000     R  	dc (offset _lcd+14)
 169  00F1  0008        	dc 8
 169  00F2  0000     R  	dc (offset _LcdBuf+10)
 169  00F3              	db 32
 169  00F4              	db 10
 169  00F4  0000     R  	dc (offset _lcd+14)
 169  00F5  0010        	dc 16
 169  00F6  0000     R  	dc (offset _LcdBuf+10)
 169  00F7              	db 16
 169  00F8              	db 10
 169  00F8  0000     R  	dc (offset _lcd+14)
 169  00F9  0020        	dc 32
 169  00FA  0000     R  	dc (offset _LcdBuf+10)
 169  00FB              	db 8
 169  00FC              	db 10
 169  00FC  0000     R  	dc (offset _lcd+14)
 169  00FD  0040        	dc 64
 169  00FE  0000     R  	dc (offset _LcdBuf+11)
 169  00FF              	db 16
 169  0100              	db 11
 169  0100  0000     R  	dc (offset _lcd+16)
 169  0101  0001        	dc 1
 169  0102  0000     R  	dc (offset _LcdBuf+17)
 169  0103              	db 8
 169  0104              	db 17
 169  0104  0000     R  	dc (offset _lcd+16)
 169  0105  0002        	dc 2
 169  0106  0000     R  	dc (offset _LcdBuf+16)
 169  0107              	db 4
 169  0108              	db 16
 169  0108  0000     R  	dc (offset _lcd+16)
 169  0109  0004        	dc 4
 169  010A  0000     R  	dc (offset _LcdBuf+16)
 169  010B              	db 1
 169  010C              	db 16
 169  010C  0000     R  	dc (offset _lcd+16)
 169  010D  0008        	dc 8
 169  010E  0000     R  	dc (offset _LcdBuf+17)
 169  010F              	db 1
 169  0110              	db 17
 169  0110  0000     R  	dc (offset _lcd+16)
 169  0111  0010        	dc 16
 169  0112  0000     R  	dc (offset _LcdBuf+17)
 169  0113              	db 2
 169  0114              	db 17
 169  0114  0000     R  	dc (offset _lcd+16)
 169  0115  0020        	dc 32
 169  0116  0000     R  	dc (offset _LcdBuf+17)
 169  0117              	db 4
 169  0118              	db 17
 169  0118  0000     R  	dc (offset _lcd+16)
 169  0119  0040        	dc 64
 169  011A  0000     R  	dc (offset _LcdBuf+16)
 169  011B              	db 2
 169  011C              	db 16
文件：LcdScan.c    编译器版本 HGASM 0202 页次73

 169  011C  0000     R  	dc (offset _lcd+18)
 169  011D  0001        	dc 1
 169  011E  0000     R  	dc (offset _LcdBuf+15)
 169  011F              	db 8
 169  0120              	db 15
 169  0120  0000     R  	dc (offset _lcd+18)
 169  0121  0002        	dc 2
 169  0122  0000     R  	dc (offset _LcdBuf+14)
 169  0123              	db 8
 169  0124              	db 14
 169  0124  0000     R  	dc (offset _lcd+18)
 169  0125  0004        	dc 4
 169  0126  0000     R  	dc (offset _LcdBuf+14)
 169  0127              	db 2
 169  0128              	db 14
 169  0128  0000     R  	dc (offset _lcd+18)
 169  0129  0008        	dc 8
 169  012A  0000     R  	dc (offset _LcdBuf+15)
 169  012B              	db 1
 169  012C              	db 15
 169  012C  0000     R  	dc (offset _lcd+18)
 169  012D  0010        	dc 16
 169  012E  0000     R  	dc (offset _LcdBuf+15)
 169  012F              	db 2
 169  0130              	db 15
 169  0130  0000     R  	dc (offset _lcd+18)
 169  0131  0020        	dc 32
 169  0132  0000     R  	dc (offset _LcdBuf+15)
 169  0133              	db 4
 169  0134              	db 15
 169  0134  0000     R  	dc (offset _lcd+18)
 169  0135  0040        	dc 64
 169  0136  0000     R  	dc (offset _LcdBuf+14)
 169  0137              	db 4
 169  0138              	db 41
 169  0138  0000     R  	dc (offset _lcd+20)
 169  0139  0001        	dc 1
 169  013A  0000     R  	dc (offset _LcdBuf+13)
 169  013B              	db 32
 169  013C              	db 13
 169  013C  0000     R  	dc (offset _lcd+20)
 169  013D  0002        	dc 2
 169  013E  0000     R  	dc (offset _LcdBuf+12)
 169  013F              	db 32
 169  0140              	db 12
 169  0140  0000     R  	dc (offset _lcd+20)
 169  0141  0004        	dc 4
 169  0142  0000     R  	dc (offset _LcdBuf+12)
 169  0143              	db 8
 169  0144              	db 12
 169  0144  0000     R  	dc (offset _lcd+20)
 169  0145  0008        	dc 8
 169  0146  0000     R  	dc (offset _LcdBuf+13)
 169  0147              	db 1
 169  0148              	db 13
 169  0148  0000     R  	dc (offset _lcd+20)
 169  0149  0010        	dc 16
 169  014A  0000     R  	dc (offset _LcdBuf+13)
 169  014B              	db 2
 169  014C              	db 13
文件：LcdScan.c    编译器版本 HGASM 0202 页次74

 169  014C  0000     R  	dc (offset _lcd+20)
 169  014D  0020        	dc 32
 169  014E  0000     R  	dc (offset _LcdBuf+13)
 169  014F              	db 8
 169  0150              	db 13
 169  0150  0000     R  	dc (offset _lcd+20)
 169  0151  0040        	dc 64
 169  0152  0000     R  	dc (offset _LcdBuf+12)
 169  0153              	db 16
 169  0154              	db 12
 169  0154  0000     R  	dc (offset _lcd+20)
 169  0155  0080        	dc 128
 169  0156  0000     R  	dc (offset _LcdBuf+13)
 169  0157              	db 16
 169  0158              	db 13
 169  0158  0000     R  	dc (offset _lcd+20)
 169  0159  0100        	dc 256
 169  015A  0000     R  	dc (offset _LcdBuf+13)
 169  015B              	db 4
 169  015C              	db 13
 169  015C              public _charTab
  25  015C              #line 25 "c:\users\longshuangmin\desktop\worke_space\g-501\g-501\LcdScan.c"
  25  015C              @crom	.section	'crom'
  25  015C              _charTab:
  25  015C              #pragma debug array 50 12 128 1
  25  015C              #pragma debug array 50 12 128 1
  25  015C              #pragma debug variable 50 1 _charTab "charTab"
  25  015C  0000        	dc 0
  25  015D  0000        	dc 0
  25  015E  0000        	dc 0
  25  015F  0000        	dc 0
  25  0160  0000        	dc 0
  25  0161  0000        	dc 0
  25  0162  0000        	dc 0
  25  0163  0000        	dc 0
  25  0164  0000        	dc 0
  25  0165  0000        	dc 0
  25  0166  0000        	dc 0
  25  0167  0000        	dc 0
  25  0168  0000        	dc 0
  25  0169  0000        	dc 0
  25  016A  0000        	dc 0
  25  016B  0000        	dc 0
  25  016C  0000        	dc 0
  25  016D  0000        	dc 0
  25  016E  0000        	dc 0
  25  016F  0000        	dc 0
  25  0170  0000        	dc 0
  25  0171  0000        	dc 0
  25  0172  0000        	dc 0
  25  0173  0000        	dc 0
  25  0174  0000        	dc 0
  25  0175  0000        	dc 0
  25  0176  0000        	dc 0
  25  0177  0000        	dc 0
  25  0178  0000        	dc 0
  25  0179  0000        	dc 0
  25  017A  0000        	dc 0
  25  017B  0000        	dc 0
  25  017C  0000        	dc 0
文件：LcdScan.c    编译器版本 HGASM 0202 页次75

  25  017D  0000        	dc 0
  25  017E  0000        	dc 0
  25  017F  0000        	dc 0
  25  0180  0000        	dc 0
  25  0181  0000        	dc 0
  25  0182  0000        	dc 0
  25  0183  0000        	dc 0
  25  0184  0000        	dc 0
  25  0185  0000        	dc 0
  25  0186  0000        	dc 0
  25  0187  0000        	dc 0
  25  0188  0000        	dc 0
  25  0189  0040        	dc 64
  25  018A  0000        	dc 0
  25  018B  0000        	dc 0
  25  018C  003F        	dc 63
  25  018D  0006        	dc 6
  25  018E  005B        	dc 91
  25  018F  004F        	dc 79
  25  0190  0066        	dc 102
  25  0191  006D        	dc 109
  25  0192  007D        	dc 125
  25  0193  0007        	dc 7
  25  0194  007F        	dc 127
  25  0195  006F        	dc 111
  25  0196  0000        	dc 0
  25  0197  0000        	dc 0
  25  0198  0000        	dc 0
  25  0199  0000        	dc 0
  25  019A  0000        	dc 0
  25  019B  0053        	dc 83
  25  019C  0000        	dc 0
  25  019D  0077        	dc 119
  25  019E  007C        	dc 124
  25  019F  0039        	dc 57
  25  01A0  005E        	dc 94
  25  01A1  0079        	dc 121
  25  01A2  0071        	dc 113
  25  01A3  003D        	dc 61
  25  01A4  0076        	dc 118
  25  01A5  0030        	dc 48
  25  01A6  001E        	dc 30
  25  01A7  01B0        	dc 432
  25  01A8  0038        	dc 56
  25  01A9  0055        	dc 85
  25  01AA  0037        	dc 55
  25  01AB  003F        	dc 63
  25  01AC  0073        	dc 115
  25  01AD  0067        	dc 103
  25  01AE  0050        	dc 80
  25  01AF  006D        	dc 109
  25  01B0  0078        	dc 120
  25  01B1  003E        	dc 62
  25  01B2  007E        	dc 126
  25  01B3  004D        	dc 77
  25  01B4  0070        	dc 112
  25  01B5  006E        	dc 110
  25  01B6  0049        	dc 73
  25  01B7  0000        	dc 0
  25  01B8  0000        	dc 0
文件：LcdScan.c    编译器版本 HGASM 0202 页次76

  25  01B9  0000        	dc 0
  25  01BA  0000        	dc 0
  25  01BB  0008        	dc 8
  25  01BC  0000        	dc 0
  25  01BD  0077        	dc 119
  25  01BE  007C        	dc 124
  25  01BF  0058        	dc 88
  25  01C0  005E        	dc 94
  25  01C1  0079        	dc 121
  25  01C2  0071        	dc 113
  25  01C3  003D        	dc 61
  25  01C4  0074        	dc 116
  25  01C5  0004        	dc 4
  25  01C6  001E        	dc 30
  25  01C7  0075        	dc 117
  25  01C8  0038        	dc 56
  25  01C9  0055        	dc 85
  25  01CA  0054        	dc 84
  25  01CB  005C        	dc 92
  25  01CC  0073        	dc 115
  25  01CD  0067        	dc 103
  25  01CE  0050        	dc 80
  25  01CF  006D        	dc 109
  25  01D0  0078        	dc 120
  25  01D1  003E        	dc 62
  25  01D2  007E        	dc 126
  25  01D3  004D        	dc 77
  25  01D4  0070        	dc 112
  25  01D5  006E        	dc 110
  25  01D6  0049        	dc 73
  25  01D7  0000        	dc 0
  25  01D8  0000        	dc 0
  25  01D9  0000        	dc 0
  25  01DA  0000        	dc 0
  25  01DB  0000        	dc 0
  25  01DC              public _HexTab
  18  01DC              #line 18 "c:\users\longshuangmin\desktop\worke_space\g-501\g-501\LcdScan.c"
  18  01DC              @crom	.section	'crom'
  18  01DC              _HexTab:
  18  01DC              #pragma debug array 51 12 16 1
  18  01DC              #pragma debug array 51 12 16 1
  18  01DC              #pragma debug variable 51 1 _HexTab "HexTab"
  18  01DC  003F        	dc 63
  18  01DD  0006        	dc 6
  18  01DE  005B        	dc 91
  18  01DF  004F        	dc 79
  18  01E0  0066        	dc 102
  18  01E1  006D        	dc 109
  18  01E2  007D        	dc 125
  18  01E3  0007        	dc 7
  18  01E4  007F        	dc 127
  18  01E5  006F        	dc 111
  18  01E6  0077        	dc 119
  18  01E7  007C        	dc 124
  18  01E8  0039        	dc 57
  18  01E9  005E        	dc 94
  18  01EA  0079        	dc 121
  18  01EB  0071        	dc 113
  18  01EC              public _AsciiTab
  11  01EC              #line 11 "c:\users\longshuangmin\desktop\worke_space\g-501\g-501\LcdScan.c"
文件：LcdScan.c    编译器版本 HGASM 0202 页次77

  11  01EC              @crom	.section	'crom'
  11  01EC              _AsciiTab:
  11  01EC              #pragma debug array 52 8 16 1
  11  01EC              #pragma debug array 52 8 16 1
  11  01EC              #pragma debug variable 52 1 _AsciiTab "AsciiTab"
  11  01EC              	db 48
  11  01ED              	db 49
  11  01ED              	db 50
  11  01EE              	db 51
  11  01EE              	db 52
  11  01EF              	db 53
  11  01EF              	db 54
  11  01F0              	db 55
  11  01F0              	db 56
  11  01F1              	db 57
  11  01F1              	db 97
  11  01F2              	db 98
  11  01F2              	db 67
  11  01F3              	db 100
  11  01F3              	db 101
  11  01F4              	db 102
  11  0000              @HCCINIT0_LcdBuf .section 'data'
  11  0000  0014[       _LcdBuf	db 20 dup(0)
            00
            ]
  11  0014              #pragma debug array 53 8 20 1
  11  0014              #pragma debug array 53 8 20 1
  11  0014              #pragma debug variable 53 1 _LcdBuf "LcdBuf"
  11  0014              
  11  0000              @HCCINIT .section 'data'
   7  0000              #line 7 "c:\users\longshuangmin\desktop\worke_space\g-501\g-501\LcdScan.c"
   7  0000              public _lcd
   7  0000              @HCCINIT0_lcd .section 'data'
   7  0000  0024[       _lcd	db 36 dup(0)
            00
            ]
   7  0024              #pragma debug struct_end
   7  0024              #pragma debug struct_end
   7  0024              #pragma debug union_end
   7  0024              #pragma debug union_end
   7  0024              #pragma debug struct_end
   7  0024              #pragma debug struct_end
   7  0024              #pragma debug union_end
   7  0024              #pragma debug union_end
   7  0024              #pragma debug struct_end
   7  0024              #pragma debug struct_end
   7  0024              #pragma debug union_end
   7  0024              #pragma debug union_end
   7  0024              #pragma debug struct_end
   7  0024              #pragma debug struct_end
   7  0024              #pragma debug union_end
   7  0024              #pragma debug union_end
   7  0024              #pragma debug struct_end
   7  0024              #pragma debug struct_end
   7  0024              #pragma debug union_end
   7  0024              #pragma debug union_end
   7  0024              #pragma debug struct_end
   7  0024              #pragma debug struct_end
   7  0024              #pragma debug union_end
   7  0024              #pragma debug union_end
文件：LcdScan.c    编译器版本 HGASM 0202 页次78

   7  0024              #pragma debug struct_end
   7  0024              #pragma debug struct_end
   7  0024              #pragma debug union_end
   7  0024              #pragma debug union_end
   7  0024              #pragma debug struct_end
   7  0024              #pragma debug struct_end
   7  0024              #pragma debug variable 68 1 _lcd "lcd"
   7  0024              
   7  0000              @HCCINIT .section 'data'
   7  0000              #pragma debug array 69 8 20 1
   7  0000              #pragma debug array 69 8 20 1
   7  0000              #pragma debug variable 69 1 _M_LCD_RAM "M_LCD_RAM" 20
   7  0000              #pragma debug variable 12 1 _lcd_scan_index "lcd_scan_index" 2
   7  0000              #pragma debug variable 12 1 _LcdMappingSize "LcdMappingSize" 2
   7  0000              #pragma debug variable 8 1 _Start_Detection_flag "Start_Detection_flag" 1
   7  0000              
   7  0000              ; output external variables
   7  0000              extern _Flag1:byte
   7  0000              extern _M_Unit:byte
   7  0000              extern _builtin_holtek_udivmodqi4_2:byte
   7  0000              extern _builtin_holtek_udivmodqi4:near
   7  0000              extern _Load_RtcTime_Vaule:near
   7  0000              extern _delay:near
   7  0000              extern _memset_2:byte
   7  0000              extern _memset:near
   7  0000              extern _builtin_holtek_divmodhi4:near
   7  0000              extern _builtin_holtek_udivmodhi4_2:byte
   7  0000              extern _builtin_holtek_udivmodhi4:near
   7  0000              
   7  0000              ; 
   7  0000              ; Generated by holtek-gcc v3.19, Fri May 23 10:39:44 2025
   7  0000              ; Rebuild 718
   7  0000              ; end of file


        0 Errors, 0