文件：opa.c        编译器版本 HGASM 0202 页次1


   1  0000              ; Generated by holtek-gcc v3.19, Fri May 23 10:39:40 2025
   2  0000              ; 
   3  0000              ; Configuration:
   4  0000              ;       with long instruction
   5  0000              ;       Multi-ROM, Multi-RAM
   6  0000              ;       bits_per_rom_unit:16
   7  0000              ;       with mp1
   8  0000              ;       with tbhp, address(0x9)
   9  0000              ;          Use tabrd-const
  10  0000              ;       
  11  0000              ; SFR address of long-instruction arch:
  12  0000              ;    mp0 = -1,1,0
  13  0000              ;    mp1 = 4,3,2
  14  0000              ;    mp2 = 14,13,12
  15  0000              ;    tbp = 9,7,8
  16  0000              ;    acc = 5
  17  0000              ;    pcl = 6
  18  0000              ;    status = 10
  19  0000              ;    bp = 11
  20  0000              ;    intc = 32
  21  0000              ;       
  22  0000              ;       
  23  0000              ; use 'tabrdc' instead of 'tabrd'
  24  0000              ;       
  25  0000              
  26  0000              #pragma translator "holtek-gcc 4.6.4" "3.19" "build 20130711"
  27  0000              ; Rebuild 718
  28  0000              
  29  0000              ir equ [2]
  30  0000              mp equ [3]
  31  0000              sbp equ [4]
  32  0000              acc equ [5]
  33  0000              bp equ [11]
  34  0000              tblp equ [7]
  35  0000              tbhp equ [9]
  36  0000              status equ [10]
  37  0000              c equ [10].0
  38  0000              ac equ [10].1
  39  0000              z equ [10].2
  40  0000              ov equ [10].3
  41  0000              cz equ [10].6
  42  0000              sc equ [10].7
  43  0000              intc equ [32]
  44  0000              mduwr0 equ [59h]
  45  0000              mduwr1 equ [5ah]
  46  0000              mduwr2 equ [5bh]
  47  0000              mduwr3 equ [5ch]
  48  0000              mduwr4 equ [5dh]
  49  0000              mduwr5 equ [5eh]
  50  0000              mduwrctrl equ [5fh]
  51  0000              
  52  0000              extern ra:byte
  53  0000              extern rb:byte
  54  0000              extern rc:byte
  55  0000              extern rd:byte
  56  0000              extern re:byte
  57  0000              extern rf:byte
  58  0000              extern rg:byte
  59  0000              extern rh:byte
文件：opa.ASM      编译器版本 HGASM 0202 页次2

  60  0000              extern _Crom2Prom:near
  61  0000              extern _Crom2PromNext:near
  62  0000              
  63  0000              RAMBANK 0 @BITDATASEC, @BITDATASEC1
  64  0000              @HCCINIT	.section 'data'
  65  0000              @HCCINIT0	.section 'data'
  66  0000              @BITDATASEC	 .section 'data'
  67  0000              @BITDATASEC1	 .section 'data'
  68  0000              
  69  0000              #pragma debug scope 1 1
  70  0000              	extern __DELAY3:near
  71  0000              	extern __DELAYX3:near
  72  0000              	extern __DELAYX6:near
  73  0000              	extern __DELAYY5:near
  74  0000              	extern __DELAYY3:near
  75  0000              	extern _builtin_holtek_delay_2:byte
  76  0000              ___irefc equ [107]
  77  0000              ___afeda1c equ [114]
  78  0000              ___gsc3 equ [113]
  79  0000              ___opa1c equ [109]
  80  0000              public _fun_CalOPA1Offset
  81  0000              #pragma debug scope 2 1

  12  0000              #line 12 "c:\users\longshuangmin\desktop\worke_space\g-501\g-501\opa.c"
  12  0000              _fun_CalOPA1Offset .section 'code'
  12  0000              _fun_CalOPA1Offset proc
  12  0000  0003[           local _fun_CalOPA1Offset_2 db 3 dup(?)	; 0,3
            00
            ]
  12  0003  00              local cr1 dbit
  12  0004              #pragma debug variable 2 2 cr1 "OPAStatus"
  12  0004              #pragma debug variable 8 2 _fun_CalOPA1Offset_2+2 "i"
  12  0004              #pragma debug variable 8 2 _fun_CalOPA1Offset_2+1 "OPAData0"
  12  0004              #pragma debug variable 8 2 _fun_CalOPA1Offset_2+0 "OPAData1"
  16  0004              #line 16 "c:\users\longshuangmin\desktop\worke_space\g-501\g-501\opa.c"
  16  0000  326B        	set [107].4
  17  0001              #line 17 "c:\users\longshuangmin\desktop\worke_space\g-501\g-501\opa.c"
  17  0001  0F01        	mov a,1
  17  0002  00F2        	mov [114],a
  18  0003              #line 18 "c:\users\longshuangmin\desktop\worke_space\g-501\g-501\opa.c"
  18  0003  34F1        	clr [113].1
  18  0004  3071        	set [113].0
  20  0005              #line 20 "c:\users\longshuangmin\desktop\worke_space\g-501\g-501\opa.c"
  20  0005  33ED        	set [109].7
  20  0006  336D        	set [109].6
  21  0007              #line 21 "c:\users\longshuangmin\desktop\worke_space\g-501\g-501\opa.c"
  21  0007  32ED        	set [109].5
  23  0008              #line 23 "c:\users\longshuangmin\desktop\worke_space\g-501\g-501\opa.c"
  23  0008  0FE0        	mov a,224
  23  0009  06ED        	andm a,[109]
  24  000A              #line 24 "c:\users\longshuangmin\desktop\worke_space\g-501\g-501\opa.c"
  24  000A              ;# 24 "c:\users\longshuangmin\desktop\worke_space\g-501\g-501\opa.c" 1
  24  000A              	IF 1000>263690
  24  000A              ;# 24 "c:\users\longshuangmin\desktop\worke_space\g-501\g-501\opa.c" 1
  24  000A              	ERRMESSAGE 'the value 1000of the argument exceeds the maxinum 263690'
  24  000A              	ENDIF
  24  000A              ;# 24 "c:\users\longshuangmin\desktop\worke_space\g-501\g-501\opa.c" 1
  24  000A              	IF 1000<0
  24  000A              ;# 24 "c:\users\longshuangmin\desktop\worke_space\g-501\g-501\opa.c" 1
  24  000A              	ERRMESSAGE 'the value 1000 of the argument exceeds the mininum 0'
文件：opa.c        编译器版本 HGASM 0202 页次3

  24  000A              	ENDIF
  24  000A              ;# 24 "c:\users\longshuangmin\desktop\worke_space\g-501\g-501\opa.c" 1
  24  000A              	IF 1000==0
  24  000A              ;# 24 "c:\users\longshuangmin\desktop\worke_space\g-501\g-501\opa.c" 1
  24  000A              	JMP $
  24  000A              	ENDIF
  24  000A              ;# 24 "c:\users\longshuangmin\desktop\worke_space\g-501\g-501\opa.c" 1
  24  000A              	IF (1000>=1) AND (1000<( 4 + __PBP__ * 2))
  24  000A              ;# 24 "c:\users\longshuangmin\desktop\worke_space\g-501\g-501\opa.c" 1
  24  000A              	NOP
  24  000A              	ENDIF
  24  000A              ;# 24 "c:\users\longshuangmin\desktop\worke_space\g-501\g-501\opa.c" 1
  24  000A              	IF (1000>=2) AND (1000<( 4 + __PBP__ * 2))
  24  000A              ;# 24 "c:\users\longshuangmin\desktop\worke_space\g-501\g-501\opa.c" 1
  24  000A              	NOP
  24  000A              	ENDIF
  24  000A              ;# 24 "c:\users\longshuangmin\desktop\worke_space\g-501\g-501\opa.c" 1
  24  000A              	IF (1000>=3) AND (1000<( 4 + __PBP__ * 2))
  24  000A              ;# 24 "c:\users\longshuangmin\desktop\worke_space\g-501\g-501\opa.c" 1
  24  000A              	NOP
  24  000A              	ENDIF
  24  000A              ;# 24 "c:\users\longshuangmin\desktop\worke_space\g-501\g-501\opa.c" 1
  24  000A              	IF (1000>=4) AND (1000<( 4 + __PBP__ * 2)) AND ( __PBP__ > 0 )
  24  000A              ;# 24 "c:\users\longshuangmin\desktop\worke_space\g-501\g-501\opa.c" 1
  24  000A              	NOP
  24  000A              	ENDIF
  24  000A              ;# 24 "c:\users\longshuangmin\desktop\worke_space\g-501\g-501\opa.c" 1
  24  000A              	IF (1000>=5) AND (1000<( 4 + __PBP__ * 2)) AND ( __PBP__ > 0 )
  24  000A              ;# 24 "c:\users\longshuangmin\desktop\worke_space\g-501\g-501\opa.c" 1
  24  000A              	NOP
  24  000A              	ENDIF
  24  000A              ;# 24 "c:\users\longshuangmin\desktop\worke_space\g-501\g-501\opa.c" 1
  24  000A              	IF (1000>=6) AND (1000<( 4 + __PBP__ * 2))  AND ( __PBP__ > 1 )
  24  000A              ;# 24 "c:\users\longshuangmin\desktop\worke_space\g-501\g-501\opa.c" 1
  24  000A              	NOP
  24  000A              	ENDIF
  24  000A              ;# 24 "c:\users\longshuangmin\desktop\worke_space\g-501\g-501\opa.c" 1
  24  000A              	IF (1000>=7) AND (1000<( 4 + __PBP__ * 2))  AND ( __PBP__ > 1 )
  24  000A              ;# 24 "c:\users\longshuangmin\desktop\worke_space\g-501\g-501\opa.c" 1
  24  000A              	NOP
  24  000A              	ENDIF
  24  000A              ;# 24 "c:\users\longshuangmin\desktop\worke_space\g-501\g-501\opa.c" 1
  24  000A              	IF (1000>=8) AND (1000<( 4 + __PBP__ * 2))  AND ( __PBP__ > 2 )
  24  000A              ;# 24 "c:\users\longshuangmin\desktop\worke_space\g-501\g-501\opa.c" 1
  24  000A              	NOP
  24  000A              	ENDIF
  24  000A              ;# 24 "c:\users\longshuangmin\desktop\worke_space\g-501\g-501\opa.c" 1
  24  000A              	IF (1000==9)  AND ( __PBP__ > 2 )
  24  000A              ;# 24 "c:\users\longshuangmin\desktop\worke_space\g-501\g-501\opa.c" 1
  24  000A              	NOP
  24  000A              	ENDIF
  24  000A              ;# 24 "c:\users\longshuangmin\desktop\worke_space\g-501\g-501\opa.c" 1
  24  000A              	IF (1000< ( 8 + __PBP__ * 2)) AND (1000>( 3 + __PBP__ * 2))
  24  000A              ;# 24 "c:\users\longshuangmin\desktop\worke_space\g-501\g-501\opa.c" 1
  24  000A              	fcall __DELAY3 + ( 7 + __PBP__ * 2) -1000
  24  000A              	ENDIF
  24  000A              ;# 24 "c:\users\longshuangmin\desktop\worke_space\g-501\g-501\opa.c" 1
  24  000A              	IF (1000< ( 0404h + __PBP__ * 2)) AND (1000>( 7 + __PBP__ * 2))
  24  000A              ;# 24 "c:\users\longshuangmin\desktop\worke_space\g-501\g-501\opa.c" 1
  24  000A  0FF7        	MOV A,(1000-( 4 + __PBP__ * 2))/4
文件：opa.c        编译器版本 HGASM 0202 页次4

  24  000B              ;# 24 "c:\users\longshuangmin\desktop\worke_space\g-501\g-501\opa.c" 1
  24  000B              	fcall __DELAYX3 + 3 -((1000-( 4 + __PBP__ * 2)) MOD 4) 
  24  0012              	ENDIF
  24  0012              ;# 24 "c:\users\longshuangmin\desktop\worke_space\g-501\g-501\opa.c" 1
  24  0012              	IF (1000< ( 040bh + __PBP__ * 2)) AND (1000> ( 0403h + __PBP__ * 2))
  24  0012              ;# 24 "c:\users\longshuangmin\desktop\worke_space\g-501\g-501\opa.c" 1
  24  0012              	MOV A,0 
  24  0012              ;# 24 "c:\users\longshuangmin\desktop\worke_space\g-501\g-501\opa.c" 1
  24  0012              	fcall __DELAYX6 + ( 040ah + __PBP__ * 2) -1000
  24  0012              	ENDIF
  24  0012              ;# 24 "c:\users\longshuangmin\desktop\worke_space\g-501\g-501\opa.c" 1
  24  0012              	IF (1000 >= ( 040bh + __PBP__ * 2)) AND ((((1000-( 9 + __PBP__ * 2))%0402h)/4+1)>256)
  24  0012              ;# 24 "c:\users\longshuangmin\desktop\worke_space\g-501\g-501\opa.c" 1
  24  0012              	MOV A,(1000-( 9 + __PBP__ * 2))/0402h
  24  0012              ;# 24 "c:\users\longshuangmin\desktop\worke_space\g-501\g-501\opa.c" 1
  24  0012              	MOV _builtin_holtek_delay_2,A
  24  0012              ;# 24 "c:\users\longshuangmin\desktop\worke_space\g-501\g-501\opa.c" 1
  24  0012              	MOV A,0
  24  0012              ;# 24 "c:\users\longshuangmin\desktop\worke_space\g-501\g-501\opa.c" 1
  24  0012              	fcall __DELAYY5 +5- (((1000-( 9 + __PBP__ * 2))%0402h)%6) 
  24  0012              	ENDIF
  24  0012              ;# 24 "c:\users\longshuangmin\desktop\worke_space\g-501\g-501\opa.c" 1
  24  0012              	IF (1000 >= ( 040bh + __PBP__ * 2)) AND ((((1000-( 9 + __PBP__ * 2))%0402h)/4+1)<=256)
  24  0012              ;# 24 "c:\users\longshuangmin\desktop\worke_space\g-501\g-501\opa.c" 1
  24  0012              	MOV A,(1000-( 9 + __PBP__ * 2))/0402h
  24  0012              ;# 24 "c:\users\longshuangmin\desktop\worke_space\g-501\g-501\opa.c" 1
  24  0012              	MOV _builtin_holtek_delay_2,A
  24  0012              ;# 24 "c:\users\longshuangmin\desktop\worke_space\g-501\g-501\opa.c" 1
  24  0012              	MOV A,((1000-( 9 + __PBP__ * 2))%0402h)/4+1
  24  0012              ;# 24 "c:\users\longshuangmin\desktop\worke_space\g-501\g-501\opa.c" 1
  24  0012              	fcall __DELAYY3 +3-(((1000-( 9 + __PBP__ * 2))%0402h)%4) 
  24  0012              	ENDIF
  25  0012              #line 25 "c:\users\longshuangmin\desktop\worke_space\g-501\g-501\opa.c"
  25  0012  3BEB        	snz [107].7
  25  0013  2800     R  	jmp _L2
  25  0014              #line 25 "c:\users\longshuangmin\desktop\worke_space\g-501\g-501\opa.c"
  25  0014  3000     R  	set cr1
  25  0015  2800     R  	jmp _L3
  25  0016              _L2:
  26  0016              #line 26 "c:\users\longshuangmin\desktop\worke_space\g-501\g-501\opa.c"
  26  0016  3400     R  	clr cr1
  26  0017              _L3:
  27  0017              #line 27 "c:\users\longshuangmin\desktop\worke_space\g-501\g-501\opa.c"
  27  0017  1F00     R  	clr _fun_CalOPA1Offset_2[2]
  27  0018              _L4:
  27  0018  0F1F        	mov a,31
  27  0019  0200     R  	sub a,_fun_CalOPA1Offset_2[2]
  27  001A  380A        	snz c
  27  001B  2800     R  	jmp _L6
  29  001C              #line 29 "c:\users\longshuangmin\desktop\worke_space\g-501\g-501\opa.c"
  29  001C  14ED        	inc [109]
  30  001D              #line 30 "c:\users\longshuangmin\desktop\worke_space\g-501\g-501\opa.c"
  30  001D              ;# 30 "c:\users\longshuangmin\desktop\worke_space\g-501\g-501\opa.c" 1
  30  001D              	IF 1000>263690
  30  001D              ;# 30 "c:\users\longshuangmin\desktop\worke_space\g-501\g-501\opa.c" 1
  30  001D              	ERRMESSAGE 'the value 1000of the argument exceeds the maxinum 263690'
  30  001D              	ENDIF
  30  001D              ;# 30 "c:\users\longshuangmin\desktop\worke_space\g-501\g-501\opa.c" 1
  30  001D              	IF 1000<0
  30  001D              ;# 30 "c:\users\longshuangmin\desktop\worke_space\g-501\g-501\opa.c" 1
文件：opa.c        编译器版本 HGASM 0202 页次5

  30  001D              	ERRMESSAGE 'the value 1000 of the argument exceeds the mininum 0'
  30  001D              	ENDIF
  30  001D              ;# 30 "c:\users\longshuangmin\desktop\worke_space\g-501\g-501\opa.c" 1
  30  001D              	IF 1000==0
  30  001D              ;# 30 "c:\users\longshuangmin\desktop\worke_space\g-501\g-501\opa.c" 1
  30  001D              	JMP $
  30  001D              	ENDIF
  30  001D              ;# 30 "c:\users\longshuangmin\desktop\worke_space\g-501\g-501\opa.c" 1
  30  001D              	IF (1000>=1) AND (1000<( 4 + __PBP__ * 2))
  30  001D              ;# 30 "c:\users\longshuangmin\desktop\worke_space\g-501\g-501\opa.c" 1
  30  001D              	NOP
  30  001D              	ENDIF
  30  001D              ;# 30 "c:\users\longshuangmin\desktop\worke_space\g-501\g-501\opa.c" 1
  30  001D              	IF (1000>=2) AND (1000<( 4 + __PBP__ * 2))
  30  001D              ;# 30 "c:\users\longshuangmin\desktop\worke_space\g-501\g-501\opa.c" 1
  30  001D              	NOP
  30  001D              	ENDIF
  30  001D              ;# 30 "c:\users\longshuangmin\desktop\worke_space\g-501\g-501\opa.c" 1
  30  001D              	IF (1000>=3) AND (1000<( 4 + __PBP__ * 2))
  30  001D              ;# 30 "c:\users\longshuangmin\desktop\worke_space\g-501\g-501\opa.c" 1
  30  001D              	NOP
  30  001D              	ENDIF
  30  001D              ;# 30 "c:\users\longshuangmin\desktop\worke_space\g-501\g-501\opa.c" 1
  30  001D              	IF (1000>=4) AND (1000<( 4 + __PBP__ * 2)) AND ( __PBP__ > 0 )
  30  001D              ;# 30 "c:\users\longshuangmin\desktop\worke_space\g-501\g-501\opa.c" 1
  30  001D              	NOP
  30  001D              	ENDIF
  30  001D              ;# 30 "c:\users\longshuangmin\desktop\worke_space\g-501\g-501\opa.c" 1
  30  001D              	IF (1000>=5) AND (1000<( 4 + __PBP__ * 2)) AND ( __PBP__ > 0 )
  30  001D              ;# 30 "c:\users\longshuangmin\desktop\worke_space\g-501\g-501\opa.c" 1
  30  001D              	NOP
  30  001D              	ENDIF
  30  001D              ;# 30 "c:\users\longshuangmin\desktop\worke_space\g-501\g-501\opa.c" 1
  30  001D              	IF (1000>=6) AND (1000<( 4 + __PBP__ * 2))  AND ( __PBP__ > 1 )
  30  001D              ;# 30 "c:\users\longshuangmin\desktop\worke_space\g-501\g-501\opa.c" 1
  30  001D              	NOP
  30  001D              	ENDIF
  30  001D              ;# 30 "c:\users\longshuangmin\desktop\worke_space\g-501\g-501\opa.c" 1
  30  001D              	IF (1000>=7) AND (1000<( 4 + __PBP__ * 2))  AND ( __PBP__ > 1 )
  30  001D              ;# 30 "c:\users\longshuangmin\desktop\worke_space\g-501\g-501\opa.c" 1
  30  001D              	NOP
  30  001D              	ENDIF
  30  001D              ;# 30 "c:\users\longshuangmin\desktop\worke_space\g-501\g-501\opa.c" 1
  30  001D              	IF (1000>=8) AND (1000<( 4 + __PBP__ * 2))  AND ( __PBP__ > 2 )
  30  001D              ;# 30 "c:\users\longshuangmin\desktop\worke_space\g-501\g-501\opa.c" 1
  30  001D              	NOP
  30  001D              	ENDIF
  30  001D              ;# 30 "c:\users\longshuangmin\desktop\worke_space\g-501\g-501\opa.c" 1
  30  001D              	IF (1000==9)  AND ( __PBP__ > 2 )
  30  001D              ;# 30 "c:\users\longshuangmin\desktop\worke_space\g-501\g-501\opa.c" 1
  30  001D              	NOP
  30  001D              	ENDIF
  30  001D              ;# 30 "c:\users\longshuangmin\desktop\worke_space\g-501\g-501\opa.c" 1
  30  001D              	IF (1000< ( 8 + __PBP__ * 2)) AND (1000>( 3 + __PBP__ * 2))
  30  001D              ;# 30 "c:\users\longshuangmin\desktop\worke_space\g-501\g-501\opa.c" 1
  30  001D              	fcall __DELAY3 + ( 7 + __PBP__ * 2) -1000
  30  001D              	ENDIF
  30  001D              ;# 30 "c:\users\longshuangmin\desktop\worke_space\g-501\g-501\opa.c" 1
  30  001D              	IF (1000< ( 0404h + __PBP__ * 2)) AND (1000>( 7 + __PBP__ * 2))
  30  001D              ;# 30 "c:\users\longshuangmin\desktop\worke_space\g-501\g-501\opa.c" 1
文件：opa.c        编译器版本 HGASM 0202 页次6

  30  001D  0FF7        	MOV A,(1000-( 4 + __PBP__ * 2))/4
  30  001E              ;# 30 "c:\users\longshuangmin\desktop\worke_space\g-501\g-501\opa.c" 1
  30  001E              	fcall __DELAYX3 + 3 -((1000-( 4 + __PBP__ * 2)) MOD 4) 
  30  0025              	ENDIF
  30  0025              ;# 30 "c:\users\longshuangmin\desktop\worke_space\g-501\g-501\opa.c" 1
  30  0025              	IF (1000< ( 040bh + __PBP__ * 2)) AND (1000> ( 0403h + __PBP__ * 2))
  30  0025              ;# 30 "c:\users\longshuangmin\desktop\worke_space\g-501\g-501\opa.c" 1
  30  0025              	MOV A,0 
  30  0025              ;# 30 "c:\users\longshuangmin\desktop\worke_space\g-501\g-501\opa.c" 1
  30  0025              	fcall __DELAYX6 + ( 040ah + __PBP__ * 2) -1000
  30  0025              	ENDIF
  30  0025              ;# 30 "c:\users\longshuangmin\desktop\worke_space\g-501\g-501\opa.c" 1
  30  0025              	IF (1000 >= ( 040bh + __PBP__ * 2)) AND ((((1000-( 9 + __PBP__ * 2))%0402h)/4+1)>256)
  30  0025              ;# 30 "c:\users\longshuangmin\desktop\worke_space\g-501\g-501\opa.c" 1
  30  0025              	MOV A,(1000-( 9 + __PBP__ * 2))/0402h
  30  0025              ;# 30 "c:\users\longshuangmin\desktop\worke_space\g-501\g-501\opa.c" 1
  30  0025              	MOV _builtin_holtek_delay_2,A
  30  0025              ;# 30 "c:\users\longshuangmin\desktop\worke_space\g-501\g-501\opa.c" 1
  30  0025              	MOV A,0
  30  0025              ;# 30 "c:\users\longshuangmin\desktop\worke_space\g-501\g-501\opa.c" 1
  30  0025              	fcall __DELAYY5 +5- (((1000-( 9 + __PBP__ * 2))%0402h)%6) 
  30  0025              	ENDIF
  30  0025              ;# 30 "c:\users\longshuangmin\desktop\worke_space\g-501\g-501\opa.c" 1
  30  0025              	IF (1000 >= ( 040bh + __PBP__ * 2)) AND ((((1000-( 9 + __PBP__ * 2))%0402h)/4+1)<=256)
  30  0025              ;# 30 "c:\users\longshuangmin\desktop\worke_space\g-501\g-501\opa.c" 1
  30  0025              	MOV A,(1000-( 9 + __PBP__ * 2))/0402h
  30  0025              ;# 30 "c:\users\longshuangmin\desktop\worke_space\g-501\g-501\opa.c" 1
  30  0025              	MOV _builtin_holtek_delay_2,A
  30  0025              ;# 30 "c:\users\longshuangmin\desktop\worke_space\g-501\g-501\opa.c" 1
  30  0025              	MOV A,((1000-( 9 + __PBP__ * 2))%0402h)/4+1
  30  0025              ;# 30 "c:\users\longshuangmin\desktop\worke_space\g-501\g-501\opa.c" 1
  30  0025              	fcall __DELAYY3 +3-(((1000-( 9 + __PBP__ * 2))%0402h)%4) 
  30  0025              	ENDIF
  31  0025              #line 31 "c:\users\longshuangmin\desktop\worke_space\g-501\g-501\opa.c"
  31  0025              ;# 31 "c:\users\longshuangmin\desktop\worke_space\g-501\g-501\opa.c" 1
  31  0025  0001        	clr wdt
  32  0026              #line 32 "c:\users\longshuangmin\desktop\worke_space\g-501\g-501\opa.c"
  32  0026  186B        	rla [107]
  32  0027  0E01        	and a,1
  32  0028  0080     E  	mov rb,a
  32  0029  1F00     E  	clr ra
  32  002A  3C00     R  	sz cr1
  32  002B  3000     E  	set ra.0
  32  002C  0700     E  	mov a,rb
  32  002D  0200     E  	sub a,ra
  32  002E  3D0A        	sz z
  32  002F  2800     R  	jmp _L5
  33  0030              #line 33 "c:\users\longshuangmin\desktop\worke_space\g-501\g-501\opa.c"
  33  0030  076D        	mov a,[109]
  33  0031  0E1F        	and a,31
  33  0032  0080     R  	mov _fun_CalOPA1Offset_2[1],a
  33  0033  2800     R  	jmp _L6
  33  0034              _L5:
  27  0034              #line 27 "c:\users\longshuangmin\desktop\worke_space\g-501\g-501\opa.c"
  27  0034  1480     R  	inc _fun_CalOPA1Offset_2[2]
  27  0035  2800     R  	jmp _L4
  27  0036              _L6:
  36  0036              #line 36 "c:\users\longshuangmin\desktop\worke_space\g-501\g-501\opa.c"
  36  0036  0F1F        	mov a,31
  36  0037  05ED        	orm a,[109]
文件：opa.c        编译器版本 HGASM 0202 页次7

  37  0038              #line 37 "c:\users\longshuangmin\desktop\worke_space\g-501\g-501\opa.c"
  37  0038              ;# 37 "c:\users\longshuangmin\desktop\worke_space\g-501\g-501\opa.c" 1
  37  0038              	IF 1000>263690
  37  0038              ;# 37 "c:\users\longshuangmin\desktop\worke_space\g-501\g-501\opa.c" 1
  37  0038              	ERRMESSAGE 'the value 1000of the argument exceeds the maxinum 263690'
  37  0038              	ENDIF
  37  0038              ;# 37 "c:\users\longshuangmin\desktop\worke_space\g-501\g-501\opa.c" 1
  37  0038              	IF 1000<0
  37  0038              ;# 37 "c:\users\longshuangmin\desktop\worke_space\g-501\g-501\opa.c" 1
  37  0038              	ERRMESSAGE 'the value 1000 of the argument exceeds the mininum 0'
  37  0038              	ENDIF
  37  0038              ;# 37 "c:\users\longshuangmin\desktop\worke_space\g-501\g-501\opa.c" 1
  37  0038              	IF 1000==0
  37  0038              ;# 37 "c:\users\longshuangmin\desktop\worke_space\g-501\g-501\opa.c" 1
  37  0038              	JMP $
  37  0038              	ENDIF
  37  0038              ;# 37 "c:\users\longshuangmin\desktop\worke_space\g-501\g-501\opa.c" 1
  37  0038              	IF (1000>=1) AND (1000<( 4 + __PBP__ * 2))
  37  0038              ;# 37 "c:\users\longshuangmin\desktop\worke_space\g-501\g-501\opa.c" 1
  37  0038              	NOP
  37  0038              	ENDIF
  37  0038              ;# 37 "c:\users\longshuangmin\desktop\worke_space\g-501\g-501\opa.c" 1
  37  0038              	IF (1000>=2) AND (1000<( 4 + __PBP__ * 2))
  37  0038              ;# 37 "c:\users\longshuangmin\desktop\worke_space\g-501\g-501\opa.c" 1
  37  0038              	NOP
  37  0038              	ENDIF
  37  0038              ;# 37 "c:\users\longshuangmin\desktop\worke_space\g-501\g-501\opa.c" 1
  37  0038              	IF (1000>=3) AND (1000<( 4 + __PBP__ * 2))
  37  0038              ;# 37 "c:\users\longshuangmin\desktop\worke_space\g-501\g-501\opa.c" 1
  37  0038              	NOP
  37  0038              	ENDIF
  37  0038              ;# 37 "c:\users\longshuangmin\desktop\worke_space\g-501\g-501\opa.c" 1
  37  0038              	IF (1000>=4) AND (1000<( 4 + __PBP__ * 2)) AND ( __PBP__ > 0 )
  37  0038              ;# 37 "c:\users\longshuangmin\desktop\worke_space\g-501\g-501\opa.c" 1
  37  0038              	NOP
  37  0038              	ENDIF
  37  0038              ;# 37 "c:\users\longshuangmin\desktop\worke_space\g-501\g-501\opa.c" 1
  37  0038              	IF (1000>=5) AND (1000<( 4 + __PBP__ * 2)) AND ( __PBP__ > 0 )
  37  0038              ;# 37 "c:\users\longshuangmin\desktop\worke_space\g-501\g-501\opa.c" 1
  37  0038              	NOP
  37  0038              	ENDIF
  37  0038              ;# 37 "c:\users\longshuangmin\desktop\worke_space\g-501\g-501\opa.c" 1
  37  0038              	IF (1000>=6) AND (1000<( 4 + __PBP__ * 2))  AND ( __PBP__ > 1 )
  37  0038              ;# 37 "c:\users\longshuangmin\desktop\worke_space\g-501\g-501\opa.c" 1
  37  0038              	NOP
  37  0038              	ENDIF
  37  0038              ;# 37 "c:\users\longshuangmin\desktop\worke_space\g-501\g-501\opa.c" 1
  37  0038              	IF (1000>=7) AND (1000<( 4 + __PBP__ * 2))  AND ( __PBP__ > 1 )
  37  0038              ;# 37 "c:\users\longshuangmin\desktop\worke_space\g-501\g-501\opa.c" 1
  37  0038              	NOP
  37  0038              	ENDIF
  37  0038              ;# 37 "c:\users\longshuangmin\desktop\worke_space\g-501\g-501\opa.c" 1
  37  0038              	IF (1000>=8) AND (1000<( 4 + __PBP__ * 2))  AND ( __PBP__ > 2 )
  37  0038              ;# 37 "c:\users\longshuangmin\desktop\worke_space\g-501\g-501\opa.c" 1
  37  0038              	NOP
  37  0038              	ENDIF
  37  0038              ;# 37 "c:\users\longshuangmin\desktop\worke_space\g-501\g-501\opa.c" 1
  37  0038              	IF (1000==9)  AND ( __PBP__ > 2 )
  37  0038              ;# 37 "c:\users\longshuangmin\desktop\worke_space\g-501\g-501\opa.c" 1
  37  0038              	NOP
文件：opa.c        编译器版本 HGASM 0202 页次8

  37  0038              	ENDIF
  37  0038              ;# 37 "c:\users\longshuangmin\desktop\worke_space\g-501\g-501\opa.c" 1
  37  0038              	IF (1000< ( 8 + __PBP__ * 2)) AND (1000>( 3 + __PBP__ * 2))
  37  0038              ;# 37 "c:\users\longshuangmin\desktop\worke_space\g-501\g-501\opa.c" 1
  37  0038              	fcall __DELAY3 + ( 7 + __PBP__ * 2) -1000
  37  0038              	ENDIF
  37  0038              ;# 37 "c:\users\longshuangmin\desktop\worke_space\g-501\g-501\opa.c" 1
  37  0038              	IF (1000< ( 0404h + __PBP__ * 2)) AND (1000>( 7 + __PBP__ * 2))
  37  0038              ;# 37 "c:\users\longshuangmin\desktop\worke_space\g-501\g-501\opa.c" 1
  37  0038  0FF7        	MOV A,(1000-( 4 + __PBP__ * 2))/4
  37  0039              ;# 37 "c:\users\longshuangmin\desktop\worke_space\g-501\g-501\opa.c" 1
  37  0039              	fcall __DELAYX3 + 3 -((1000-( 4 + __PBP__ * 2)) MOD 4) 
  37  0040              	ENDIF
  37  0040              ;# 37 "c:\users\longshuangmin\desktop\worke_space\g-501\g-501\opa.c" 1
  37  0040              	IF (1000< ( 040bh + __PBP__ * 2)) AND (1000> ( 0403h + __PBP__ * 2))
  37  0040              ;# 37 "c:\users\longshuangmin\desktop\worke_space\g-501\g-501\opa.c" 1
  37  0040              	MOV A,0 
  37  0040              ;# 37 "c:\users\longshuangmin\desktop\worke_space\g-501\g-501\opa.c" 1
  37  0040              	fcall __DELAYX6 + ( 040ah + __PBP__ * 2) -1000
  37  0040              	ENDIF
  37  0040              ;# 37 "c:\users\longshuangmin\desktop\worke_space\g-501\g-501\opa.c" 1
  37  0040              	IF (1000 >= ( 040bh + __PBP__ * 2)) AND ((((1000-( 9 + __PBP__ * 2))%0402h)/4+1)>256)
  37  0040              ;# 37 "c:\users\longshuangmin\desktop\worke_space\g-501\g-501\opa.c" 1
  37  0040              	MOV A,(1000-( 9 + __PBP__ * 2))/0402h
  37  0040              ;# 37 "c:\users\longshuangmin\desktop\worke_space\g-501\g-501\opa.c" 1
  37  0040              	MOV _builtin_holtek_delay_2,A
  37  0040              ;# 37 "c:\users\longshuangmin\desktop\worke_space\g-501\g-501\opa.c" 1
  37  0040              	MOV A,0
  37  0040              ;# 37 "c:\users\longshuangmin\desktop\worke_space\g-501\g-501\opa.c" 1
  37  0040              	fcall __DELAYY5 +5- (((1000-( 9 + __PBP__ * 2))%0402h)%6) 
  37  0040              	ENDIF
  37  0040              ;# 37 "c:\users\longshuangmin\desktop\worke_space\g-501\g-501\opa.c" 1
  37  0040              	IF (1000 >= ( 040bh + __PBP__ * 2)) AND ((((1000-( 9 + __PBP__ * 2))%0402h)/4+1)<=256)
  37  0040              ;# 37 "c:\users\longshuangmin\desktop\worke_space\g-501\g-501\opa.c" 1
  37  0040              	MOV A,(1000-( 9 + __PBP__ * 2))/0402h
  37  0040              ;# 37 "c:\users\longshuangmin\desktop\worke_space\g-501\g-501\opa.c" 1
  37  0040              	MOV _builtin_holtek_delay_2,A
  37  0040              ;# 37 "c:\users\longshuangmin\desktop\worke_space\g-501\g-501\opa.c" 1
  37  0040              	MOV A,((1000-( 9 + __PBP__ * 2))%0402h)/4+1
  37  0040              ;# 37 "c:\users\longshuangmin\desktop\worke_space\g-501\g-501\opa.c" 1
  37  0040              	fcall __DELAYY3 +3-(((1000-( 9 + __PBP__ * 2))%0402h)%4) 
  37  0040              	ENDIF
  38  0040              #line 38 "c:\users\longshuangmin\desktop\worke_space\g-501\g-501\opa.c"
  38  0040  3BEB        	snz [107].7
  38  0041  2800     R  	jmp _L8
  38  0042  3000     R  	set cr1
  38  0043  2800     R  	jmp _L9
  38  0044              _L8:
  39  0044              #line 39 "c:\users\longshuangmin\desktop\worke_space\g-501\g-501\opa.c"
  39  0044  3400     R  	clr cr1
  39  0045              _L9:
  40  0045              #line 40 "c:\users\longshuangmin\desktop\worke_space\g-501\g-501\opa.c"
  40  0045  1F00     R  	clr _fun_CalOPA1Offset_2[2]
  40  0046              _L10:
  40  0046  0F1F        	mov a,31
  40  0047  0200     R  	sub a,_fun_CalOPA1Offset_2[2]
  40  0048  380A        	snz c
  40  0049  2800     R  	jmp _L12
  42  004A              #line 42 "c:\users\longshuangmin\desktop\worke_space\g-501\g-501\opa.c"
  42  004A  15ED        	dec [109]
文件：opa.c        编译器版本 HGASM 0202 页次9

  43  004B              #line 43 "c:\users\longshuangmin\desktop\worke_space\g-501\g-501\opa.c"
  43  004B              ;# 43 "c:\users\longshuangmin\desktop\worke_space\g-501\g-501\opa.c" 1
  43  004B              	IF 1000>263690
  43  004B              ;# 43 "c:\users\longshuangmin\desktop\worke_space\g-501\g-501\opa.c" 1
  43  004B              	ERRMESSAGE 'the value 1000of the argument exceeds the maxinum 263690'
  43  004B              	ENDIF
  43  004B              ;# 43 "c:\users\longshuangmin\desktop\worke_space\g-501\g-501\opa.c" 1
  43  004B              	IF 1000<0
  43  004B              ;# 43 "c:\users\longshuangmin\desktop\worke_space\g-501\g-501\opa.c" 1
  43  004B              	ERRMESSAGE 'the value 1000 of the argument exceeds the mininum 0'
  43  004B              	ENDIF
  43  004B              ;# 43 "c:\users\longshuangmin\desktop\worke_space\g-501\g-501\opa.c" 1
  43  004B              	IF 1000==0
  43  004B              ;# 43 "c:\users\longshuangmin\desktop\worke_space\g-501\g-501\opa.c" 1
  43  004B              	JMP $
  43  004B              	ENDIF
  43  004B              ;# 43 "c:\users\longshuangmin\desktop\worke_space\g-501\g-501\opa.c" 1
  43  004B              	IF (1000>=1) AND (1000<( 4 + __PBP__ * 2))
  43  004B              ;# 43 "c:\users\longshuangmin\desktop\worke_space\g-501\g-501\opa.c" 1
  43  004B              	NOP
  43  004B              	ENDIF
  43  004B              ;# 43 "c:\users\longshuangmin\desktop\worke_space\g-501\g-501\opa.c" 1
  43  004B              	IF (1000>=2) AND (1000<( 4 + __PBP__ * 2))
  43  004B              ;# 43 "c:\users\longshuangmin\desktop\worke_space\g-501\g-501\opa.c" 1
  43  004B              	NOP
  43  004B              	ENDIF
  43  004B              ;# 43 "c:\users\longshuangmin\desktop\worke_space\g-501\g-501\opa.c" 1
  43  004B              	IF (1000>=3) AND (1000<( 4 + __PBP__ * 2))
  43  004B              ;# 43 "c:\users\longshuangmin\desktop\worke_space\g-501\g-501\opa.c" 1
  43  004B              	NOP
  43  004B              	ENDIF
  43  004B              ;# 43 "c:\users\longshuangmin\desktop\worke_space\g-501\g-501\opa.c" 1
  43  004B              	IF (1000>=4) AND (1000<( 4 + __PBP__ * 2)) AND ( __PBP__ > 0 )
  43  004B              ;# 43 "c:\users\longshuangmin\desktop\worke_space\g-501\g-501\opa.c" 1
  43  004B              	NOP
  43  004B              	ENDIF
  43  004B              ;# 43 "c:\users\longshuangmin\desktop\worke_space\g-501\g-501\opa.c" 1
  43  004B              	IF (1000>=5) AND (1000<( 4 + __PBP__ * 2)) AND ( __PBP__ > 0 )
  43  004B              ;# 43 "c:\users\longshuangmin\desktop\worke_space\g-501\g-501\opa.c" 1
  43  004B              	NOP
  43  004B              	ENDIF
  43  004B              ;# 43 "c:\users\longshuangmin\desktop\worke_space\g-501\g-501\opa.c" 1
  43  004B              	IF (1000>=6) AND (1000<( 4 + __PBP__ * 2))  AND ( __PBP__ > 1 )
  43  004B              ;# 43 "c:\users\longshuangmin\desktop\worke_space\g-501\g-501\opa.c" 1
  43  004B              	NOP
  43  004B              	ENDIF
  43  004B              ;# 43 "c:\users\longshuangmin\desktop\worke_space\g-501\g-501\opa.c" 1
  43  004B              	IF (1000>=7) AND (1000<( 4 + __PBP__ * 2))  AND ( __PBP__ > 1 )
  43  004B              ;# 43 "c:\users\longshuangmin\desktop\worke_space\g-501\g-501\opa.c" 1
  43  004B              	NOP
  43  004B              	ENDIF
  43  004B              ;# 43 "c:\users\longshuangmin\desktop\worke_space\g-501\g-501\opa.c" 1
  43  004B              	IF (1000>=8) AND (1000<( 4 + __PBP__ * 2))  AND ( __PBP__ > 2 )
  43  004B              ;# 43 "c:\users\longshuangmin\desktop\worke_space\g-501\g-501\opa.c" 1
  43  004B              	NOP
  43  004B              	ENDIF
  43  004B              ;# 43 "c:\users\longshuangmin\desktop\worke_space\g-501\g-501\opa.c" 1
  43  004B              	IF (1000==9)  AND ( __PBP__ > 2 )
  43  004B              ;# 43 "c:\users\longshuangmin\desktop\worke_space\g-501\g-501\opa.c" 1
  43  004B              	NOP
文件：opa.c        编译器版本 HGASM 0202 页次10

  43  004B              	ENDIF
  43  004B              ;# 43 "c:\users\longshuangmin\desktop\worke_space\g-501\g-501\opa.c" 1
  43  004B              	IF (1000< ( 8 + __PBP__ * 2)) AND (1000>( 3 + __PBP__ * 2))
  43  004B              ;# 43 "c:\users\longshuangmin\desktop\worke_space\g-501\g-501\opa.c" 1
  43  004B              	fcall __DELAY3 + ( 7 + __PBP__ * 2) -1000
  43  004B              	ENDIF
  43  004B              ;# 43 "c:\users\longshuangmin\desktop\worke_space\g-501\g-501\opa.c" 1
  43  004B              	IF (1000< ( 0404h + __PBP__ * 2)) AND (1000>( 7 + __PBP__ * 2))
  43  004B              ;# 43 "c:\users\longshuangmin\desktop\worke_space\g-501\g-501\opa.c" 1
  43  004B  0FF7        	MOV A,(1000-( 4 + __PBP__ * 2))/4
  43  004C              ;# 43 "c:\users\longshuangmin\desktop\worke_space\g-501\g-501\opa.c" 1
  43  004C              	fcall __DELAYX3 + 3 -((1000-( 4 + __PBP__ * 2)) MOD 4) 
  43  0053              	ENDIF
  43  0053              ;# 43 "c:\users\longshuangmin\desktop\worke_space\g-501\g-501\opa.c" 1
  43  0053              	IF (1000< ( 040bh + __PBP__ * 2)) AND (1000> ( 0403h + __PBP__ * 2))
  43  0053              ;# 43 "c:\users\longshuangmin\desktop\worke_space\g-501\g-501\opa.c" 1
  43  0053              	MOV A,0 
  43  0053              ;# 43 "c:\users\longshuangmin\desktop\worke_space\g-501\g-501\opa.c" 1
  43  0053              	fcall __DELAYX6 + ( 040ah + __PBP__ * 2) -1000
  43  0053              	ENDIF
  43  0053              ;# 43 "c:\users\longshuangmin\desktop\worke_space\g-501\g-501\opa.c" 1
  43  0053              	IF (1000 >= ( 040bh + __PBP__ * 2)) AND ((((1000-( 9 + __PBP__ * 2))%0402h)/4+1)>256)
  43  0053              ;# 43 "c:\users\longshuangmin\desktop\worke_space\g-501\g-501\opa.c" 1
  43  0053              	MOV A,(1000-( 9 + __PBP__ * 2))/0402h
  43  0053              ;# 43 "c:\users\longshuangmin\desktop\worke_space\g-501\g-501\opa.c" 1
  43  0053              	MOV _builtin_holtek_delay_2,A
  43  0053              ;# 43 "c:\users\longshuangmin\desktop\worke_space\g-501\g-501\opa.c" 1
  43  0053              	MOV A,0
  43  0053              ;# 43 "c:\users\longshuangmin\desktop\worke_space\g-501\g-501\opa.c" 1
  43  0053              	fcall __DELAYY5 +5- (((1000-( 9 + __PBP__ * 2))%0402h)%6) 
  43  0053              	ENDIF
  43  0053              ;# 43 "c:\users\longshuangmin\desktop\worke_space\g-501\g-501\opa.c" 1
  43  0053              	IF (1000 >= ( 040bh + __PBP__ * 2)) AND ((((1000-( 9 + __PBP__ * 2))%0402h)/4+1)<=256)
  43  0053              ;# 43 "c:\users\longshuangmin\desktop\worke_space\g-501\g-501\opa.c" 1
  43  0053              	MOV A,(1000-( 9 + __PBP__ * 2))/0402h
  43  0053              ;# 43 "c:\users\longshuangmin\desktop\worke_space\g-501\g-501\opa.c" 1
  43  0053              	MOV _builtin_holtek_delay_2,A
  43  0053              ;# 43 "c:\users\longshuangmin\desktop\worke_space\g-501\g-501\opa.c" 1
  43  0053              	MOV A,((1000-( 9 + __PBP__ * 2))%0402h)/4+1
  43  0053              ;# 43 "c:\users\longshuangmin\desktop\worke_space\g-501\g-501\opa.c" 1
  43  0053              	fcall __DELAYY3 +3-(((1000-( 9 + __PBP__ * 2))%0402h)%4) 
  43  0053              	ENDIF
  44  0053              #line 44 "c:\users\longshuangmin\desktop\worke_space\g-501\g-501\opa.c"
  44  0053              ;# 44 "c:\users\longshuangmin\desktop\worke_space\g-501\g-501\opa.c" 1
  44  0053  0001        	clr wdt
  45  0054              #line 45 "c:\users\longshuangmin\desktop\worke_space\g-501\g-501\opa.c"
  45  0054  186B        	rla [107]
  45  0055  0E01        	and a,1
  45  0056  0080     E  	mov rb,a
  45  0057  1F00     E  	clr ra
  45  0058  3C00     R  	sz cr1
  45  0059  3000     E  	set ra.0
  45  005A  0700     E  	mov a,rb
  45  005B  0200     E  	sub a,ra
  45  005C  3D0A        	sz z
  45  005D  2800     R  	jmp _L11
  46  005E              #line 46 "c:\users\longshuangmin\desktop\worke_space\g-501\g-501\opa.c"
  46  005E  076D        	mov a,[109]
  46  005F  0E1F        	and a,31
  46  0060  0080     R  	mov _fun_CalOPA1Offset_2[0],a
文件：opa.c        编译器版本 HGASM 0202 页次11

  46  0061  2800     R  	jmp _L12
  46  0062              _L11:
  40  0062              #line 40 "c:\users\longshuangmin\desktop\worke_space\g-501\g-501\opa.c"
  40  0062  1480     R  	inc _fun_CalOPA1Offset_2[2]
  40  0063  2800     R  	jmp _L10
  40  0064              _L12:
  48  0064              #line 48 "c:\users\longshuangmin\desktop\worke_space\g-501\g-501\opa.c"
  48  0064  0700     R  	mov a,_fun_CalOPA1Offset_2[1]
  48  0065  0080     E  	mov rb,a
  48  0066  1F00     E  	clr rc
  48  0067  0700     R  	mov a,_fun_CalOPA1Offset_2[0]
  48  0068  0380     E  	addm a,rb
  48  0069  3C0A        	sz c
  48  006A  1480     E  	inc rc
  48  006B  1A00     E  	rlca rc
  48  006C  1B80     E  	rrc rc
  48  006D  1B80     E  	rrc rb
  48  006E  0700     E  	mov a,rb
  48  006F  00ED        	mov [109],a
  49  0070              #line 49 "c:\users\longshuangmin\desktop\worke_space\g-501\g-501\opa.c"
  49  0070  36ED        	clr [109].5
  50  0071              #line 50 "c:\users\longshuangmin\desktop\worke_space\g-501\g-501\opa.c"
  50  0071  366B        	clr [107].4
  51  0072              #line 51 "c:\users\longshuangmin\desktop\worke_space\g-501\g-501\opa.c"
  51  0072  1F72        	clr [114]
  51  0073  0003        	ret
  51  0074              _fun_CalOPA1Offset endp
  51  0074              #line 51 "c:\users\longshuangmin\desktop\worke_space\g-501\g-501\opa.c"
  51  0074              #pragma debug scope 1 1
  51  0074              ___opa2c equ [110]
  51  0074              public _fun_CalOPA2Offset
  51  0074              #pragma debug scope 3 1
  63  0074              #line 63 "c:\users\longshuangmin\desktop\worke_space\g-501\g-501\opa.c"
  63  0000              _fun_CalOPA2Offset .section 'code'
  63  0000              _fun_CalOPA2Offset proc
  63  0000  0003[           local _fun_CalOPA2Offset_2 db 3 dup(?)	; 0,3
            00
            ]
  63  0003  00              local cr2 dbit
  63  0004              #pragma debug variable 2 3 cr2 "OPAStatus"
  63  0004              #pragma debug variable 8 3 _fun_CalOPA2Offset_2+2 "i"
  63  0004              #pragma debug variable 8 3 _fun_CalOPA2Offset_2+1 "OPAData0"
  63  0004              #pragma debug variable 8 3 _fun_CalOPA2Offset_2+0 "OPAData1"
  67  0004              #line 67 "c:\users\longshuangmin\desktop\worke_space\g-501\g-501\opa.c"
  67  0000  326B        	set [107].4
  68  0001              #line 68 "c:\users\longshuangmin\desktop\worke_space\g-501\g-501\opa.c"
  68  0001  0F01        	mov a,1
  68  0002  00F2        	mov [114],a
  69  0003              #line 69 "c:\users\longshuangmin\desktop\worke_space\g-501\g-501\opa.c"
  69  0003  34F1        	clr [113].1
  69  0004  3071        	set [113].0
  71  0005              #line 71 "c:\users\longshuangmin\desktop\worke_space\g-501\g-501\opa.c"
  71  0005  33EE        	set [110].7
  71  0006  336E        	set [110].6
  72  0007              #line 72 "c:\users\longshuangmin\desktop\worke_space\g-501\g-501\opa.c"
  72  0007  32EE        	set [110].5
  74  0008              #line 74 "c:\users\longshuangmin\desktop\worke_space\g-501\g-501\opa.c"
  74  0008  0FE0        	mov a,224
  74  0009  06EE        	andm a,[110]
  75  000A              #line 75 "c:\users\longshuangmin\desktop\worke_space\g-501\g-501\opa.c"
文件：opa.c        编译器版本 HGASM 0202 页次12

  75  000A              ;# 75 "c:\users\longshuangmin\desktop\worke_space\g-501\g-501\opa.c" 1
  75  000A              	IF 1000>263690
  75  000A              ;# 75 "c:\users\longshuangmin\desktop\worke_space\g-501\g-501\opa.c" 1
  75  000A              	ERRMESSAGE 'the value 1000of the argument exceeds the maxinum 263690'
  75  000A              	ENDIF
  75  000A              ;# 75 "c:\users\longshuangmin\desktop\worke_space\g-501\g-501\opa.c" 1
  75  000A              	IF 1000<0
  75  000A              ;# 75 "c:\users\longshuangmin\desktop\worke_space\g-501\g-501\opa.c" 1
  75  000A              	ERRMESSAGE 'the value 1000 of the argument exceeds the mininum 0'
  75  000A              	ENDIF
  75  000A              ;# 75 "c:\users\longshuangmin\desktop\worke_space\g-501\g-501\opa.c" 1
  75  000A              	IF 1000==0
  75  000A              ;# 75 "c:\users\longshuangmin\desktop\worke_space\g-501\g-501\opa.c" 1
  75  000A              	JMP $
  75  000A              	ENDIF
  75  000A              ;# 75 "c:\users\longshuangmin\desktop\worke_space\g-501\g-501\opa.c" 1
  75  000A              	IF (1000>=1) AND (1000<( 4 + __PBP__ * 2))
  75  000A              ;# 75 "c:\users\longshuangmin\desktop\worke_space\g-501\g-501\opa.c" 1
  75  000A              	NOP
  75  000A              	ENDIF
  75  000A              ;# 75 "c:\users\longshuangmin\desktop\worke_space\g-501\g-501\opa.c" 1
  75  000A              	IF (1000>=2) AND (1000<( 4 + __PBP__ * 2))
  75  000A              ;# 75 "c:\users\longshuangmin\desktop\worke_space\g-501\g-501\opa.c" 1
  75  000A              	NOP
  75  000A              	ENDIF
  75  000A              ;# 75 "c:\users\longshuangmin\desktop\worke_space\g-501\g-501\opa.c" 1
  75  000A              	IF (1000>=3) AND (1000<( 4 + __PBP__ * 2))
  75  000A              ;# 75 "c:\users\longshuangmin\desktop\worke_space\g-501\g-501\opa.c" 1
  75  000A              	NOP
  75  000A              	ENDIF
  75  000A              ;# 75 "c:\users\longshuangmin\desktop\worke_space\g-501\g-501\opa.c" 1
  75  000A              	IF (1000>=4) AND (1000<( 4 + __PBP__ * 2)) AND ( __PBP__ > 0 )
  75  000A              ;# 75 "c:\users\longshuangmin\desktop\worke_space\g-501\g-501\opa.c" 1
  75  000A              	NOP
  75  000A              	ENDIF
  75  000A              ;# 75 "c:\users\longshuangmin\desktop\worke_space\g-501\g-501\opa.c" 1
  75  000A              	IF (1000>=5) AND (1000<( 4 + __PBP__ * 2)) AND ( __PBP__ > 0 )
  75  000A              ;# 75 "c:\users\longshuangmin\desktop\worke_space\g-501\g-501\opa.c" 1
  75  000A              	NOP
  75  000A              	ENDIF
  75  000A              ;# 75 "c:\users\longshuangmin\desktop\worke_space\g-501\g-501\opa.c" 1
  75  000A              	IF (1000>=6) AND (1000<( 4 + __PBP__ * 2))  AND ( __PBP__ > 1 )
  75  000A              ;# 75 "c:\users\longshuangmin\desktop\worke_space\g-501\g-501\opa.c" 1
  75  000A              	NOP
  75  000A              	ENDIF
  75  000A              ;# 75 "c:\users\longshuangmin\desktop\worke_space\g-501\g-501\opa.c" 1
  75  000A              	IF (1000>=7) AND (1000<( 4 + __PBP__ * 2))  AND ( __PBP__ > 1 )
  75  000A              ;# 75 "c:\users\longshuangmin\desktop\worke_space\g-501\g-501\opa.c" 1
  75  000A              	NOP
  75  000A              	ENDIF
  75  000A              ;# 75 "c:\users\longshuangmin\desktop\worke_space\g-501\g-501\opa.c" 1
  75  000A              	IF (1000>=8) AND (1000<( 4 + __PBP__ * 2))  AND ( __PBP__ > 2 )
  75  000A              ;# 75 "c:\users\longshuangmin\desktop\worke_space\g-501\g-501\opa.c" 1
  75  000A              	NOP
  75  000A              	ENDIF
  75  000A              ;# 75 "c:\users\longshuangmin\desktop\worke_space\g-501\g-501\opa.c" 1
  75  000A              	IF (1000==9)  AND ( __PBP__ > 2 )
  75  000A              ;# 75 "c:\users\longshuangmin\desktop\worke_space\g-501\g-501\opa.c" 1
  75  000A              	NOP
  75  000A              	ENDIF
文件：opa.c        编译器版本 HGASM 0202 页次13

  75  000A              ;# 75 "c:\users\longshuangmin\desktop\worke_space\g-501\g-501\opa.c" 1
  75  000A              	IF (1000< ( 8 + __PBP__ * 2)) AND (1000>( 3 + __PBP__ * 2))
  75  000A              ;# 75 "c:\users\longshuangmin\desktop\worke_space\g-501\g-501\opa.c" 1
  75  000A              	fcall __DELAY3 + ( 7 + __PBP__ * 2) -1000
  75  000A              	ENDIF
  75  000A              ;# 75 "c:\users\longshuangmin\desktop\worke_space\g-501\g-501\opa.c" 1
  75  000A              	IF (1000< ( 0404h + __PBP__ * 2)) AND (1000>( 7 + __PBP__ * 2))
  75  000A              ;# 75 "c:\users\longshuangmin\desktop\worke_space\g-501\g-501\opa.c" 1
  75  000A  0FF7        	MOV A,(1000-( 4 + __PBP__ * 2))/4
  75  000B              ;# 75 "c:\users\longshuangmin\desktop\worke_space\g-501\g-501\opa.c" 1
  75  000B              	fcall __DELAYX3 + 3 -((1000-( 4 + __PBP__ * 2)) MOD 4) 
  75  0012              	ENDIF
  75  0012              ;# 75 "c:\users\longshuangmin\desktop\worke_space\g-501\g-501\opa.c" 1
  75  0012              	IF (1000< ( 040bh + __PBP__ * 2)) AND (1000> ( 0403h + __PBP__ * 2))
  75  0012              ;# 75 "c:\users\longshuangmin\desktop\worke_space\g-501\g-501\opa.c" 1
  75  0012              	MOV A,0 
  75  0012              ;# 75 "c:\users\longshuangmin\desktop\worke_space\g-501\g-501\opa.c" 1
  75  0012              	fcall __DELAYX6 + ( 040ah + __PBP__ * 2) -1000
  75  0012              	ENDIF
  75  0012              ;# 75 "c:\users\longshuangmin\desktop\worke_space\g-501\g-501\opa.c" 1
  75  0012              	IF (1000 >= ( 040bh + __PBP__ * 2)) AND ((((1000-( 9 + __PBP__ * 2))%0402h)/4+1)>256)
  75  0012              ;# 75 "c:\users\longshuangmin\desktop\worke_space\g-501\g-501\opa.c" 1
  75  0012              	MOV A,(1000-( 9 + __PBP__ * 2))/0402h
  75  0012              ;# 75 "c:\users\longshuangmin\desktop\worke_space\g-501\g-501\opa.c" 1
  75  0012              	MOV _builtin_holtek_delay_2,A
  75  0012              ;# 75 "c:\users\longshuangmin\desktop\worke_space\g-501\g-501\opa.c" 1
  75  0012              	MOV A,0
  75  0012              ;# 75 "c:\users\longshuangmin\desktop\worke_space\g-501\g-501\opa.c" 1
  75  0012              	fcall __DELAYY5 +5- (((1000-( 9 + __PBP__ * 2))%0402h)%6) 
  75  0012              	ENDIF
  75  0012              ;# 75 "c:\users\longshuangmin\desktop\worke_space\g-501\g-501\opa.c" 1
  75  0012              	IF (1000 >= ( 040bh + __PBP__ * 2)) AND ((((1000-( 9 + __PBP__ * 2))%0402h)/4+1)<=256)
  75  0012              ;# 75 "c:\users\longshuangmin\desktop\worke_space\g-501\g-501\opa.c" 1
  75  0012              	MOV A,(1000-( 9 + __PBP__ * 2))/0402h
  75  0012              ;# 75 "c:\users\longshuangmin\desktop\worke_space\g-501\g-501\opa.c" 1
  75  0012              	MOV _builtin_holtek_delay_2,A
  75  0012              ;# 75 "c:\users\longshuangmin\desktop\worke_space\g-501\g-501\opa.c" 1
  75  0012              	MOV A,((1000-( 9 + __PBP__ * 2))%0402h)/4+1
  75  0012              ;# 75 "c:\users\longshuangmin\desktop\worke_space\g-501\g-501\opa.c" 1
  75  0012              	fcall __DELAYY3 +3-(((1000-( 9 + __PBP__ * 2))%0402h)%4) 
  75  0012              	ENDIF
  76  0012              #line 76 "c:\users\longshuangmin\desktop\worke_space\g-501\g-501\opa.c"
  76  0012  3B6B        	snz [107].6
  76  0013  2800     R  	jmp _L16
  76  0014              #line 76 "c:\users\longshuangmin\desktop\worke_space\g-501\g-501\opa.c"
  76  0014  3000     R  	set cr2
  76  0015  2800     R  	jmp _L17
  76  0016              _L16:
  77  0016              #line 77 "c:\users\longshuangmin\desktop\worke_space\g-501\g-501\opa.c"
  77  0016  3400     R  	clr cr2
  77  0017              _L17:
  78  0017              #line 78 "c:\users\longshuangmin\desktop\worke_space\g-501\g-501\opa.c"
  78  0017  1F00     R  	clr _fun_CalOPA2Offset_2[2]
  78  0018              _L18:
  78  0018  0F1F        	mov a,31
  78  0019  0200     R  	sub a,_fun_CalOPA2Offset_2[2]
  78  001A  380A        	snz c
  78  001B  2800     R  	jmp _L20
  80  001C              #line 80 "c:\users\longshuangmin\desktop\worke_space\g-501\g-501\opa.c"
  80  001C  14EE        	inc [110]
文件：opa.c        编译器版本 HGASM 0202 页次14

  81  001D              #line 81 "c:\users\longshuangmin\desktop\worke_space\g-501\g-501\opa.c"
  81  001D              ;# 81 "c:\users\longshuangmin\desktop\worke_space\g-501\g-501\opa.c" 1
  81  001D              	IF 1000>263690
  81  001D              ;# 81 "c:\users\longshuangmin\desktop\worke_space\g-501\g-501\opa.c" 1
  81  001D              	ERRMESSAGE 'the value 1000of the argument exceeds the maxinum 263690'
  81  001D              	ENDIF
  81  001D              ;# 81 "c:\users\longshuangmin\desktop\worke_space\g-501\g-501\opa.c" 1
  81  001D              	IF 1000<0
  81  001D              ;# 81 "c:\users\longshuangmin\desktop\worke_space\g-501\g-501\opa.c" 1
  81  001D              	ERRMESSAGE 'the value 1000 of the argument exceeds the mininum 0'
  81  001D              	ENDIF
  81  001D              ;# 81 "c:\users\longshuangmin\desktop\worke_space\g-501\g-501\opa.c" 1
  81  001D              	IF 1000==0
  81  001D              ;# 81 "c:\users\longshuangmin\desktop\worke_space\g-501\g-501\opa.c" 1
  81  001D              	JMP $
  81  001D              	ENDIF
  81  001D              ;# 81 "c:\users\longshuangmin\desktop\worke_space\g-501\g-501\opa.c" 1
  81  001D              	IF (1000>=1) AND (1000<( 4 + __PBP__ * 2))
  81  001D              ;# 81 "c:\users\longshuangmin\desktop\worke_space\g-501\g-501\opa.c" 1
  81  001D              	NOP
  81  001D              	ENDIF
  81  001D              ;# 81 "c:\users\longshuangmin\desktop\worke_space\g-501\g-501\opa.c" 1
  81  001D              	IF (1000>=2) AND (1000<( 4 + __PBP__ * 2))
  81  001D              ;# 81 "c:\users\longshuangmin\desktop\worke_space\g-501\g-501\opa.c" 1
  81  001D              	NOP
  81  001D              	ENDIF
  81  001D              ;# 81 "c:\users\longshuangmin\desktop\worke_space\g-501\g-501\opa.c" 1
  81  001D              	IF (1000>=3) AND (1000<( 4 + __PBP__ * 2))
  81  001D              ;# 81 "c:\users\longshuangmin\desktop\worke_space\g-501\g-501\opa.c" 1
  81  001D              	NOP
  81  001D              	ENDIF
  81  001D              ;# 81 "c:\users\longshuangmin\desktop\worke_space\g-501\g-501\opa.c" 1
  81  001D              	IF (1000>=4) AND (1000<( 4 + __PBP__ * 2)) AND ( __PBP__ > 0 )
  81  001D              ;# 81 "c:\users\longshuangmin\desktop\worke_space\g-501\g-501\opa.c" 1
  81  001D              	NOP
  81  001D              	ENDIF
  81  001D              ;# 81 "c:\users\longshuangmin\desktop\worke_space\g-501\g-501\opa.c" 1
  81  001D              	IF (1000>=5) AND (1000<( 4 + __PBP__ * 2)) AND ( __PBP__ > 0 )
  81  001D              ;# 81 "c:\users\longshuangmin\desktop\worke_space\g-501\g-501\opa.c" 1
  81  001D              	NOP
  81  001D              	ENDIF
  81  001D              ;# 81 "c:\users\longshuangmin\desktop\worke_space\g-501\g-501\opa.c" 1
  81  001D              	IF (1000>=6) AND (1000<( 4 + __PBP__ * 2))  AND ( __PBP__ > 1 )
  81  001D              ;# 81 "c:\users\longshuangmin\desktop\worke_space\g-501\g-501\opa.c" 1
  81  001D              	NOP
  81  001D              	ENDIF
  81  001D              ;# 81 "c:\users\longshuangmin\desktop\worke_space\g-501\g-501\opa.c" 1
  81  001D              	IF (1000>=7) AND (1000<( 4 + __PBP__ * 2))  AND ( __PBP__ > 1 )
  81  001D              ;# 81 "c:\users\longshuangmin\desktop\worke_space\g-501\g-501\opa.c" 1
  81  001D              	NOP
  81  001D              	ENDIF
  81  001D              ;# 81 "c:\users\longshuangmin\desktop\worke_space\g-501\g-501\opa.c" 1
  81  001D              	IF (1000>=8) AND (1000<( 4 + __PBP__ * 2))  AND ( __PBP__ > 2 )
  81  001D              ;# 81 "c:\users\longshuangmin\desktop\worke_space\g-501\g-501\opa.c" 1
  81  001D              	NOP
  81  001D              	ENDIF
  81  001D              ;# 81 "c:\users\longshuangmin\desktop\worke_space\g-501\g-501\opa.c" 1
  81  001D              	IF (1000==9)  AND ( __PBP__ > 2 )
  81  001D              ;# 81 "c:\users\longshuangmin\desktop\worke_space\g-501\g-501\opa.c" 1
  81  001D              	NOP
文件：opa.c        编译器版本 HGASM 0202 页次15

  81  001D              	ENDIF
  81  001D              ;# 81 "c:\users\longshuangmin\desktop\worke_space\g-501\g-501\opa.c" 1
  81  001D              	IF (1000< ( 8 + __PBP__ * 2)) AND (1000>( 3 + __PBP__ * 2))
  81  001D              ;# 81 "c:\users\longshuangmin\desktop\worke_space\g-501\g-501\opa.c" 1
  81  001D              	fcall __DELAY3 + ( 7 + __PBP__ * 2) -1000
  81  001D              	ENDIF
  81  001D              ;# 81 "c:\users\longshuangmin\desktop\worke_space\g-501\g-501\opa.c" 1
  81  001D              	IF (1000< ( 0404h + __PBP__ * 2)) AND (1000>( 7 + __PBP__ * 2))
  81  001D              ;# 81 "c:\users\longshuangmin\desktop\worke_space\g-501\g-501\opa.c" 1
  81  001D  0FF7        	MOV A,(1000-( 4 + __PBP__ * 2))/4
  81  001E              ;# 81 "c:\users\longshuangmin\desktop\worke_space\g-501\g-501\opa.c" 1
  81  001E              	fcall __DELAYX3 + 3 -((1000-( 4 + __PBP__ * 2)) MOD 4) 
  81  0025              	ENDIF
  81  0025              ;# 81 "c:\users\longshuangmin\desktop\worke_space\g-501\g-501\opa.c" 1
  81  0025              	IF (1000< ( 040bh + __PBP__ * 2)) AND (1000> ( 0403h + __PBP__ * 2))
  81  0025              ;# 81 "c:\users\longshuangmin\desktop\worke_space\g-501\g-501\opa.c" 1
  81  0025              	MOV A,0 
  81  0025              ;# 81 "c:\users\longshuangmin\desktop\worke_space\g-501\g-501\opa.c" 1
  81  0025              	fcall __DELAYX6 + ( 040ah + __PBP__ * 2) -1000
  81  0025              	ENDIF
  81  0025              ;# 81 "c:\users\longshuangmin\desktop\worke_space\g-501\g-501\opa.c" 1
  81  0025              	IF (1000 >= ( 040bh + __PBP__ * 2)) AND ((((1000-( 9 + __PBP__ * 2))%0402h)/4+1)>256)
  81  0025              ;# 81 "c:\users\longshuangmin\desktop\worke_space\g-501\g-501\opa.c" 1
  81  0025              	MOV A,(1000-( 9 + __PBP__ * 2))/0402h
  81  0025              ;# 81 "c:\users\longshuangmin\desktop\worke_space\g-501\g-501\opa.c" 1
  81  0025              	MOV _builtin_holtek_delay_2,A
  81  0025              ;# 81 "c:\users\longshuangmin\desktop\worke_space\g-501\g-501\opa.c" 1
  81  0025              	MOV A,0
  81  0025              ;# 81 "c:\users\longshuangmin\desktop\worke_space\g-501\g-501\opa.c" 1
  81  0025              	fcall __DELAYY5 +5- (((1000-( 9 + __PBP__ * 2))%0402h)%6) 
  81  0025              	ENDIF
  81  0025              ;# 81 "c:\users\longshuangmin\desktop\worke_space\g-501\g-501\opa.c" 1
  81  0025              	IF (1000 >= ( 040bh + __PBP__ * 2)) AND ((((1000-( 9 + __PBP__ * 2))%0402h)/4+1)<=256)
  81  0025              ;# 81 "c:\users\longshuangmin\desktop\worke_space\g-501\g-501\opa.c" 1
  81  0025              	MOV A,(1000-( 9 + __PBP__ * 2))/0402h
  81  0025              ;# 81 "c:\users\longshuangmin\desktop\worke_space\g-501\g-501\opa.c" 1
  81  0025              	MOV _builtin_holtek_delay_2,A
  81  0025              ;# 81 "c:\users\longshuangmin\desktop\worke_space\g-501\g-501\opa.c" 1
  81  0025              	MOV A,((1000-( 9 + __PBP__ * 2))%0402h)/4+1
  81  0025              ;# 81 "c:\users\longshuangmin\desktop\worke_space\g-501\g-501\opa.c" 1
  81  0025              	fcall __DELAYY3 +3-(((1000-( 9 + __PBP__ * 2))%0402h)%4) 
  81  0025              	ENDIF
  82  0025              #line 82 "c:\users\longshuangmin\desktop\worke_space\g-501\g-501\opa.c"
  82  0025              ;# 82 "c:\users\longshuangmin\desktop\worke_space\g-501\g-501\opa.c" 1
  82  0025  0001        	clr wdt
  83  0026              #line 83 "c:\users\longshuangmin\desktop\worke_space\g-501\g-501\opa.c"
  83  0026  1F00     E  	clr rb
  83  0027  3F6B        	sz [107].6
  83  0028  1480     E  	inc rb
  83  0029  1F00     E  	clr ra
  83  002A  3C00     R  	sz cr2
  83  002B  3000     E  	set ra.0
  83  002C  0700     E  	mov a,rb
  83  002D  0200     E  	sub a,ra
  83  002E  3D0A        	sz z
  83  002F  2800     R  	jmp _L19
  84  0030              #line 84 "c:\users\longshuangmin\desktop\worke_space\g-501\g-501\opa.c"
  84  0030  076E        	mov a,[110]
  84  0031  0E1F        	and a,31
  84  0032  0080     R  	mov _fun_CalOPA2Offset_2[1],a
文件：opa.c        编译器版本 HGASM 0202 页次16

  84  0033  2800     R  	jmp _L20
  84  0034              _L19:
  78  0034              #line 78 "c:\users\longshuangmin\desktop\worke_space\g-501\g-501\opa.c"
  78  0034  1480     R  	inc _fun_CalOPA2Offset_2[2]
  78  0035  2800     R  	jmp _L18
  78  0036              _L20:
  87  0036              #line 87 "c:\users\longshuangmin\desktop\worke_space\g-501\g-501\opa.c"
  87  0036  0F1F        	mov a,31
  87  0037  05EE        	orm a,[110]
  88  0038              #line 88 "c:\users\longshuangmin\desktop\worke_space\g-501\g-501\opa.c"
  88  0038              ;# 88 "c:\users\longshuangmin\desktop\worke_space\g-501\g-501\opa.c" 1
  88  0038              	IF 1000>263690
  88  0038              ;# 88 "c:\users\longshuangmin\desktop\worke_space\g-501\g-501\opa.c" 1
  88  0038              	ERRMESSAGE 'the value 1000of the argument exceeds the maxinum 263690'
  88  0038              	ENDIF
  88  0038              ;# 88 "c:\users\longshuangmin\desktop\worke_space\g-501\g-501\opa.c" 1
  88  0038              	IF 1000<0
  88  0038              ;# 88 "c:\users\longshuangmin\desktop\worke_space\g-501\g-501\opa.c" 1
  88  0038              	ERRMESSAGE 'the value 1000 of the argument exceeds the mininum 0'
  88  0038              	ENDIF
  88  0038              ;# 88 "c:\users\longshuangmin\desktop\worke_space\g-501\g-501\opa.c" 1
  88  0038              	IF 1000==0
  88  0038              ;# 88 "c:\users\longshuangmin\desktop\worke_space\g-501\g-501\opa.c" 1
  88  0038              	JMP $
  88  0038              	ENDIF
  88  0038              ;# 88 "c:\users\longshuangmin\desktop\worke_space\g-501\g-501\opa.c" 1
  88  0038              	IF (1000>=1) AND (1000<( 4 + __PBP__ * 2))
  88  0038              ;# 88 "c:\users\longshuangmin\desktop\worke_space\g-501\g-501\opa.c" 1
  88  0038              	NOP
  88  0038              	ENDIF
  88  0038              ;# 88 "c:\users\longshuangmin\desktop\worke_space\g-501\g-501\opa.c" 1
  88  0038              	IF (1000>=2) AND (1000<( 4 + __PBP__ * 2))
  88  0038              ;# 88 "c:\users\longshuangmin\desktop\worke_space\g-501\g-501\opa.c" 1
  88  0038              	NOP
  88  0038              	ENDIF
  88  0038              ;# 88 "c:\users\longshuangmin\desktop\worke_space\g-501\g-501\opa.c" 1
  88  0038              	IF (1000>=3) AND (1000<( 4 + __PBP__ * 2))
  88  0038              ;# 88 "c:\users\longshuangmin\desktop\worke_space\g-501\g-501\opa.c" 1
  88  0038              	NOP
  88  0038              	ENDIF
  88  0038              ;# 88 "c:\users\longshuangmin\desktop\worke_space\g-501\g-501\opa.c" 1
  88  0038              	IF (1000>=4) AND (1000<( 4 + __PBP__ * 2)) AND ( __PBP__ > 0 )
  88  0038              ;# 88 "c:\users\longshuangmin\desktop\worke_space\g-501\g-501\opa.c" 1
  88  0038              	NOP
  88  0038              	ENDIF
  88  0038              ;# 88 "c:\users\longshuangmin\desktop\worke_space\g-501\g-501\opa.c" 1
  88  0038              	IF (1000>=5) AND (1000<( 4 + __PBP__ * 2)) AND ( __PBP__ > 0 )
  88  0038              ;# 88 "c:\users\longshuangmin\desktop\worke_space\g-501\g-501\opa.c" 1
  88  0038              	NOP
  88  0038              	ENDIF
  88  0038              ;# 88 "c:\users\longshuangmin\desktop\worke_space\g-501\g-501\opa.c" 1
  88  0038              	IF (1000>=6) AND (1000<( 4 + __PBP__ * 2))  AND ( __PBP__ > 1 )
  88  0038              ;# 88 "c:\users\longshuangmin\desktop\worke_space\g-501\g-501\opa.c" 1
  88  0038              	NOP
  88  0038              	ENDIF
  88  0038              ;# 88 "c:\users\longshuangmin\desktop\worke_space\g-501\g-501\opa.c" 1
  88  0038              	IF (1000>=7) AND (1000<( 4 + __PBP__ * 2))  AND ( __PBP__ > 1 )
  88  0038              ;# 88 "c:\users\longshuangmin\desktop\worke_space\g-501\g-501\opa.c" 1
  88  0038              	NOP
  88  0038              	ENDIF
文件：opa.c        编译器版本 HGASM 0202 页次17

  88  0038              ;# 88 "c:\users\longshuangmin\desktop\worke_space\g-501\g-501\opa.c" 1
  88  0038              	IF (1000>=8) AND (1000<( 4 + __PBP__ * 2))  AND ( __PBP__ > 2 )
  88  0038              ;# 88 "c:\users\longshuangmin\desktop\worke_space\g-501\g-501\opa.c" 1
  88  0038              	NOP
  88  0038              	ENDIF
  88  0038              ;# 88 "c:\users\longshuangmin\desktop\worke_space\g-501\g-501\opa.c" 1
  88  0038              	IF (1000==9)  AND ( __PBP__ > 2 )
  88  0038              ;# 88 "c:\users\longshuangmin\desktop\worke_space\g-501\g-501\opa.c" 1
  88  0038              	NOP
  88  0038              	ENDIF
  88  0038              ;# 88 "c:\users\longshuangmin\desktop\worke_space\g-501\g-501\opa.c" 1
  88  0038              	IF (1000< ( 8 + __PBP__ * 2)) AND (1000>( 3 + __PBP__ * 2))
  88  0038              ;# 88 "c:\users\longshuangmin\desktop\worke_space\g-501\g-501\opa.c" 1
  88  0038              	fcall __DELAY3 + ( 7 + __PBP__ * 2) -1000
  88  0038              	ENDIF
  88  0038              ;# 88 "c:\users\longshuangmin\desktop\worke_space\g-501\g-501\opa.c" 1
  88  0038              	IF (1000< ( 0404h + __PBP__ * 2)) AND (1000>( 7 + __PBP__ * 2))
  88  0038              ;# 88 "c:\users\longshuangmin\desktop\worke_space\g-501\g-501\opa.c" 1
  88  0038  0FF7        	MOV A,(1000-( 4 + __PBP__ * 2))/4
  88  0039              ;# 88 "c:\users\longshuangmin\desktop\worke_space\g-501\g-501\opa.c" 1
  88  0039              	fcall __DELAYX3 + 3 -((1000-( 4 + __PBP__ * 2)) MOD 4) 
  88  0040              	ENDIF
  88  0040              ;# 88 "c:\users\longshuangmin\desktop\worke_space\g-501\g-501\opa.c" 1
  88  0040              	IF (1000< ( 040bh + __PBP__ * 2)) AND (1000> ( 0403h + __PBP__ * 2))
  88  0040              ;# 88 "c:\users\longshuangmin\desktop\worke_space\g-501\g-501\opa.c" 1
  88  0040              	MOV A,0 
  88  0040              ;# 88 "c:\users\longshuangmin\desktop\worke_space\g-501\g-501\opa.c" 1
  88  0040              	fcall __DELAYX6 + ( 040ah + __PBP__ * 2) -1000
  88  0040              	ENDIF
  88  0040              ;# 88 "c:\users\longshuangmin\desktop\worke_space\g-501\g-501\opa.c" 1
  88  0040              	IF (1000 >= ( 040bh + __PBP__ * 2)) AND ((((1000-( 9 + __PBP__ * 2))%0402h)/4+1)>256)
  88  0040              ;# 88 "c:\users\longshuangmin\desktop\worke_space\g-501\g-501\opa.c" 1
  88  0040              	MOV A,(1000-( 9 + __PBP__ * 2))/0402h
  88  0040              ;# 88 "c:\users\longshuangmin\desktop\worke_space\g-501\g-501\opa.c" 1
  88  0040              	MOV _builtin_holtek_delay_2,A
  88  0040              ;# 88 "c:\users\longshuangmin\desktop\worke_space\g-501\g-501\opa.c" 1
  88  0040              	MOV A,0
  88  0040              ;# 88 "c:\users\longshuangmin\desktop\worke_space\g-501\g-501\opa.c" 1
  88  0040              	fcall __DELAYY5 +5- (((1000-( 9 + __PBP__ * 2))%0402h)%6) 
  88  0040              	ENDIF
  88  0040              ;# 88 "c:\users\longshuangmin\desktop\worke_space\g-501\g-501\opa.c" 1
  88  0040              	IF (1000 >= ( 040bh + __PBP__ * 2)) AND ((((1000-( 9 + __PBP__ * 2))%0402h)/4+1)<=256)
  88  0040              ;# 88 "c:\users\longshuangmin\desktop\worke_space\g-501\g-501\opa.c" 1
  88  0040              	MOV A,(1000-( 9 + __PBP__ * 2))/0402h
  88  0040              ;# 88 "c:\users\longshuangmin\desktop\worke_space\g-501\g-501\opa.c" 1
  88  0040              	MOV _builtin_holtek_delay_2,A
  88  0040              ;# 88 "c:\users\longshuangmin\desktop\worke_space\g-501\g-501\opa.c" 1
  88  0040              	MOV A,((1000-( 9 + __PBP__ * 2))%0402h)/4+1
  88  0040              ;# 88 "c:\users\longshuangmin\desktop\worke_space\g-501\g-501\opa.c" 1
  88  0040              	fcall __DELAYY3 +3-(((1000-( 9 + __PBP__ * 2))%0402h)%4) 
  88  0040              	ENDIF
  89  0040              #line 89 "c:\users\longshuangmin\desktop\worke_space\g-501\g-501\opa.c"
  89  0040  3B6B        	snz [107].6
  89  0041  2800     R  	jmp _L22
  89  0042  3000     R  	set cr2
  89  0043  2800     R  	jmp _L23
  89  0044              _L22:
  90  0044              #line 90 "c:\users\longshuangmin\desktop\worke_space\g-501\g-501\opa.c"
  90  0044  3400     R  	clr cr2
  90  0045              _L23:
文件：opa.c        编译器版本 HGASM 0202 页次18

  91  0045              #line 91 "c:\users\longshuangmin\desktop\worke_space\g-501\g-501\opa.c"
  91  0045  1F00     R  	clr _fun_CalOPA2Offset_2[2]
  91  0046              _L24:
  91  0046  0F1F        	mov a,31
  91  0047  0200     R  	sub a,_fun_CalOPA2Offset_2[2]
  91  0048  380A        	snz c
  91  0049  2800     R  	jmp _L26
  93  004A              #line 93 "c:\users\longshuangmin\desktop\worke_space\g-501\g-501\opa.c"
  93  004A  15EE        	dec [110]
  94  004B              #line 94 "c:\users\longshuangmin\desktop\worke_space\g-501\g-501\opa.c"
  94  004B              ;# 94 "c:\users\longshuangmin\desktop\worke_space\g-501\g-501\opa.c" 1
  94  004B              	IF 1000>263690
  94  004B              ;# 94 "c:\users\longshuangmin\desktop\worke_space\g-501\g-501\opa.c" 1
  94  004B              	ERRMESSAGE 'the value 1000of the argument exceeds the maxinum 263690'
  94  004B              	ENDIF
  94  004B              ;# 94 "c:\users\longshuangmin\desktop\worke_space\g-501\g-501\opa.c" 1
  94  004B              	IF 1000<0
  94  004B              ;# 94 "c:\users\longshuangmin\desktop\worke_space\g-501\g-501\opa.c" 1
  94  004B              	ERRMESSAGE 'the value 1000 of the argument exceeds the mininum 0'
  94  004B              	ENDIF
  94  004B              ;# 94 "c:\users\longshuangmin\desktop\worke_space\g-501\g-501\opa.c" 1
  94  004B              	IF 1000==0
  94  004B              ;# 94 "c:\users\longshuangmin\desktop\worke_space\g-501\g-501\opa.c" 1
  94  004B              	JMP $
  94  004B              	ENDIF
  94  004B              ;# 94 "c:\users\longshuangmin\desktop\worke_space\g-501\g-501\opa.c" 1
  94  004B              	IF (1000>=1) AND (1000<( 4 + __PBP__ * 2))
  94  004B              ;# 94 "c:\users\longshuangmin\desktop\worke_space\g-501\g-501\opa.c" 1
  94  004B              	NOP
  94  004B              	ENDIF
  94  004B              ;# 94 "c:\users\longshuangmin\desktop\worke_space\g-501\g-501\opa.c" 1
  94  004B              	IF (1000>=2) AND (1000<( 4 + __PBP__ * 2))
  94  004B              ;# 94 "c:\users\longshuangmin\desktop\worke_space\g-501\g-501\opa.c" 1
  94  004B              	NOP
  94  004B              	ENDIF
  94  004B              ;# 94 "c:\users\longshuangmin\desktop\worke_space\g-501\g-501\opa.c" 1
  94  004B              	IF (1000>=3) AND (1000<( 4 + __PBP__ * 2))
  94  004B              ;# 94 "c:\users\longshuangmin\desktop\worke_space\g-501\g-501\opa.c" 1
  94  004B              	NOP
  94  004B              	ENDIF
  94  004B              ;# 94 "c:\users\longshuangmin\desktop\worke_space\g-501\g-501\opa.c" 1
  94  004B              	IF (1000>=4) AND (1000<( 4 + __PBP__ * 2)) AND ( __PBP__ > 0 )
  94  004B              ;# 94 "c:\users\longshuangmin\desktop\worke_space\g-501\g-501\opa.c" 1
  94  004B              	NOP
  94  004B              	ENDIF
  94  004B              ;# 94 "c:\users\longshuangmin\desktop\worke_space\g-501\g-501\opa.c" 1
  94  004B              	IF (1000>=5) AND (1000<( 4 + __PBP__ * 2)) AND ( __PBP__ > 0 )
  94  004B              ;# 94 "c:\users\longshuangmin\desktop\worke_space\g-501\g-501\opa.c" 1
  94  004B              	NOP
  94  004B              	ENDIF
  94  004B              ;# 94 "c:\users\longshuangmin\desktop\worke_space\g-501\g-501\opa.c" 1
  94  004B              	IF (1000>=6) AND (1000<( 4 + __PBP__ * 2))  AND ( __PBP__ > 1 )
  94  004B              ;# 94 "c:\users\longshuangmin\desktop\worke_space\g-501\g-501\opa.c" 1
  94  004B              	NOP
  94  004B              	ENDIF
  94  004B              ;# 94 "c:\users\longshuangmin\desktop\worke_space\g-501\g-501\opa.c" 1
  94  004B              	IF (1000>=7) AND (1000<( 4 + __PBP__ * 2))  AND ( __PBP__ > 1 )
  94  004B              ;# 94 "c:\users\longshuangmin\desktop\worke_space\g-501\g-501\opa.c" 1
  94  004B              	NOP
  94  004B              	ENDIF
文件：opa.c        编译器版本 HGASM 0202 页次19

  94  004B              ;# 94 "c:\users\longshuangmin\desktop\worke_space\g-501\g-501\opa.c" 1
  94  004B              	IF (1000>=8) AND (1000<( 4 + __PBP__ * 2))  AND ( __PBP__ > 2 )
  94  004B              ;# 94 "c:\users\longshuangmin\desktop\worke_space\g-501\g-501\opa.c" 1
  94  004B              	NOP
  94  004B              	ENDIF
  94  004B              ;# 94 "c:\users\longshuangmin\desktop\worke_space\g-501\g-501\opa.c" 1
  94  004B              	IF (1000==9)  AND ( __PBP__ > 2 )
  94  004B              ;# 94 "c:\users\longshuangmin\desktop\worke_space\g-501\g-501\opa.c" 1
  94  004B              	NOP
  94  004B              	ENDIF
  94  004B              ;# 94 "c:\users\longshuangmin\desktop\worke_space\g-501\g-501\opa.c" 1
  94  004B              	IF (1000< ( 8 + __PBP__ * 2)) AND (1000>( 3 + __PBP__ * 2))
  94  004B              ;# 94 "c:\users\longshuangmin\desktop\worke_space\g-501\g-501\opa.c" 1
  94  004B              	fcall __DELAY3 + ( 7 + __PBP__ * 2) -1000
  94  004B              	ENDIF
  94  004B              ;# 94 "c:\users\longshuangmin\desktop\worke_space\g-501\g-501\opa.c" 1
  94  004B              	IF (1000< ( 0404h + __PBP__ * 2)) AND (1000>( 7 + __PBP__ * 2))
  94  004B              ;# 94 "c:\users\longshuangmin\desktop\worke_space\g-501\g-501\opa.c" 1
  94  004B  0FF7        	MOV A,(1000-( 4 + __PBP__ * 2))/4
  94  004C              ;# 94 "c:\users\longshuangmin\desktop\worke_space\g-501\g-501\opa.c" 1
  94  004C              	fcall __DELAYX3 + 3 -((1000-( 4 + __PBP__ * 2)) MOD 4) 
  94  0053              	ENDIF
  94  0053              ;# 94 "c:\users\longshuangmin\desktop\worke_space\g-501\g-501\opa.c" 1
  94  0053              	IF (1000< ( 040bh + __PBP__ * 2)) AND (1000> ( 0403h + __PBP__ * 2))
  94  0053              ;# 94 "c:\users\longshuangmin\desktop\worke_space\g-501\g-501\opa.c" 1
  94  0053              	MOV A,0 
  94  0053              ;# 94 "c:\users\longshuangmin\desktop\worke_space\g-501\g-501\opa.c" 1
  94  0053              	fcall __DELAYX6 + ( 040ah + __PBP__ * 2) -1000
  94  0053              	ENDIF
  94  0053              ;# 94 "c:\users\longshuangmin\desktop\worke_space\g-501\g-501\opa.c" 1
  94  0053              	IF (1000 >= ( 040bh + __PBP__ * 2)) AND ((((1000-( 9 + __PBP__ * 2))%0402h)/4+1)>256)
  94  0053              ;# 94 "c:\users\longshuangmin\desktop\worke_space\g-501\g-501\opa.c" 1
  94  0053              	MOV A,(1000-( 9 + __PBP__ * 2))/0402h
  94  0053              ;# 94 "c:\users\longshuangmin\desktop\worke_space\g-501\g-501\opa.c" 1
  94  0053              	MOV _builtin_holtek_delay_2,A
  94  0053              ;# 94 "c:\users\longshuangmin\desktop\worke_space\g-501\g-501\opa.c" 1
  94  0053              	MOV A,0
  94  0053              ;# 94 "c:\users\longshuangmin\desktop\worke_space\g-501\g-501\opa.c" 1
  94  0053              	fcall __DELAYY5 +5- (((1000-( 9 + __PBP__ * 2))%0402h)%6) 
  94  0053              	ENDIF
  94  0053              ;# 94 "c:\users\longshuangmin\desktop\worke_space\g-501\g-501\opa.c" 1
  94  0053              	IF (1000 >= ( 040bh + __PBP__ * 2)) AND ((((1000-( 9 + __PBP__ * 2))%0402h)/4+1)<=256)
  94  0053              ;# 94 "c:\users\longshuangmin\desktop\worke_space\g-501\g-501\opa.c" 1
  94  0053              	MOV A,(1000-( 9 + __PBP__ * 2))/0402h
  94  0053              ;# 94 "c:\users\longshuangmin\desktop\worke_space\g-501\g-501\opa.c" 1
  94  0053              	MOV _builtin_holtek_delay_2,A
  94  0053              ;# 94 "c:\users\longshuangmin\desktop\worke_space\g-501\g-501\opa.c" 1
  94  0053              	MOV A,((1000-( 9 + __PBP__ * 2))%0402h)/4+1
  94  0053              ;# 94 "c:\users\longshuangmin\desktop\worke_space\g-501\g-501\opa.c" 1
  94  0053              	fcall __DELAYY3 +3-(((1000-( 9 + __PBP__ * 2))%0402h)%4) 
  94  0053              	ENDIF
  95  0053              #line 95 "c:\users\longshuangmin\desktop\worke_space\g-501\g-501\opa.c"
  95  0053              ;# 95 "c:\users\longshuangmin\desktop\worke_space\g-501\g-501\opa.c" 1
  95  0053  0001        	clr wdt
  96  0054              #line 96 "c:\users\longshuangmin\desktop\worke_space\g-501\g-501\opa.c"
  96  0054  1F00     E  	clr rb
  96  0055  3F6B        	sz [107].6
  96  0056  1480     E  	inc rb
  96  0057  1F00     E  	clr ra
  96  0058  3C00     R  	sz cr2
文件：opa.c        编译器版本 HGASM 0202 页次20

  96  0059  3000     E  	set ra.0
  96  005A  0700     E  	mov a,rb
  96  005B  0200     E  	sub a,ra
  96  005C  3D0A        	sz z
  96  005D  2800     R  	jmp _L25
  97  005E              #line 97 "c:\users\longshuangmin\desktop\worke_space\g-501\g-501\opa.c"
  97  005E  076E        	mov a,[110]
  97  005F  0E1F        	and a,31
  97  0060  0080     R  	mov _fun_CalOPA2Offset_2[0],a
  97  0061  2800     R  	jmp _L26
  97  0062              _L25:
  91  0062              #line 91 "c:\users\longshuangmin\desktop\worke_space\g-501\g-501\opa.c"
  91  0062  1480     R  	inc _fun_CalOPA2Offset_2[2]
  91  0063  2800     R  	jmp _L24
  91  0064              _L26:
  99  0064              #line 99 "c:\users\longshuangmin\desktop\worke_space\g-501\g-501\opa.c"
  99  0064  0700     R  	mov a,_fun_CalOPA2Offset_2[1]
  99  0065  0080     E  	mov rb,a
  99  0066  1F00     E  	clr rc
  99  0067  0700     R  	mov a,_fun_CalOPA2Offset_2[0]
  99  0068  0380     E  	addm a,rb
  99  0069  3C0A        	sz c
  99  006A  1480     E  	inc rc
  99  006B  1A00     E  	rlca rc
  99  006C  1B80     E  	rrc rc
  99  006D  1B80     E  	rrc rb
  99  006E  0700     E  	mov a,rb
  99  006F  00EE        	mov [110],a
 100  0070              #line 100 "c:\users\longshuangmin\desktop\worke_space\g-501\g-501\opa.c"
 100  0070  36ED        	clr [109].5
 101  0071              #line 101 "c:\users\longshuangmin\desktop\worke_space\g-501\g-501\opa.c"
 101  0071  366B        	clr [107].4
 102  0072              #line 102 "c:\users\longshuangmin\desktop\worke_space\g-501\g-501\opa.c"
 102  0072  1F72        	clr [114]
 102  0073  0003        	ret
 102  0074              _fun_CalOPA2Offset endp
 102  0074              #line 102 "c:\users\longshuangmin\desktop\worke_space\g-501\g-501\opa.c"
 102  0074              #pragma debug scope 1 1
 102  0074              ___sgc equ [120]
 102  0074              ___bopac1 equ [124]
 102  0074              ___bopac0 equ [123]
 102  0074              public _fun_CalOPA3Offset
 102  0074              #pragma debug scope 4 1
 114  0074              #line 114 "c:\users\longshuangmin\desktop\worke_space\g-501\g-501\opa.c"
 114  0000              _fun_CalOPA3Offset .section 'code'
 114  0000              _fun_CalOPA3Offset proc
 114  0000  0003[           local _fun_CalOPA3Offset_2 db 3 dup(?)	; 0,3
            00
            ]
 114  0003  00              local cr3 dbit
 114  0004              #pragma debug variable 2 4 cr3 "OPAStatus"
 114  0004              #pragma debug variable 8 4 _fun_CalOPA3Offset_2+2 "i"
 114  0004              #pragma debug variable 8 4 _fun_CalOPA3Offset_2+1 "OPAData0"
 114  0004              #pragma debug variable 8 4 _fun_CalOPA3Offset_2+0 "OPAData1"
 118  0004              #line 118 "c:\users\longshuangmin\desktop\worke_space\g-501\g-501\opa.c"
 118  0000  326B        	set [107].4
 119  0001              #line 119 "c:\users\longshuangmin\desktop\worke_space\g-501\g-501\opa.c"
 119  0001  0F01        	mov a,1
 119  0002  00F2        	mov [114],a
 120  0003              #line 120 "c:\users\longshuangmin\desktop\worke_space\g-501\g-501\opa.c"
文件：opa.c        编译器版本 HGASM 0202 页次21

 120  0003  3278        	set [120].4
 122  0004              #line 122 "c:\users\longshuangmin\desktop\worke_space\g-501\g-501\opa.c"
 122  0004  33FC        	set [124].7
 122  0005  337C        	set [124].6
 123  0006              #line 123 "c:\users\longshuangmin\desktop\worke_space\g-501\g-501\opa.c"
 123  0006  33FB        	set [123].7
 123  0007  32FC        	set [124].5
 125  0008              #line 125 "c:\users\longshuangmin\desktop\worke_space\g-501\g-501\opa.c"
 125  0008  0FE0        	mov a,224
 125  0009  06FC        	andm a,[124]
 126  000A              #line 126 "c:\users\longshuangmin\desktop\worke_space\g-501\g-501\opa.c"
 126  000A              ;# 126 "c:\users\longshuangmin\desktop\worke_space\g-501\g-501\opa.c" 1
 126  000A              	IF 1000>263690
 126  000A              ;# 126 "c:\users\longshuangmin\desktop\worke_space\g-501\g-501\opa.c" 1
 126  000A              	ERRMESSAGE 'the value 1000of the argument exceeds the maxinum 263690'
 126  000A              	ENDIF
 126  000A              ;# 126 "c:\users\longshuangmin\desktop\worke_space\g-501\g-501\opa.c" 1
 126  000A              	IF 1000<0
 126  000A              ;# 126 "c:\users\longshuangmin\desktop\worke_space\g-501\g-501\opa.c" 1
 126  000A              	ERRMESSAGE 'the value 1000 of the argument exceeds the mininum 0'
 126  000A              	ENDIF
 126  000A              ;# 126 "c:\users\longshuangmin\desktop\worke_space\g-501\g-501\opa.c" 1
 126  000A              	IF 1000==0
 126  000A              ;# 126 "c:\users\longshuangmin\desktop\worke_space\g-501\g-501\opa.c" 1
 126  000A              	JMP $
 126  000A              	ENDIF
 126  000A              ;# 126 "c:\users\longshuangmin\desktop\worke_space\g-501\g-501\opa.c" 1
 126  000A              	IF (1000>=1) AND (1000<( 4 + __PBP__ * 2))
 126  000A              ;# 126 "c:\users\longshuangmin\desktop\worke_space\g-501\g-501\opa.c" 1
 126  000A              	NOP
 126  000A              	ENDIF
 126  000A              ;# 126 "c:\users\longshuangmin\desktop\worke_space\g-501\g-501\opa.c" 1
 126  000A              	IF (1000>=2) AND (1000<( 4 + __PBP__ * 2))
 126  000A              ;# 126 "c:\users\longshuangmin\desktop\worke_space\g-501\g-501\opa.c" 1
 126  000A              	NOP
 126  000A              	ENDIF
 126  000A              ;# 126 "c:\users\longshuangmin\desktop\worke_space\g-501\g-501\opa.c" 1
 126  000A              	IF (1000>=3) AND (1000<( 4 + __PBP__ * 2))
 126  000A              ;# 126 "c:\users\longshuangmin\desktop\worke_space\g-501\g-501\opa.c" 1
 126  000A              	NOP
 126  000A              	ENDIF
 126  000A              ;# 126 "c:\users\longshuangmin\desktop\worke_space\g-501\g-501\opa.c" 1
 126  000A              	IF (1000>=4) AND (1000<( 4 + __PBP__ * 2)) AND ( __PBP__ > 0 )
 126  000A              ;# 126 "c:\users\longshuangmin\desktop\worke_space\g-501\g-501\opa.c" 1
 126  000A              	NOP
 126  000A              	ENDIF
 126  000A              ;# 126 "c:\users\longshuangmin\desktop\worke_space\g-501\g-501\opa.c" 1
 126  000A              	IF (1000>=5) AND (1000<( 4 + __PBP__ * 2)) AND ( __PBP__ > 0 )
 126  000A              ;# 126 "c:\users\longshuangmin\desktop\worke_space\g-501\g-501\opa.c" 1
 126  000A              	NOP
 126  000A              	ENDIF
 126  000A              ;# 126 "c:\users\longshuangmin\desktop\worke_space\g-501\g-501\opa.c" 1
 126  000A              	IF (1000>=6) AND (1000<( 4 + __PBP__ * 2))  AND ( __PBP__ > 1 )
 126  000A              ;# 126 "c:\users\longshuangmin\desktop\worke_space\g-501\g-501\opa.c" 1
 126  000A              	NOP
 126  000A              	ENDIF
 126  000A              ;# 126 "c:\users\longshuangmin\desktop\worke_space\g-501\g-501\opa.c" 1
 126  000A              	IF (1000>=7) AND (1000<( 4 + __PBP__ * 2))  AND ( __PBP__ > 1 )
 126  000A              ;# 126 "c:\users\longshuangmin\desktop\worke_space\g-501\g-501\opa.c" 1
 126  000A              	NOP
文件：opa.c        编译器版本 HGASM 0202 页次22

 126  000A              	ENDIF
 126  000A              ;# 126 "c:\users\longshuangmin\desktop\worke_space\g-501\g-501\opa.c" 1
 126  000A              	IF (1000>=8) AND (1000<( 4 + __PBP__ * 2))  AND ( __PBP__ > 2 )
 126  000A              ;# 126 "c:\users\longshuangmin\desktop\worke_space\g-501\g-501\opa.c" 1
 126  000A              	NOP
 126  000A              	ENDIF
 126  000A              ;# 126 "c:\users\longshuangmin\desktop\worke_space\g-501\g-501\opa.c" 1
 126  000A              	IF (1000==9)  AND ( __PBP__ > 2 )
 126  000A              ;# 126 "c:\users\longshuangmin\desktop\worke_space\g-501\g-501\opa.c" 1
 126  000A              	NOP
 126  000A              	ENDIF
 126  000A              ;# 126 "c:\users\longshuangmin\desktop\worke_space\g-501\g-501\opa.c" 1
 126  000A              	IF (1000< ( 8 + __PBP__ * 2)) AND (1000>( 3 + __PBP__ * 2))
 126  000A              ;# 126 "c:\users\longshuangmin\desktop\worke_space\g-501\g-501\opa.c" 1
 126  000A              	fcall __DELAY3 + ( 7 + __PBP__ * 2) -1000
 126  000A              	ENDIF
 126  000A              ;# 126 "c:\users\longshuangmin\desktop\worke_space\g-501\g-501\opa.c" 1
 126  000A              	IF (1000< ( 0404h + __PBP__ * 2)) AND (1000>( 7 + __PBP__ * 2))
 126  000A              ;# 126 "c:\users\longshuangmin\desktop\worke_space\g-501\g-501\opa.c" 1
 126  000A  0FF7        	MOV A,(1000-( 4 + __PBP__ * 2))/4
 126  000B              ;# 126 "c:\users\longshuangmin\desktop\worke_space\g-501\g-501\opa.c" 1
 126  000B              	fcall __DELAYX3 + 3 -((1000-( 4 + __PBP__ * 2)) MOD 4) 
 126  0012              	ENDIF
 126  0012              ;# 126 "c:\users\longshuangmin\desktop\worke_space\g-501\g-501\opa.c" 1
 126  0012              	IF (1000< ( 040bh + __PBP__ * 2)) AND (1000> ( 0403h + __PBP__ * 2))
 126  0012              ;# 126 "c:\users\longshuangmin\desktop\worke_space\g-501\g-501\opa.c" 1
 126  0012              	MOV A,0 
 126  0012              ;# 126 "c:\users\longshuangmin\desktop\worke_space\g-501\g-501\opa.c" 1
 126  0012              	fcall __DELAYX6 + ( 040ah + __PBP__ * 2) -1000
 126  0012              	ENDIF
 126  0012              ;# 126 "c:\users\longshuangmin\desktop\worke_space\g-501\g-501\opa.c" 1
 126  0012              	IF (1000 >= ( 040bh + __PBP__ * 2)) AND ((((1000-( 9 + __PBP__ * 2))%0402h)/4+1)>256)
 126  0012              ;# 126 "c:\users\longshuangmin\desktop\worke_space\g-501\g-501\opa.c" 1
 126  0012              	MOV A,(1000-( 9 + __PBP__ * 2))/0402h
 126  0012              ;# 126 "c:\users\longshuangmin\desktop\worke_space\g-501\g-501\opa.c" 1
 126  0012              	MOV _builtin_holtek_delay_2,A
 126  0012              ;# 126 "c:\users\longshuangmin\desktop\worke_space\g-501\g-501\opa.c" 1
 126  0012              	MOV A,0
 126  0012              ;# 126 "c:\users\longshuangmin\desktop\worke_space\g-501\g-501\opa.c" 1
 126  0012              	fcall __DELAYY5 +5- (((1000-( 9 + __PBP__ * 2))%0402h)%6) 
 126  0012              	ENDIF
 126  0012              ;# 126 "c:\users\longshuangmin\desktop\worke_space\g-501\g-501\opa.c" 1
 126  0012              	IF (1000 >= ( 040bh + __PBP__ * 2)) AND ((((1000-( 9 + __PBP__ * 2))%0402h)/4+1)<=256)
 126  0012              ;# 126 "c:\users\longshuangmin\desktop\worke_space\g-501\g-501\opa.c" 1
 126  0012              	MOV A,(1000-( 9 + __PBP__ * 2))/0402h
 126  0012              ;# 126 "c:\users\longshuangmin\desktop\worke_space\g-501\g-501\opa.c" 1
 126  0012              	MOV _builtin_holtek_delay_2,A
 126  0012              ;# 126 "c:\users\longshuangmin\desktop\worke_space\g-501\g-501\opa.c" 1
 126  0012              	MOV A,((1000-( 9 + __PBP__ * 2))%0402h)/4+1
 126  0012              ;# 126 "c:\users\longshuangmin\desktop\worke_space\g-501\g-501\opa.c" 1
 126  0012              	fcall __DELAYY3 +3-(((1000-( 9 + __PBP__ * 2))%0402h)%4) 
 126  0012              	ENDIF
 127  0012              #line 127 "c:\users\longshuangmin\desktop\worke_space\g-501\g-501\opa.c"
 127  0012  3AFB        	snz [123].5
 127  0013  2800     R  	jmp _L29
 127  0014              #line 127 "c:\users\longshuangmin\desktop\worke_space\g-501\g-501\opa.c"
 127  0014  3000     R  	set cr3
 127  0015  2800     R  	jmp _L30
 127  0016              _L29:
 128  0016              #line 128 "c:\users\longshuangmin\desktop\worke_space\g-501\g-501\opa.c"
文件：opa.c        编译器版本 HGASM 0202 页次23

 128  0016  3400     R  	clr cr3
 128  0017              _L30:
 129  0017              #line 129 "c:\users\longshuangmin\desktop\worke_space\g-501\g-501\opa.c"
 129  0017  1F00     R  	clr _fun_CalOPA3Offset_2[2]
 129  0018              _L31:
 129  0018  0F1F        	mov a,31
 129  0019  0200     R  	sub a,_fun_CalOPA3Offset_2[2]
 129  001A  380A        	snz c
 129  001B  2800     R  	jmp _L33
 131  001C              #line 131 "c:\users\longshuangmin\desktop\worke_space\g-501\g-501\opa.c"
 131  001C  14FC        	inc [124]
 132  001D              #line 132 "c:\users\longshuangmin\desktop\worke_space\g-501\g-501\opa.c"
 132  001D              ;# 132 "c:\users\longshuangmin\desktop\worke_space\g-501\g-501\opa.c" 1
 132  001D              	IF 1000>263690
 132  001D              ;# 132 "c:\users\longshuangmin\desktop\worke_space\g-501\g-501\opa.c" 1
 132  001D              	ERRMESSAGE 'the value 1000of the argument exceeds the maxinum 263690'
 132  001D              	ENDIF
 132  001D              ;# 132 "c:\users\longshuangmin\desktop\worke_space\g-501\g-501\opa.c" 1
 132  001D              	IF 1000<0
 132  001D              ;# 132 "c:\users\longshuangmin\desktop\worke_space\g-501\g-501\opa.c" 1
 132  001D              	ERRMESSAGE 'the value 1000 of the argument exceeds the mininum 0'
 132  001D              	ENDIF
 132  001D              ;# 132 "c:\users\longshuangmin\desktop\worke_space\g-501\g-501\opa.c" 1
 132  001D              	IF 1000==0
 132  001D              ;# 132 "c:\users\longshuangmin\desktop\worke_space\g-501\g-501\opa.c" 1
 132  001D              	JMP $
 132  001D              	ENDIF
 132  001D              ;# 132 "c:\users\longshuangmin\desktop\worke_space\g-501\g-501\opa.c" 1
 132  001D              	IF (1000>=1) AND (1000<( 4 + __PBP__ * 2))
 132  001D              ;# 132 "c:\users\longshuangmin\desktop\worke_space\g-501\g-501\opa.c" 1
 132  001D              	NOP
 132  001D              	ENDIF
 132  001D              ;# 132 "c:\users\longshuangmin\desktop\worke_space\g-501\g-501\opa.c" 1
 132  001D              	IF (1000>=2) AND (1000<( 4 + __PBP__ * 2))
 132  001D              ;# 132 "c:\users\longshuangmin\desktop\worke_space\g-501\g-501\opa.c" 1
 132  001D              	NOP
 132  001D              	ENDIF
 132  001D              ;# 132 "c:\users\longshuangmin\desktop\worke_space\g-501\g-501\opa.c" 1
 132  001D              	IF (1000>=3) AND (1000<( 4 + __PBP__ * 2))
 132  001D              ;# 132 "c:\users\longshuangmin\desktop\worke_space\g-501\g-501\opa.c" 1
 132  001D              	NOP
 132  001D              	ENDIF
 132  001D              ;# 132 "c:\users\longshuangmin\desktop\worke_space\g-501\g-501\opa.c" 1
 132  001D              	IF (1000>=4) AND (1000<( 4 + __PBP__ * 2)) AND ( __PBP__ > 0 )
 132  001D              ;# 132 "c:\users\longshuangmin\desktop\worke_space\g-501\g-501\opa.c" 1
 132  001D              	NOP
 132  001D              	ENDIF
 132  001D              ;# 132 "c:\users\longshuangmin\desktop\worke_space\g-501\g-501\opa.c" 1
 132  001D              	IF (1000>=5) AND (1000<( 4 + __PBP__ * 2)) AND ( __PBP__ > 0 )
 132  001D              ;# 132 "c:\users\longshuangmin\desktop\worke_space\g-501\g-501\opa.c" 1
 132  001D              	NOP
 132  001D              	ENDIF
 132  001D              ;# 132 "c:\users\longshuangmin\desktop\worke_space\g-501\g-501\opa.c" 1
 132  001D              	IF (1000>=6) AND (1000<( 4 + __PBP__ * 2))  AND ( __PBP__ > 1 )
 132  001D              ;# 132 "c:\users\longshuangmin\desktop\worke_space\g-501\g-501\opa.c" 1
 132  001D              	NOP
 132  001D              	ENDIF
 132  001D              ;# 132 "c:\users\longshuangmin\desktop\worke_space\g-501\g-501\opa.c" 1
 132  001D              	IF (1000>=7) AND (1000<( 4 + __PBP__ * 2))  AND ( __PBP__ > 1 )
 132  001D              ;# 132 "c:\users\longshuangmin\desktop\worke_space\g-501\g-501\opa.c" 1
文件：opa.c        编译器版本 HGASM 0202 页次24

 132  001D              	NOP
 132  001D              	ENDIF
 132  001D              ;# 132 "c:\users\longshuangmin\desktop\worke_space\g-501\g-501\opa.c" 1
 132  001D              	IF (1000>=8) AND (1000<( 4 + __PBP__ * 2))  AND ( __PBP__ > 2 )
 132  001D              ;# 132 "c:\users\longshuangmin\desktop\worke_space\g-501\g-501\opa.c" 1
 132  001D              	NOP
 132  001D              	ENDIF
 132  001D              ;# 132 "c:\users\longshuangmin\desktop\worke_space\g-501\g-501\opa.c" 1
 132  001D              	IF (1000==9)  AND ( __PBP__ > 2 )
 132  001D              ;# 132 "c:\users\longshuangmin\desktop\worke_space\g-501\g-501\opa.c" 1
 132  001D              	NOP
 132  001D              	ENDIF
 132  001D              ;# 132 "c:\users\longshuangmin\desktop\worke_space\g-501\g-501\opa.c" 1
 132  001D              	IF (1000< ( 8 + __PBP__ * 2)) AND (1000>( 3 + __PBP__ * 2))
 132  001D              ;# 132 "c:\users\longshuangmin\desktop\worke_space\g-501\g-501\opa.c" 1
 132  001D              	fcall __DELAY3 + ( 7 + __PBP__ * 2) -1000
 132  001D              	ENDIF
 132  001D              ;# 132 "c:\users\longshuangmin\desktop\worke_space\g-501\g-501\opa.c" 1
 132  001D              	IF (1000< ( 0404h + __PBP__ * 2)) AND (1000>( 7 + __PBP__ * 2))
 132  001D              ;# 132 "c:\users\longshuangmin\desktop\worke_space\g-501\g-501\opa.c" 1
 132  001D  0FF7        	MOV A,(1000-( 4 + __PBP__ * 2))/4
 132  001E              ;# 132 "c:\users\longshuangmin\desktop\worke_space\g-501\g-501\opa.c" 1
 132  001E              	fcall __DELAYX3 + 3 -((1000-( 4 + __PBP__ * 2)) MOD 4) 
 132  0025              	ENDIF
 132  0025              ;# 132 "c:\users\longshuangmin\desktop\worke_space\g-501\g-501\opa.c" 1
 132  0025              	IF (1000< ( 040bh + __PBP__ * 2)) AND (1000> ( 0403h + __PBP__ * 2))
 132  0025              ;# 132 "c:\users\longshuangmin\desktop\worke_space\g-501\g-501\opa.c" 1
 132  0025              	MOV A,0 
 132  0025              ;# 132 "c:\users\longshuangmin\desktop\worke_space\g-501\g-501\opa.c" 1
 132  0025              	fcall __DELAYX6 + ( 040ah + __PBP__ * 2) -1000
 132  0025              	ENDIF
 132  0025              ;# 132 "c:\users\longshuangmin\desktop\worke_space\g-501\g-501\opa.c" 1
 132  0025              	IF (1000 >= ( 040bh + __PBP__ * 2)) AND ((((1000-( 9 + __PBP__ * 2))%0402h)/4+1)>256)
 132  0025              ;# 132 "c:\users\longshuangmin\desktop\worke_space\g-501\g-501\opa.c" 1
 132  0025              	MOV A,(1000-( 9 + __PBP__ * 2))/0402h
 132  0025              ;# 132 "c:\users\longshuangmin\desktop\worke_space\g-501\g-501\opa.c" 1
 132  0025              	MOV _builtin_holtek_delay_2,A
 132  0025              ;# 132 "c:\users\longshuangmin\desktop\worke_space\g-501\g-501\opa.c" 1
 132  0025              	MOV A,0
 132  0025              ;# 132 "c:\users\longshuangmin\desktop\worke_space\g-501\g-501\opa.c" 1
 132  0025              	fcall __DELAYY5 +5- (((1000-( 9 + __PBP__ * 2))%0402h)%6) 
 132  0025              	ENDIF
 132  0025              ;# 132 "c:\users\longshuangmin\desktop\worke_space\g-501\g-501\opa.c" 1
 132  0025              	IF (1000 >= ( 040bh + __PBP__ * 2)) AND ((((1000-( 9 + __PBP__ * 2))%0402h)/4+1)<=256)
 132  0025              ;# 132 "c:\users\longshuangmin\desktop\worke_space\g-501\g-501\opa.c" 1
 132  0025              	MOV A,(1000-( 9 + __PBP__ * 2))/0402h
 132  0025              ;# 132 "c:\users\longshuangmin\desktop\worke_space\g-501\g-501\opa.c" 1
 132  0025              	MOV _builtin_holtek_delay_2,A
 132  0025              ;# 132 "c:\users\longshuangmin\desktop\worke_space\g-501\g-501\opa.c" 1
 132  0025              	MOV A,((1000-( 9 + __PBP__ * 2))%0402h)/4+1
 132  0025              ;# 132 "c:\users\longshuangmin\desktop\worke_space\g-501\g-501\opa.c" 1
 132  0025              	fcall __DELAYY3 +3-(((1000-( 9 + __PBP__ * 2))%0402h)%4) 
 132  0025              	ENDIF
 133  0025              #line 133 "c:\users\longshuangmin\desktop\worke_space\g-501\g-501\opa.c"
 133  0025              ;# 133 "c:\users\longshuangmin\desktop\worke_space\g-501\g-501\opa.c" 1
 133  0025  0001        	clr wdt
 134  0026              #line 134 "c:\users\longshuangmin\desktop\worke_space\g-501\g-501\opa.c"
 134  0026  1F00     E  	clr rb
 134  0027  3EFB        	sz [123].5
 134  0028  1480     E  	inc rb
文件：opa.c        编译器版本 HGASM 0202 页次25

 134  0029  1F00     E  	clr ra
 134  002A  3C00     R  	sz cr3
 134  002B  3000     E  	set ra.0
 134  002C  0700     E  	mov a,rb
 134  002D  0200     E  	sub a,ra
 134  002E  3D0A        	sz z
 134  002F  2800     R  	jmp _L32
 135  0030              #line 135 "c:\users\longshuangmin\desktop\worke_space\g-501\g-501\opa.c"
 135  0030  077C        	mov a,[124]
 135  0031  0E1F        	and a,31
 135  0032  0080     R  	mov _fun_CalOPA3Offset_2[1],a
 135  0033  2800     R  	jmp _L33
 135  0034              _L32:
 129  0034              #line 129 "c:\users\longshuangmin\desktop\worke_space\g-501\g-501\opa.c"
 129  0034  1480     R  	inc _fun_CalOPA3Offset_2[2]
 129  0035  2800     R  	jmp _L31
 129  0036              _L33:
 138  0036              #line 138 "c:\users\longshuangmin\desktop\worke_space\g-501\g-501\opa.c"
 138  0036  0F1F        	mov a,31
 138  0037  05FC        	orm a,[124]
 139  0038              #line 139 "c:\users\longshuangmin\desktop\worke_space\g-501\g-501\opa.c"
 139  0038              ;# 139 "c:\users\longshuangmin\desktop\worke_space\g-501\g-501\opa.c" 1
 139  0038              	IF 1000>263690
 139  0038              ;# 139 "c:\users\longshuangmin\desktop\worke_space\g-501\g-501\opa.c" 1
 139  0038              	ERRMESSAGE 'the value 1000of the argument exceeds the maxinum 263690'
 139  0038              	ENDIF
 139  0038              ;# 139 "c:\users\longshuangmin\desktop\worke_space\g-501\g-501\opa.c" 1
 139  0038              	IF 1000<0
 139  0038              ;# 139 "c:\users\longshuangmin\desktop\worke_space\g-501\g-501\opa.c" 1
 139  0038              	ERRMESSAGE 'the value 1000 of the argument exceeds the mininum 0'
 139  0038              	ENDIF
 139  0038              ;# 139 "c:\users\longshuangmin\desktop\worke_space\g-501\g-501\opa.c" 1
 139  0038              	IF 1000==0
 139  0038              ;# 139 "c:\users\longshuangmin\desktop\worke_space\g-501\g-501\opa.c" 1
 139  0038              	JMP $
 139  0038              	ENDIF
 139  0038              ;# 139 "c:\users\longshuangmin\desktop\worke_space\g-501\g-501\opa.c" 1
 139  0038              	IF (1000>=1) AND (1000<( 4 + __PBP__ * 2))
 139  0038              ;# 139 "c:\users\longshuangmin\desktop\worke_space\g-501\g-501\opa.c" 1
 139  0038              	NOP
 139  0038              	ENDIF
 139  0038              ;# 139 "c:\users\longshuangmin\desktop\worke_space\g-501\g-501\opa.c" 1
 139  0038              	IF (1000>=2) AND (1000<( 4 + __PBP__ * 2))
 139  0038              ;# 139 "c:\users\longshuangmin\desktop\worke_space\g-501\g-501\opa.c" 1
 139  0038              	NOP
 139  0038              	ENDIF
 139  0038              ;# 139 "c:\users\longshuangmin\desktop\worke_space\g-501\g-501\opa.c" 1
 139  0038              	IF (1000>=3) AND (1000<( 4 + __PBP__ * 2))
 139  0038              ;# 139 "c:\users\longshuangmin\desktop\worke_space\g-501\g-501\opa.c" 1
 139  0038              	NOP
 139  0038              	ENDIF
 139  0038              ;# 139 "c:\users\longshuangmin\desktop\worke_space\g-501\g-501\opa.c" 1
 139  0038              	IF (1000>=4) AND (1000<( 4 + __PBP__ * 2)) AND ( __PBP__ > 0 )
 139  0038              ;# 139 "c:\users\longshuangmin\desktop\worke_space\g-501\g-501\opa.c" 1
 139  0038              	NOP
 139  0038              	ENDIF
 139  0038              ;# 139 "c:\users\longshuangmin\desktop\worke_space\g-501\g-501\opa.c" 1
 139  0038              	IF (1000>=5) AND (1000<( 4 + __PBP__ * 2)) AND ( __PBP__ > 0 )
 139  0038              ;# 139 "c:\users\longshuangmin\desktop\worke_space\g-501\g-501\opa.c" 1
 139  0038              	NOP
文件：opa.c        编译器版本 HGASM 0202 页次26

 139  0038              	ENDIF
 139  0038              ;# 139 "c:\users\longshuangmin\desktop\worke_space\g-501\g-501\opa.c" 1
 139  0038              	IF (1000>=6) AND (1000<( 4 + __PBP__ * 2))  AND ( __PBP__ > 1 )
 139  0038              ;# 139 "c:\users\longshuangmin\desktop\worke_space\g-501\g-501\opa.c" 1
 139  0038              	NOP
 139  0038              	ENDIF
 139  0038              ;# 139 "c:\users\longshuangmin\desktop\worke_space\g-501\g-501\opa.c" 1
 139  0038              	IF (1000>=7) AND (1000<( 4 + __PBP__ * 2))  AND ( __PBP__ > 1 )
 139  0038              ;# 139 "c:\users\longshuangmin\desktop\worke_space\g-501\g-501\opa.c" 1
 139  0038              	NOP
 139  0038              	ENDIF
 139  0038              ;# 139 "c:\users\longshuangmin\desktop\worke_space\g-501\g-501\opa.c" 1
 139  0038              	IF (1000>=8) AND (1000<( 4 + __PBP__ * 2))  AND ( __PBP__ > 2 )
 139  0038              ;# 139 "c:\users\longshuangmin\desktop\worke_space\g-501\g-501\opa.c" 1
 139  0038              	NOP
 139  0038              	ENDIF
 139  0038              ;# 139 "c:\users\longshuangmin\desktop\worke_space\g-501\g-501\opa.c" 1
 139  0038              	IF (1000==9)  AND ( __PBP__ > 2 )
 139  0038              ;# 139 "c:\users\longshuangmin\desktop\worke_space\g-501\g-501\opa.c" 1
 139  0038              	NOP
 139  0038              	ENDIF
 139  0038              ;# 139 "c:\users\longshuangmin\desktop\worke_space\g-501\g-501\opa.c" 1
 139  0038              	IF (1000< ( 8 + __PBP__ * 2)) AND (1000>( 3 + __PBP__ * 2))
 139  0038              ;# 139 "c:\users\longshuangmin\desktop\worke_space\g-501\g-501\opa.c" 1
 139  0038              	fcall __DELAY3 + ( 7 + __PBP__ * 2) -1000
 139  0038              	ENDIF
 139  0038              ;# 139 "c:\users\longshuangmin\desktop\worke_space\g-501\g-501\opa.c" 1
 139  0038              	IF (1000< ( 0404h + __PBP__ * 2)) AND (1000>( 7 + __PBP__ * 2))
 139  0038              ;# 139 "c:\users\longshuangmin\desktop\worke_space\g-501\g-501\opa.c" 1
 139  0038  0FF7        	MOV A,(1000-( 4 + __PBP__ * 2))/4
 139  0039              ;# 139 "c:\users\longshuangmin\desktop\worke_space\g-501\g-501\opa.c" 1
 139  0039              	fcall __DELAYX3 + 3 -((1000-( 4 + __PBP__ * 2)) MOD 4) 
 139  0040              	ENDIF
 139  0040              ;# 139 "c:\users\longshuangmin\desktop\worke_space\g-501\g-501\opa.c" 1
 139  0040              	IF (1000< ( 040bh + __PBP__ * 2)) AND (1000> ( 0403h + __PBP__ * 2))
 139  0040              ;# 139 "c:\users\longshuangmin\desktop\worke_space\g-501\g-501\opa.c" 1
 139  0040              	MOV A,0 
 139  0040              ;# 139 "c:\users\longshuangmin\desktop\worke_space\g-501\g-501\opa.c" 1
 139  0040              	fcall __DELAYX6 + ( 040ah + __PBP__ * 2) -1000
 139  0040              	ENDIF
 139  0040              ;# 139 "c:\users\longshuangmin\desktop\worke_space\g-501\g-501\opa.c" 1
 139  0040              	IF (1000 >= ( 040bh + __PBP__ * 2)) AND ((((1000-( 9 + __PBP__ * 2))%0402h)/4+1)>256)
 139  0040              ;# 139 "c:\users\longshuangmin\desktop\worke_space\g-501\g-501\opa.c" 1
 139  0040              	MOV A,(1000-( 9 + __PBP__ * 2))/0402h
 139  0040              ;# 139 "c:\users\longshuangmin\desktop\worke_space\g-501\g-501\opa.c" 1
 139  0040              	MOV _builtin_holtek_delay_2,A
 139  0040              ;# 139 "c:\users\longshuangmin\desktop\worke_space\g-501\g-501\opa.c" 1
 139  0040              	MOV A,0
 139  0040              ;# 139 "c:\users\longshuangmin\desktop\worke_space\g-501\g-501\opa.c" 1
 139  0040              	fcall __DELAYY5 +5- (((1000-( 9 + __PBP__ * 2))%0402h)%6) 
 139  0040              	ENDIF
 139  0040              ;# 139 "c:\users\longshuangmin\desktop\worke_space\g-501\g-501\opa.c" 1
 139  0040              	IF (1000 >= ( 040bh + __PBP__ * 2)) AND ((((1000-( 9 + __PBP__ * 2))%0402h)/4+1)<=256)
 139  0040              ;# 139 "c:\users\longshuangmin\desktop\worke_space\g-501\g-501\opa.c" 1
 139  0040              	MOV A,(1000-( 9 + __PBP__ * 2))/0402h
 139  0040              ;# 139 "c:\users\longshuangmin\desktop\worke_space\g-501\g-501\opa.c" 1
 139  0040              	MOV _builtin_holtek_delay_2,A
 139  0040              ;# 139 "c:\users\longshuangmin\desktop\worke_space\g-501\g-501\opa.c" 1
 139  0040              	MOV A,((1000-( 9 + __PBP__ * 2))%0402h)/4+1
 139  0040              ;# 139 "c:\users\longshuangmin\desktop\worke_space\g-501\g-501\opa.c" 1
文件：opa.c        编译器版本 HGASM 0202 页次27

 139  0040              	fcall __DELAYY3 +3-(((1000-( 9 + __PBP__ * 2))%0402h)%4) 
 139  0040              	ENDIF
 140  0040              #line 140 "c:\users\longshuangmin\desktop\worke_space\g-501\g-501\opa.c"
 140  0040  3AFB        	snz [123].5
 140  0041  2800     R  	jmp _L35
 140  0042  3000     R  	set cr3
 140  0043  2800     R  	jmp _L36
 140  0044              _L35:
 141  0044              #line 141 "c:\users\longshuangmin\desktop\worke_space\g-501\g-501\opa.c"
 141  0044  3400     R  	clr cr3
 141  0045              _L36:
 142  0045              #line 142 "c:\users\longshuangmin\desktop\worke_space\g-501\g-501\opa.c"
 142  0045  1F00     R  	clr _fun_CalOPA3Offset_2[2]
 142  0046              _L37:
 142  0046  0F1F        	mov a,31
 142  0047  0200     R  	sub a,_fun_CalOPA3Offset_2[2]
 142  0048  380A        	snz c
 142  0049  2800     R  	jmp _L39
 144  004A              #line 144 "c:\users\longshuangmin\desktop\worke_space\g-501\g-501\opa.c"
 144  004A  15FC        	dec [124]
 145  004B              #line 145 "c:\users\longshuangmin\desktop\worke_space\g-501\g-501\opa.c"
 145  004B              ;# 145 "c:\users\longshuangmin\desktop\worke_space\g-501\g-501\opa.c" 1
 145  004B              	IF 1000>263690
 145  004B              ;# 145 "c:\users\longshuangmin\desktop\worke_space\g-501\g-501\opa.c" 1
 145  004B              	ERRMESSAGE 'the value 1000of the argument exceeds the maxinum 263690'
 145  004B              	ENDIF
 145  004B              ;# 145 "c:\users\longshuangmin\desktop\worke_space\g-501\g-501\opa.c" 1
 145  004B              	IF 1000<0
 145  004B              ;# 145 "c:\users\longshuangmin\desktop\worke_space\g-501\g-501\opa.c" 1
 145  004B              	ERRMESSAGE 'the value 1000 of the argument exceeds the mininum 0'
 145  004B              	ENDIF
 145  004B              ;# 145 "c:\users\longshuangmin\desktop\worke_space\g-501\g-501\opa.c" 1
 145  004B              	IF 1000==0
 145  004B              ;# 145 "c:\users\longshuangmin\desktop\worke_space\g-501\g-501\opa.c" 1
 145  004B              	JMP $
 145  004B              	ENDIF
 145  004B              ;# 145 "c:\users\longshuangmin\desktop\worke_space\g-501\g-501\opa.c" 1
 145  004B              	IF (1000>=1) AND (1000<( 4 + __PBP__ * 2))
 145  004B              ;# 145 "c:\users\longshuangmin\desktop\worke_space\g-501\g-501\opa.c" 1
 145  004B              	NOP
 145  004B              	ENDIF
 145  004B              ;# 145 "c:\users\longshuangmin\desktop\worke_space\g-501\g-501\opa.c" 1
 145  004B              	IF (1000>=2) AND (1000<( 4 + __PBP__ * 2))
 145  004B              ;# 145 "c:\users\longshuangmin\desktop\worke_space\g-501\g-501\opa.c" 1
 145  004B              	NOP
 145  004B              	ENDIF
 145  004B              ;# 145 "c:\users\longshuangmin\desktop\worke_space\g-501\g-501\opa.c" 1
 145  004B              	IF (1000>=3) AND (1000<( 4 + __PBP__ * 2))
 145  004B              ;# 145 "c:\users\longshuangmin\desktop\worke_space\g-501\g-501\opa.c" 1
 145  004B              	NOP
 145  004B              	ENDIF
 145  004B              ;# 145 "c:\users\longshuangmin\desktop\worke_space\g-501\g-501\opa.c" 1
 145  004B              	IF (1000>=4) AND (1000<( 4 + __PBP__ * 2)) AND ( __PBP__ > 0 )
 145  004B              ;# 145 "c:\users\longshuangmin\desktop\worke_space\g-501\g-501\opa.c" 1
 145  004B              	NOP
 145  004B              	ENDIF
 145  004B              ;# 145 "c:\users\longshuangmin\desktop\worke_space\g-501\g-501\opa.c" 1
 145  004B              	IF (1000>=5) AND (1000<( 4 + __PBP__ * 2)) AND ( __PBP__ > 0 )
 145  004B              ;# 145 "c:\users\longshuangmin\desktop\worke_space\g-501\g-501\opa.c" 1
 145  004B              	NOP
文件：opa.c        编译器版本 HGASM 0202 页次28

 145  004B              	ENDIF
 145  004B              ;# 145 "c:\users\longshuangmin\desktop\worke_space\g-501\g-501\opa.c" 1
 145  004B              	IF (1000>=6) AND (1000<( 4 + __PBP__ * 2))  AND ( __PBP__ > 1 )
 145  004B              ;# 145 "c:\users\longshuangmin\desktop\worke_space\g-501\g-501\opa.c" 1
 145  004B              	NOP
 145  004B              	ENDIF
 145  004B              ;# 145 "c:\users\longshuangmin\desktop\worke_space\g-501\g-501\opa.c" 1
 145  004B              	IF (1000>=7) AND (1000<( 4 + __PBP__ * 2))  AND ( __PBP__ > 1 )
 145  004B              ;# 145 "c:\users\longshuangmin\desktop\worke_space\g-501\g-501\opa.c" 1
 145  004B              	NOP
 145  004B              	ENDIF
 145  004B              ;# 145 "c:\users\longshuangmin\desktop\worke_space\g-501\g-501\opa.c" 1
 145  004B              	IF (1000>=8) AND (1000<( 4 + __PBP__ * 2))  AND ( __PBP__ > 2 )
 145  004B              ;# 145 "c:\users\longshuangmin\desktop\worke_space\g-501\g-501\opa.c" 1
 145  004B              	NOP
 145  004B              	ENDIF
 145  004B              ;# 145 "c:\users\longshuangmin\desktop\worke_space\g-501\g-501\opa.c" 1
 145  004B              	IF (1000==9)  AND ( __PBP__ > 2 )
 145  004B              ;# 145 "c:\users\longshuangmin\desktop\worke_space\g-501\g-501\opa.c" 1
 145  004B              	NOP
 145  004B              	ENDIF
 145  004B              ;# 145 "c:\users\longshuangmin\desktop\worke_space\g-501\g-501\opa.c" 1
 145  004B              	IF (1000< ( 8 + __PBP__ * 2)) AND (1000>( 3 + __PBP__ * 2))
 145  004B              ;# 145 "c:\users\longshuangmin\desktop\worke_space\g-501\g-501\opa.c" 1
 145  004B              	fcall __DELAY3 + ( 7 + __PBP__ * 2) -1000
 145  004B              	ENDIF
 145  004B              ;# 145 "c:\users\longshuangmin\desktop\worke_space\g-501\g-501\opa.c" 1
 145  004B              	IF (1000< ( 0404h + __PBP__ * 2)) AND (1000>( 7 + __PBP__ * 2))
 145  004B              ;# 145 "c:\users\longshuangmin\desktop\worke_space\g-501\g-501\opa.c" 1
 145  004B  0FF7        	MOV A,(1000-( 4 + __PBP__ * 2))/4
 145  004C              ;# 145 "c:\users\longshuangmin\desktop\worke_space\g-501\g-501\opa.c" 1
 145  004C              	fcall __DELAYX3 + 3 -((1000-( 4 + __PBP__ * 2)) MOD 4) 
 145  0053              	ENDIF
 145  0053              ;# 145 "c:\users\longshuangmin\desktop\worke_space\g-501\g-501\opa.c" 1
 145  0053              	IF (1000< ( 040bh + __PBP__ * 2)) AND (1000> ( 0403h + __PBP__ * 2))
 145  0053              ;# 145 "c:\users\longshuangmin\desktop\worke_space\g-501\g-501\opa.c" 1
 145  0053              	MOV A,0 
 145  0053              ;# 145 "c:\users\longshuangmin\desktop\worke_space\g-501\g-501\opa.c" 1
 145  0053              	fcall __DELAYX6 + ( 040ah + __PBP__ * 2) -1000
 145  0053              	ENDIF
 145  0053              ;# 145 "c:\users\longshuangmin\desktop\worke_space\g-501\g-501\opa.c" 1
 145  0053              	IF (1000 >= ( 040bh + __PBP__ * 2)) AND ((((1000-( 9 + __PBP__ * 2))%0402h)/4+1)>256)
 145  0053              ;# 145 "c:\users\longshuangmin\desktop\worke_space\g-501\g-501\opa.c" 1
 145  0053              	MOV A,(1000-( 9 + __PBP__ * 2))/0402h
 145  0053              ;# 145 "c:\users\longshuangmin\desktop\worke_space\g-501\g-501\opa.c" 1
 145  0053              	MOV _builtin_holtek_delay_2,A
 145  0053              ;# 145 "c:\users\longshuangmin\desktop\worke_space\g-501\g-501\opa.c" 1
 145  0053              	MOV A,0
 145  0053              ;# 145 "c:\users\longshuangmin\desktop\worke_space\g-501\g-501\opa.c" 1
 145  0053              	fcall __DELAYY5 +5- (((1000-( 9 + __PBP__ * 2))%0402h)%6) 
 145  0053              	ENDIF
 145  0053              ;# 145 "c:\users\longshuangmin\desktop\worke_space\g-501\g-501\opa.c" 1
 145  0053              	IF (1000 >= ( 040bh + __PBP__ * 2)) AND ((((1000-( 9 + __PBP__ * 2))%0402h)/4+1)<=256)
 145  0053              ;# 145 "c:\users\longshuangmin\desktop\worke_space\g-501\g-501\opa.c" 1
 145  0053              	MOV A,(1000-( 9 + __PBP__ * 2))/0402h
 145  0053              ;# 145 "c:\users\longshuangmin\desktop\worke_space\g-501\g-501\opa.c" 1
 145  0053              	MOV _builtin_holtek_delay_2,A
 145  0053              ;# 145 "c:\users\longshuangmin\desktop\worke_space\g-501\g-501\opa.c" 1
 145  0053              	MOV A,((1000-( 9 + __PBP__ * 2))%0402h)/4+1
 145  0053              ;# 145 "c:\users\longshuangmin\desktop\worke_space\g-501\g-501\opa.c" 1
文件：opa.c        编译器版本 HGASM 0202 页次29

 145  0053              	fcall __DELAYY3 +3-(((1000-( 9 + __PBP__ * 2))%0402h)%4) 
 145  0053              	ENDIF
 146  0053              #line 146 "c:\users\longshuangmin\desktop\worke_space\g-501\g-501\opa.c"
 146  0053              ;# 146 "c:\users\longshuangmin\desktop\worke_space\g-501\g-501\opa.c" 1
 146  0053  0001        	clr wdt
 147  0054              #line 147 "c:\users\longshuangmin\desktop\worke_space\g-501\g-501\opa.c"
 147  0054  1F00     E  	clr rb
 147  0055  3EFB        	sz [123].5
 147  0056  1480     E  	inc rb
 147  0057  1F00     E  	clr ra
 147  0058  3C00     R  	sz cr3
 147  0059  3000     E  	set ra.0
 147  005A  0700     E  	mov a,rb
 147  005B  0200     E  	sub a,ra
 147  005C  3D0A        	sz z
 147  005D  2800     R  	jmp _L38
 148  005E              #line 148 "c:\users\longshuangmin\desktop\worke_space\g-501\g-501\opa.c"
 148  005E  077C        	mov a,[124]
 148  005F  0E1F        	and a,31
 148  0060  0080     R  	mov _fun_CalOPA3Offset_2[0],a
 148  0061  2800     R  	jmp _L39
 148  0062              _L38:
 142  0062              #line 142 "c:\users\longshuangmin\desktop\worke_space\g-501\g-501\opa.c"
 142  0062  1480     R  	inc _fun_CalOPA3Offset_2[2]
 142  0063  2800     R  	jmp _L37
 142  0064              _L39:
 150  0064              #line 150 "c:\users\longshuangmin\desktop\worke_space\g-501\g-501\opa.c"
 150  0064  0700     R  	mov a,_fun_CalOPA3Offset_2[1]
 150  0065  0080     E  	mov rb,a
 150  0066  1F00     E  	clr rc
 150  0067  0700     R  	mov a,_fun_CalOPA3Offset_2[0]
 150  0068  0380     E  	addm a,rb
 150  0069  3C0A        	sz c
 150  006A  1480     E  	inc rc
 150  006B  1A00     E  	rlca rc
 150  006C  1B80     E  	rrc rc
 150  006D  1B80     E  	rrc rb
 150  006E  0700     E  	mov a,rb
 150  006F  00FC        	mov [124],a
 151  0070              #line 151 "c:\users\longshuangmin\desktop\worke_space\g-501\g-501\opa.c"
 151  0070  37FB        	clr [123].7
 151  0071  36FC        	clr [124].5
 152  0072              #line 152 "c:\users\longshuangmin\desktop\worke_space\g-501\g-501\opa.c"
 152  0072  366B        	clr [107].4
 153  0073              #line 153 "c:\users\longshuangmin\desktop\worke_space\g-501\g-501\opa.c"
 153  0073  1F72        	clr [114]
 154  0074              #line 154 "c:\users\longshuangmin\desktop\worke_space\g-501\g-501\opa.c"
 154  0074  3678        	clr [120].4
 154  0075  0003        	ret
 154  0076              _fun_CalOPA3Offset endp
 154  0076              #line 154 "c:\users\longshuangmin\desktop\worke_space\g-501\g-501\opa.c"
 154  0076              #pragma debug scope 1 1
 154  0076              #pragma debug struct_end
 154  0076              #pragma debug struct_end
 154  0076              #pragma debug union_end
 154  0076              #pragma debug union_end
 154  0076              #pragma debug variable 43 1 ___irefc "__irefc" 1
 154  0076              #pragma debug struct_end
 154  0076              #pragma debug struct_end
 154  0076              #pragma debug union_end
文件：opa.c        编译器版本 HGASM 0202 页次30

 154  0076              #pragma debug union_end
 154  0076              #pragma debug variable 45 1 ___opa1c "__opa1c" 1
 154  0076              #pragma debug struct_end
 154  0076              #pragma debug struct_end
 154  0076              #pragma debug union_end
 154  0076              #pragma debug union_end
 154  0076              #pragma debug variable 47 1 ___opa2c "__opa2c" 1
 154  0076              #pragma debug struct_end
 154  0076              #pragma debug struct_end
 154  0076              #pragma debug union_end
 154  0076              #pragma debug union_end
 154  0076              #pragma debug variable 49 1 ___gsc3 "__gsc3" 1
 154  0076              #pragma debug struct_end
 154  0076              #pragma debug struct_end
 154  0076              #pragma debug union_end
 154  0076              #pragma debug union_end
 154  0076              #pragma debug variable 51 1 ___afeda1c "__afeda1c" 1
 154  0076              #pragma debug struct_end
 154  0076              #pragma debug struct_end
 154  0076              #pragma debug union_end
 154  0076              #pragma debug union_end
 154  0076              #pragma debug variable 53 1 ___sgc "__sgc" 1
 154  0076              #pragma debug struct_end
 154  0076              #pragma debug struct_end
 154  0076              #pragma debug union_end
 154  0076              #pragma debug union_end
 154  0076              #pragma debug variable 55 1 ___bopac0 "__bopac0" 1
 154  0076              #pragma debug struct_end
 154  0076              #pragma debug struct_end
 154  0076              #pragma debug union_end
 154  0076              #pragma debug union_end
 154  0076              #pragma debug variable 57 1 ___bopac1 "__bopac1" 1
 154  0076              
 154  0076              ; 
 154  0076              ; Generated by holtek-gcc v3.19, Fri May 23 10:39:40 2025
 154  0076              ; Rebuild 718
 154  0076              ; end of file


        0 Errors, 0