文件：OpMode_T.C   编译器版本 HGASM 0202 页次1


   1  0000              ; Generated by holtek-gcc v3.19, Fri May 23 10:39:47 2025
   2  0000              ; 
   3  0000              ; Configuration:
   4  0000              ;       with long instruction
   5  0000              ;       Multi-ROM, Multi-RAM
   6  0000              ;       bits_per_rom_unit:16
   7  0000              ;       with mp1
   8  0000              ;       with tbhp, address(0x9)
   9  0000              ;          Use tabrd-const
  10  0000              ;       
  11  0000              ; SFR address of long-instruction arch:
  12  0000              ;    mp0 = -1,1,0
  13  0000              ;    mp1 = 4,3,2
  14  0000              ;    mp2 = 14,13,12
  15  0000              ;    tbp = 9,7,8
  16  0000              ;    acc = 5
  17  0000              ;    pcl = 6
  18  0000              ;    status = 10
  19  0000              ;    bp = 11
  20  0000              ;    intc = 32
  21  0000              ;       
  22  0000              ;       
  23  0000              ; use 'tabrdc' instead of 'tabrd'
  24  0000              ;       
  25  0000              
  26  0000              #pragma translator "holtek-gcc 4.6.4" "3.19" "build 20130711"
  27  0000              ; Rebuild 718
  28  0000              
  29  0000              ir equ [2]
  30  0000              mp equ [3]
  31  0000              sbp equ [4]
  32  0000              acc equ [5]
  33  0000              bp equ [11]
  34  0000              tblp equ [7]
  35  0000              tbhp equ [9]
  36  0000              status equ [10]
  37  0000              c equ [10].0
  38  0000              ac equ [10].1
  39  0000              z equ [10].2
  40  0000              ov equ [10].3
  41  0000              cz equ [10].6
  42  0000              sc equ [10].7
  43  0000              intc equ [32]
  44  0000              mduwr0 equ [59h]
  45  0000              mduwr1 equ [5ah]
  46  0000              mduwr2 equ [5bh]
  47  0000              mduwr3 equ [5ch]
  48  0000              mduwr4 equ [5dh]
  49  0000              mduwr5 equ [5eh]
  50  0000              mduwrctrl equ [5fh]
  51  0000              
  52  0000              extern ra:byte
  53  0000              extern rb:byte
  54  0000              extern rc:byte
  55  0000              extern rd:byte
  56  0000              extern re:byte
  57  0000              extern rf:byte
  58  0000              extern rg:byte
  59  0000              extern rh:byte
文件：OpMode_T.ASM 编译器版本 HGASM 0202 页次2

  60  0000              extern _Crom2Prom:near
  61  0000              extern _Crom2PromNext:near
  62  0000              
  63  0000              RAMBANK 0 @BITDATASEC, @BITDATASEC1
  64  0000              @HCCINIT	.section 'data'
  65  0000              @HCCINIT0	.section 'data'
  66  0000              @BITDATASEC	 .section 'data'
  67  0000              @BITDATASEC1	 .section 'data'
  68  0000              
  69  0000              #pragma debug scope 1 1
  70  0000              	extern __DELAY3:near
  71  0000              	extern __DELAYX3:near
  72  0000              	extern __DELAYX6:near
  73  0000              	extern __DELAYY5:near
  74  0000              	extern __DELAYY3:near
  75  0000              	extern _builtin_holtek_delay_2:byte
  76  0000              _memkey equ [3712]
  77  0000              ___pa equ [20]
  78  0000              _imp equ [3731]
  79  0000              _setkey equ [3715]
  80  0000              _setkeydown equ [5252]
  81  0000              @crom	.section 'crom'
  82  0000              _LC0:
  83  0000              	db 020h,020h,020h,00h
  84  0002              @crom	.section 'crom'
  85  0002              _LC1:
  86  0002              	db 020h,04fh,04eh,00h
  87  0004              @crom	.section 'crom'
  88  0004              _LC2:
  89  0004              	db 04fh,046h,046h,00h
  90  0006              @crom	.section 'crom'
  91  0006              _LC3:
  92  0006              	db 059h,045h,053h,00h
  93  0008              @crom	.section 'crom'
  94  0008              _LC4:
  95  0008              	db 044h,045h,04ch,00h
  96  000A              @crom	.section 'crom'
  97  000A              _LC5:
  98  000A              	db 02dh,02dh,02dh,00h
  99  000C              _set_temp_25 equ [5257]
 100  000C              public _RTC_Mode_Setting_Process
 101  000C              #pragma debug scope 2 1

   6  000C              #line 6 "c:\users\longshuangmin\desktop\worke_space\g-501\g-501\OpMode_T.C"
   6  0000              _RTC_Mode_Setting_Process .section 'code'
   6  0000              _RTC_Mode_Setting_Process proc
   6  0000  00              local _RTC_Mode_Setting_Process_2 db 1 dup(?)	; 0,1
  10  0001              #line 10 "c:\users\longshuangmin\desktop\worke_space\g-501\g-501\OpMode_T.C"
  10  0000  C700 000E   	lmov a,[3712]
  10  0002  0A02        	sub a,2
  10  0003  390A        	snz z
  10  0004  2800     R  	jmp _L2
  12  0005              #line 12 "c:\users\longshuangmin\desktop\worke_space\g-501\g-501\OpMode_T.C"
  12  0005  DF00 000E   	lclr [3712]
  13  0007              #line 13 "c:\users\longshuangmin\desktop\worke_space\g-501\g-501\OpMode_T.C"
  13  0007  0F0C        	mov a,12
  13  0008  0080     E  	mov _M_TaskBuf0[0],a
  13  0009              _L2:
  17  0009              #line 17 "c:\users\longshuangmin\desktop\worke_space\g-501\g-501\OpMode_T.C"
  17  0009  3E14        	sz [20].4
文件：OpMode_T.C   编译器版本 HGASM 0202 页次3

  17  000A  2800     R  	jmp _L3
  20  000B              #line 20 "c:\users\longshuangmin\desktop\worke_space\g-501\g-501\OpMode_T.C"
  20  000B  0F01        	mov a,1
  20  000C  0080     E  	mov _M_Strip_Type[0],a
  21  000D              #line 21 "c:\users\longshuangmin\desktop\worke_space\g-501\g-501\OpMode_T.C"
  21  000D  0F01        	mov a,1
  21  000E  0080     E  	mov _M_Task[0],a
  22  000F              #line 22 "c:\users\longshuangmin\desktop\worke_space\g-501\g-501\OpMode_T.C"
  22  000F  1F00     E  	clr _M_TaskBuf0[0]
  23  0010              #line 23 "c:\users\longshuangmin\desktop\worke_space\g-501\g-501\OpMode_T.C"
  23  0010  1F00     E  	clr _M_TaskBuf1[0]
  24  0011              #line 24 "c:\users\longshuangmin\desktop\worke_space\g-501\g-501\OpMode_T.C"
  24  0011  1F00     E  	clr _M_RTC_display[0]
  24  0012  1F00     E  	clr _M_RTC_display[1]
  25  0013              #line 25 "c:\users\longshuangmin\desktop\worke_space\g-501\g-501\OpMode_T.C"
  25  0013  1F00     E  	clr _M_No_Active_Cnt[0]
  25  0014  1F00     E  	clr _M_No_Active_Cnt[1]
  28  0015              #line 28 "c:\users\longshuangmin\desktop\worke_space\g-501\g-501\OpMode_T.C"
  28  0015  0F00        	mov a,0
  28  0016              	fcall _LCD_Clear
  29  001D              #line 29 "c:\users\longshuangmin\desktop\worke_space\g-501\g-501\OpMode_T.C"
  29  001D  2800     R  	jmp _L1
  29  001E              _L3:
  33  001E              #line 33 "c:\users\longshuangmin\desktop\worke_space\g-501\g-501\OpMode_T.C"
  33  001E  0700     E  	mov a,_M_TaskBuf0[0]
  33  001F  0A00        	sub a,0
  33  0020  3D0A        	sz z
  33  0021  2800     R  	jmp _L6
  33  0022  0A01        	sub a,(1)-(0)
  33  0023  3D0A        	sz z
  33  0024  2800     R  	jmp _L7
  33  0025  0700     E  	mov a,_M_TaskBuf0[0]
  33  0026  0A02        	sub a,2
  33  0027  3D0A        	sz z
  33  0028  2800     R  	jmp _L8
  33  0029  0A01        	sub a,(3)-(2)
  33  002A  3D0A        	sz z
  33  002B  2800     R  	jmp _L9
  33  002C  0700     E  	mov a,_M_TaskBuf0[0]
  33  002D  0A04        	sub a,4
  33  002E  3D0A        	sz z
  33  002F  2800     R  	jmp _L10
  33  0030  0A01        	sub a,(5)-(4)
  33  0031  3D0A        	sz z
  33  0032  2800     R  	jmp _L11
  33  0033  0700     E  	mov a,_M_TaskBuf0[0]
  33  0034  0A08        	sub a,8
  33  0035  3D0A        	sz z
  33  0036  2800     R  	jmp _L12
  33  0037  0A01        	sub a,(9)-(8)
  33  0038  3D0A        	sz z
  33  0039  2800     R  	jmp _L13
  33  003A  0700     E  	mov a,_M_TaskBuf0[0]
  33  003B  0A0A        	sub a,10
  33  003C  3D0A        	sz z
  33  003D  2800     R  	jmp _L14
  33  003E  0700     E  	mov a,_M_TaskBuf0[0]
  33  003F  0A0B        	sub a,11
  33  0040  390A        	snz z
  33  0041  2800     R  	jmp _L251
文件：OpMode_T.C   编译器版本 HGASM 0202 页次4

  33  0042  2800     R  	jmp _L274
  33  0043              _L6:
  37  0043              #line 37 "c:\users\longshuangmin\desktop\worke_space\g-501\g-501\OpMode_T.C"
  37  0043  DF13 000E   	lclr [3731]
  38  0045              #line 38 "c:\users\longshuangmin\desktop\worke_space\g-501\g-501\OpMode_T.C"
  38  0045  0F01        	mov a,1
  38  0046  0300     E  	add a,_M_RTC_display[0]
  38  0047  0080     E  	mov rb,a
  38  0048  0F00        	mov a,0
  38  0049  1300     E  	adc a,_M_RTC_display[1]
  38  004A  0080     E  	mov rc,a
  38  004B  0700     E  	mov a,rb
  38  004C  0080     E  	mov _M_RTC_display[0],a
  38  004D  0700     E  	mov a,rc
  38  004E  0080     E  	mov _M_RTC_display[1],a
  39  004F              #line 39 "c:\users\longshuangmin\desktop\worke_space\g-501\g-501\OpMode_T.C"
  39  004F  0700     E  	mov a,rb
  39  0050  0C01        	xor a,1
  39  0051  0500     E  	or a,rc
  39  0052  390A        	snz z
  39  0053  2800     R  	jmp _L16
  41  0054              #line 41 "c:\users\longshuangmin\desktop\worke_space\g-501\g-501\OpMode_T.C"
  41  0054  0F01        	mov a,1
  41  0055  2800     R  	jmp _L271
  41  0056              _L16:
  43  0056              #line 43 "c:\users\longshuangmin\desktop\worke_space\g-501\g-501\OpMode_T.C"
  43  0056  0F63        	mov a,99
  43  0057  0200     E  	sub a,rb
  43  0058  0F00        	mov a,0
  43  0059  1200     E  	sbc a,rc
  43  005A  3C0A        	sz c
  43  005B  2800     R  	jmp _L17
  45  005C              #line 45 "c:\users\longshuangmin\desktop\worke_space\g-501\g-501\OpMode_T.C"
  45  005C  3800     E  	snz _Flag1[0].5
  45  005D  2800     R  	jmp _L19
  46  005E              #line 46 "c:\users\longshuangmin\desktop\worke_space\g-501\g-501\OpMode_T.C"
  46  005E  0F06        	mov a,6
  46  005F  0080     E  	mov _M_Error_Task[0],a
  46  0060              _L19:
  48  0060              #line 48 "c:\users\longshuangmin\desktop\worke_space\g-501\g-501\OpMode_T.C"
  48  0060  1080     E  	sz _M_Error_Task[0]
  48  0061  2800     R  	jmp _L20
  51  0062              #line 51 "c:\users\longshuangmin\desktop\worke_space\g-501\g-501\OpMode_T.C"
  51  0062  1F00     E  	clr _M_RTC_display[0]
  51  0063  1F00     E  	clr _M_RTC_display[1]
  52  0064              #line 52 "c:\users\longshuangmin\desktop\worke_space\g-501\g-501\OpMode_T.C"
  52  0064  0F01        	mov a,1
  52  0065  0080     E  	mov _M_TaskBuf0[0],a
  53  0066              #line 53 "c:\users\longshuangmin\desktop\worke_space\g-501\g-501\OpMode_T.C"
  53  0066  1F00     E  	clr _M_TaskBuf1[0]
  54  0067              #line 54 "c:\users\longshuangmin\desktop\worke_space\g-501\g-501\OpMode_T.C"
  54  0067  1F00     E  	clr _M_No_Active_Cnt[0]
  54  0068  1F00     E  	clr _M_No_Active_Cnt[1]
  57  0069              #line 57 "c:\users\longshuangmin\desktop\worke_space\g-501\g-501\OpMode_T.C"
  57  0069  0700     E  	mov a,_M_Year[0]
  57  006A  0080     E  	mov _M_Cbuf0[0],a
  60  006B              #line 60 "c:\users\longshuangmin\desktop\worke_space\g-501\g-501\OpMode_T.C"
  60  006B  0F00        	mov a,0
  60  006C              	fcall _LCD_Clear
  63  0073              #line 63 "c:\users\longshuangmin\desktop\worke_space\g-501\g-501\OpMode_T.C"
文件：OpMode_T.C   编译器版本 HGASM 0202 页次5

  63  0073  3400     E  	clr _Flag2[0].6
  64  0074              #line 64 "c:\users\longshuangmin\desktop\worke_space\g-501\g-501\OpMode_T.C"
  64  0074  3400     E  	clr _Flag2[0].1
  64  0075  2800     R  	jmp _L270
  64  0076              _L20:
  71  0076              #line 71 "c:\users\longshuangmin\desktop\worke_space\g-501\g-501\OpMode_T.C"
  71  0076  1F00     E  	clr _M_RTC_display[0]
  71  0077  1F00     E  	clr _M_RTC_display[1]
  72  0078              #line 72 "c:\users\longshuangmin\desktop\worke_space\g-501\g-501\OpMode_T.C"
  72  0078  0F0B        	mov a,11
  72  0079  0080     E  	mov _M_TaskBuf0[0],a
  73  007A              #line 73 "c:\users\longshuangmin\desktop\worke_space\g-501\g-501\OpMode_T.C"
  73  007A  1F00     E  	clr _M_TaskBuf1[0]
  75  007B              #line 75 "c:\users\longshuangmin\desktop\worke_space\g-501\g-501\OpMode_T.C"
  75  007B  1F00     E  	clr _M_No_Active_Cnt[0]
  75  007C  1F00     E  	clr _M_No_Active_Cnt[1]
  77  007D              #line 77 "c:\users\longshuangmin\desktop\worke_space\g-501\g-501\OpMode_T.C"
  77  007D  0F00        	mov a,0
  77  007E              	fcall _LCD_Clear
  80  0085              #line 80 "c:\users\longshuangmin\desktop\worke_space\g-501\g-501\OpMode_T.C"
  80  0085  3400     E  	clr _Flag2[0].6
  81  0086              #line 81 "c:\users\longshuangmin\desktop\worke_space\g-501\g-501\OpMode_T.C"
  81  0086  3400     E  	clr _Flag2[0].1
  81  0087  2800     R  	jmp _L17
  81  0088              _L7:
  94  0088              #line 94 "c:\users\longshuangmin\desktop\worke_space\g-501\g-501\OpMode_T.C"
  94  0088  0F01        	mov a,1
  94  0089  0300     E  	add a,_M_RTC_display[0]
  94  008A  0080     E  	mov rb,a
  94  008B  0F00        	mov a,0
  94  008C  1300     E  	adc a,_M_RTC_display[1]
  94  008D  0080     E  	mov rc,a
  94  008E  0700     E  	mov a,rb
  94  008F  0080     E  	mov _M_RTC_display[0],a
  94  0090  0700     E  	mov a,rc
  94  0091  0080     E  	mov _M_RTC_display[1],a
  96  0092              #line 96 "c:\users\longshuangmin\desktop\worke_space\g-501\g-501\OpMode_T.C"
  96  0092  0700     E  	mov a,rb
  96  0093  0C01        	xor a,1
  96  0094  0500     E  	or a,rc
  96  0095  390A        	snz z
  96  0096  2800     R  	jmp _L21
 100  0097              #line 100 "c:\users\longshuangmin\desktop\worke_space\g-501\g-501\OpMode_T.C"
 100  0097  0700     E  	mov a,_M_Cbuf0[0]
 100  0098  0080     E  	mov _ShowDec_BigNum_2[0],a
 100  0099  1F00     E  	clr _ShowDec_BigNum_2[1]
 100  009A              	fcall _ShowDec_BigNum
 103  00A1              #line 103 "c:\users\longshuangmin\desktop\worke_space\g-501\g-501\OpMode_T.C"
 103  00A1  0700     E  	mov a,_M_Month[0]
 103  00A2  0080     E  	mov ra,a
 103  00A3  0700     E  	mov a,_M_Days[0]
 103  00A4  0080     E  	mov _Lcd_Month_Day_Process_2[0],a
 103  00A5  0700     E  	mov a,ra
 103  00A6              	fcall _Lcd_Month_Day_Process
 103  00AD  2800     R  	jmp _L253
 103  00AE              _L21:
 111  00AE              #line 111 "c:\users\longshuangmin\desktop\worke_space\g-501\g-501\OpMode_T.C"
 111  00AE  0700     E  	mov a,rb
 111  00AF  0C32        	xor a,50
 111  00B0  0500     E  	or a,rc
文件：OpMode_T.C   编译器版本 HGASM 0202 页次6

 111  00B1  390A        	snz z
 111  00B2  2800     R  	jmp _L23
 114  00B3              #line 114 "c:\users\longshuangmin\desktop\worke_space\g-501\g-501\OpMode_T.C"
 114  00B3              	fcall _Clr_BigString
 114  00BA              _L253:
 116  00BA              #line 116 "c:\users\longshuangmin\desktop\worke_space\g-501\g-501\OpMode_T.C"
 116  00BA  3000     E  	set _Flag2[0].1
 116  00BB  2800     R  	jmp _L22
 116  00BC              _L23:
 118  00BC              #line 118 "c:\users\longshuangmin\desktop\worke_space\g-501\g-501\OpMode_T.C"
 118  00BC  0F63        	mov a,99
 118  00BD  0200     E  	sub a,rb
 118  00BE  0F00        	mov a,0
 118  00BF  1200     E  	sbc a,rc
 118  00C0  3C0A        	sz c
 118  00C1  2800     R  	jmp _L22
 119  00C2              #line 119 "c:\users\longshuangmin\desktop\worke_space\g-501\g-501\OpMode_T.C"
 119  00C2  1F00     E  	clr _M_RTC_display[0]
 119  00C3  1F00     E  	clr _M_RTC_display[1]
 119  00C4              _L22:
 121  00C4              #line 121 "c:\users\longshuangmin\desktop\worke_space\g-501\g-501\OpMode_T.C"
 121  00C4  DE03 000E   	lsnz [3715]
 121  00C6  2800     R  	jmp _L24
 123  00C7              #line 123 "c:\users\longshuangmin\desktop\worke_space\g-501\g-501\OpMode_T.C"
 123  00C7  DF03 000E   	lclr [3715]
 124  00C9              #line 124 "c:\users\longshuangmin\desktop\worke_space\g-501\g-501\OpMode_T.C"
 124  00C9  1F00     E  	clr _M_RTC_display[0]
 124  00CA  1F00     E  	clr _M_RTC_display[1]
 125  00CB              #line 125 "c:\users\longshuangmin\desktop\worke_space\g-501\g-501\OpMode_T.C"
 125  00CB  1F00     E  	clr _M_No_Active_Cnt[0]
 125  00CC  1F00     E  	clr _M_No_Active_Cnt[1]
 127  00CD              #line 127 "c:\users\longshuangmin\desktop\worke_space\g-501\g-501\OpMode_T.C"
 127  00CD  1400     E  	inca _M_Cbuf0[0]
 127  00CE  0080     E  	mov ra,a
 128  00CF              #line 128 "c:\users\longshuangmin\desktop\worke_space\g-501\g-501\OpMode_T.C"
 128  00CF  0F32        	mov a,50
 128  00D0  0200     E  	sub a,ra
 128  00D1  380A        	snz c
 128  00D2  2800     R  	jmp _L25
 127  00D3              #line 127 "c:\users\longshuangmin\desktop\worke_space\g-501\g-501\OpMode_T.C"
 127  00D3  0700     E  	mov a,ra
 127  00D4  0080     E  	mov _M_Cbuf0[0],a
 127  00D5  2800     R  	jmp _L29
 127  00D6              _L25:
 129  00D6              #line 129 "c:\users\longshuangmin\desktop\worke_space\g-501\g-501\OpMode_T.C"
 129  00D6  0F17        	mov a,23
 129  00D7  0080     E  	mov _M_Cbuf0[0],a
 129  00D8  2800     R  	jmp _L29
 129  00D9              _L24:
 132  00D9              #line 132 "c:\users\longshuangmin\desktop\worke_space\g-501\g-501\OpMode_T.C"
 132  00D9  DE04 0014   	lsnz [5252]
 132  00DB  2800     R  	jmp _L27
 134  00DC              #line 134 "c:\users\longshuangmin\desktop\worke_space\g-501\g-501\OpMode_T.C"
 134  00DC  DF04 0014   	lclr [5252]
 135  00DE              #line 135 "c:\users\longshuangmin\desktop\worke_space\g-501\g-501\OpMode_T.C"
 135  00DE  1F00     E  	clr _M_RTC_display[0]
 135  00DF  1F00     E  	clr _M_RTC_display[1]
 136  00E0              #line 136 "c:\users\longshuangmin\desktop\worke_space\g-501\g-501\OpMode_T.C"
 136  00E0  1F00     E  	clr _M_No_Active_Cnt[0]
 136  00E1  1F00     E  	clr _M_No_Active_Cnt[1]
文件：OpMode_T.C   编译器版本 HGASM 0202 页次7

 138  00E2              #line 138 "c:\users\longshuangmin\desktop\worke_space\g-501\g-501\OpMode_T.C"
 138  00E2  0700     E  	mov a,_M_Cbuf0[0]
 138  00E3  0080     E  	mov ra,a
 138  00E4  0F17        	mov a,23
 138  00E5  0200     E  	sub a,ra
 138  00E6  3C0A        	sz c
 138  00E7  2800     R  	jmp _L28
 139  00E8              #line 139 "c:\users\longshuangmin\desktop\worke_space\g-501\g-501\OpMode_T.C"
 139  00E8  1500     E  	deca ra
 139  00E9  0080     E  	mov _M_Cbuf0[0],a
 139  00EA  2800     R  	jmp _L29
 139  00EB              _L28:
 141  00EB              #line 141 "c:\users\longshuangmin\desktop\worke_space\g-501\g-501\OpMode_T.C"
 141  00EB  0F32        	mov a,50
 141  00EC  0080     E  	mov _M_Cbuf0[0],a
 141  00ED              _L29:
 142  00ED              #line 142 "c:\users\longshuangmin\desktop\worke_space\g-501\g-501\OpMode_T.C"
 142  00ED  3000     E  	set _Flag4[0].1
 142  00EE              _L27:
 150  00EE              #line 150 "c:\users\longshuangmin\desktop\worke_space\g-501\g-501\OpMode_T.C"
 150  00EE  D700 000E   	lsdza [3712]
 150  00F0  2800     R  	jmp _L30
 152  00F1              #line 152 "c:\users\longshuangmin\desktop\worke_space\g-501\g-501\OpMode_T.C"
 152  00F1  DF00 000E   	lclr [3712]
 153  00F3              #line 153 "c:\users\longshuangmin\desktop\worke_space\g-501\g-501\OpMode_T.C"
 153  00F3  1F00     E  	clr _M_RTC_display[0]
 153  00F4  1F00     E  	clr _M_RTC_display[1]
 154  00F5              #line 154 "c:\users\longshuangmin\desktop\worke_space\g-501\g-501\OpMode_T.C"
 154  00F5  1F00     E  	clr _M_No_Active_Cnt[0]
 154  00F6  1F00     E  	clr _M_No_Active_Cnt[1]
 156  00F7              #line 156 "c:\users\longshuangmin\desktop\worke_space\g-501\g-501\OpMode_T.C"
 156  00F7  0F02        	mov a,2
 156  00F8  0080     E  	mov _M_TaskBuf0[0],a
 157  00F9              #line 157 "c:\users\longshuangmin\desktop\worke_space\g-501\g-501\OpMode_T.C"
 157  00F9  1F00     E  	clr _M_TaskBuf1[0]
 159  00FA              #line 159 "c:\users\longshuangmin\desktop\worke_space\g-501\g-501\OpMode_T.C"
 159  00FA  0700     E  	mov a,_M_Cbuf0[0]
 159  00FB  0080     E  	mov _M_Year[0],a
 160  00FC              #line 160 "c:\users\longshuangmin\desktop\worke_space\g-501\g-501\OpMode_T.C"
 160  00FC  0700     E  	mov a,_M_Month[0]
 160  00FD  0080     E  	mov _M_Cbuf0[0],a
 161  00FE              #line 161 "c:\users\longshuangmin\desktop\worke_space\g-501\g-501\OpMode_T.C"
 161  00FE  1F00     E  	clr _M_Error_Task[0]
 162  00FF              #line 162 "c:\users\longshuangmin\desktop\worke_space\g-501\g-501\OpMode_T.C"
 162  00FF  3000     E  	set _Flag4[0].1
 162  0100              _L30:
 166  0100              #line 166 "c:\users\longshuangmin\desktop\worke_space\g-501\g-501\OpMode_T.C"
 166  0100  0F00     E  	mov a,low (offset _Month_TABLE1-1)
 166  0101  0300     E  	add a,_M_Month[0]
 166  0102  0083        	mov mp,a
 166  0103  0F00     E  	mov a,high (offset _Month_TABLE1-1)
 166  0104  1F04        	clr sbp
 166  0105  1384        	adcm a,sbp
 166  0106              	fcall _Crom2Prom
 166  010D  0080     E  	mov ra,a
 170  010E              #line 170 "c:\users\longshuangmin\desktop\worke_space\g-501\g-501\OpMode_T.C"
 170  010E  0700     E  	mov a,_M_Month[0]
 170  010F  0A02        	sub a,2
 170  0110  390A        	snz z
 170  0111  2800     R  	jmp _L31
文件：OpMode_T.C   编译器版本 HGASM 0202 页次8

 176  0112              #line 176 "c:\users\longshuangmin\desktop\worke_space\g-501\g-501\OpMode_T.C"
 176  0112  0700     E  	mov a,_M_Cbuf0[0]
 176  0113  0080     E  	mov rc,a
 176  0114  1F00     E  	clr rb
 176  0115              _L36:
 175  0115              #line 175 "c:\users\longshuangmin\desktop\worke_space\g-501\g-501\OpMode_T.C"
 175  0115  0F00     E  	mov a,low offset _LeapYear_TABLE
 175  0116  0300     E  	add a,rb
 175  0117  0083        	mov mp,a
 175  0118  0F00     E  	mov a,high offset _LeapYear_TABLE
 175  0119  1F04        	clr sbp
 175  011A  1384        	adcm a,sbp
 175  011B              	fcall _Crom2Prom
 175  0122  0080     R  	mov _RTC_Mode_Setting_Process_2[0],a
 176  0123              #line 176 "c:\users\longshuangmin\desktop\worke_space\g-501\g-501\OpMode_T.C"
 176  0123  0700     R  	mov a,_RTC_Mode_Setting_Process_2[0]
 176  0124  0200     E  	sub a,rc
 176  0125  390A        	snz z
 176  0126  2800     R  	jmp _L32
 178  0127              #line 178 "c:\users\longshuangmin\desktop\worke_space\g-501\g-501\OpMode_T.C"
 178  0127  1480     E  	inc ra
 179  0128              #line 179 "c:\users\longshuangmin\desktop\worke_space\g-501\g-501\OpMode_T.C"
 179  0128  0700     E  	mov a,ra
 179  0129  0200     E  	sub a,_M_Days[0]
 179  012A  3C0A        	sz c
 179  012B  2800     R  	jmp _L34
 180  012C              #line 180 "c:\users\longshuangmin\desktop\worke_space\g-501\g-501\OpMode_T.C"
 180  012C  0700     E  	mov a,ra
 180  012D  0080     E  	mov _M_Days[0],a
 180  012E  2800     R  	jmp _L34
 180  012F              _L32:
 182  012F              #line 182 "c:\users\longshuangmin\desktop\worke_space\g-501\g-501\OpMode_T.C"
 182  012F  0700     E  	mov a,rc
 182  0130  0200     R  	sub a,_RTC_Mode_Setting_Process_2[0]
 182  0131  3C0A        	sz c
 182  0132  2800     R  	jmp _L34
 185  0133              #line 185 "c:\users\longshuangmin\desktop\worke_space\g-501\g-501\OpMode_T.C"
 185  0133  0700     E  	mov a,ra
 185  0134  0200     E  	sub a,_M_Days[0]
 185  0135  3C0A        	sz c
 185  0136  2800     R  	jmp _L168
 186  0137              #line 186 "c:\users\longshuangmin\desktop\worke_space\g-501\g-501\OpMode_T.C"
 186  0137  0700     E  	mov a,ra
 186  0138  0080     E  	mov _M_Days[0],a
 186  0139              _L168:
 184  0139              #line 184 "c:\users\longshuangmin\desktop\worke_space\g-501\g-501\OpMode_T.C"
 184  0139  0F64        	mov a,100
 184  013A  0080     E  	mov rb,a
 184  013B              _L34:
 173  013B              #line 173 "c:\users\longshuangmin\desktop\worke_space\g-501\g-501\OpMode_T.C"
 173  013B  1480     E  	inc rb
 173  013C  0F16        	mov a,22
 173  013D  0200     E  	sub a,rb
 173  013E  3C0A        	sz c
 173  013F  2800     R  	jmp _L36
 173  0140  2800     R  	jmp _L17
 173  0141              _L31:
 192  0141              #line 192 "c:\users\longshuangmin\desktop\worke_space\g-501\g-501\OpMode_T.C"
 192  0141  0700     E  	mov a,ra
 192  0142  0200     E  	sub a,_M_Days[0]
文件：OpMode_T.C   编译器版本 HGASM 0202 页次9

 192  0143  3C0A        	sz c
 192  0144  2800     R  	jmp _L17
 193  0145              #line 193 "c:\users\longshuangmin\desktop\worke_space\g-501\g-501\OpMode_T.C"
 193  0145  0700     E  	mov a,ra
 193  0146  0080     E  	mov _M_Days[0],a
 193  0147  2800     R  	jmp _L17
 193  0148              _L8:
 204  0148              #line 204 "c:\users\longshuangmin\desktop\worke_space\g-501\g-501\OpMode_T.C"
 204  0148  0F01        	mov a,1
 204  0149  0300     E  	add a,_M_RTC_display[0]
 204  014A  0080     E  	mov rb,a
 204  014B  0F00        	mov a,0
 204  014C  1300     E  	adc a,_M_RTC_display[1]
 204  014D  0080     E  	mov rc,a
 204  014E  0700     E  	mov a,rb
 204  014F  0080     E  	mov _M_RTC_display[0],a
 204  0150  0700     E  	mov a,rc
 204  0151  0080     E  	mov _M_RTC_display[1],a
 206  0152              #line 206 "c:\users\longshuangmin\desktop\worke_space\g-501\g-501\OpMode_T.C"
 206  0152  0700     E  	mov a,rb
 206  0153  0C01        	xor a,1
 206  0154  0500     E  	or a,rc
 206  0155  390A        	snz z
 206  0156  2800     R  	jmp _L37
 210  0157              #line 210 "c:\users\longshuangmin\desktop\worke_space\g-501\g-501\OpMode_T.C"
 210  0157  0700     E  	mov a,_M_Year[0]
 210  0158  0080     E  	mov _ShowDec_BigNum_2[0],a
 210  0159  1F00     E  	clr _ShowDec_BigNum_2[1]
 210  015A              	fcall _ShowDec_BigNum
 212  0161              #line 212 "c:\users\longshuangmin\desktop\worke_space\g-501\g-501\OpMode_T.C"
 212  0161  0700     E  	mov a,_M_Days[0]
 212  0162  0080     E  	mov _Lcd_Month_Day_Process_2[0],a
 212  0163  0700     E  	mov a,_M_Cbuf0[0]
 212  0164              	fcall _Lcd_Month_Day_Process
 212  016B  2800     R  	jmp _L254
 212  016C              _L37:
 220  016C              #line 220 "c:\users\longshuangmin\desktop\worke_space\g-501\g-501\OpMode_T.C"
 220  016C  0700     E  	mov a,rb
 220  016D  0C32        	xor a,50
 220  016E  0500     E  	or a,rc
 220  016F  390A        	snz z
 220  0170  2800     R  	jmp _L39
 222  0171              #line 222 "c:\users\longshuangmin\desktop\worke_space\g-501\g-501\OpMode_T.C"
 222  0171              	fcall _Clr_MonthString
 222  0178              _L254:
 224  0178              #line 224 "c:\users\longshuangmin\desktop\worke_space\g-501\g-501\OpMode_T.C"
 224  0178  3000     E  	set _Flag2[0].1
 224  0179  2800     R  	jmp _L38
 224  017A              _L39:
 226  017A              #line 226 "c:\users\longshuangmin\desktop\worke_space\g-501\g-501\OpMode_T.C"
 226  017A  0F63        	mov a,99
 226  017B  0200     E  	sub a,rb
 226  017C  0F00        	mov a,0
 226  017D  1200     E  	sbc a,rc
 226  017E  3C0A        	sz c
 226  017F  2800     R  	jmp _L38
 227  0180              #line 227 "c:\users\longshuangmin\desktop\worke_space\g-501\g-501\OpMode_T.C"
 227  0180  1F00     E  	clr _M_RTC_display[0]
 227  0181  1F00     E  	clr _M_RTC_display[1]
 227  0182              _L38:
文件：OpMode_T.C   编译器版本 HGASM 0202 页次10

 235  0182              #line 235 "c:\users\longshuangmin\desktop\worke_space\g-501\g-501\OpMode_T.C"
 235  0182  DE03 000E   	lsnz [3715]
 235  0184  2800     R  	jmp _L40
 237  0185              #line 237 "c:\users\longshuangmin\desktop\worke_space\g-501\g-501\OpMode_T.C"
 237  0185  DF03 000E   	lclr [3715]
 238  0187              #line 238 "c:\users\longshuangmin\desktop\worke_space\g-501\g-501\OpMode_T.C"
 238  0187  1F00     E  	clr _M_RTC_display[0]
 238  0188  1F00     E  	clr _M_RTC_display[1]
 239  0189              #line 239 "c:\users\longshuangmin\desktop\worke_space\g-501\g-501\OpMode_T.C"
 239  0189  1F00     E  	clr _M_No_Active_Cnt[0]
 239  018A  1F00     E  	clr _M_No_Active_Cnt[1]
 241  018B              #line 241 "c:\users\longshuangmin\desktop\worke_space\g-501\g-501\OpMode_T.C"
 241  018B  1400     E  	inca _M_Cbuf0[0]
 241  018C  0080     E  	mov ra,a
 242  018D              #line 242 "c:\users\longshuangmin\desktop\worke_space\g-501\g-501\OpMode_T.C"
 242  018D  0F0C        	mov a,12
 242  018E  0200     E  	sub a,ra
 242  018F  380A        	snz c
 242  0190  2800     R  	jmp _L41
 241  0191              #line 241 "c:\users\longshuangmin\desktop\worke_space\g-501\g-501\OpMode_T.C"
 241  0191  0700     E  	mov a,ra
 241  0192  0080     E  	mov _M_Cbuf0[0],a
 241  0193  2800     R  	jmp _L45
 241  0194              _L41:
 243  0194              #line 243 "c:\users\longshuangmin\desktop\worke_space\g-501\g-501\OpMode_T.C"
 243  0194  0F01        	mov a,1
 243  0195  0080     E  	mov _M_Cbuf0[0],a
 243  0196  2800     R  	jmp _L45
 243  0197              _L40:
 246  0197              #line 246 "c:\users\longshuangmin\desktop\worke_space\g-501\g-501\OpMode_T.C"
 246  0197  DE04 0014   	lsnz [5252]
 246  0199  2800     R  	jmp _L43
 248  019A              #line 248 "c:\users\longshuangmin\desktop\worke_space\g-501\g-501\OpMode_T.C"
 248  019A  DF04 0014   	lclr [5252]
 249  019C              #line 249 "c:\users\longshuangmin\desktop\worke_space\g-501\g-501\OpMode_T.C"
 249  019C  1F00     E  	clr _M_RTC_display[0]
 249  019D  1F00     E  	clr _M_RTC_display[1]
 250  019E              #line 250 "c:\users\longshuangmin\desktop\worke_space\g-501\g-501\OpMode_T.C"
 250  019E  1F00     E  	clr _M_No_Active_Cnt[0]
 250  019F  1F00     E  	clr _M_No_Active_Cnt[1]
 252  01A0              #line 252 "c:\users\longshuangmin\desktop\worke_space\g-501\g-501\OpMode_T.C"
 252  01A0  0700     E  	mov a,_M_Cbuf0[0]
 252  01A1  0080     E  	mov ra,a
 252  01A2  0F01        	mov a,1
 252  01A3  0200     E  	sub a,ra
 252  01A4  3C0A        	sz c
 252  01A5  2800     R  	jmp _L44
 253  01A6              #line 253 "c:\users\longshuangmin\desktop\worke_space\g-501\g-501\OpMode_T.C"
 253  01A6  1500     E  	deca ra
 253  01A7  0080     E  	mov _M_Cbuf0[0],a
 253  01A8  2800     R  	jmp _L45
 253  01A9              _L44:
 255  01A9              #line 255 "c:\users\longshuangmin\desktop\worke_space\g-501\g-501\OpMode_T.C"
 255  01A9  0F0C        	mov a,12
 255  01AA  0080     E  	mov _M_Cbuf0[0],a
 255  01AB              _L45:
 256  01AB              #line 256 "c:\users\longshuangmin\desktop\worke_space\g-501\g-501\OpMode_T.C"
 256  01AB  3000     E  	set _Flag4[0].1
 256  01AC              _L43:
 261  01AC              #line 261 "c:\users\longshuangmin\desktop\worke_space\g-501\g-501\OpMode_T.C"
文件：OpMode_T.C   编译器版本 HGASM 0202 页次11

 261  01AC  0700     E  	mov a,_M_Cbuf0[0]
 261  01AD  0080     E  	mov rc,a
 261  01AE  0F00     E  	mov a,low (offset _Month_TABLE1-1)
 261  01AF  0300     E  	add a,rc
 261  01B0  0083        	mov mp,a
 261  01B1  0F00     E  	mov a,high (offset _Month_TABLE1-1)
 261  01B2  1F04        	clr sbp
 261  01B3  1384        	adcm a,sbp
 261  01B4              	fcall _Crom2Prom
 261  01BB  0080     E  	mov ra,a
 265  01BC              #line 265 "c:\users\longshuangmin\desktop\worke_space\g-501\g-501\OpMode_T.C"
 265  01BC  0700     E  	mov a,rc
 265  01BD  0A02        	sub a,2
 265  01BE  390A        	snz z
 265  01BF  2800     R  	jmp _L46
 265  01C0  1F00     E  	clr rb
 265  01C1              _L51:
 270  01C1              #line 270 "c:\users\longshuangmin\desktop\worke_space\g-501\g-501\OpMode_T.C"
 270  01C1  0F00     E  	mov a,low offset _LeapYear_TABLE
 270  01C2  0300     E  	add a,rb
 270  01C3  0083        	mov mp,a
 270  01C4  0F00     E  	mov a,high offset _LeapYear_TABLE
 270  01C5  1F04        	clr sbp
 270  01C6  1384        	adcm a,sbp
 270  01C7              	fcall _Crom2Prom
 270  01CE  0080     R  	mov _RTC_Mode_Setting_Process_2[0],a
 271  01CF              #line 271 "c:\users\longshuangmin\desktop\worke_space\g-501\g-501\OpMode_T.C"
 271  01CF  0700     R  	mov a,_RTC_Mode_Setting_Process_2[0]
 271  01D0  0200     E  	sub a,_M_Year[0]
 271  01D1  390A        	snz z
 271  01D2  2800     R  	jmp _L47
 273  01D3              #line 273 "c:\users\longshuangmin\desktop\worke_space\g-501\g-501\OpMode_T.C"
 273  01D3  1480     E  	inc ra
 274  01D4              #line 274 "c:\users\longshuangmin\desktop\worke_space\g-501\g-501\OpMode_T.C"
 274  01D4  0700     E  	mov a,ra
 274  01D5  0200     E  	sub a,_M_Days[0]
 274  01D6  3C0A        	sz c
 274  01D7  2800     R  	jmp _L47
 275  01D8              #line 275 "c:\users\longshuangmin\desktop\worke_space\g-501\g-501\OpMode_T.C"
 275  01D8  0700     E  	mov a,ra
 275  01D9  0080     E  	mov _M_Days[0],a
 275  01DA              _L47:
 277  01DA              #line 277 "c:\users\longshuangmin\desktop\worke_space\g-501\g-501\OpMode_T.C"
 277  01DA  0700     E  	mov a,_M_Year[0]
 277  01DB  0200     R  	sub a,_RTC_Mode_Setting_Process_2[0]
 277  01DC  3C0A        	sz c
 277  01DD  2800     R  	jmp _L48
 280  01DE              #line 280 "c:\users\longshuangmin\desktop\worke_space\g-501\g-501\OpMode_T.C"
 280  01DE  0700     E  	mov a,ra
 280  01DF  0200     E  	sub a,_M_Days[0]
 280  01E0  3C0A        	sz c
 280  01E1  2800     R  	jmp _L169
 281  01E2              #line 281 "c:\users\longshuangmin\desktop\worke_space\g-501\g-501\OpMode_T.C"
 281  01E2  0700     E  	mov a,ra
 281  01E3  0080     E  	mov _M_Days[0],a
 281  01E4              _L169:
 279  01E4              #line 279 "c:\users\longshuangmin\desktop\worke_space\g-501\g-501\OpMode_T.C"
 279  01E4  0F64        	mov a,100
 279  01E5  0080     E  	mov rb,a
 279  01E6              _L48:
文件：OpMode_T.C   编译器版本 HGASM 0202 页次12

 268  01E6              #line 268 "c:\users\longshuangmin\desktop\worke_space\g-501\g-501\OpMode_T.C"
 268  01E6  1480     E  	inc rb
 268  01E7  0F16        	mov a,22
 268  01E8  0200     E  	sub a,rb
 268  01E9  3C0A        	sz c
 268  01EA  2800     R  	jmp _L51
 268  01EB  2800     R  	jmp _L50
 268  01EC              _L46:
 287  01EC              #line 287 "c:\users\longshuangmin\desktop\worke_space\g-501\g-501\OpMode_T.C"
 287  01EC  0700     E  	mov a,ra
 287  01ED  0200     E  	sub a,_M_Days[0]
 287  01EE  3C0A        	sz c
 287  01EF  2800     R  	jmp _L50
 288  01F0              #line 288 "c:\users\longshuangmin\desktop\worke_space\g-501\g-501\OpMode_T.C"
 288  01F0  0700     E  	mov a,ra
 288  01F1  0080     E  	mov _M_Days[0],a
 288  01F2              _L50:
 293  01F2              #line 293 "c:\users\longshuangmin\desktop\worke_space\g-501\g-501\OpMode_T.C"
 293  01F2  D700 000E   	lsdza [3712]
 293  01F4  2800     R  	jmp _L17
 295  01F5              #line 295 "c:\users\longshuangmin\desktop\worke_space\g-501\g-501\OpMode_T.C"
 295  01F5  DF00 000E   	lclr [3712]
 296  01F7              #line 296 "c:\users\longshuangmin\desktop\worke_space\g-501\g-501\OpMode_T.C"
 296  01F7  1F00     E  	clr _M_RTC_display[0]
 296  01F8  1F00     E  	clr _M_RTC_display[1]
 297  01F9              #line 297 "c:\users\longshuangmin\desktop\worke_space\g-501\g-501\OpMode_T.C"
 297  01F9  1F00     E  	clr _M_No_Active_Cnt[0]
 297  01FA  1F00     E  	clr _M_No_Active_Cnt[1]
 299  01FB              #line 299 "c:\users\longshuangmin\desktop\worke_space\g-501\g-501\OpMode_T.C"
 299  01FB  0F03        	mov a,3
 299  01FC  0080     E  	mov _M_TaskBuf0[0],a
 300  01FD              #line 300 "c:\users\longshuangmin\desktop\worke_space\g-501\g-501\OpMode_T.C"
 300  01FD  1F00     E  	clr _M_TaskBuf1[0]
 301  01FE              #line 301 "c:\users\longshuangmin\desktop\worke_space\g-501\g-501\OpMode_T.C"
 301  01FE  1F00     E  	clr _M_Error_Task[0]
 304  01FF              #line 304 "c:\users\longshuangmin\desktop\worke_space\g-501\g-501\OpMode_T.C"
 304  01FF  0700     E  	mov a,rc
 304  0200  0080     E  	mov _M_Month[0],a
 305  0201              #line 305 "c:\users\longshuangmin\desktop\worke_space\g-501\g-501\OpMode_T.C"
 305  0201  0700     E  	mov a,_M_Days[0]
 305  0202  0080     E  	mov _M_Cbuf0[0],a
 309  0203              #line 309 "c:\users\longshuangmin\desktop\worke_space\g-501\g-501\OpMode_T.C"
 309  0203  0F00     E  	mov a,low (offset _Month_TABLE1-1)
 309  0204  0300     E  	add a,_M_Month[0]
 309  0205  0083        	mov mp,a
 309  0206  0F00     E  	mov a,high (offset _Month_TABLE1-1)
 309  0207  1F04        	clr sbp
 309  0208  1384        	adcm a,sbp
 309  0209              	fcall _Crom2Prom
 309  0210  0080     E  	mov ra,a
 309  0211  0700     E  	mov a,ra
 309  0212  0080     E  	mov _M_Cbuf1[0],a
 312  0213              #line 312 "c:\users\longshuangmin\desktop\worke_space\g-501\g-501\OpMode_T.C"
 312  0213  0700     E  	mov a,_M_Month[0]
 312  0214  0A02        	sub a,2
 312  0215  390A        	snz z
 312  0216  2800     R  	jmp _L270
 312  0217  1F00     E  	clr rb
 312  0218              _L54:
 317  0218              #line 317 "c:\users\longshuangmin\desktop\worke_space\g-501\g-501\OpMode_T.C"
文件：OpMode_T.C   编译器版本 HGASM 0202 页次13

 317  0218  0F00     E  	mov a,low offset _LeapYear_TABLE
 317  0219  0300     E  	add a,rb
 317  021A  0083        	mov mp,a
 317  021B  0F00     E  	mov a,high offset _LeapYear_TABLE
 317  021C  1F04        	clr sbp
 317  021D  1384        	adcm a,sbp
 317  021E              	fcall _Crom2Prom
 317  0225  0080     R  	mov _RTC_Mode_Setting_Process_2[0],a
 318  0226              #line 318 "c:\users\longshuangmin\desktop\worke_space\g-501\g-501\OpMode_T.C"
 318  0226  0700     R  	mov a,_RTC_Mode_Setting_Process_2[0]
 318  0227  0200     E  	sub a,_M_Year[0]
 318  0228  390A        	snz z
 318  0229  2800     R  	jmp _L252
 319  022A              #line 319 "c:\users\longshuangmin\desktop\worke_space\g-501\g-501\OpMode_T.C"
 319  022A  1480     E  	inc ra
 319  022B  2800     R  	jmp _L55
 319  022C              _L252:
 320  022C              #line 320 "c:\users\longshuangmin\desktop\worke_space\g-501\g-501\OpMode_T.C"
 320  022C  0700     E  	mov a,_M_Year[0]
 320  022D  0200     R  	sub a,_RTC_Mode_Setting_Process_2[0]
 320  022E  380A        	snz c
 320  022F  2800     R  	jmp _L56
 320  0230              _L55:
 315  0230              #line 315 "c:\users\longshuangmin\desktop\worke_space\g-501\g-501\OpMode_T.C"
 315  0230  1480     E  	inc rb
 315  0231  2800     R  	jmp _L54
 315  0232              _L56:
 315  0232  0700     E  	mov a,ra
 315  0233  0080     E  	mov _M_Cbuf1[0],a
 315  0234  2800     R  	jmp _L270
 315  0235              _L9:
 338  0235              #line 338 "c:\users\longshuangmin\desktop\worke_space\g-501\g-501\OpMode_T.C"
 338  0235  0F01        	mov a,1
 338  0236  0300     E  	add a,_M_RTC_display[0]
 338  0237  0080     E  	mov rb,a
 338  0238  0F00        	mov a,0
 338  0239  1300     E  	adc a,_M_RTC_display[1]
 338  023A  0080     E  	mov rc,a
 338  023B  0700     E  	mov a,rb
 338  023C  0080     E  	mov _M_RTC_display[0],a
 338  023D  0700     E  	mov a,rc
 338  023E  0080     E  	mov _M_RTC_display[1],a
 340  023F              #line 340 "c:\users\longshuangmin\desktop\worke_space\g-501\g-501\OpMode_T.C"
 340  023F  0700     E  	mov a,rb
 340  0240  0C01        	xor a,1
 340  0241  0500     E  	or a,rc
 340  0242  390A        	snz z
 340  0243  2800     R  	jmp _L59
 345  0244              #line 345 "c:\users\longshuangmin\desktop\worke_space\g-501\g-501\OpMode_T.C"
 345  0244  0700     E  	mov a,_M_Month[0]
 345  0245  0080     E  	mov ra,a
 345  0246  0700     E  	mov a,_M_Cbuf0[0]
 345  0247  0080     E  	mov _Lcd_Month_Day_Process_2[0],a
 345  0248  0700     E  	mov a,ra
 345  0249              	fcall _Lcd_Month_Day_Process
 345  0250  2800     R  	jmp _L255
 345  0251              _L59:
 353  0251              #line 353 "c:\users\longshuangmin\desktop\worke_space\g-501\g-501\OpMode_T.C"
 353  0251  0700     E  	mov a,rb
 353  0252  0C32        	xor a,50
文件：OpMode_T.C   编译器版本 HGASM 0202 页次14

 353  0253  0500     E  	or a,rc
 353  0254  390A        	snz z
 353  0255  2800     R  	jmp _L61
 356  0256              #line 356 "c:\users\longshuangmin\desktop\worke_space\g-501\g-501\OpMode_T.C"
 356  0256              	fcall _Clr_DayString
 356  025D              _L255:
 357  025D              #line 357 "c:\users\longshuangmin\desktop\worke_space\g-501\g-501\OpMode_T.C"
 357  025D  3000     E  	set _Flag2[0].1
 357  025E  2800     R  	jmp _L60
 357  025F              _L61:
 359  025F              #line 359 "c:\users\longshuangmin\desktop\worke_space\g-501\g-501\OpMode_T.C"
 359  025F  0F63        	mov a,99
 359  0260  0200     E  	sub a,rb
 359  0261  0F00        	mov a,0
 359  0262  1200     E  	sbc a,rc
 359  0263  3C0A        	sz c
 359  0264  2800     R  	jmp _L60
 360  0265              #line 360 "c:\users\longshuangmin\desktop\worke_space\g-501\g-501\OpMode_T.C"
 360  0265  1F00     E  	clr _M_RTC_display[0]
 360  0266  1F00     E  	clr _M_RTC_display[1]
 360  0267              _L60:
 367  0267              #line 367 "c:\users\longshuangmin\desktop\worke_space\g-501\g-501\OpMode_T.C"
 367  0267  DE03 000E   	lsnz [3715]
 367  0269  2800     R  	jmp _L62
 369  026A              #line 369 "c:\users\longshuangmin\desktop\worke_space\g-501\g-501\OpMode_T.C"
 369  026A  DF03 000E   	lclr [3715]
 370  026C              #line 370 "c:\users\longshuangmin\desktop\worke_space\g-501\g-501\OpMode_T.C"
 370  026C  1F00     E  	clr _M_RTC_display[0]
 370  026D  1F00     E  	clr _M_RTC_display[1]
 371  026E              #line 371 "c:\users\longshuangmin\desktop\worke_space\g-501\g-501\OpMode_T.C"
 371  026E  1F00     E  	clr _M_No_Active_Cnt[0]
 371  026F  1F00     E  	clr _M_No_Active_Cnt[1]
 373  0270              #line 373 "c:\users\longshuangmin\desktop\worke_space\g-501\g-501\OpMode_T.C"
 373  0270  1400     E  	inca _M_Cbuf0[0]
 373  0271  0080     E  	mov ra,a
 373  0272  0700     E  	mov a,ra
 373  0273  0080     E  	mov _M_Cbuf0[0],a
 374  0274              #line 374 "c:\users\longshuangmin\desktop\worke_space\g-501\g-501\OpMode_T.C"
 374  0274  0700     E  	mov a,_M_Cbuf1[0]
 374  0275  0200     E  	sub a,ra
 374  0276  3C0A        	sz c
 374  0277  2800     R  	jmp _L66
 375  0278              #line 375 "c:\users\longshuangmin\desktop\worke_space\g-501\g-501\OpMode_T.C"
 375  0278  0F01        	mov a,1
 375  0279  0080     E  	mov _M_Cbuf0[0],a
 375  027A  2800     R  	jmp _L66
 375  027B              _L62:
 378  027B              #line 378 "c:\users\longshuangmin\desktop\worke_space\g-501\g-501\OpMode_T.C"
 378  027B  DE04 0014   	lsnz [5252]
 378  027D  2800     R  	jmp _L64
 380  027E              #line 380 "c:\users\longshuangmin\desktop\worke_space\g-501\g-501\OpMode_T.C"
 380  027E  DF04 0014   	lclr [5252]
 381  0280              #line 381 "c:\users\longshuangmin\desktop\worke_space\g-501\g-501\OpMode_T.C"
 381  0280  1F00     E  	clr _M_RTC_display[0]
 381  0281  1F00     E  	clr _M_RTC_display[1]
 382  0282              #line 382 "c:\users\longshuangmin\desktop\worke_space\g-501\g-501\OpMode_T.C"
 382  0282  1F00     E  	clr _M_No_Active_Cnt[0]
 382  0283  1F00     E  	clr _M_No_Active_Cnt[1]
 384  0284              #line 384 "c:\users\longshuangmin\desktop\worke_space\g-501\g-501\OpMode_T.C"
 384  0284  0700     E  	mov a,_M_Cbuf0[0]
文件：OpMode_T.C   编译器版本 HGASM 0202 页次15

 384  0285  0080     E  	mov ra,a
 384  0286  0F01        	mov a,1
 384  0287  0200     E  	sub a,ra
 384  0288  3C0A        	sz c
 384  0289  2800     R  	jmp _L65
 385  028A              #line 385 "c:\users\longshuangmin\desktop\worke_space\g-501\g-501\OpMode_T.C"
 385  028A  1500     E  	deca ra
 385  028B  0080     E  	mov _M_Cbuf0[0],a
 385  028C  2800     R  	jmp _L66
 385  028D              _L65:
 387  028D              #line 387 "c:\users\longshuangmin\desktop\worke_space\g-501\g-501\OpMode_T.C"
 387  028D  0700     E  	mov a,_M_Cbuf1[0]
 387  028E  0080     E  	mov _M_Cbuf0[0],a
 387  028F              _L66:
 388  028F              #line 388 "c:\users\longshuangmin\desktop\worke_space\g-501\g-501\OpMode_T.C"
 388  028F  3000     E  	set _Flag4[0].1
 388  0290              _L64:
 397  0290              #line 397 "c:\users\longshuangmin\desktop\worke_space\g-501\g-501\OpMode_T.C"
 397  0290  D700 000E   	lsdza [3712]
 397  0292  2800     R  	jmp _L17
 399  0293              #line 399 "c:\users\longshuangmin\desktop\worke_space\g-501\g-501\OpMode_T.C"
 399  0293  DF00 000E   	lclr [3712]
 400  0295              #line 400 "c:\users\longshuangmin\desktop\worke_space\g-501\g-501\OpMode_T.C"
 400  0295  1F00     E  	clr _M_RTC_display[0]
 400  0296  1F00     E  	clr _M_RTC_display[1]
 401  0297              #line 401 "c:\users\longshuangmin\desktop\worke_space\g-501\g-501\OpMode_T.C"
 401  0297  1F00     E  	clr _M_No_Active_Cnt[0]
 401  0298  1F00     E  	clr _M_No_Active_Cnt[1]
 402  0299              #line 402 "c:\users\longshuangmin\desktop\worke_space\g-501\g-501\OpMode_T.C"
 402  0299  0F00     R  	mov a,low offset _LC0
 402  029A  0080     E  	mov _Show_BigString_2[0],a
 402  029B  0F00     R  	mov a,high offset _LC0
 402  029C  0080     E  	mov _Show_BigString_2[1],a
 402  029D              	fcall _Show_BigString
 404  02A4              #line 404 "c:\users\longshuangmin\desktop\worke_space\g-501\g-501\OpMode_T.C"
 404  02A4  0F04        	mov a,4
 404  02A5  0080     E  	mov _M_TaskBuf0[0],a
 405  02A6              #line 405 "c:\users\longshuangmin\desktop\worke_space\g-501\g-501\OpMode_T.C"
 405  02A6  1F00     E  	clr _M_TaskBuf1[0]
 406  02A7              #line 406 "c:\users\longshuangmin\desktop\worke_space\g-501\g-501\OpMode_T.C"
 406  02A7  1F00     E  	clr _M_Error_Task[0]
 408  02A8              #line 408 "c:\users\longshuangmin\desktop\worke_space\g-501\g-501\OpMode_T.C"
 408  02A8  0700     E  	mov a,_M_Cbuf0[0]
 408  02A9  0080     E  	mov _M_Days[0],a
 409  02AA              #line 409 "c:\users\longshuangmin\desktop\worke_space\g-501\g-501\OpMode_T.C"
 409  02AA  0700     E  	mov a,_M_Hour[0]
 409  02AB  0080     E  	mov _M_Cbuf0[0],a
 409  02AC              _L270:
 410  02AC              #line 410 "c:\users\longshuangmin\desktop\worke_space\g-501\g-501\OpMode_T.C"
 410  02AC  3000     E  	set _Flag4[0].1
 410  02AD  2800     R  	jmp _L17
 410  02AE              _L10:
 422  02AE              #line 422 "c:\users\longshuangmin\desktop\worke_space\g-501\g-501\OpMode_T.C"
 422  02AE  0F01        	mov a,1
 422  02AF  0300     E  	add a,_M_RTC_display[0]
 422  02B0  0080     E  	mov rb,a
 422  02B1  0F00        	mov a,0
 422  02B2  1300     E  	adc a,_M_RTC_display[1]
 422  02B3  0080     E  	mov rc,a
 422  02B4  0700     E  	mov a,rb
文件：OpMode_T.C   编译器版本 HGASM 0202 页次16

 422  02B5  0080     E  	mov _M_RTC_display[0],a
 422  02B6  0700     E  	mov a,rc
 422  02B7  0080     E  	mov _M_RTC_display[1],a
 424  02B8              #line 424 "c:\users\longshuangmin\desktop\worke_space\g-501\g-501\OpMode_T.C"
 424  02B8  0700     E  	mov a,rb
 424  02B9  0C01        	xor a,1
 424  02BA  0500     E  	or a,rc
 424  02BB  390A        	snz z
 424  02BC  2800     R  	jmp _L67
 430  02BD              #line 430 "c:\users\longshuangmin\desktop\worke_space\g-501\g-501\OpMode_T.C"
 430  02BD  0700     E  	mov a,_M_Minutes[0]
 430  02BE  0080     E  	mov _Lcd_Clock_Process_2[0],a
 430  02BF  0700     E  	mov a,_M_Cbuf0[0]
 430  02C0              	fcall _Lcd_Clock_Process
 431  02C7              #line 431 "c:\users\longshuangmin\desktop\worke_space\g-501\g-501\OpMode_T.C"
 431  02C7  3000     E  	set _lcd[24].4
 431  02C8  2800     R  	jmp _L256
 431  02C9              _L67:
 437  02C9              #line 437 "c:\users\longshuangmin\desktop\worke_space\g-501\g-501\OpMode_T.C"
 437  02C9  0700     E  	mov a,rb
 437  02CA  0C32        	xor a,50
 437  02CB  0500     E  	or a,rc
 437  02CC  390A        	snz z
 437  02CD  2800     R  	jmp _L69
 439  02CE              #line 439 "c:\users\longshuangmin\desktop\worke_space\g-501\g-501\OpMode_T.C"
 439  02CE              	fcall _Clr_HourString
 439  02D5              _L256:
 441  02D5              #line 441 "c:\users\longshuangmin\desktop\worke_space\g-501\g-501\OpMode_T.C"
 441  02D5  3000     E  	set _Flag2[0].1
 441  02D6  2800     R  	jmp _L68
 441  02D7              _L69:
 443  02D7              #line 443 "c:\users\longshuangmin\desktop\worke_space\g-501\g-501\OpMode_T.C"
 443  02D7  0F63        	mov a,99
 443  02D8  0200     E  	sub a,rb
 443  02D9  0F00        	mov a,0
 443  02DA  1200     E  	sbc a,rc
 443  02DB  3C0A        	sz c
 443  02DC  2800     R  	jmp _L68
 444  02DD              #line 444 "c:\users\longshuangmin\desktop\worke_space\g-501\g-501\OpMode_T.C"
 444  02DD  1F00     E  	clr _M_RTC_display[0]
 444  02DE  1F00     E  	clr _M_RTC_display[1]
 444  02DF              _L68:
 450  02DF              #line 450 "c:\users\longshuangmin\desktop\worke_space\g-501\g-501\OpMode_T.C"
 450  02DF  DE03 000E   	lsnz [3715]
 450  02E1  2800     R  	jmp _L70
 452  02E2              #line 452 "c:\users\longshuangmin\desktop\worke_space\g-501\g-501\OpMode_T.C"
 452  02E2  DF03 000E   	lclr [3715]
 453  02E4              #line 453 "c:\users\longshuangmin\desktop\worke_space\g-501\g-501\OpMode_T.C"
 453  02E4  1F00     E  	clr _M_RTC_display[0]
 453  02E5  1F00     E  	clr _M_RTC_display[1]
 454  02E6              #line 454 "c:\users\longshuangmin\desktop\worke_space\g-501\g-501\OpMode_T.C"
 454  02E6  1F00     E  	clr _M_No_Active_Cnt[0]
 454  02E7  1F00     E  	clr _M_No_Active_Cnt[1]
 456  02E8              #line 456 "c:\users\longshuangmin\desktop\worke_space\g-501\g-501\OpMode_T.C"
 456  02E8  1400     E  	inca _M_Cbuf0[0]
 456  02E9  0080     E  	mov ra,a
 457  02EA              #line 457 "c:\users\longshuangmin\desktop\worke_space\g-501\g-501\OpMode_T.C"
 457  02EA  0F17        	mov a,23
 457  02EB  0200     E  	sub a,ra
 457  02EC  380A        	snz c
文件：OpMode_T.C   编译器版本 HGASM 0202 页次17

 457  02ED  2800     R  	jmp _L71
 456  02EE              #line 456 "c:\users\longshuangmin\desktop\worke_space\g-501\g-501\OpMode_T.C"
 456  02EE  0700     E  	mov a,ra
 456  02EF  0080     E  	mov _M_Cbuf0[0],a
 456  02F0  2800     R  	jmp _L75
 456  02F1              _L71:
 458  02F1              #line 458 "c:\users\longshuangmin\desktop\worke_space\g-501\g-501\OpMode_T.C"
 458  02F1  1F00     E  	clr _M_Cbuf0[0]
 458  02F2  2800     R  	jmp _L75
 458  02F3              _L70:
 461  02F3              #line 461 "c:\users\longshuangmin\desktop\worke_space\g-501\g-501\OpMode_T.C"
 461  02F3  DE04 0014   	lsnz [5252]
 461  02F5  2800     R  	jmp _L73
 463  02F6              #line 463 "c:\users\longshuangmin\desktop\worke_space\g-501\g-501\OpMode_T.C"
 463  02F6  DF04 0014   	lclr [5252]
 464  02F8              #line 464 "c:\users\longshuangmin\desktop\worke_space\g-501\g-501\OpMode_T.C"
 464  02F8  1F00     E  	clr _M_RTC_display[0]
 464  02F9  1F00     E  	clr _M_RTC_display[1]
 465  02FA              #line 465 "c:\users\longshuangmin\desktop\worke_space\g-501\g-501\OpMode_T.C"
 465  02FA  1F00     E  	clr _M_No_Active_Cnt[0]
 465  02FB  1F00     E  	clr _M_No_Active_Cnt[1]
 467  02FC              #line 467 "c:\users\longshuangmin\desktop\worke_space\g-501\g-501\OpMode_T.C"
 467  02FC  0700     E  	mov a,_M_Cbuf0[0]
 467  02FD  0080     E  	mov ra,a
 467  02FE  1E00     E  	snz ra
 467  02FF  2800     R  	jmp _L74
 468  0300              #line 468 "c:\users\longshuangmin\desktop\worke_space\g-501\g-501\OpMode_T.C"
 468  0300  1500     E  	deca ra
 468  0301  0080     E  	mov _M_Cbuf0[0],a
 468  0302  2800     R  	jmp _L75
 468  0303              _L74:
 470  0303              #line 470 "c:\users\longshuangmin\desktop\worke_space\g-501\g-501\OpMode_T.C"
 470  0303  0F17        	mov a,23
 470  0304  0080     E  	mov _M_Cbuf0[0],a
 470  0305              _L75:
 471  0305              #line 471 "c:\users\longshuangmin\desktop\worke_space\g-501\g-501\OpMode_T.C"
 471  0305  3000     E  	set _Flag4[0].1
 471  0306              _L73:
 479  0306              #line 479 "c:\users\longshuangmin\desktop\worke_space\g-501\g-501\OpMode_T.C"
 479  0306  D700 000E   	lsdza [3712]
 479  0308  2800     R  	jmp _L17
 481  0309              #line 481 "c:\users\longshuangmin\desktop\worke_space\g-501\g-501\OpMode_T.C"
 481  0309  DF00 000E   	lclr [3712]
 482  030B              #line 482 "c:\users\longshuangmin\desktop\worke_space\g-501\g-501\OpMode_T.C"
 482  030B  1F00     E  	clr _M_RTC_display[0]
 482  030C  1F00     E  	clr _M_RTC_display[1]
 483  030D              #line 483 "c:\users\longshuangmin\desktop\worke_space\g-501\g-501\OpMode_T.C"
 483  030D  1F00     E  	clr _M_No_Active_Cnt[0]
 483  030E  1F00     E  	clr _M_No_Active_Cnt[1]
 485  030F              #line 485 "c:\users\longshuangmin\desktop\worke_space\g-501\g-501\OpMode_T.C"
 485  030F  0F05        	mov a,5
 485  0310  0080     E  	mov _M_TaskBuf0[0],a
 486  0311              #line 486 "c:\users\longshuangmin\desktop\worke_space\g-501\g-501\OpMode_T.C"
 486  0311  1F00     E  	clr _M_TaskBuf1[0]
 487  0312              #line 487 "c:\users\longshuangmin\desktop\worke_space\g-501\g-501\OpMode_T.C"
 487  0312  1F00     E  	clr _M_Error_Task[0]
 490  0313              #line 490 "c:\users\longshuangmin\desktop\worke_space\g-501\g-501\OpMode_T.C"
 490  0313  0700     E  	mov a,_M_Cbuf0[0]
 490  0314  0080     E  	mov _M_Hour[0],a
 491  0315              #line 491 "c:\users\longshuangmin\desktop\worke_space\g-501\g-501\OpMode_T.C"
文件：OpMode_T.C   编译器版本 HGASM 0202 页次18

 491  0315  0700     E  	mov a,_M_Minutes[0]
 491  0316  0080     E  	mov _M_Cbuf0[0],a
 491  0317  2800     R  	jmp _L270
 491  0318              _L11:
 503  0318              #line 503 "c:\users\longshuangmin\desktop\worke_space\g-501\g-501\OpMode_T.C"
 503  0318  0F01        	mov a,1
 503  0319  0300     E  	add a,_M_RTC_display[0]
 503  031A  0080     E  	mov rb,a
 503  031B  0F00        	mov a,0
 503  031C  1300     E  	adc a,_M_RTC_display[1]
 503  031D  0080     E  	mov rc,a
 503  031E  0700     E  	mov a,rb
 503  031F  0080     E  	mov _M_RTC_display[0],a
 503  0320  0700     E  	mov a,rc
 503  0321  0080     E  	mov _M_RTC_display[1],a
 505  0322              #line 505 "c:\users\longshuangmin\desktop\worke_space\g-501\g-501\OpMode_T.C"
 505  0322  0700     E  	mov a,rb
 505  0323  0C01        	xor a,1
 505  0324  0500     E  	or a,rc
 505  0325  390A        	snz z
 505  0326  2800     R  	jmp _L76
 511  0327              #line 511 "c:\users\longshuangmin\desktop\worke_space\g-501\g-501\OpMode_T.C"
 511  0327  0700     E  	mov a,_M_Hour[0]
 511  0328  0080     E  	mov ra,a
 511  0329  0700     E  	mov a,_M_Cbuf0[0]
 511  032A  0080     E  	mov _Lcd_Clock_Process_2[0],a
 511  032B  0700     E  	mov a,ra
 511  032C              	fcall _Lcd_Clock_Process
 512  0333              #line 512 "c:\users\longshuangmin\desktop\worke_space\g-501\g-501\OpMode_T.C"
 512  0333  3000     E  	set _lcd[24].4
 512  0334  2800     R  	jmp _L257
 512  0335              _L76:
 518  0335              #line 518 "c:\users\longshuangmin\desktop\worke_space\g-501\g-501\OpMode_T.C"
 518  0335  0700     E  	mov a,rb
 518  0336  0C32        	xor a,50
 518  0337  0500     E  	or a,rc
 518  0338  390A        	snz z
 518  0339  2800     R  	jmp _L78
 521  033A              #line 521 "c:\users\longshuangmin\desktop\worke_space\g-501\g-501\OpMode_T.C"
 521  033A              	fcall _Clr_MinString
 521  0341              _L257:
 522  0341              #line 522 "c:\users\longshuangmin\desktop\worke_space\g-501\g-501\OpMode_T.C"
 522  0341  3000     E  	set _Flag2[0].1
 522  0342  2800     R  	jmp _L77
 522  0343              _L78:
 524  0343              #line 524 "c:\users\longshuangmin\desktop\worke_space\g-501\g-501\OpMode_T.C"
 524  0343  0F63        	mov a,99
 524  0344  0200     E  	sub a,rb
 524  0345  0F00        	mov a,0
 524  0346  1200     E  	sbc a,rc
 524  0347  3C0A        	sz c
 524  0348  2800     R  	jmp _L77
 525  0349              #line 525 "c:\users\longshuangmin\desktop\worke_space\g-501\g-501\OpMode_T.C"
 525  0349  1F00     E  	clr _M_RTC_display[0]
 525  034A  1F00     E  	clr _M_RTC_display[1]
 525  034B              _L77:
 532  034B              #line 532 "c:\users\longshuangmin\desktop\worke_space\g-501\g-501\OpMode_T.C"
 532  034B  DE03 000E   	lsnz [3715]
 532  034D  2800     R  	jmp _L79
 534  034E              #line 534 "c:\users\longshuangmin\desktop\worke_space\g-501\g-501\OpMode_T.C"
文件：OpMode_T.C   编译器版本 HGASM 0202 页次19

 534  034E  DF03 000E   	lclr [3715]
 535  0350              #line 535 "c:\users\longshuangmin\desktop\worke_space\g-501\g-501\OpMode_T.C"
 535  0350  1F00     E  	clr _M_RTC_display[0]
 535  0351  1F00     E  	clr _M_RTC_display[1]
 536  0352              #line 536 "c:\users\longshuangmin\desktop\worke_space\g-501\g-501\OpMode_T.C"
 536  0352  1F00     E  	clr _M_No_Active_Cnt[0]
 536  0353  1F00     E  	clr _M_No_Active_Cnt[1]
 538  0354              #line 538 "c:\users\longshuangmin\desktop\worke_space\g-501\g-501\OpMode_T.C"
 538  0354  1400     E  	inca _M_Cbuf0[0]
 538  0355  0080     E  	mov ra,a
 539  0356              #line 539 "c:\users\longshuangmin\desktop\worke_space\g-501\g-501\OpMode_T.C"
 539  0356  0F3B        	mov a,59
 539  0357  0200     E  	sub a,ra
 539  0358  380A        	snz c
 539  0359  2800     R  	jmp _L80
 538  035A              #line 538 "c:\users\longshuangmin\desktop\worke_space\g-501\g-501\OpMode_T.C"
 538  035A  0700     E  	mov a,ra
 538  035B  0080     E  	mov _M_Cbuf0[0],a
 538  035C  2800     R  	jmp _L84
 538  035D              _L80:
 540  035D              #line 540 "c:\users\longshuangmin\desktop\worke_space\g-501\g-501\OpMode_T.C"
 540  035D  1F00     E  	clr _M_Cbuf0[0]
 540  035E  2800     R  	jmp _L84
 540  035F              _L79:
 543  035F              #line 543 "c:\users\longshuangmin\desktop\worke_space\g-501\g-501\OpMode_T.C"
 543  035F  DE04 0014   	lsnz [5252]
 543  0361  2800     R  	jmp _L82
 545  0362              #line 545 "c:\users\longshuangmin\desktop\worke_space\g-501\g-501\OpMode_T.C"
 545  0362  DF04 0014   	lclr [5252]
 546  0364              #line 546 "c:\users\longshuangmin\desktop\worke_space\g-501\g-501\OpMode_T.C"
 546  0364  1F00     E  	clr _M_RTC_display[0]
 546  0365  1F00     E  	clr _M_RTC_display[1]
 547  0366              #line 547 "c:\users\longshuangmin\desktop\worke_space\g-501\g-501\OpMode_T.C"
 547  0366  1F00     E  	clr _M_No_Active_Cnt[0]
 547  0367  1F00     E  	clr _M_No_Active_Cnt[1]
 549  0368              #line 549 "c:\users\longshuangmin\desktop\worke_space\g-501\g-501\OpMode_T.C"
 549  0368  0700     E  	mov a,_M_Cbuf0[0]
 549  0369  0080     E  	mov ra,a
 549  036A  1E00     E  	snz ra
 549  036B  2800     R  	jmp _L83
 550  036C              #line 550 "c:\users\longshuangmin\desktop\worke_space\g-501\g-501\OpMode_T.C"
 550  036C  1500     E  	deca ra
 550  036D  0080     E  	mov _M_Cbuf0[0],a
 550  036E  2800     R  	jmp _L84
 550  036F              _L83:
 552  036F              #line 552 "c:\users\longshuangmin\desktop\worke_space\g-501\g-501\OpMode_T.C"
 552  036F  0F3B        	mov a,59
 552  0370  0080     E  	mov _M_Cbuf0[0],a
 552  0371              _L84:
 553  0371              #line 553 "c:\users\longshuangmin\desktop\worke_space\g-501\g-501\OpMode_T.C"
 553  0371  3000     E  	set _Flag4[0].1
 553  0372              _L82:
 561  0372              #line 561 "c:\users\longshuangmin\desktop\worke_space\g-501\g-501\OpMode_T.C"
 561  0372  D700 000E   	lsdza [3712]
 561  0374  2800     R  	jmp _L17
 563  0375              #line 563 "c:\users\longshuangmin\desktop\worke_space\g-501\g-501\OpMode_T.C"
 563  0375  DF00 000E   	lclr [3712]
 564  0377              #line 564 "c:\users\longshuangmin\desktop\worke_space\g-501\g-501\OpMode_T.C"
 564  0377  1F00     E  	clr _M_RTC_display[0]
 564  0378  1F00     E  	clr _M_RTC_display[1]
文件：OpMode_T.C   编译器版本 HGASM 0202 页次20

 565  0379              #line 565 "c:\users\longshuangmin\desktop\worke_space\g-501\g-501\OpMode_T.C"
 565  0379  1F00     E  	clr _M_No_Active_Cnt[0]
 565  037A  1F00     E  	clr _M_No_Active_Cnt[1]
 568  037B              #line 568 "c:\users\longshuangmin\desktop\worke_space\g-501\g-501\OpMode_T.C"
 568  037B  0F09        	mov a,9
 568  037C  0080     E  	mov _M_TaskBuf0[0],a
 569  037D              #line 569 "c:\users\longshuangmin\desktop\worke_space\g-501\g-501\OpMode_T.C"
 569  037D  1F00     E  	clr _M_TaskBuf1[0]
 570  037E              #line 570 "c:\users\longshuangmin\desktop\worke_space\g-501\g-501\OpMode_T.C"
 570  037E  1F00     E  	clr _M_Error_Task[0]
 572  037F              #line 572 "c:\users\longshuangmin\desktop\worke_space\g-501\g-501\OpMode_T.C"
 572  037F  0F00        	mov a,0
 572  0380              	fcall _LCD_Clear
 574  0387              #line 574 "c:\users\longshuangmin\desktop\worke_space\g-501\g-501\OpMode_T.C"
 574  0387  0700     E  	mov a,_M_Cbuf0[0]
 574  0388  0080     E  	mov _M_Minutes[0],a
 575  0389              #line 575 "c:\users\longshuangmin\desktop\worke_space\g-501\g-501\OpMode_T.C"
 575  0389  1F00     E  	clr _M_Second[0]
 575  038A  2800     R  	jmp _L270
 575  038B              _L14:
 593  038B              #line 593 "c:\users\longshuangmin\desktop\worke_space\g-501\g-501\OpMode_T.C"
 593  038B  0F01        	mov a,1
 593  038C  0300     E  	add a,_M_RTC_display[0]
 593  038D  0080     E  	mov rb,a
 593  038E  0F00        	mov a,0
 593  038F  1300     E  	adc a,_M_RTC_display[1]
 593  0390  0080     E  	mov rc,a
 593  0391  0700     E  	mov a,rb
 593  0392  0080     E  	mov _M_RTC_display[0],a
 593  0393  0700     E  	mov a,rc
 593  0394  0080     E  	mov _M_RTC_display[1],a
 595  0395              #line 595 "c:\users\longshuangmin\desktop\worke_space\g-501\g-501\OpMode_T.C"
 595  0395  0700     E  	mov a,rb
 595  0396  0C01        	xor a,1
 595  0397  0500     E  	or a,rc
 595  0398  390A        	snz z
 595  0399  2800     R  	jmp _L85
 604  039A              #line 604 "c:\users\longshuangmin\desktop\worke_space\g-501\g-501\OpMode_T.C"
 604  039A              	fcall _Lcd_Unit
 604  03A1  2800     R  	jmp _L258
 604  03A2              _L85:
 608  03A2              #line 608 "c:\users\longshuangmin\desktop\worke_space\g-501\g-501\OpMode_T.C"
 608  03A2  0700     E  	mov a,rb
 608  03A3  0C32        	xor a,50
 608  03A4  0500     E  	or a,rc
 608  03A5  390A        	snz z
 608  03A6  2800     R  	jmp _L87
 608  03A7              _L258:
 611  03A7              #line 611 "c:\users\longshuangmin\desktop\worke_space\g-501\g-501\OpMode_T.C"
 611  03A7  3000     E  	set _Flag2[0].1
 611  03A8  2800     R  	jmp _L86
 611  03A9              _L87:
 613  03A9              #line 613 "c:\users\longshuangmin\desktop\worke_space\g-501\g-501\OpMode_T.C"
 613  03A9  0F63        	mov a,99
 613  03AA  0200     E  	sub a,rb
 613  03AB  0F00        	mov a,0
 613  03AC  1200     E  	sbc a,rc
 613  03AD  3C0A        	sz c
 613  03AE  2800     R  	jmp _L86
 614  03AF              #line 614 "c:\users\longshuangmin\desktop\worke_space\g-501\g-501\OpMode_T.C"
文件：OpMode_T.C   编译器版本 HGASM 0202 页次21

 614  03AF  1F00     E  	clr _M_RTC_display[0]
 614  03B0  1F00     E  	clr _M_RTC_display[1]
 614  03B1              _L86:
 623  03B1              #line 623 "c:\users\longshuangmin\desktop\worke_space\g-501\g-501\OpMode_T.C"
 623  03B1  C703 000E   	lmov a,[3715]
 623  03B3  0A02        	sub a,2
 623  03B4  3D0A        	sz z
 623  03B5  2800     R  	jmp _L88
 623  03B6  C704 0014   	lmov a,[5252]
 623  03B8  0A02        	sub a,2
 623  03B9  390A        	snz z
 623  03BA  2800     R  	jmp _L89
 623  03BB              _L88:
 625  03BB              #line 625 "c:\users\longshuangmin\desktop\worke_space\g-501\g-501\OpMode_T.C"
 625  03BB  DF03 000E   	lclr [3715]
 626  03BD              #line 626 "c:\users\longshuangmin\desktop\worke_space\g-501\g-501\OpMode_T.C"
 626  03BD  DF04 0014   	lclr [5252]
 627  03BF              #line 627 "c:\users\longshuangmin\desktop\worke_space\g-501\g-501\OpMode_T.C"
 627  03BF  1F00     E  	clr _M_RTC_display[0]
 627  03C0  1F00     E  	clr _M_RTC_display[1]
 628  03C1              #line 628 "c:\users\longshuangmin\desktop\worke_space\g-501\g-501\OpMode_T.C"
 628  03C1  1F00     E  	clr _M_No_Active_Cnt[0]
 628  03C2  1F00     E  	clr _M_No_Active_Cnt[1]
 630  03C3              #line 630 "c:\users\longshuangmin\desktop\worke_space\g-501\g-501\OpMode_T.C"
 630  03C3  1400     E  	inca _M_Unit[0]
 630  03C4  0080     E  	mov ra,a
 631  03C5              #line 631 "c:\users\longshuangmin\desktop\worke_space\g-501\g-501\OpMode_T.C"
 631  03C5  0F03        	mov a,3
 631  03C6  0200     E  	sub a,ra
 631  03C7  380A        	snz c
 631  03C8  2800     R  	jmp _L90
 630  03C9              #line 630 "c:\users\longshuangmin\desktop\worke_space\g-501\g-501\OpMode_T.C"
 630  03C9  0700     E  	mov a,ra
 630  03CA  0080     E  	mov _M_Unit[0],a
 630  03CB  2800     R  	jmp _L91
 630  03CC              _L90:
 632  03CC              #line 632 "c:\users\longshuangmin\desktop\worke_space\g-501\g-501\OpMode_T.C"
 632  03CC  0F02        	mov a,2
 632  03CD  0080     E  	mov _M_Unit[0],a
 632  03CE              _L91:
 633  03CE              #line 633 "c:\users\longshuangmin\desktop\worke_space\g-501\g-501\OpMode_T.C"
 633  03CE  3000     E  	set _Flag4[0].1
 633  03CF              _L89:
 641  03CF              #line 641 "c:\users\longshuangmin\desktop\worke_space\g-501\g-501\OpMode_T.C"
 641  03CF  D700 000E   	lsdza [3712]
 641  03D1  2800     R  	jmp _L17
 643  03D2              #line 643 "c:\users\longshuangmin\desktop\worke_space\g-501\g-501\OpMode_T.C"
 643  03D2  DF00 000E   	lclr [3712]
 645  03D4              #line 645 "c:\users\longshuangmin\desktop\worke_space\g-501\g-501\OpMode_T.C"
 645  03D4              	fcall _Store_SetVauletoFlash
 655  03DB              #line 655 "c:\users\longshuangmin\desktop\worke_space\g-501\g-501\OpMode_T.C"
 655  03DB  1F00     E  	clr _M_RTC_display[0]
 655  03DC  1F00     E  	clr _M_RTC_display[1]
 656  03DD              #line 656 "c:\users\longshuangmin\desktop\worke_space\g-501\g-501\OpMode_T.C"
 656  03DD  1F00     E  	clr _M_No_Active_Cnt[0]
 656  03DE  1F00     E  	clr _M_No_Active_Cnt[1]
 658  03DF              #line 658 "c:\users\longshuangmin\desktop\worke_space\g-501\g-501\OpMode_T.C"
 658  03DF  0F08        	mov a,8
 658  03E0  0080     E  	mov _M_TaskBuf0[0],a
 660  03E1              #line 660 "c:\users\longshuangmin\desktop\worke_space\g-501\g-501\OpMode_T.C"
文件：OpMode_T.C   编译器版本 HGASM 0202 页次22

 660  03E1  1F00     E  	clr _M_TaskBuf1[0]
 661  03E2              #line 661 "c:\users\longshuangmin\desktop\worke_space\g-501\g-501\OpMode_T.C"
 661  03E2  1F00     E  	clr _M_Error_Task[0]
 664  03E3              #line 664 "c:\users\longshuangmin\desktop\worke_space\g-501\g-501\OpMode_T.C"
 664  03E3  0700     E  	mov a,_M_Cbuf0[0]
 664  03E4  0080     E  	mov _M_Minutes[0],a
 665  03E5              #line 665 "c:\users\longshuangmin\desktop\worke_space\g-501\g-501\OpMode_T.C"
 665  03E5  1F00     E  	clr _M_Cbuf0[0]
 666  03E6              #line 666 "c:\users\longshuangmin\desktop\worke_space\g-501\g-501\OpMode_T.C"
 666  03E6  1F00     E  	clr _M_Cbuf1[0]
 666  03E7  2800     R  	jmp _L272
 666  03E8              _L12:
 681  03E8              #line 681 "c:\users\longshuangmin\desktop\worke_space\g-501\g-501\OpMode_T.C"
 681  03E8  0700     E  	mov a,_M_TaskBuf1[0]
 681  03E9  0A00        	sub a,0
 681  03EA  3D0A        	sz z
 681  03EB  2800     R  	jmp _L92
 681  03EC  0A01        	sub a,(1)-(0)
 681  03ED  3D0A        	sz z
 681  03EE  2800     R  	jmp _L93
 681  03EF  0700     E  	mov a,_M_TaskBuf1[0]
 681  03F0  0A02        	sub a,2
 681  03F1  390A        	snz z
 681  03F2  2800     R  	jmp _L17
 681  03F3  2800     R  	jmp _L275
 681  03F4              _L92:
 688  03F4              #line 688 "c:\users\longshuangmin\desktop\worke_space\g-501\g-501\OpMode_T.C"
 688  03F4  0F01        	mov a,1
 688  03F5  0300     E  	add a,_M_RTC_display[0]
 688  03F6  0080     E  	mov rb,a
 688  03F7  0F00        	mov a,0
 688  03F8  1300     E  	adc a,_M_RTC_display[1]
 688  03F9  0080     E  	mov rc,a
 688  03FA  0700     E  	mov a,rb
 688  03FB  0080     E  	mov _M_RTC_display[0],a
 688  03FC  0700     E  	mov a,rc
 688  03FD  0080     E  	mov _M_RTC_display[1],a
 690  03FE              #line 690 "c:\users\longshuangmin\desktop\worke_space\g-501\g-501\OpMode_T.C"
 690  03FE  0700     E  	mov a,rb
 690  03FF  0C01        	xor a,1
 690  0400  0500     E  	or a,rc
 690  0401  390A        	snz z
 690  0402  2800     R  	jmp _L95
 693  0403              #line 693 "c:\users\longshuangmin\desktop\worke_space\g-501\g-501\OpMode_T.C"
 693  0403  3000     E  	set _lcd[34].0
 694  0404              #line 694 "c:\users\longshuangmin\desktop\worke_space\g-501\g-501\OpMode_T.C"
 694  0404  0700     E  	mov a,_M_Cbuf1[0]
 694  0405  0080     R  	mov _RTC_Mode_Setting_Process_2[0],a
 694  0406  1080     R  	sz _RTC_Mode_Setting_Process_2[0]
 694  0407  2800     R  	jmp _L96
 697  0408              #line 697 "c:\users\longshuangmin\desktop\worke_space\g-501\g-501\OpMode_T.C"
 697  0408  3000     E  	set _lcd[34].1
 698  0409              #line 698 "c:\users\longshuangmin\desktop\worke_space\g-501\g-501\OpMode_T.C"
 698  0409  3400     E  	clr _lcd[34].2
 699  040A              #line 699 "c:\users\longshuangmin\desktop\worke_space\g-501\g-501\OpMode_T.C"
 699  040A  3400     E  	clr _lcd[34].3
 700  040B              #line 700 "c:\users\longshuangmin\desktop\worke_space\g-501\g-501\OpMode_T.C"
 700  040B  3400     E  	clr _lcd[34].4
 702  040C              #line 702 "c:\users\longshuangmin\desktop\worke_space\g-501\g-501\OpMode_T.C"
 702  040C  0700     E  	mov a,_M_Alarm1_HR[0]
文件：OpMode_T.C   编译器版本 HGASM 0202 页次23

 702  040D  0080     E  	mov ra,a
 702  040E  0700     E  	mov a,_M_Alarm1_MIN[0]
 702  040F  0080     E  	mov _Lcd_Clock_Process_2[0],a
 702  0410  0700     E  	mov a,ra
 702  0411              	fcall _Lcd_Clock_Process
 705  0418              #line 705 "c:\users\longshuangmin\desktop\worke_space\g-501\g-501\OpMode_T.C"
 705  0418  3800     E  	snz _Flag6[0].0
 705  0419  2800     R  	jmp _L97
 705  041A              _L100:
 706  041A              #line 706 "c:\users\longshuangmin\desktop\worke_space\g-501\g-501\OpMode_T.C"
 706  041A  0F00     R  	mov a,low offset _LC1
 706  041B  0080     E  	mov _Show_BigString_2[0],a
 706  041C  0F00     R  	mov a,high offset _LC1
 706  041D  0080     E  	mov _Show_BigString_2[1],a
 706  041E  2800     R  	jmp _L259
 706  041F              _L96:
 710  041F              #line 710 "c:\users\longshuangmin\desktop\worke_space\g-501\g-501\OpMode_T.C"
 710  041F  1700     R  	sdza _RTC_Mode_Setting_Process_2[0]
 710  0420  2800     R  	jmp _L99
 713  0421              #line 713 "c:\users\longshuangmin\desktop\worke_space\g-501\g-501\OpMode_T.C"
 713  0421  3400     E  	clr _lcd[34].1
 714  0422              #line 714 "c:\users\longshuangmin\desktop\worke_space\g-501\g-501\OpMode_T.C"
 714  0422  3000     E  	set _lcd[34].2
 715  0423              #line 715 "c:\users\longshuangmin\desktop\worke_space\g-501\g-501\OpMode_T.C"
 715  0423  3400     E  	clr _lcd[34].3
 716  0424              #line 716 "c:\users\longshuangmin\desktop\worke_space\g-501\g-501\OpMode_T.C"
 716  0424  3400     E  	clr _lcd[34].4
 719  0425              #line 719 "c:\users\longshuangmin\desktop\worke_space\g-501\g-501\OpMode_T.C"
 719  0425  0700     E  	mov a,_M_Alarm2_HR[0]
 719  0426  0080     E  	mov ra,a
 719  0427  0700     E  	mov a,_M_Alarm2_MIN[0]
 719  0428  0080     E  	mov _Lcd_Clock_Process_2[0],a
 719  0429  0700     E  	mov a,ra
 719  042A              	fcall _Lcd_Clock_Process
 722  0431              #line 722 "c:\users\longshuangmin\desktop\worke_space\g-501\g-501\OpMode_T.C"
 722  0431  3C00     E  	sz _Flag6[0].2
 722  0432  2800     R  	jmp _L100
 722  0433              _L97:
 708  0433              #line 708 "c:\users\longshuangmin\desktop\worke_space\g-501\g-501\OpMode_T.C"
 708  0433  0F00     R  	mov a,low offset _LC2
 708  0434  0080     E  	mov _Show_BigString_2[0],a
 708  0435  0F00     R  	mov a,high offset _LC2
 708  0436  0080     E  	mov _Show_BigString_2[1],a
 708  0437              _L259:
 708  0437              	fcall _Show_BigString
 708  043E  2800     R  	jmp _L98
 708  043F              _L99:
 727  043F              #line 727 "c:\users\longshuangmin\desktop\worke_space\g-501\g-501\OpMode_T.C"
 727  043F  0700     R  	mov a,_RTC_Mode_Setting_Process_2[0]
 727  0440  0A02        	sub a,2
 727  0441  390A        	snz z
 727  0442  2800     R  	jmp _L101
 730  0443              #line 730 "c:\users\longshuangmin\desktop\worke_space\g-501\g-501\OpMode_T.C"
 730  0443  3400     E  	clr _lcd[34].1
 731  0444              #line 731 "c:\users\longshuangmin\desktop\worke_space\g-501\g-501\OpMode_T.C"
 731  0444  3400     E  	clr _lcd[34].2
 732  0445              #line 732 "c:\users\longshuangmin\desktop\worke_space\g-501\g-501\OpMode_T.C"
 732  0445  3000     E  	set _lcd[34].3
 733  0446              #line 733 "c:\users\longshuangmin\desktop\worke_space\g-501\g-501\OpMode_T.C"
 733  0446  3400     E  	clr _lcd[34].4
文件：OpMode_T.C   编译器版本 HGASM 0202 页次24

 736  0447              #line 736 "c:\users\longshuangmin\desktop\worke_space\g-501\g-501\OpMode_T.C"
 736  0447  0700     E  	mov a,_M_Alarm3_HR[0]
 736  0448  0080     E  	mov ra,a
 736  0449  0700     E  	mov a,_M_Alarm3_MIN[0]
 736  044A  0080     E  	mov _Lcd_Clock_Process_2[0],a
 736  044B  0700     E  	mov a,ra
 736  044C              	fcall _Lcd_Clock_Process
 738  0453              #line 738 "c:\users\longshuangmin\desktop\worke_space\g-501\g-501\OpMode_T.C"
 738  0453  3C00     E  	sz _Flag6[0].4
 738  0454  2800     R  	jmp _L100
 738  0455  2800     R  	jmp _L97
 738  0456              _L101:
 743  0456              #line 743 "c:\users\longshuangmin\desktop\worke_space\g-501\g-501\OpMode_T.C"
 743  0456  0700     R  	mov a,_RTC_Mode_Setting_Process_2[0]
 743  0457  0A03        	sub a,3
 743  0458  390A        	snz z
 743  0459  2800     R  	jmp _L98
 746  045A              #line 746 "c:\users\longshuangmin\desktop\worke_space\g-501\g-501\OpMode_T.C"
 746  045A  3400     E  	clr _lcd[34].1
 747  045B              #line 747 "c:\users\longshuangmin\desktop\worke_space\g-501\g-501\OpMode_T.C"
 747  045B  3400     E  	clr _lcd[34].2
 748  045C              #line 748 "c:\users\longshuangmin\desktop\worke_space\g-501\g-501\OpMode_T.C"
 748  045C  3400     E  	clr _lcd[34].3
 749  045D              #line 749 "c:\users\longshuangmin\desktop\worke_space\g-501\g-501\OpMode_T.C"
 749  045D  3000     E  	set _lcd[34].4
 751  045E              #line 751 "c:\users\longshuangmin\desktop\worke_space\g-501\g-501\OpMode_T.C"
 751  045E  0700     E  	mov a,_M_Alarm4_HR[0]
 751  045F  0080     E  	mov ra,a
 751  0460  0700     E  	mov a,_M_Alarm4_MIN[0]
 751  0461  0080     E  	mov _Lcd_Clock_Process_2[0],a
 751  0462  0700     E  	mov a,ra
 751  0463              	fcall _Lcd_Clock_Process
 753  046A              #line 753 "c:\users\longshuangmin\desktop\worke_space\g-501\g-501\OpMode_T.C"
 753  046A  3C00     E  	sz _Flag6[0].6
 753  046B  2800     R  	jmp _L100
 753  046C  2800     R  	jmp _L97
 753  046D              _L98:
 758  046D              #line 758 "c:\users\longshuangmin\desktop\worke_space\g-501\g-501\OpMode_T.C"
 758  046D  3000     E  	set _lcd[24].4
 758  046E  2800     R  	jmp _L260
 758  046F              _L95:
 761  046F              #line 761 "c:\users\longshuangmin\desktop\worke_space\g-501\g-501\OpMode_T.C"
 761  046F  0700     E  	mov a,rb
 761  0470  0C32        	xor a,50
 761  0471  0500     E  	or a,rc
 761  0472  390A        	snz z
 761  0473  2800     R  	jmp _L103
 764  0474              #line 764 "c:\users\longshuangmin\desktop\worke_space\g-501\g-501\OpMode_T.C"
 764  0474              	fcall _Clr_BigString
 764  047B              _L260:
 765  047B              #line 765 "c:\users\longshuangmin\desktop\worke_space\g-501\g-501\OpMode_T.C"
 765  047B  3000     E  	set _Flag2[0].1
 765  047C  2800     R  	jmp _L102
 765  047D              _L103:
 767  047D              #line 767 "c:\users\longshuangmin\desktop\worke_space\g-501\g-501\OpMode_T.C"
 767  047D  0F63        	mov a,99
 767  047E  0200     E  	sub a,rb
 767  047F  0F00        	mov a,0
 767  0480  1200     E  	sbc a,rc
 767  0481  3C0A        	sz c
文件：OpMode_T.C   编译器版本 HGASM 0202 页次25

 767  0482  2800     R  	jmp _L102
 768  0483              #line 768 "c:\users\longshuangmin\desktop\worke_space\g-501\g-501\OpMode_T.C"
 768  0483  1F00     E  	clr _M_RTC_display[0]
 768  0484  1F00     E  	clr _M_RTC_display[1]
 768  0485              _L102:
 775  0485              #line 775 "c:\users\longshuangmin\desktop\worke_space\g-501\g-501\OpMode_T.C"
 775  0485  D083 000E   	lsz [3715]
 775  0487  2800     R  	jmp _L104
 775  0488  DE04 0014   	lsnz [5252]
 775  048A  2800     R  	jmp _L105
 775  048B              _L104:
 777  048B              #line 777 "c:\users\longshuangmin\desktop\worke_space\g-501\g-501\OpMode_T.C"
 777  048B  DF03 000E   	lclr [3715]
 778  048D              #line 778 "c:\users\longshuangmin\desktop\worke_space\g-501\g-501\OpMode_T.C"
 778  048D  DF04 0014   	lclr [5252]
 779  048F              #line 779 "c:\users\longshuangmin\desktop\worke_space\g-501\g-501\OpMode_T.C"
 779  048F  0700     E  	mov a,_M_Cbuf1[0]
 779  0490  0080     R  	mov _RTC_Mode_Setting_Process_2[0],a
 779  0491  1080     R  	sz _RTC_Mode_Setting_Process_2[0]
 779  0492  2800     R  	jmp _L106
 780  0493              #line 780 "c:\users\longshuangmin\desktop\worke_space\g-501\g-501\OpMode_T.C"
 780  0493  0700     E  	mov a,_Flag6[0]
 780  0494  0E01        	and a,1
 780  0495  0080     E  	mov ra,a
 780  0496  0F01        	mov a,1
 780  0497  0480     E  	xorm a,ra
 780  0498  3400     E  	clr _Flag6[0].0
 780  0499  2800     R  	jmp _L261
 780  049A              _L106:
 781  049A              #line 781 "c:\users\longshuangmin\desktop\worke_space\g-501\g-501\OpMode_T.C"
 781  049A  1700     R  	sdza _RTC_Mode_Setting_Process_2[0]
 781  049B  2800     R  	jmp _L108
 782  049C              #line 782 "c:\users\longshuangmin\desktop\worke_space\g-501\g-501\OpMode_T.C"
 782  049C  1F00     E  	clr ra
 782  049D  3800     E  	snz _Flag6[0].2
 782  049E  3000     E  	set ra.2
 782  049F  3400     E  	clr _Flag6[0].2
 782  04A0  2800     R  	jmp _L261
 782  04A1              _L108:
 783  04A1              #line 783 "c:\users\longshuangmin\desktop\worke_space\g-501\g-501\OpMode_T.C"
 783  04A1  0700     R  	mov a,_RTC_Mode_Setting_Process_2[0]
 783  04A2  0A02        	sub a,2
 783  04A3  390A        	snz z
 783  04A4  2800     R  	jmp _L109
 784  04A5              #line 784 "c:\users\longshuangmin\desktop\worke_space\g-501\g-501\OpMode_T.C"
 784  04A5  1F00     E  	clr ra
 784  04A6  3800     E  	snz _Flag6[0].4
 784  04A7  3000     E  	set ra.4
 784  04A8  3400     E  	clr _Flag6[0].4
 784  04A9  2800     R  	jmp _L261
 784  04AA              _L109:
 785  04AA              #line 785 "c:\users\longshuangmin\desktop\worke_space\g-501\g-501\OpMode_T.C"
 785  04AA  0700     R  	mov a,_RTC_Mode_Setting_Process_2[0]
 785  04AB  0A03        	sub a,3
 785  04AC  390A        	snz z
 785  04AD  2800     R  	jmp _L107
 786  04AE              #line 786 "c:\users\longshuangmin\desktop\worke_space\g-501\g-501\OpMode_T.C"
 786  04AE  1F00     E  	clr ra
 786  04AF  3800     E  	snz _Flag6[0].6
 786  04B0  3000     E  	set ra.6
文件：OpMode_T.C   编译器版本 HGASM 0202 页次26

 786  04B1  3400     E  	clr _Flag6[0].6
 786  04B2              _L261:
 786  04B2  0700     E  	mov a,ra
 786  04B3  0580     E  	orm a,_Flag6[0]
 786  04B4              _L107:
 788  04B4              #line 788 "c:\users\longshuangmin\desktop\worke_space\g-501\g-501\OpMode_T.C"
 788  04B4  1F00     E  	clr _M_Error_Task[0]
 789  04B5              #line 789 "c:\users\longshuangmin\desktop\worke_space\g-501\g-501\OpMode_T.C"
 789  04B5  1F00     E  	clr _M_RTC_display[0]
 789  04B6  1F00     E  	clr _M_RTC_display[1]
 790  04B7              #line 790 "c:\users\longshuangmin\desktop\worke_space\g-501\g-501\OpMode_T.C"
 790  04B7  1F00     E  	clr _M_No_Active_Cnt[0]
 790  04B8  1F00     E  	clr _M_No_Active_Cnt[1]
 791  04B9              #line 791 "c:\users\longshuangmin\desktop\worke_space\g-501\g-501\OpMode_T.C"
 791  04B9  3000     E  	set _Flag4[0].1
 791  04BA              _L105:
 799  04BA              #line 799 "c:\users\longshuangmin\desktop\worke_space\g-501\g-501\OpMode_T.C"
 799  04BA  D700 000E   	lsdza [3712]
 799  04BC  2800     R  	jmp _L17
 801  04BD              #line 801 "c:\users\longshuangmin\desktop\worke_space\g-501\g-501\OpMode_T.C"
 801  04BD  DF00 000E   	lclr [3712]
 803  04BF              #line 803 "c:\users\longshuangmin\desktop\worke_space\g-501\g-501\OpMode_T.C"
 803  04BF  0F08        	mov a,8
 803  04C0  0080     E  	mov _M_TaskBuf0[0],a
 806  04C1              #line 806 "c:\users\longshuangmin\desktop\worke_space\g-501\g-501\OpMode_T.C"
 806  04C1  0700     E  	mov a,_M_Cbuf1[0]
 806  04C2  0080     R  	mov _RTC_Mode_Setting_Process_2[0],a
 806  04C3  1080     R  	sz _RTC_Mode_Setting_Process_2[0]
 806  04C4  2800     R  	jmp _L110
 806  04C5  3800     E  	snz _Flag6[0].0
 806  04C6  2800     R  	jmp _L111
 808  04C7              #line 808 "c:\users\longshuangmin\desktop\worke_space\g-501\g-501\OpMode_T.C"
 808  04C7  0F01        	mov a,1
 808  04C8  0080     E  	mov _M_TaskBuf1[0],a
 809  04C9              #line 809 "c:\users\longshuangmin\desktop\worke_space\g-501\g-501\OpMode_T.C"
 809  04C9  0700     E  	mov a,_M_Alarm1_HR[0]
 809  04CA  0080     E  	mov _M_Cbuf0[0],a
 809  04CB  2800     R  	jmp _L112
 809  04CC              _L110:
 811  04CC              #line 811 "c:\users\longshuangmin\desktop\worke_space\g-501\g-501\OpMode_T.C"
 811  04CC  1700     R  	sdza _RTC_Mode_Setting_Process_2[0]
 811  04CD  2800     R  	jmp _L113
 811  04CE  3800     E  	snz _Flag6[0].2
 811  04CF  2800     R  	jmp _L111
 813  04D0              #line 813 "c:\users\longshuangmin\desktop\worke_space\g-501\g-501\OpMode_T.C"
 813  04D0  0F01        	mov a,1
 813  04D1  0080     E  	mov _M_TaskBuf1[0],a
 814  04D2              #line 814 "c:\users\longshuangmin\desktop\worke_space\g-501\g-501\OpMode_T.C"
 814  04D2  0700     E  	mov a,_M_Alarm2_HR[0]
 814  04D3  0080     E  	mov _M_Cbuf0[0],a
 814  04D4  2800     R  	jmp _L112
 814  04D5              _L113:
 816  04D5              #line 816 "c:\users\longshuangmin\desktop\worke_space\g-501\g-501\OpMode_T.C"
 816  04D5  0700     R  	mov a,_RTC_Mode_Setting_Process_2[0]
 816  04D6  0A02        	sub a,2
 816  04D7  390A        	snz z
 816  04D8  2800     R  	jmp _L114
 816  04D9  3800     E  	snz _Flag6[0].4
 816  04DA  2800     R  	jmp _L111
 818  04DB              #line 818 "c:\users\longshuangmin\desktop\worke_space\g-501\g-501\OpMode_T.C"
文件：OpMode_T.C   编译器版本 HGASM 0202 页次27

 818  04DB  0F01        	mov a,1
 818  04DC  0080     E  	mov _M_TaskBuf1[0],a
 819  04DD              #line 819 "c:\users\longshuangmin\desktop\worke_space\g-501\g-501\OpMode_T.C"
 819  04DD  0700     E  	mov a,_M_Alarm3_HR[0]
 819  04DE  0080     E  	mov _M_Cbuf0[0],a
 819  04DF  2800     R  	jmp _L112
 819  04E0              _L114:
 821  04E0              #line 821 "c:\users\longshuangmin\desktop\worke_space\g-501\g-501\OpMode_T.C"
 821  04E0  0700     R  	mov a,_RTC_Mode_Setting_Process_2[0]
 821  04E1  0A03        	sub a,3
 821  04E2  390A        	snz z
 821  04E3  2800     R  	jmp _L111
 821  04E4  3800     E  	snz _Flag6[0].6
 821  04E5  2800     R  	jmp _L111
 823  04E6              #line 823 "c:\users\longshuangmin\desktop\worke_space\g-501\g-501\OpMode_T.C"
 823  04E6  0F01        	mov a,1
 823  04E7  0080     E  	mov _M_TaskBuf1[0],a
 824  04E8              #line 824 "c:\users\longshuangmin\desktop\worke_space\g-501\g-501\OpMode_T.C"
 824  04E8  0700     E  	mov a,_M_Alarm4_HR[0]
 824  04E9  0080     E  	mov _M_Cbuf0[0],a
 824  04EA  2800     R  	jmp _L112
 824  04EB              _L111:
 827  04EB              #line 827 "c:\users\longshuangmin\desktop\worke_space\g-501\g-501\OpMode_T.C"
 827  04EB  1400     R  	inca _RTC_Mode_Setting_Process_2[0]
 827  04EC  0080     E  	mov _M_Cbuf1[0],a
 827  04ED              _L112:
 829  04ED              #line 829 "c:\users\longshuangmin\desktop\worke_space\g-501\g-501\OpMode_T.C"
 829  04ED  0F03        	mov a,3
 829  04EE  0200     E  	sub a,_M_Cbuf1[0]
 829  04EF  3C0A        	sz c
 829  04F0  2800     R  	jmp _L115
 832  04F1              #line 832 "c:\users\longshuangmin\desktop\worke_space\g-501\g-501\OpMode_T.C"
 832  04F1  0F0C        	mov a,12
 832  04F2  0080     E  	mov _M_TaskBuf0[0],a
 835  04F3              #line 835 "c:\users\longshuangmin\desktop\worke_space\g-501\g-501\OpMode_T.C"
 835  04F3              	fcall _Store_SetVauletoFlash
 835  04FA              _L115:
 839  04FA              #line 839 "c:\users\longshuangmin\desktop\worke_space\g-501\g-501\OpMode_T.C"
 839  04FA  1F00     E  	clr _M_Error_Task[0]
 840  04FB              #line 840 "c:\users\longshuangmin\desktop\worke_space\g-501\g-501\OpMode_T.C"
 840  04FB  1F00     E  	clr _M_RTC_display[0]
 840  04FC  1F00     E  	clr _M_RTC_display[1]
 841  04FD              #line 841 "c:\users\longshuangmin\desktop\worke_space\g-501\g-501\OpMode_T.C"
 841  04FD  1F00     E  	clr _M_No_Active_Cnt[0]
 841  04FE  1F00     E  	clr _M_No_Active_Cnt[1]
 844  04FF              #line 844 "c:\users\longshuangmin\desktop\worke_space\g-501\g-501\OpMode_T.C"
 844  04FF  3400     E  	clr _Flag2[0].1
 845  0500              #line 845 "c:\users\longshuangmin\desktop\worke_space\g-501\g-501\OpMode_T.C"
 845  0500  3400     E  	clr _Flag1[0].7
 845  0501  2800     R  	jmp _L270
 845  0502              _L93:
 859  0502              #line 859 "c:\users\longshuangmin\desktop\worke_space\g-501\g-501\OpMode_T.C"
 859  0502  0F01        	mov a,1
 859  0503  0300     E  	add a,_M_RTC_display[0]
 859  0504  0080     E  	mov rb,a
 859  0505  0F00        	mov a,0
 859  0506  1300     E  	adc a,_M_RTC_display[1]
 859  0507  0080     E  	mov rc,a
 859  0508  0700     E  	mov a,rb
 859  0509  0080     E  	mov _M_RTC_display[0],a
文件：OpMode_T.C   编译器版本 HGASM 0202 页次28

 859  050A  0700     E  	mov a,rc
 859  050B  0080     E  	mov _M_RTC_display[1],a
 861  050C              #line 861 "c:\users\longshuangmin\desktop\worke_space\g-501\g-501\OpMode_T.C"
 861  050C  0700     E  	mov a,rb
 861  050D  0C01        	xor a,1
 861  050E  0500     E  	or a,rc
 861  050F  390A        	snz z
 861  0510  2800     R  	jmp _L116
 864  0511              #line 864 "c:\users\longshuangmin\desktop\worke_space\g-501\g-501\OpMode_T.C"
 864  0511  0F00     R  	mov a,low offset _LC1
 864  0512  0080     E  	mov _Show_BigString_2[0],a
 864  0513  0F00     R  	mov a,high offset _LC1
 864  0514  0080     E  	mov _Show_BigString_2[1],a
 864  0515              	fcall _Show_BigString
 866  051C              #line 866 "c:\users\longshuangmin\desktop\worke_space\g-501\g-501\OpMode_T.C"
 866  051C  0700     E  	mov a,_M_Cbuf1[0]
 866  051D  0080     R  	mov _RTC_Mode_Setting_Process_2[0],a
 866  051E  1080     R  	sz _RTC_Mode_Setting_Process_2[0]
 866  051F  2800     R  	jmp _L117
 868  0520              #line 868 "c:\users\longshuangmin\desktop\worke_space\g-501\g-501\OpMode_T.C"
 868  0520  3000     E  	set _lcd[34].1
 869  0521              #line 869 "c:\users\longshuangmin\desktop\worke_space\g-501\g-501\OpMode_T.C"
 869  0521  3400     E  	clr _lcd[34].2
 870  0522              #line 870 "c:\users\longshuangmin\desktop\worke_space\g-501\g-501\OpMode_T.C"
 870  0522  3400     E  	clr _lcd[34].3
 871  0523              #line 871 "c:\users\longshuangmin\desktop\worke_space\g-501\g-501\OpMode_T.C"
 871  0523  3400     E  	clr _lcd[34].4
 874  0524              #line 874 "c:\users\longshuangmin\desktop\worke_space\g-501\g-501\OpMode_T.C"
 874  0524  0700     E  	mov a,_M_Alarm1_MIN[0]
 874  0525  0080     E  	mov _Lcd_Clock_Process_2[0],a
 874  0526  2800     R  	jmp _L262
 874  0527              _L117:
 876  0527              #line 876 "c:\users\longshuangmin\desktop\worke_space\g-501\g-501\OpMode_T.C"
 876  0527  1700     R  	sdza _RTC_Mode_Setting_Process_2[0]
 876  0528  2800     R  	jmp _L119
 878  0529              #line 878 "c:\users\longshuangmin\desktop\worke_space\g-501\g-501\OpMode_T.C"
 878  0529  3400     E  	clr _lcd[34].1
 879  052A              #line 879 "c:\users\longshuangmin\desktop\worke_space\g-501\g-501\OpMode_T.C"
 879  052A  3000     E  	set _lcd[34].2
 880  052B              #line 880 "c:\users\longshuangmin\desktop\worke_space\g-501\g-501\OpMode_T.C"
 880  052B  3400     E  	clr _lcd[34].3
 881  052C              #line 881 "c:\users\longshuangmin\desktop\worke_space\g-501\g-501\OpMode_T.C"
 881  052C  3400     E  	clr _lcd[34].4
 884  052D              #line 884 "c:\users\longshuangmin\desktop\worke_space\g-501\g-501\OpMode_T.C"
 884  052D  0700     E  	mov a,_M_Alarm2_MIN[0]
 884  052E  0080     E  	mov _Lcd_Clock_Process_2[0],a
 884  052F  2800     R  	jmp _L262
 884  0530              _L119:
 886  0530              #line 886 "c:\users\longshuangmin\desktop\worke_space\g-501\g-501\OpMode_T.C"
 886  0530  0700     R  	mov a,_RTC_Mode_Setting_Process_2[0]
 886  0531  0A02        	sub a,2
 886  0532  390A        	snz z
 886  0533  2800     R  	jmp _L120
 888  0534              #line 888 "c:\users\longshuangmin\desktop\worke_space\g-501\g-501\OpMode_T.C"
 888  0534  3400     E  	clr _lcd[34].1
 889  0535              #line 889 "c:\users\longshuangmin\desktop\worke_space\g-501\g-501\OpMode_T.C"
 889  0535  3400     E  	clr _lcd[34].2
 890  0536              #line 890 "c:\users\longshuangmin\desktop\worke_space\g-501\g-501\OpMode_T.C"
 890  0536  3000     E  	set _lcd[34].3
 891  0537              #line 891 "c:\users\longshuangmin\desktop\worke_space\g-501\g-501\OpMode_T.C"
文件：OpMode_T.C   编译器版本 HGASM 0202 页次29

 891  0537  3400     E  	clr _lcd[34].4
 894  0538              #line 894 "c:\users\longshuangmin\desktop\worke_space\g-501\g-501\OpMode_T.C"
 894  0538  0700     E  	mov a,_M_Alarm3_MIN[0]
 894  0539  0080     E  	mov _Lcd_Clock_Process_2[0],a
 894  053A  2800     R  	jmp _L262
 894  053B              _L120:
 896  053B              #line 896 "c:\users\longshuangmin\desktop\worke_space\g-501\g-501\OpMode_T.C"
 896  053B  0700     R  	mov a,_RTC_Mode_Setting_Process_2[0]
 896  053C  0A03        	sub a,3
 896  053D  390A        	snz z
 896  053E  2800     R  	jmp _L118
 898  053F              #line 898 "c:\users\longshuangmin\desktop\worke_space\g-501\g-501\OpMode_T.C"
 898  053F  3400     E  	clr _lcd[34].1
 899  0540              #line 899 "c:\users\longshuangmin\desktop\worke_space\g-501\g-501\OpMode_T.C"
 899  0540  3400     E  	clr _lcd[34].2
 900  0541              #line 900 "c:\users\longshuangmin\desktop\worke_space\g-501\g-501\OpMode_T.C"
 900  0541  3400     E  	clr _lcd[34].3
 901  0542              #line 901 "c:\users\longshuangmin\desktop\worke_space\g-501\g-501\OpMode_T.C"
 901  0542  3000     E  	set _lcd[34].4
 904  0543              #line 904 "c:\users\longshuangmin\desktop\worke_space\g-501\g-501\OpMode_T.C"
 904  0543  0700     E  	mov a,_M_Alarm4_MIN[0]
 904  0544  0080     E  	mov _Lcd_Clock_Process_2[0],a
 904  0545              _L262:
 904  0545  0700     E  	mov a,_M_Cbuf0[0]
 904  0546              	fcall _Lcd_Clock_Process
 904  054D              _L118:
 907  054D              #line 907 "c:\users\longshuangmin\desktop\worke_space\g-501\g-501\OpMode_T.C"
 907  054D  3000     E  	set _lcd[24].4
 907  054E  2800     R  	jmp _L263
 907  054F              _L116:
 911  054F              #line 911 "c:\users\longshuangmin\desktop\worke_space\g-501\g-501\OpMode_T.C"
 911  054F  0700     E  	mov a,rb
 911  0550  0C32        	xor a,50
 911  0551  0500     E  	or a,rc
 911  0552  390A        	snz z
 911  0553  2800     R  	jmp _L122
 914  0554              #line 914 "c:\users\longshuangmin\desktop\worke_space\g-501\g-501\OpMode_T.C"
 914  0554              	fcall _Clr_HourString
 914  055B              _L263:
 915  055B              #line 915 "c:\users\longshuangmin\desktop\worke_space\g-501\g-501\OpMode_T.C"
 915  055B  3000     E  	set _Flag2[0].1
 915  055C  2800     R  	jmp _L121
 915  055D              _L122:
 917  055D              #line 917 "c:\users\longshuangmin\desktop\worke_space\g-501\g-501\OpMode_T.C"
 917  055D  0F63        	mov a,99
 917  055E  0200     E  	sub a,rb
 917  055F  0F00        	mov a,0
 917  0560  1200     E  	sbc a,rc
 917  0561  3C0A        	sz c
 917  0562  2800     R  	jmp _L121
 918  0563              #line 918 "c:\users\longshuangmin\desktop\worke_space\g-501\g-501\OpMode_T.C"
 918  0563  1F00     E  	clr _M_RTC_display[0]
 918  0564  1F00     E  	clr _M_RTC_display[1]
 918  0565              _L121:
 925  0565              #line 925 "c:\users\longshuangmin\desktop\worke_space\g-501\g-501\OpMode_T.C"
 925  0565  DE03 000E   	lsnz [3715]
 925  0567  2800     R  	jmp _L123
 927  0568              #line 927 "c:\users\longshuangmin\desktop\worke_space\g-501\g-501\OpMode_T.C"
 927  0568  DF03 000E   	lclr [3715]
 928  056A              #line 928 "c:\users\longshuangmin\desktop\worke_space\g-501\g-501\OpMode_T.C"
文件：OpMode_T.C   编译器版本 HGASM 0202 页次30

 928  056A  1F00     E  	clr _M_RTC_display[0]
 928  056B  1F00     E  	clr _M_RTC_display[1]
 929  056C              #line 929 "c:\users\longshuangmin\desktop\worke_space\g-501\g-501\OpMode_T.C"
 929  056C  1F00     E  	clr _M_No_Active_Cnt[0]
 929  056D  1F00     E  	clr _M_No_Active_Cnt[1]
 931  056E              #line 931 "c:\users\longshuangmin\desktop\worke_space\g-501\g-501\OpMode_T.C"
 931  056E  1400     E  	inca _M_Cbuf0[0]
 931  056F  0080     E  	mov ra,a
 932  0570              #line 932 "c:\users\longshuangmin\desktop\worke_space\g-501\g-501\OpMode_T.C"
 932  0570  0F17        	mov a,23
 932  0571  0200     E  	sub a,ra
 932  0572  380A        	snz c
 932  0573  2800     R  	jmp _L124
 931  0574              #line 931 "c:\users\longshuangmin\desktop\worke_space\g-501\g-501\OpMode_T.C"
 931  0574  0700     E  	mov a,ra
 931  0575  0080     E  	mov _M_Cbuf0[0],a
 931  0576  2800     R  	jmp _L128
 931  0577              _L124:
 933  0577              #line 933 "c:\users\longshuangmin\desktop\worke_space\g-501\g-501\OpMode_T.C"
 933  0577  1F00     E  	clr _M_Cbuf0[0]
 933  0578  2800     R  	jmp _L128
 933  0579              _L123:
 936  0579              #line 936 "c:\users\longshuangmin\desktop\worke_space\g-501\g-501\OpMode_T.C"
 936  0579  DE04 0014   	lsnz [5252]
 936  057B  2800     R  	jmp _L126
 938  057C              #line 938 "c:\users\longshuangmin\desktop\worke_space\g-501\g-501\OpMode_T.C"
 938  057C  DF04 0014   	lclr [5252]
 939  057E              #line 939 "c:\users\longshuangmin\desktop\worke_space\g-501\g-501\OpMode_T.C"
 939  057E  1F00     E  	clr _M_RTC_display[0]
 939  057F  1F00     E  	clr _M_RTC_display[1]
 940  0580              #line 940 "c:\users\longshuangmin\desktop\worke_space\g-501\g-501\OpMode_T.C"
 940  0580  1F00     E  	clr _M_No_Active_Cnt[0]
 940  0581  1F00     E  	clr _M_No_Active_Cnt[1]
 942  0582              #line 942 "c:\users\longshuangmin\desktop\worke_space\g-501\g-501\OpMode_T.C"
 942  0582  0700     E  	mov a,_M_Cbuf0[0]
 942  0583  0080     E  	mov ra,a
 942  0584  1E00     E  	snz ra
 942  0585  2800     R  	jmp _L127
 943  0586              #line 943 "c:\users\longshuangmin\desktop\worke_space\g-501\g-501\OpMode_T.C"
 943  0586  1500     E  	deca ra
 943  0587  0080     E  	mov _M_Cbuf0[0],a
 943  0588  2800     R  	jmp _L128
 943  0589              _L127:
 945  0589              #line 945 "c:\users\longshuangmin\desktop\worke_space\g-501\g-501\OpMode_T.C"
 945  0589  0F17        	mov a,23
 945  058A  0080     E  	mov _M_Cbuf0[0],a
 945  058B              _L128:
 946  058B              #line 946 "c:\users\longshuangmin\desktop\worke_space\g-501\g-501\OpMode_T.C"
 946  058B  3000     E  	set _Flag4[0].1
 946  058C              _L126:
 955  058C              #line 955 "c:\users\longshuangmin\desktop\worke_space\g-501\g-501\OpMode_T.C"
 955  058C  D700 000E   	lsdza [3712]
 955  058E  2800     R  	jmp _L17
 957  058F              #line 957 "c:\users\longshuangmin\desktop\worke_space\g-501\g-501\OpMode_T.C"
 957  058F  DF00 000E   	lclr [3712]
 958  0591              #line 958 "c:\users\longshuangmin\desktop\worke_space\g-501\g-501\OpMode_T.C"
 958  0591  1F00     E  	clr _M_RTC_display[0]
 958  0592  1F00     E  	clr _M_RTC_display[1]
 959  0593              #line 959 "c:\users\longshuangmin\desktop\worke_space\g-501\g-501\OpMode_T.C"
 959  0593  1F00     E  	clr _M_No_Active_Cnt[0]
文件：OpMode_T.C   编译器版本 HGASM 0202 页次31

 959  0594  1F00     E  	clr _M_No_Active_Cnt[1]
 961  0595              #line 961 "c:\users\longshuangmin\desktop\worke_space\g-501\g-501\OpMode_T.C"
 961  0595  0F08        	mov a,8
 961  0596  0080     E  	mov _M_TaskBuf0[0],a
 962  0597              #line 962 "c:\users\longshuangmin\desktop\worke_space\g-501\g-501\OpMode_T.C"
 962  0597  0F02        	mov a,2
 962  0598  0080     E  	mov _M_TaskBuf1[0],a
 963  0599              #line 963 "c:\users\longshuangmin\desktop\worke_space\g-501\g-501\OpMode_T.C"
 963  0599  1F00     E  	clr _M_Error_Task[0]
 966  059A              #line 966 "c:\users\longshuangmin\desktop\worke_space\g-501\g-501\OpMode_T.C"
 966  059A  0700     E  	mov a,_M_Cbuf1[0]
 966  059B  0080     R  	mov _RTC_Mode_Setting_Process_2[0],a
 966  059C  1080     R  	sz _RTC_Mode_Setting_Process_2[0]
 966  059D  2800     R  	jmp _L129
 966  059E  3800     E  	snz _Flag6[0].0
 966  059F  2800     R  	jmp _L270
 968  05A0              #line 968 "c:\users\longshuangmin\desktop\worke_space\g-501\g-501\OpMode_T.C"
 968  05A0  0700     E  	mov a,_M_Cbuf0[0]
 968  05A1  0080     E  	mov _M_Alarm1_HR[0],a
 969  05A2              #line 969 "c:\users\longshuangmin\desktop\worke_space\g-501\g-501\OpMode_T.C"
 969  05A2  0700     E  	mov a,_M_Alarm1_MIN[0]
 969  05A3  0080     E  	mov _M_Cbuf0[0],a
 969  05A4  2800     R  	jmp _L270
 969  05A5              _L129:
 971  05A5              #line 971 "c:\users\longshuangmin\desktop\worke_space\g-501\g-501\OpMode_T.C"
 971  05A5  1700     R  	sdza _RTC_Mode_Setting_Process_2[0]
 971  05A6  2800     R  	jmp _L131
 971  05A7  3800     E  	snz _Flag6[0].2
 971  05A8  2800     R  	jmp _L270
 973  05A9              #line 973 "c:\users\longshuangmin\desktop\worke_space\g-501\g-501\OpMode_T.C"
 973  05A9  0700     E  	mov a,_M_Cbuf0[0]
 973  05AA  0080     E  	mov _M_Alarm2_HR[0],a
 974  05AB              #line 974 "c:\users\longshuangmin\desktop\worke_space\g-501\g-501\OpMode_T.C"
 974  05AB  0700     E  	mov a,_M_Alarm2_MIN[0]
 974  05AC  0080     E  	mov _M_Cbuf0[0],a
 974  05AD  2800     R  	jmp _L270
 974  05AE              _L131:
 976  05AE              #line 976 "c:\users\longshuangmin\desktop\worke_space\g-501\g-501\OpMode_T.C"
 976  05AE  0700     R  	mov a,_RTC_Mode_Setting_Process_2[0]
 976  05AF  0A02        	sub a,2
 976  05B0  390A        	snz z
 976  05B1  2800     R  	jmp _L132
 976  05B2  3800     E  	snz _Flag6[0].4
 976  05B3  2800     R  	jmp _L270
 978  05B4              #line 978 "c:\users\longshuangmin\desktop\worke_space\g-501\g-501\OpMode_T.C"
 978  05B4  0700     E  	mov a,_M_Cbuf0[0]
 978  05B5  0080     E  	mov _M_Alarm3_HR[0],a
 979  05B6              #line 979 "c:\users\longshuangmin\desktop\worke_space\g-501\g-501\OpMode_T.C"
 979  05B6  0700     E  	mov a,_M_Alarm3_MIN[0]
 979  05B7  0080     E  	mov _M_Cbuf0[0],a
 979  05B8  2800     R  	jmp _L270
 979  05B9              _L132:
 981  05B9              #line 981 "c:\users\longshuangmin\desktop\worke_space\g-501\g-501\OpMode_T.C"
 981  05B9  0700     R  	mov a,_RTC_Mode_Setting_Process_2[0]
 981  05BA  0A03        	sub a,3
 981  05BB  390A        	snz z
 981  05BC  2800     R  	jmp _L270
 981  05BD  3800     E  	snz _Flag6[0].6
 981  05BE  2800     R  	jmp _L270
 983  05BF              #line 983 "c:\users\longshuangmin\desktop\worke_space\g-501\g-501\OpMode_T.C"
文件：OpMode_T.C   编译器版本 HGASM 0202 页次32

 983  05BF  0700     E  	mov a,_M_Cbuf0[0]
 983  05C0  0080     E  	mov _M_Alarm4_HR[0],a
 984  05C1              #line 984 "c:\users\longshuangmin\desktop\worke_space\g-501\g-501\OpMode_T.C"
 984  05C1  0700     E  	mov a,_M_Alarm4_MIN[0]
 984  05C2  0080     E  	mov _M_Cbuf0[0],a
 984  05C3  2800     R  	jmp _L270
 984  05C4              _L275:
 999  05C4              #line 999 "c:\users\longshuangmin\desktop\worke_space\g-501\g-501\OpMode_T.C"
 999  05C4  0F01        	mov a,1
 999  05C5  0300     E  	add a,_M_RTC_display[0]
 999  05C6  0080     E  	mov rb,a
 999  05C7  0F00        	mov a,0
 999  05C8  1300     E  	adc a,_M_RTC_display[1]
 999  05C9  0080     E  	mov rc,a
 999  05CA  0700     E  	mov a,rb
 999  05CB  0080     E  	mov _M_RTC_display[0],a
 999  05CC  0700     E  	mov a,rc
 999  05CD  0080     E  	mov _M_RTC_display[1],a
1001  05CE              #line 1001 "c:\users\longshuangmin\desktop\worke_space\g-501\g-501\OpMode_T.C"
1001  05CE  0700     E  	mov a,rb
1001  05CF  0C01        	xor a,1
1001  05D0  0500     E  	or a,rc
1001  05D1  390A        	snz z
1001  05D2  2800     R  	jmp _L133
1004  05D3              #line 1004 "c:\users\longshuangmin\desktop\worke_space\g-501\g-501\OpMode_T.C"
1004  05D3  0700     E  	mov a,_M_Cbuf1[0]
1004  05D4  0080     R  	mov _RTC_Mode_Setting_Process_2[0],a
1004  05D5  1080     R  	sz _RTC_Mode_Setting_Process_2[0]
1004  05D6  2800     R  	jmp _L134
1006  05D7              #line 1006 "c:\users\longshuangmin\desktop\worke_space\g-501\g-501\OpMode_T.C"
1006  05D7  3000     E  	set _lcd[34].1
1007  05D8              #line 1007 "c:\users\longshuangmin\desktop\worke_space\g-501\g-501\OpMode_T.C"
1007  05D8  3400     E  	clr _lcd[34].2
1008  05D9              #line 1008 "c:\users\longshuangmin\desktop\worke_space\g-501\g-501\OpMode_T.C"
1008  05D9  3400     E  	clr _lcd[34].3
1009  05DA              #line 1009 "c:\users\longshuangmin\desktop\worke_space\g-501\g-501\OpMode_T.C"
1009  05DA  3400     E  	clr _lcd[34].4
1012  05DB              #line 1012 "c:\users\longshuangmin\desktop\worke_space\g-501\g-501\OpMode_T.C"
1012  05DB  0700     E  	mov a,_M_Alarm1_HR[0]
1012  05DC  0080     E  	mov ra,a
1012  05DD  2800     R  	jmp _L264
1012  05DE              _L134:
1014  05DE              #line 1014 "c:\users\longshuangmin\desktop\worke_space\g-501\g-501\OpMode_T.C"
1014  05DE  1700     R  	sdza _RTC_Mode_Setting_Process_2[0]
1014  05DF  2800     R  	jmp _L136
1016  05E0              #line 1016 "c:\users\longshuangmin\desktop\worke_space\g-501\g-501\OpMode_T.C"
1016  05E0  3400     E  	clr _lcd[34].1
1017  05E1              #line 1017 "c:\users\longshuangmin\desktop\worke_space\g-501\g-501\OpMode_T.C"
1017  05E1  3000     E  	set _lcd[34].2
1018  05E2              #line 1018 "c:\users\longshuangmin\desktop\worke_space\g-501\g-501\OpMode_T.C"
1018  05E2  3400     E  	clr _lcd[34].3
1019  05E3              #line 1019 "c:\users\longshuangmin\desktop\worke_space\g-501\g-501\OpMode_T.C"
1019  05E3  3400     E  	clr _lcd[34].4
1022  05E4              #line 1022 "c:\users\longshuangmin\desktop\worke_space\g-501\g-501\OpMode_T.C"
1022  05E4  0700     E  	mov a,_M_Alarm2_HR[0]
1022  05E5  0080     E  	mov ra,a
1022  05E6  2800     R  	jmp _L264
1022  05E7              _L136:
1024  05E7              #line 1024 "c:\users\longshuangmin\desktop\worke_space\g-501\g-501\OpMode_T.C"
1024  05E7  0700     R  	mov a,_RTC_Mode_Setting_Process_2[0]
文件：OpMode_T.C   编译器版本 HGASM 0202 页次33

1024  05E8  0A02        	sub a,2
1024  05E9  390A        	snz z
1024  05EA  2800     R  	jmp _L137
1026  05EB              #line 1026 "c:\users\longshuangmin\desktop\worke_space\g-501\g-501\OpMode_T.C"
1026  05EB  3400     E  	clr _lcd[34].1
1027  05EC              #line 1027 "c:\users\longshuangmin\desktop\worke_space\g-501\g-501\OpMode_T.C"
1027  05EC  3400     E  	clr _lcd[34].2
1028  05ED              #line 1028 "c:\users\longshuangmin\desktop\worke_space\g-501\g-501\OpMode_T.C"
1028  05ED  3000     E  	set _lcd[34].3
1029  05EE              #line 1029 "c:\users\longshuangmin\desktop\worke_space\g-501\g-501\OpMode_T.C"
1029  05EE  3400     E  	clr _lcd[34].4
1032  05EF              #line 1032 "c:\users\longshuangmin\desktop\worke_space\g-501\g-501\OpMode_T.C"
1032  05EF  0700     E  	mov a,_M_Alarm3_HR[0]
1032  05F0  0080     E  	mov ra,a
1032  05F1  2800     R  	jmp _L264
1032  05F2              _L137:
1034  05F2              #line 1034 "c:\users\longshuangmin\desktop\worke_space\g-501\g-501\OpMode_T.C"
1034  05F2  0700     R  	mov a,_RTC_Mode_Setting_Process_2[0]
1034  05F3  0A03        	sub a,3
1034  05F4  390A        	snz z
1034  05F5  2800     R  	jmp _L135
1036  05F6              #line 1036 "c:\users\longshuangmin\desktop\worke_space\g-501\g-501\OpMode_T.C"
1036  05F6  3400     E  	clr _lcd[34].1
1037  05F7              #line 1037 "c:\users\longshuangmin\desktop\worke_space\g-501\g-501\OpMode_T.C"
1037  05F7  3400     E  	clr _lcd[34].2
1038  05F8              #line 1038 "c:\users\longshuangmin\desktop\worke_space\g-501\g-501\OpMode_T.C"
1038  05F8  3400     E  	clr _lcd[34].3
1039  05F9              #line 1039 "c:\users\longshuangmin\desktop\worke_space\g-501\g-501\OpMode_T.C"
1039  05F9  3000     E  	set _lcd[34].4
1042  05FA              #line 1042 "c:\users\longshuangmin\desktop\worke_space\g-501\g-501\OpMode_T.C"
1042  05FA  0700     E  	mov a,_M_Alarm4_HR[0]
1042  05FB  0080     E  	mov ra,a
1042  05FC              _L264:
1042  05FC  0700     E  	mov a,_M_Cbuf0[0]
1042  05FD  0080     E  	mov _Lcd_Clock_Process_2[0],a
1042  05FE  0700     E  	mov a,ra
1042  05FF              	fcall _Lcd_Clock_Process
1042  0606              _L135:
1044  0606              #line 1044 "c:\users\longshuangmin\desktop\worke_space\g-501\g-501\OpMode_T.C"
1044  0606  3000     E  	set _lcd[24].4
1044  0607  2800     R  	jmp _L265
1044  0608              _L133:
1048  0608              #line 1048 "c:\users\longshuangmin\desktop\worke_space\g-501\g-501\OpMode_T.C"
1048  0608  0700     E  	mov a,rb
1048  0609  0C32        	xor a,50
1048  060A  0500     E  	or a,rc
1048  060B  390A        	snz z
1048  060C  2800     R  	jmp _L139
1051  060D              #line 1051 "c:\users\longshuangmin\desktop\worke_space\g-501\g-501\OpMode_T.C"
1051  060D              	fcall _Clr_MinString
1051  0614              _L265:
1052  0614              #line 1052 "c:\users\longshuangmin\desktop\worke_space\g-501\g-501\OpMode_T.C"
1052  0614  3000     E  	set _Flag2[0].1
1052  0615  2800     R  	jmp _L138
1052  0616              _L139:
1054  0616              #line 1054 "c:\users\longshuangmin\desktop\worke_space\g-501\g-501\OpMode_T.C"
1054  0616  0F63        	mov a,99
1054  0617  0200     E  	sub a,rb
1054  0618  0F00        	mov a,0
1054  0619  1200     E  	sbc a,rc
文件：OpMode_T.C   编译器版本 HGASM 0202 页次34

1054  061A  3C0A        	sz c
1054  061B  2800     R  	jmp _L138
1055  061C              #line 1055 "c:\users\longshuangmin\desktop\worke_space\g-501\g-501\OpMode_T.C"
1055  061C  1F00     E  	clr _M_RTC_display[0]
1055  061D  1F00     E  	clr _M_RTC_display[1]
1055  061E              _L138:
1062  061E              #line 1062 "c:\users\longshuangmin\desktop\worke_space\g-501\g-501\OpMode_T.C"
1062  061E  DE03 000E   	lsnz [3715]
1062  0620  2800     R  	jmp _L140
1064  0621              #line 1064 "c:\users\longshuangmin\desktop\worke_space\g-501\g-501\OpMode_T.C"
1064  0621  DF03 000E   	lclr [3715]
1065  0623              #line 1065 "c:\users\longshuangmin\desktop\worke_space\g-501\g-501\OpMode_T.C"
1065  0623  1F00     E  	clr _M_RTC_display[0]
1065  0624  1F00     E  	clr _M_RTC_display[1]
1066  0625              #line 1066 "c:\users\longshuangmin\desktop\worke_space\g-501\g-501\OpMode_T.C"
1066  0625  1F00     E  	clr _M_No_Active_Cnt[0]
1066  0626  1F00     E  	clr _M_No_Active_Cnt[1]
1068  0627              #line 1068 "c:\users\longshuangmin\desktop\worke_space\g-501\g-501\OpMode_T.C"
1068  0627  1400     E  	inca _M_Cbuf0[0]
1068  0628  0080     E  	mov ra,a
1069  0629              #line 1069 "c:\users\longshuangmin\desktop\worke_space\g-501\g-501\OpMode_T.C"
1069  0629  0F3B        	mov a,59
1069  062A  0200     E  	sub a,ra
1069  062B  380A        	snz c
1069  062C  2800     R  	jmp _L141
1068  062D              #line 1068 "c:\users\longshuangmin\desktop\worke_space\g-501\g-501\OpMode_T.C"
1068  062D  0700     E  	mov a,ra
1068  062E  0080     E  	mov _M_Cbuf0[0],a
1068  062F  2800     R  	jmp _L145
1068  0630              _L141:
1070  0630              #line 1070 "c:\users\longshuangmin\desktop\worke_space\g-501\g-501\OpMode_T.C"
1070  0630  1F00     E  	clr _M_Cbuf0[0]
1070  0631  2800     R  	jmp _L145
1070  0632              _L140:
1073  0632              #line 1073 "c:\users\longshuangmin\desktop\worke_space\g-501\g-501\OpMode_T.C"
1073  0632  DE04 0014   	lsnz [5252]
1073  0634  2800     R  	jmp _L143
1075  0635              #line 1075 "c:\users\longshuangmin\desktop\worke_space\g-501\g-501\OpMode_T.C"
1075  0635  DF04 0014   	lclr [5252]
1076  0637              #line 1076 "c:\users\longshuangmin\desktop\worke_space\g-501\g-501\OpMode_T.C"
1076  0637  1F00     E  	clr _M_RTC_display[0]
1076  0638  1F00     E  	clr _M_RTC_display[1]
1077  0639              #line 1077 "c:\users\longshuangmin\desktop\worke_space\g-501\g-501\OpMode_T.C"
1077  0639  1F00     E  	clr _M_No_Active_Cnt[0]
1077  063A  1F00     E  	clr _M_No_Active_Cnt[1]
1079  063B              #line 1079 "c:\users\longshuangmin\desktop\worke_space\g-501\g-501\OpMode_T.C"
1079  063B  0700     E  	mov a,_M_Cbuf0[0]
1079  063C  0080     E  	mov ra,a
1079  063D  1E00     E  	snz ra
1079  063E  2800     R  	jmp _L144
1080  063F              #line 1080 "c:\users\longshuangmin\desktop\worke_space\g-501\g-501\OpMode_T.C"
1080  063F  1500     E  	deca ra
1080  0640  0080     E  	mov _M_Cbuf0[0],a
1080  0641  2800     R  	jmp _L145
1080  0642              _L144:
1082  0642              #line 1082 "c:\users\longshuangmin\desktop\worke_space\g-501\g-501\OpMode_T.C"
1082  0642  0F3B        	mov a,59
1082  0643  0080     E  	mov _M_Cbuf0[0],a
1082  0644              _L145:
1083  0644              #line 1083 "c:\users\longshuangmin\desktop\worke_space\g-501\g-501\OpMode_T.C"
文件：OpMode_T.C   编译器版本 HGASM 0202 页次35

1083  0644  3000     E  	set _Flag4[0].1
1083  0645              _L143:
1088  0645              #line 1088 "c:\users\longshuangmin\desktop\worke_space\g-501\g-501\OpMode_T.C"
1088  0645  D700 000E   	lsdza [3712]
1088  0647  2800     R  	jmp _L17
1090  0648              #line 1090 "c:\users\longshuangmin\desktop\worke_space\g-501\g-501\OpMode_T.C"
1090  0648  DF00 000E   	lclr [3712]
1093  064A              #line 1093 "c:\users\longshuangmin\desktop\worke_space\g-501\g-501\OpMode_T.C"
1093  064A  0F08        	mov a,8
1093  064B  0080     E  	mov _M_TaskBuf0[0],a
1094  064C              #line 1094 "c:\users\longshuangmin\desktop\worke_space\g-501\g-501\OpMode_T.C"
1094  064C  1F00     E  	clr _M_TaskBuf1[0]
1097  064D              #line 1097 "c:\users\longshuangmin\desktop\worke_space\g-501\g-501\OpMode_T.C"
1097  064D  0700     E  	mov a,_M_Cbuf1[0]
1097  064E  0080     R  	mov _RTC_Mode_Setting_Process_2[0],a
1097  064F  1080     R  	sz _RTC_Mode_Setting_Process_2[0]
1097  0650  2800     R  	jmp _L146
1097  0651  3800     E  	snz _Flag6[0].0
1097  0652  2800     R  	jmp _L147
1098  0653              #line 1098 "c:\users\longshuangmin\desktop\worke_space\g-501\g-501\OpMode_T.C"
1098  0653  0700     E  	mov a,_M_Cbuf0[0]
1098  0654  0080     E  	mov _M_Alarm1_MIN[0],a
1098  0655  2800     R  	jmp _L147
1098  0656              _L146:
1099  0656              #line 1099 "c:\users\longshuangmin\desktop\worke_space\g-501\g-501\OpMode_T.C"
1099  0656  1700     R  	sdza _RTC_Mode_Setting_Process_2[0]
1099  0657  2800     R  	jmp _L148
1099  0658  3800     E  	snz _Flag6[0].2
1099  0659  2800     R  	jmp _L147
1100  065A              #line 1100 "c:\users\longshuangmin\desktop\worke_space\g-501\g-501\OpMode_T.C"
1100  065A  0700     E  	mov a,_M_Cbuf0[0]
1100  065B  0080     E  	mov _M_Alarm2_MIN[0],a
1100  065C  2800     R  	jmp _L147
1100  065D              _L148:
1101  065D              #line 1101 "c:\users\longshuangmin\desktop\worke_space\g-501\g-501\OpMode_T.C"
1101  065D  0700     R  	mov a,_RTC_Mode_Setting_Process_2[0]
1101  065E  0A02        	sub a,2
1101  065F  390A        	snz z
1101  0660  2800     R  	jmp _L149
1101  0661  3800     E  	snz _Flag6[0].4
1101  0662  2800     R  	jmp _L147
1102  0663              #line 1102 "c:\users\longshuangmin\desktop\worke_space\g-501\g-501\OpMode_T.C"
1102  0663  0700     E  	mov a,_M_Cbuf0[0]
1102  0664  0080     E  	mov _M_Alarm3_MIN[0],a
1102  0665  2800     R  	jmp _L147
1102  0666              _L149:
1103  0666              #line 1103 "c:\users\longshuangmin\desktop\worke_space\g-501\g-501\OpMode_T.C"
1103  0666  0700     R  	mov a,_RTC_Mode_Setting_Process_2[0]
1103  0667  0A03        	sub a,3
1103  0668  390A        	snz z
1103  0669  2800     R  	jmp _L147
1103  066A  3800     E  	snz _Flag6[0].6
1103  066B  2800     R  	jmp _L147
1104  066C              #line 1104 "c:\users\longshuangmin\desktop\worke_space\g-501\g-501\OpMode_T.C"
1104  066C  0700     E  	mov a,_M_Cbuf0[0]
1104  066D  0080     E  	mov _M_Alarm4_MIN[0],a
1104  066E              _L147:
1106  066E              #line 1106 "c:\users\longshuangmin\desktop\worke_space\g-501\g-501\OpMode_T.C"
1106  066E  1400     R  	inca _RTC_Mode_Setting_Process_2[0]
1106  066F  0080     E  	mov ra,a
文件：OpMode_T.C   编译器版本 HGASM 0202 页次36

1106  0670  0700     E  	mov a,ra
1106  0671  0080     E  	mov _M_Cbuf1[0],a
1107  0672              #line 1107 "c:\users\longshuangmin\desktop\worke_space\g-501\g-501\OpMode_T.C"
1107  0672  0F03        	mov a,3
1107  0673  0200     E  	sub a,ra
1107  0674  3C0A        	sz c
1107  0675  2800     R  	jmp _L150
1110  0676              #line 1110 "c:\users\longshuangmin\desktop\worke_space\g-501\g-501\OpMode_T.C"
1110  0676  0F0C        	mov a,12
1110  0677  0080     E  	mov _M_TaskBuf0[0],a
1113  0678              #line 1113 "c:\users\longshuangmin\desktop\worke_space\g-501\g-501\OpMode_T.C"
1113  0678              	fcall _Store_SetVauletoFlash
1113  067F              _L150:
1117  067F              #line 1117 "c:\users\longshuangmin\desktop\worke_space\g-501\g-501\OpMode_T.C"
1117  067F  1F00     E  	clr _M_RTC_display[0]
1117  0680  1F00     E  	clr _M_RTC_display[1]
1118  0681              #line 1118 "c:\users\longshuangmin\desktop\worke_space\g-501\g-501\OpMode_T.C"
1118  0681  1F00     E  	clr _M_No_Active_Cnt[0]
1118  0682  1F00     E  	clr _M_No_Active_Cnt[1]
1119  0683              #line 1119 "c:\users\longshuangmin\desktop\worke_space\g-501\g-501\OpMode_T.C"
1119  0683  1F00     E  	clr _M_Error_Task[0]
1121  0684              #line 1121 "c:\users\longshuangmin\desktop\worke_space\g-501\g-501\OpMode_T.C"
1121  0684  3400     E  	clr _Flag2[0].1
1122  0685              #line 1122 "c:\users\longshuangmin\desktop\worke_space\g-501\g-501\OpMode_T.C"
1122  0685  3400     E  	clr _Flag1[0].7
1122  0686              _L272:
1124  0686              #line 1124 "c:\users\longshuangmin\desktop\worke_space\g-501\g-501\OpMode_T.C"
1124  0686  0F00        	mov a,0
1124  0687              	fcall _LCD_Clear
1124  068E  2800     R  	jmp _L270
1124  068F              _L13:
1142  068F              #line 1142 "c:\users\longshuangmin\desktop\worke_space\g-501\g-501\OpMode_T.C"
1142  068F  1E00     E  	snz _M_TaskBuf1[0]
1142  0690  2800     R  	jmp _L151
1142  0691  1700     E  	sdza _M_TaskBuf1[0]
1142  0692  2800     R  	jmp _L17
1142  0693  2800     R  	jmp _L276
1142  0694              _L151:
1147  0694              #line 1147 "c:\users\longshuangmin\desktop\worke_space\g-501\g-501\OpMode_T.C"
1147  0694  0F01        	mov a,1
1147  0695  0300     E  	add a,_M_RTC_display[0]
1147  0696  0080     E  	mov rb,a
1147  0697  0F00        	mov a,0
1147  0698  1300     E  	adc a,_M_RTC_display[1]
1147  0699  0080     E  	mov rc,a
1147  069A  0700     E  	mov a,rb
1147  069B  0080     E  	mov _M_RTC_display[0],a
1147  069C  0700     E  	mov a,rc
1147  069D  0080     E  	mov _M_RTC_display[1],a
1149  069E              #line 1149 "c:\users\longshuangmin\desktop\worke_space\g-501\g-501\OpMode_T.C"
1149  069E  0700     E  	mov a,rb
1149  069F  0C01        	xor a,1
1149  06A0  0500     E  	or a,rc
1149  06A1  390A        	snz z
1149  06A2  2800     R  	jmp _L153
1152  06A3              #line 1152 "c:\users\longshuangmin\desktop\worke_space\g-501\g-501\OpMode_T.C"
1152  06A3  DE13 000E   	lsnz [3731]
1152  06A5  2800     R  	jmp _L154
1155  06A6              #line 1155 "c:\users\longshuangmin\desktop\worke_space\g-501\g-501\OpMode_T.C"
1155  06A6  0F00     R  	mov a,low offset _LC3
文件：OpMode_T.C   编译器版本 HGASM 0202 页次37

1155  06A7  0080     E  	mov _Show_BigString_2[0],a
1155  06A8  0F00     R  	mov a,high offset _LC3
1155  06A9  0080     E  	mov _Show_BigString_2[1],a
1155  06AA  2800     R  	jmp _L266
1155  06AB              _L154:
1159  06AB              #line 1159 "c:\users\longshuangmin\desktop\worke_space\g-501\g-501\OpMode_T.C"
1159  06AB  0F00     R  	mov a,low offset _LC4
1159  06AC  0080     E  	mov _Show_BigString_2[0],a
1159  06AD  0F00     R  	mov a,high offset _LC4
1159  06AE  0080     E  	mov _Show_BigString_2[1],a
1159  06AF              _L266:
1159  06AF              	fcall _Show_BigString
1163  06B6              #line 1163 "c:\users\longshuangmin\desktop\worke_space\g-501\g-501\OpMode_T.C"
1163  06B6  3000     E  	set _lcd[26].2
1163  06B7  2800     R  	jmp _L267
1163  06B8              _L153:
1167  06B8              #line 1167 "c:\users\longshuangmin\desktop\worke_space\g-501\g-501\OpMode_T.C"
1167  06B8  0700     E  	mov a,rb
1167  06B9  0C32        	xor a,50
1167  06BA  0500     E  	or a,rc
1167  06BB  390A        	snz z
1167  06BC  2800     R  	jmp _L157
1170  06BD              #line 1170 "c:\users\longshuangmin\desktop\worke_space\g-501\g-501\OpMode_T.C"
1170  06BD  3400     E  	clr _lcd[26].2
1170  06BE              _L267:
1172  06BE              #line 1172 "c:\users\longshuangmin\desktop\worke_space\g-501\g-501\OpMode_T.C"
1172  06BE  3000     E  	set _Flag2[0].1
1172  06BF  2800     R  	jmp _L156
1172  06C0              _L157:
1176  06C0              #line 1176 "c:\users\longshuangmin\desktop\worke_space\g-501\g-501\OpMode_T.C"
1176  06C0  0F63        	mov a,99
1176  06C1  0200     E  	sub a,rb
1176  06C2  0F00        	mov a,0
1176  06C3  1200     E  	sbc a,rc
1176  06C4  3C0A        	sz c
1176  06C5  2800     R  	jmp _L156
1177  06C6              #line 1177 "c:\users\longshuangmin\desktop\worke_space\g-501\g-501\OpMode_T.C"
1177  06C6  1F00     E  	clr _M_RTC_display[0]
1177  06C7  1F00     E  	clr _M_RTC_display[1]
1177  06C8              _L156:
1185  06C8              #line 1185 "c:\users\longshuangmin\desktop\worke_space\g-501\g-501\OpMode_T.C"
1185  06C8  D083 000E   	lsz [3715]
1185  06CA  2800     R  	jmp _L158
1185  06CB  DE04 0014   	lsnz [5252]
1185  06CD  2800     R  	jmp _L159
1185  06CE              _L158:
1187  06CE              #line 1187 "c:\users\longshuangmin\desktop\worke_space\g-501\g-501\OpMode_T.C"
1187  06CE  DF03 000E   	lclr [3715]
1188  06D0              #line 1188 "c:\users\longshuangmin\desktop\worke_space\g-501\g-501\OpMode_T.C"
1188  06D0  DF04 0014   	lclr [5252]
1191  06D2              #line 1191 "c:\users\longshuangmin\desktop\worke_space\g-501\g-501\OpMode_T.C"
1191  06D2  D093 000E   	lsz [3731]
1191  06D4  2800     R  	jmp _L160
1193  06D5              #line 1193 "c:\users\longshuangmin\desktop\worke_space\g-501\g-501\OpMode_T.C"
1193  06D5  D493 000E   	linc [3731]
1195  06D7              #line 1195 "c:\users\longshuangmin\desktop\worke_space\g-501\g-501\OpMode_T.C"
1195  06D7  1F00     E  	clr _M_Error_Task[0]
1196  06D8              #line 1196 "c:\users\longshuangmin\desktop\worke_space\g-501\g-501\OpMode_T.C"
1196  06D8  1F00     E  	clr _M_No_Active_Cnt[0]
1196  06D9  1F00     E  	clr _M_No_Active_Cnt[1]
文件：OpMode_T.C   编译器版本 HGASM 0202 页次38

1198  06DA              #line 1198 "c:\users\longshuangmin\desktop\worke_space\g-501\g-501\OpMode_T.C"
1198  06DA  0F00        	mov a,0
1198  06DB              	fcall _LCD_Clear
1199  06E2              #line 1199 "c:\users\longshuangmin\desktop\worke_space\g-501\g-501\OpMode_T.C"
1199  06E2  0F00     R  	mov a,low offset _LC3
1199  06E3  0080     E  	mov _Show_BigString_2[0],a
1199  06E4  0F00     R  	mov a,high offset _LC3
1199  06E5  0080     E  	mov _Show_BigString_2[1],a
1199  06E6              	fcall _Show_BigString
1200  06ED              #line 1200 "c:\users\longshuangmin\desktop\worke_space\g-501\g-501\OpMode_T.C"
1200  06ED  3000     E  	set _Flag2[0].1
1200  06EE  2800     R  	jmp _L268
1200  06EF              _L160:
1206  06EF              #line 1206 "c:\users\longshuangmin\desktop\worke_space\g-501\g-501\OpMode_T.C"
1206  06EF  0F01        	mov a,1
1206  06F0  0080     E  	mov _M_TaskBuf1[0],a
1207  06F1              #line 1207 "c:\users\longshuangmin\desktop\worke_space\g-501\g-501\OpMode_T.C"
1207  06F1  1F00     E  	clr _M_Error_Task[0]
1208  06F2              #line 1208 "c:\users\longshuangmin\desktop\worke_space\g-501\g-501\OpMode_T.C"
1208  06F2  1F00     E  	clr _M_RTC_display[0]
1208  06F3  1F00     E  	clr _M_RTC_display[1]
1209  06F4              #line 1209 "c:\users\longshuangmin\desktop\worke_space\g-501\g-501\OpMode_T.C"
1209  06F4  1F00     E  	clr _M_No_Active_Cnt[0]
1209  06F5  1F00     E  	clr _M_No_Active_Cnt[1]
1212  06F6              #line 1212 "c:\users\longshuangmin\desktop\worke_space\g-501\g-501\OpMode_T.C"
1212  06F6  0F00        	mov a,0
1212  06F7              	fcall _LCD_Clear
1215  06FE              #line 1215 "c:\users\longshuangmin\desktop\worke_space\g-501\g-501\OpMode_T.C"
1215  06FE  3400     E  	clr _Flag2[0].1
1216  06FF              #line 1216 "c:\users\longshuangmin\desktop\worke_space\g-501\g-501\OpMode_T.C"
1216  06FF  3000     E  	set _Flag1[0].7
1216  0700              _L268:
1217  0700              #line 1217 "c:\users\longshuangmin\desktop\worke_space\g-501\g-501\OpMode_T.C"
1217  0700  3000     E  	set _Flag4[0].1
1217  0701              _L159:
1229  0701              #line 1229 "c:\users\longshuangmin\desktop\worke_space\g-501\g-501\OpMode_T.C"
1229  0701  D700 000E   	lsdza [3712]
1229  0703  2800     R  	jmp _L17
1231  0704              #line 1231 "c:\users\longshuangmin\desktop\worke_space\g-501\g-501\OpMode_T.C"
1231  0704  DF00 000E   	lclr [3712]
1233  0706              #line 1233 "c:\users\longshuangmin\desktop\worke_space\g-501\g-501\OpMode_T.C"
1233  0706  1F00     E  	clr _M_RTC_display[0]
1233  0707  1F00     E  	clr _M_RTC_display[1]
1234  0708              #line 1234 "c:\users\longshuangmin\desktop\worke_space\g-501\g-501\OpMode_T.C"
1234  0708  1F00     E  	clr _M_No_Active_Cnt[0]
1234  0709  1F00     E  	clr _M_No_Active_Cnt[1]
1238  070A              #line 1238 "c:\users\longshuangmin\desktop\worke_space\g-501\g-501\OpMode_T.C"
1238  070A  0F0A        	mov a,10
1238  070B  0080     E  	mov _M_TaskBuf0[0],a
1242  070C              #line 1242 "c:\users\longshuangmin\desktop\worke_space\g-501\g-501\OpMode_T.C"
1242  070C  1F00     E  	clr _M_TaskBuf1[0]
1243  070D              #line 1243 "c:\users\longshuangmin\desktop\worke_space\g-501\g-501\OpMode_T.C"
1243  070D  1F00     E  	clr _M_Cbuf1[0]
1245  070E              #line 1245 "c:\users\longshuangmin\desktop\worke_space\g-501\g-501\OpMode_T.C"
1245  070E  1F00     E  	clr _M_Error_Task[0]
1245  070F  2800     R  	jmp _L272
1245  0710              _L276:
1256  0710              #line 1256 "c:\users\longshuangmin\desktop\worke_space\g-501\g-501\OpMode_T.C"
1256  0710  3800     E  	snz _Flag1[0].7
1256  0711  2800     R  	jmp _L161
文件：OpMode_T.C   编译器版本 HGASM 0202 页次39

1259  0712              #line 1259 "c:\users\longshuangmin\desktop\worke_space\g-501\g-501\OpMode_T.C"
1259  0712  0F00     R  	mov a,low offset _LC5
1259  0713  0080     E  	mov _Show_BigString_2[0],a
1259  0714  0F00     R  	mov a,high offset _LC5
1259  0715  0080     E  	mov _Show_BigString_2[1],a
1259  0716              	fcall _Show_BigString
1261  071D              #line 1261 "c:\users\longshuangmin\desktop\worke_space\g-501\g-501\OpMode_T.C"
1261  071D  3800     E  	snz _lcd[26].2
1261  071E  2800     R  	jmp _L162
1263  071F              #line 1263 "c:\users\longshuangmin\desktop\worke_space\g-501\g-501\OpMode_T.C"
1263  071F  3400     E  	clr _lcd[26].2
1263  0720  2800     R  	jmp _L163
1263  0721              _L162:
1266  0721              #line 1266 "c:\users\longshuangmin\desktop\worke_space\g-501\g-501\OpMode_T.C"
1266  0721  3000     E  	set _lcd[26].2
1266  0722              _L163:
1268  0722              #line 1268 "c:\users\longshuangmin\desktop\worke_space\g-501\g-501\OpMode_T.C"
1268  0722  3400     E  	clr _Flag1[0].7
1269  0723              #line 1269 "c:\users\longshuangmin\desktop\worke_space\g-501\g-501\OpMode_T.C"
1269  0723  3000     E  	set _Flag2[0].1
1269  0724              _L161:
1273  0724              #line 1273 "c:\users\longshuangmin\desktop\worke_space\g-501\g-501\OpMode_T.C"
1273  0724  0F01        	mov a,1
1273  0725  0300     E  	add a,_M_RTC_display[0]
1273  0726  0080     E  	mov rb,a
1273  0727  0F00        	mov a,0
1273  0728  1300     E  	adc a,_M_RTC_display[1]
1273  0729  0080     E  	mov rc,a
1273  072A  0700     E  	mov a,rb
1273  072B  0080     E  	mov _M_RTC_display[0],a
1273  072C  0700     E  	mov a,rc
1273  072D  0080     E  	mov _M_RTC_display[1],a
1275  072E              #line 1275 "c:\users\longshuangmin\desktop\worke_space\g-501\g-501\OpMode_T.C"
1275  072E  0700     E  	mov a,rb
1275  072F  0C01        	xor a,1
1275  0730  0500     E  	or a,rc
1275  0731  390A        	snz z
1275  0732  2800     R  	jmp _L164
1277  0733              #line 1277 "c:\users\longshuangmin\desktop\worke_space\g-501\g-501\OpMode_T.C"
1277  0733  1F00     E  	clr _M_GM_data_Record[0]
1277  0734  1F00     E  	clr _M_GM_data_Record[1]
1278  0735              #line 1278 "c:\users\longshuangmin\desktop\worke_space\g-501\g-501\OpMode_T.C"
1278  0735  1F00     E  	clr _M_GM_Record_current[0]
1278  0736  1F00     E  	clr _M_GM_Record_current[1]
1281  0737              #line 1281 "c:\users\longshuangmin\desktop\worke_space\g-501\g-501\OpMode_T.C"
1281  0737              	fcall _Store_SetVauletoFlash
1284  073E              #line 1284 "c:\users\longshuangmin\desktop\worke_space\g-501\g-501\OpMode_T.C"
1284  073E  DF09 0014   	lclr [5257]
1285  0740              #line 1285 "c:\users\longshuangmin\desktop\worke_space\g-501\g-501\OpMode_T.C"
1285  0740  0F01        	mov a,1
1285  0741  0080     E  	mov _Write_EEPROMBuf_2[2],a
1285  0742  0F89        	mov a,low offset _set_temp_25
1285  0743  0080     E  	mov _Write_EEPROMBuf_2[0],a
1285  0744  0F14        	mov a,high offset _set_temp_25
1285  0745  0080     E  	mov _Write_EEPROMBuf_2[1],a
1285  0746  0F7F        	mov a,127
1285  0747              	fcall _Write_EEPROMBuf
1285  074E  2800     R  	jmp _L17
1285  074F              _L164:
1306  074F              #line 1306 "c:\users\longshuangmin\desktop\worke_space\g-501\g-501\OpMode_T.C"
文件：OpMode_T.C   编译器版本 HGASM 0202 页次40

1306  074F  0F63        	mov a,99
1306  0750  0200     E  	sub a,rb
1306  0751  0F00        	mov a,0
1306  0752  1200     E  	sbc a,rc
1306  0753  3C0A        	sz c
1306  0754  2800     R  	jmp _L17
1309  0755              #line 1309 "c:\users\longshuangmin\desktop\worke_space\g-501\g-501\OpMode_T.C"
1309  0755  1F00     E  	clr _M_RTC_display[0]
1309  0756  1F00     E  	clr _M_RTC_display[1]
1310  0757              #line 1310 "c:\users\longshuangmin\desktop\worke_space\g-501\g-501\OpMode_T.C"
1310  0757  1F00     E  	clr _M_No_Active_Cnt[0]
1310  0758  1F00     E  	clr _M_No_Active_Cnt[1]
1313  0759              #line 1313 "c:\users\longshuangmin\desktop\worke_space\g-501\g-501\OpMode_T.C"
1313  0759  0F0A        	mov a,10
1313  075A  0080     E  	mov _M_TaskBuf0[0],a
1317  075B              #line 1317 "c:\users\longshuangmin\desktop\worke_space\g-501\g-501\OpMode_T.C"
1317  075B  1F00     E  	clr _M_TaskBuf1[0]
1318  075C              #line 1318 "c:\users\longshuangmin\desktop\worke_space\g-501\g-501\OpMode_T.C"
1318  075C  1F00     E  	clr _M_Cbuf1[0]
1320  075D              #line 1320 "c:\users\longshuangmin\desktop\worke_space\g-501\g-501\OpMode_T.C"
1320  075D  1F00     E  	clr _M_Error_Task[0]
1321  075E              #line 1321 "c:\users\longshuangmin\desktop\worke_space\g-501\g-501\OpMode_T.C"
1321  075E  DF03 000E   	lclr [3715]
1322  0760              #line 1322 "c:\users\longshuangmin\desktop\worke_space\g-501\g-501\OpMode_T.C"
1322  0760  DF00 000E   	lclr [3712]
1322  0762  2800     R  	jmp _L269
1322  0763              _L274:
1352  0763              #line 1352 "c:\users\longshuangmin\desktop\worke_space\g-501\g-501\OpMode_T.C"
1352  0763  3800     E  	snz _Flag1[0].7
1352  0764  2800     R  	jmp _L165
1360  0765              #line 1360 "c:\users\longshuangmin\desktop\worke_space\g-501\g-501\OpMode_T.C"
1360  0765  3000     E  	set _Flag2[0].1
1360  0766              _L165:
1363  0766              #line 1363 "c:\users\longshuangmin\desktop\worke_space\g-501\g-501\OpMode_T.C"
1363  0766  0F01        	mov a,1
1363  0767  0300     E  	add a,_M_RTC_display[0]
1363  0768  0080     E  	mov rb,a
1363  0769  0F00        	mov a,0
1363  076A  1300     E  	adc a,_M_RTC_display[1]
1363  076B  0080     E  	mov rc,a
1363  076C  0700     E  	mov a,rb
1363  076D  0080     E  	mov _M_RTC_display[0],a
1363  076E  0700     E  	mov a,rc
1363  076F  0080     E  	mov _M_RTC_display[1],a
1364  0770              #line 1364 "c:\users\longshuangmin\desktop\worke_space\g-501\g-501\OpMode_T.C"
1364  0770  3C00     E  	sz _Flag1[0].5
1364  0771  2800     R  	jmp _L166
1364  0772  0F2C        	mov a,44
1364  0773  0200     E  	sub a,rb
1364  0774  0F01        	mov a,1
1364  0775  1200     E  	sbc a,rc
1364  0776  380A        	snz c
1364  0777  2800     R  	jmp _L167
1364  0778              _L166:
1364  0778  3800     E  	snz _Flag1[0].5
1364  0779  2800     R  	jmp _L17
1364  077A  0F32        	mov a,50
1364  077B  0200     E  	sub a,rb
1364  077C  0F00        	mov a,0
1364  077D  1200     E  	sbc a,rc
文件：OpMode_T.C   编译器版本 HGASM 0202 页次41

1364  077E  3C0A        	sz c
1364  077F  2800     R  	jmp _L17
1364  0780              _L167:
1366  0780              #line 1366 "c:\users\longshuangmin\desktop\worke_space\g-501\g-501\OpMode_T.C"
1366  0780  0F0C        	mov a,12
1366  0781  0080     E  	mov _M_TaskBuf0[0],a
1366  0782  2800     R  	jmp _L17
1366  0783              _L251:
1376  0783              #line 1376 "c:\users\longshuangmin\desktop\worke_space\g-501\g-501\OpMode_T.C"
1376  0783  0F01        	mov a,1
1376  0784  0300     E  	add a,_M_RTC_display[0]
1376  0785  0080     E  	mov rb,a
1376  0786  0F00        	mov a,0
1376  0787  1300     E  	adc a,_M_RTC_display[1]
1376  0788  0080     E  	mov rc,a
1376  0789  0700     E  	mov a,rb
1376  078A  0080     E  	mov _M_RTC_display[0],a
1376  078B  0700     E  	mov a,rc
1376  078C  0080     E  	mov _M_RTC_display[1],a
1377  078D              #line 1377 "c:\users\longshuangmin\desktop\worke_space\g-501\g-501\OpMode_T.C"
1377  078D  0F07        	mov a,7
1377  078E  0200     E  	sub a,rb
1377  078F  0F00        	mov a,0
1377  0790  1200     E  	sbc a,rc
1377  0791  3C0A        	sz c
1377  0792  2800     R  	jmp _L17
1379  0793              #line 1379 "c:\users\longshuangmin\desktop\worke_space\g-501\g-501\OpMode_T.C"
1379  0793  1F00     E  	clr _M_RTC_display[0]
1379  0794  1F00     E  	clr _M_RTC_display[1]
1380  0795              #line 1380 "c:\users\longshuangmin\desktop\worke_space\g-501\g-501\OpMode_T.C"
1380  0795  1F00     E  	clr _M_No_Active_Cnt[0]
1380  0796  1F00     E  	clr _M_No_Active_Cnt[1]
1381  0797              #line 1381 "c:\users\longshuangmin\desktop\worke_space\g-501\g-501\OpMode_T.C"
1381  0797  0F03        	mov a,3
1381  0798  0080     E  	mov _M_Task[0],a
1382  0799              #line 1382 "c:\users\longshuangmin\desktop\worke_space\g-501\g-501\OpMode_T.C"
1382  0799  1F00     E  	clr _M_TaskBuf0[0]
1383  079A              #line 1383 "c:\users\longshuangmin\desktop\worke_space\g-501\g-501\OpMode_T.C"
1383  079A  1F00     E  	clr _M_TaskBuf1[0]
1385  079B              #line 1385 "c:\users\longshuangmin\desktop\worke_space\g-501\g-501\OpMode_T.C"
1385  079B  1F00     E  	clr _M_Error_Task[0]
1385  079C              _L269:
1387  079C              #line 1387 "c:\users\longshuangmin\desktop\worke_space\g-501\g-501\OpMode_T.C"
1387  079C  0F00        	mov a,0
1387  079D              _L271:
1387  079D              	fcall _LCD_Clear
1387  07A4              _L17:
1411  07A4              #line 1411 "c:\users\longshuangmin\desktop\worke_space\g-501\g-501\OpMode_T.C"
1411  07A4  1480     E  	inc _M_No_Active_Cnt[0]
1411  07A5  3D0A        	sz z
1411  07A6  1480     E  	inc _M_No_Active_Cnt[1]
1412  07A7              #line 1412 "c:\users\longshuangmin\desktop\worke_space\g-501\g-501\OpMode_T.C"
1412  07A7  0F6F        	mov a,111
1412  07A8  0200     E  	sub a,_M_No_Active_Cnt[0]
1412  07A9  0F17        	mov a,23
1412  07AA  1200     E  	sbc a,_M_No_Active_Cnt[1]
1412  07AB  3C0A        	sz c
1412  07AC  2800     R  	jmp _L1
1414  07AD              #line 1414 "c:\users\longshuangmin\desktop\worke_space\g-501\g-501\OpMode_T.C"
1414  07AD  1F00     E  	clr _M_No_Active_Cnt[0]
文件：OpMode_T.C   编译器版本 HGASM 0202 页次42

1414  07AE  1F00     E  	clr _M_No_Active_Cnt[1]
1416  07AF              #line 1416 "c:\users\longshuangmin\desktop\worke_space\g-501\g-501\OpMode_T.C"
1416  07AF  0F03        	mov a,3
1416  07B0  0080     E  	mov _M_Task[0],a
1417  07B1              #line 1417 "c:\users\longshuangmin\desktop\worke_space\g-501\g-501\OpMode_T.C"
1417  07B1  1F00     E  	clr _M_TaskBuf0[0]
1418  07B2              #line 1418 "c:\users\longshuangmin\desktop\worke_space\g-501\g-501\OpMode_T.C"
1418  07B2  1F00     E  	clr _M_TaskBuf1[0]
1419  07B3              #line 1419 "c:\users\longshuangmin\desktop\worke_space\g-501\g-501\OpMode_T.C"
1419  07B3  1F00     E  	clr _M_Error_Task[0]
1420  07B4              #line 1420 "c:\users\longshuangmin\desktop\worke_space\g-501\g-501\OpMode_T.C"
1420  07B4  1F00     E  	clr _M_RTC_display[0]
1420  07B5  1F00     E  	clr _M_RTC_display[1]
1420  07B6              _L1:
1420  07B6  0003        	ret
1420  07B7              _RTC_Mode_Setting_Process endp
1420  07B7              #line 1420 "c:\users\longshuangmin\desktop\worke_space\g-501\g-501\OpMode_T.C"
1420  07B7              #pragma debug scope 1 1
1420  07B7              #pragma debug struct_end
1420  07B7              #pragma debug struct_end
1420  07B7              #pragma debug union_end
1420  07B7              #pragma debug union_end
1420  07B7              #pragma debug variable 43 1 ___pa "__pa" 1
1420  07B7              #pragma debug variable 8 1 _memkey "memkey" 1
1420  07B7              #pragma debug variable 8 1 _setkey "setkey" 1
1420  07B7              #pragma debug variable 8 1 _imp "imp" 1
1420  07B7              #pragma debug variable 8 1 _setkeydown "setkeydown" 1
1420  07B7              #pragma debug variable 7 1 _set_temp_25 "set_temp_25" 1
1420  07B7              
1420  07B7              ; output external variables
1420  07B7              extern _M_GM_Record_current:byte
1420  07B7              extern _M_GM_data_Record:byte
1420  07B7              extern _M_Alarm4_MIN:byte
1420  07B7              extern _M_Alarm4_HR:byte
1420  07B7              extern _M_Alarm3_MIN:byte
1420  07B7              extern _M_Alarm3_HR:byte
1420  07B7              extern _M_Alarm2_MIN:byte
1420  07B7              extern _M_Alarm2_HR:byte
1420  07B7              extern _Flag6:byte
1420  07B7              extern _M_Alarm1_MIN:byte
1420  07B7              extern _M_Alarm1_HR:byte
1420  07B7              extern _M_Unit:byte
1420  07B7              extern _M_Second:byte
1420  07B7              extern _lcd:byte
1420  07B7              extern _M_Minutes:byte
1420  07B7              extern _M_Hour:byte
1420  07B7              extern _M_Cbuf1:byte
1420  07B7              extern _LeapYear_TABLE:near
1420  07B7              extern _Month_TABLE1:near
1420  07B7              extern _Flag4:byte
1420  07B7              extern _M_Days:byte
1420  07B7              extern _M_Month:byte
1420  07B7              extern _Flag2:byte
1420  07B7              extern _M_Cbuf0:byte
1420  07B7              extern _M_Year:byte
1420  07B7              extern _M_Error_Task:byte
1420  07B7              extern _Flag1:byte
1420  07B7              extern _M_No_Active_Cnt:byte
1420  07B7              extern _M_RTC_display:byte
1420  07B7              extern _M_TaskBuf1:byte
文件：OpMode_T.C   编译器版本 HGASM 0202 页次43

1420  07B7              extern _M_Task:byte
1420  07B7              extern _M_Strip_Type:byte
1420  07B7              extern _M_TaskBuf0:byte
1420  07B7              extern _LCD_Clear:near
1420  07B7              extern _ShowDec_BigNum_2:byte
1420  07B7              extern _ShowDec_BigNum:near
1420  07B7              extern _Lcd_Month_Day_Process_2:byte
1420  07B7              extern _Lcd_Month_Day_Process:near
1420  07B7              extern _Clr_BigString:near
1420  07B7              extern _Clr_MonthString:near
1420  07B7              extern _Clr_DayString:near
1420  07B7              extern _Show_BigString_2:byte
1420  07B7              extern _Show_BigString:near
1420  07B7              extern _Lcd_Clock_Process_2:byte
1420  07B7              extern _Lcd_Clock_Process:near
1420  07B7              extern _Clr_HourString:near
1420  07B7              extern _Clr_MinString:near
1420  07B7              extern _Lcd_Unit:near
1420  07B7              extern _Store_SetVauletoFlash:near
1420  07B7              extern _Write_EEPROMBuf_2:byte
1420  07B7              extern _Write_EEPROMBuf:near
1420  07B7              
1420  07B7              ; 
1420  07B7              ; Generated by holtek-gcc v3.19, Fri May 23 10:39:47 2025
1420  07B7              ; Rebuild 718
1420  07B7              ; end of file


        0 Errors, 0