文件：OpMode_Comm_CAL.C 编译器版本 HGASM 0202 页次1


   1  0000              ; Generated by holtek-gcc v3.19, Fri May 23 10:39:46 2025
   2  0000              ; 
   3  0000              ; Configuration:
   4  0000              ;       with long instruction
   5  0000              ;       Multi-ROM, Multi-RAM
   6  0000              ;       bits_per_rom_unit:16
   7  0000              ;       with mp1
   8  0000              ;       with tbhp, address(0x9)
   9  0000              ;          Use tabrd-const
  10  0000              ;       
  11  0000              ; SFR address of long-instruction arch:
  12  0000              ;    mp0 = -1,1,0
  13  0000              ;    mp1 = 4,3,2
  14  0000              ;    mp2 = 14,13,12
  15  0000              ;    tbp = 9,7,8
  16  0000              ;    acc = 5
  17  0000              ;    pcl = 6
  18  0000              ;    status = 10
  19  0000              ;    bp = 11
  20  0000              ;    intc = 32
  21  0000              ;       
  22  0000              ;       
  23  0000              ; use 'tabrdc' instead of 'tabrd'
  24  0000              ;       
  25  0000              
  26  0000              #pragma translator "holtek-gcc 4.6.4" "3.19" "build 20130711"
  27  0000              ; Rebuild 718
  28  0000              
  29  0000              ir equ [2]
  30  0000              mp equ [3]
  31  0000              sbp equ [4]
  32  0000              acc equ [5]
  33  0000              bp equ [11]
  34  0000              tblp equ [7]
  35  0000              tbhp equ [9]
  36  0000              status equ [10]
  37  0000              c equ [10].0
  38  0000              ac equ [10].1
  39  0000              z equ [10].2
  40  0000              ov equ [10].3
  41  0000              cz equ [10].6
  42  0000              sc equ [10].7
  43  0000              intc equ [32]
  44  0000              mduwr0 equ [59h]
  45  0000              mduwr1 equ [5ah]
  46  0000              mduwr2 equ [5bh]
  47  0000              mduwr3 equ [5ch]
  48  0000              mduwr4 equ [5dh]
  49  0000              mduwr5 equ [5eh]
  50  0000              mduwrctrl equ [5fh]
  51  0000              
  52  0000              extern ra:byte
  53  0000              extern rb:byte
  54  0000              extern rc:byte
  55  0000              extern rd:byte
  56  0000              extern re:byte
  57  0000              extern rf:byte
  58  0000              extern rg:byte
  59  0000              extern rh:byte
文件：OpMode_Comm_CAL.ASM 编译器版本 HGASM 0202 页次2

  60  0000              extern _Crom2Prom:near
  61  0000              extern _Crom2PromNext:near
  62  0000              
  63  0000              RAMBANK 0 @BITDATASEC, @BITDATASEC1
  64  0000              @HCCINIT	.section 'data'
  65  0000              @HCCINIT0	.section 'data'
  66  0000              @BITDATASEC	 .section 'data'
  67  0000              @BITDATASEC1	 .section 'data'
  68  0000              
  69  0000              #pragma debug scope 1 1
  70  0000              	extern __DELAY3:near
  71  0000              	extern __DELAYX3:near
  72  0000              	extern __DELAYX6:near
  73  0000              	extern __DELAYY5:near
  74  0000              	extern __DELAYY3:near
  75  0000              	extern _builtin_holtek_delay_2:byte
  76  0000              _M_UART_RxFIFO equ [7808]
  77  0000              _mi equ [2688]
  78  0000              _uar_en equ [3718]
  79  0000              ___intc0 equ [32]
  80  0000              public _uart_order
  81  0000              #pragma debug scope 2 1

  21  0000              #line 21 "c:\users\longshuangmin\desktop\worke_space\g-501\g-501\OpMode_Comm_CAL.C"
  21  0000              _uart_order .section 'code'
  21  0000              _uart_order proc
  21  0000  0002[           local _uart_order_2 db 2 dup(?)	; 0,2
            00
            ]
  21  0002              #pragma debug variable 12 2 _uart_order_2+0 "Ibuf0"
  23  0002              #line 23 "c:\users\longshuangmin\desktop\worke_space\g-501\g-501\OpMode_Comm_CAL.C"
  23  0000  1E00     E  	snz _M_UART_RxIndex[0]
  23  0001  2800     R  	jmp _L1
  25  0002              #line 25 "c:\users\longshuangmin\desktop\worke_space\g-501\g-501\OpMode_Comm_CAL.C"
  25  0002  C700 001E   	lmov a,[7808]
  25  0004  0AAA        	sub a,170
  25  0005  3D0A        	sz z
  25  0006  2800     R  	jmp _L3
  27  0007              #line 27 "c:\users\longshuangmin\desktop\worke_space\g-501\g-501\OpMode_Comm_CAL.C"
  27  0007  1F00     E  	clr _M_UART_RxIndex[0]
  27  0008  2800     R  	jmp _L1
  27  0009              _L3:
  31  0009              #line 31 "c:\users\longshuangmin\desktop\worke_space\g-501\g-501\OpMode_Comm_CAL.C"
  31  0009  0F02        	mov a,2
  31  000A  0200     E  	sub a,_M_UART_RxIndex[0]
  31  000B  3C0A        	sz c
  31  000C  2800     R  	jmp _L1
  31  000D  0700     E  	mov a,_M_UART_RxIndex[0]
  31  000E  C201 001E   	lsub a,[7809]
  31  0010  380A        	snz c
  31  0011  2800     R  	jmp _L1
  34  0012              #line 34 "c:\users\longshuangmin\desktop\worke_space\g-501\g-501\OpMode_Comm_CAL.C"
  34  0012  1F00     R  	clr _uart_order_2[0]
  34  0013  1F00     R  	clr _uart_order_2[1]
  35  0014              #line 35 "c:\users\longshuangmin\desktop\worke_space\g-501\g-501\OpMode_Comm_CAL.C"
  35  0014  DF00 000A   	lclr [2688]
  35  0016              _L4:
  35  0016  C700 000A   	lmov a,[2688]
  35  0018  0080     E  	mov rd,a
  35  0019  1F00     E  	clr re
文件：OpMode_Comm_CAL.C 编译器版本 HGASM 0202 页次3

  35  001A  0FFE        	mov a,254
  35  001B  C301 001E   	ladd a,[7809]
  35  001D  0080     E  	mov rb,a
  35  001E  0FFF        	mov a,255
  35  001F  1F00     E  	clr rc
  35  0020  1380     E  	adcm a,rc
  35  0021  0700     E  	mov a,rd
  35  0022  0200     E  	sub a,rb
  35  0023  0700     E  	mov a,re
  35  0024  1200     E  	sbc a,rc
  35  0025  3B8A        	snz sc
  35  0026  2800     R  	jmp _L15
  36  0027              #line 36 "c:\users\longshuangmin\desktop\worke_space\g-501\g-501\OpMode_Comm_CAL.C"
  36  0027  0F80        	mov a,low offset _M_UART_RxFIFO
  36  0028  C300 000A   	ladd a,[2688]
  36  002A  0083        	mov mp,a
  36  002B  0F1E        	mov a,high offset _M_UART_RxFIFO
  36  002C  1F04        	clr sbp
  36  002D  1384        	adcm a,sbp
  36  002E              	fcall _Crom2Prom
  36  0035  0080     E  	mov ra,a
  36  0036  0700     E  	mov a,ra
  36  0037  0380     R  	addm a,_uart_order_2[0]
  36  0038  3C0A        	sz c
  36  0039  1480     R  	inc _uart_order_2[1]
  35  003A              #line 35 "c:\users\longshuangmin\desktop\worke_space\g-501\g-501\OpMode_Comm_CAL.C"
  35  003A  D480 000A   	linc [2688]
  35  003C  2800     R  	jmp _L4
  35  003D              _L15:
  37  003D              #line 37 "c:\users\longshuangmin\desktop\worke_space\g-501\g-501\OpMode_Comm_CAL.C"
  37  003D  0700     R  	mov a,_uart_order_2[0]
  37  003E  0500     R  	or a,_uart_order_2[1]
  37  003F  3D0A        	sz z
  37  0040  2800     R  	jmp _L6
  37  0041  0F7E        	mov a,low (offset _M_UART_RxFIFO-2)
  37  0042  C301 001E   	ladd a,[7809]
  37  0044  0083        	mov mp,a
  37  0045  0F1E        	mov a,high (offset _M_UART_RxFIFO-2)
  37  0046  1F04        	clr sbp
  37  0047  1384        	adcm a,sbp
  37  0048              	fcall _Crom2Prom
  37  004F  0080     E  	mov rb,a
  37  0050  0700     R  	mov a,_uart_order_2[0]
  37  0051  0080     E  	mov rd,a
  37  0052  0700     R  	mov a,_uart_order_2[1]
  37  0053  0080     E  	mov re,a
  37  0054  0FFF        	mov a,255  
  37  0055  0680     E  	andm a,rd  
  37  0056  0F00        	mov a,0  
  37  0057  0680     E  	andm a,re
  37  0058  1F00     E  	clr rc
  37  0059  0700     E  	mov a,rd
  37  005A  0200     E  	sub a,rb
  37  005B  0700     E  	mov a,re
  37  005C  1200     E  	sbc a,rc
  37  005D  3B0A        	snz cz
  37  005E  2800     R  	jmp _L6
  37  005F  0F7F        	mov a,low (offset _M_UART_RxFIFO-1)
  37  0060  C301 001E   	ladd a,[7809]
  37  0062  0083        	mov mp,a
文件：OpMode_Comm_CAL.C 编译器版本 HGASM 0202 页次4

  37  0063  0F1E        	mov a,high (offset _M_UART_RxFIFO-1)
  37  0064  1F04        	clr sbp
  37  0065  1384        	adcm a,sbp
  37  0066              	fcall _Crom2Prom
  37  006D  0080     E  	mov rb,a
  37  006E  0700     R  	mov a,_uart_order_2[0]
  37  006F  0080     E  	mov rd,a
  37  0070  0700     R  	mov a,_uart_order_2[1]
  37  0071  0080     E  	mov re,a
  37  0072  0700     E  	mov a,re
  37  0073  0080     E  	mov rd,a
  37  0074  1F00     E  	clr re
  37  0075  1F00     E  	clr rc
  37  0076  0700     E  	mov a,rd
  37  0077  0200     E  	sub a,rb
  37  0078  0700     E  	mov a,re
  37  0079  1200     E  	sbc a,rc
  37  007A  3F0A        	sz cz
  37  007B  2800     R  	jmp _L7
  37  007C              _L6:
  43  007C              #line 43 "c:\users\longshuangmin\desktop\worke_space\g-501\g-501\OpMode_Comm_CAL.C"
  43  007C  0FEE        	mov a,238
  43  007D  C082 001E   	lmov [7810],a
  43  007F              _L7:
  45  007F              #line 45 "c:\users\longshuangmin\desktop\worke_space\g-501\g-501\OpMode_Comm_CAL.C"
  45  007F  0F01        	mov a,1
  45  0080  C086 000E   	lmov [3718],a
  46  0082              #line 46 "c:\users\longshuangmin\desktop\worke_space\g-501\g-501\OpMode_Comm_CAL.C"
  46  0082  3420        	clr [32].0
  46  0083              _L1:
  46  0083  0003        	ret
  46  0084              _uart_order endp
  46  0084              #line 46 "c:\users\longshuangmin\desktop\worke_space\g-501\g-501\OpMode_Comm_CAL.C"
  46  0084              #pragma debug scope 1 1
  46  0084              ___pac equ [21]
  46  0084              ___pa equ [20]
  46  0084              ___papu equ [22]
  46  0084              ___pvref equ [108]
  46  0084              _Calibration equ [3744]
  46  0084              ___afeda1h equ [116]
  46  0084              ___afeda1l equ [115]
  46  0084              ___gsc1 equ [111]
  46  0084              ___gsc3 equ [113]
  46  0084              ___opa1c equ [109]
  46  0084              _memkey equ [3712]
  46  0084              _setkey equ [3715]
  46  0084              _test_mode equ [3719]
  46  0000              @crom	.section 'crom'
  46  0000              _LC0:
  46  0000              	db 050h,032h,030h,00h
  46  0002              _M_UART_TxFIFO equ [8064]
  46  0002              @crom	.section 'crom'
  46  0002              _LC1:
  46  0002              	db 050h,030h,034h,00h
  46  0004              @crom	.section 'crom'
  46  0004              _LC2:
  46  0004              	db 050h,030h,036h,00h
  46  0006              _auto_code equ [4860]
  46  0006              ___sgc equ [120]
  46  0006              ___bopac0 equ [123]
文件：OpMode_Comm_CAL.C 编译器版本 HGASM 0202 页次5

  46  0006              ___bopac1 equ [124]
  46  0006              ___bswc2 equ [127]
  46  0006              ___gsc2 equ [112]
  46  0006              _imp equ [3731]
  46  0006              _DC_data_buf equ [2944]
  46  0006              _M_Impedance_buf equ [2432]
  46  0006              _avg_ad equ [3732]
  46  0006              _avg_ad2 equ [3734]
  46  0006              _M_Impedance_data equ [2176]
  46  0006              _set_temp_25 equ [5257]
  46  0006              ___txr_rxr0 equ [50]
  46  0006              public _TestingMode
  46  0006              #pragma debug scope 3 1
 174  0006              #line 174 "c:\users\longshuangmin\desktop\worke_space\g-501\g-501\OpMode_Comm_CAL.C"
 174  0000              _TestingMode .section 'code'
 174  0000              _TestingMode proc
 174  0000  0002[           local _TestingMode_2 db 2 dup(?)	; 0,2
            00
            ]
 180  0002              #line 180 "c:\users\longshuangmin\desktop\worke_space\g-501\g-501\OpMode_Comm_CAL.C"
 180  0000  1E00     E  	snz _M_TaskBuf0[0]
 180  0001  2800     R  	jmp _L18
 180  0002              #line 180 "c:\users\longshuangmin\desktop\worke_space\g-501\g-501\OpMode_Comm_CAL.C"
 180  0002  1700     E  	sdza _M_TaskBuf0[0]
 180  0003  2800     R  	jmp _L17
 180  0004  2800     R  	jmp _L74
 180  0005              _L18:
 187  0005              #line 187 "c:\users\longshuangmin\desktop\worke_space\g-501\g-501\OpMode_Comm_CAL.C"
 187  0005  3595        	clr [21].3
 188  0006              #line 188 "c:\users\longshuangmin\desktop\worke_space\g-501\g-501\OpMode_Comm_CAL.C"
 188  0006  3594        	clr [20].3
 190  0007              #line 190 "c:\users\longshuangmin\desktop\worke_space\g-501\g-501\OpMode_Comm_CAL.C"
 190  0007  3195        	set [21].3
 191  0008              #line 191 "c:\users\longshuangmin\desktop\worke_space\g-501\g-501\OpMode_Comm_CAL.C"
 191  0008  3596        	clr [22].3
 192  0009              #line 192 "c:\users\longshuangmin\desktop\worke_space\g-501\g-501\OpMode_Comm_CAL.C"
 192  0009  3615        	clr [21].4
 193  000A              #line 193 "c:\users\longshuangmin\desktop\worke_space\g-501\g-501\OpMode_Comm_CAL.C"
 193  000A  3614        	clr [20].4
 194  000B              #line 194 "c:\users\longshuangmin\desktop\worke_space\g-501\g-501\OpMode_Comm_CAL.C"
 194  000B  3616        	clr [22].4
 198  000C              #line 198 "c:\users\longshuangmin\desktop\worke_space\g-501\g-501\OpMode_Comm_CAL.C"
 198  000C              	fcall _Load_VrefDaco_Vaule
 209  0013              #line 209 "c:\users\longshuangmin\desktop\worke_space\g-501\g-501\OpMode_Comm_CAL.C"
 209  0013  076C        	mov a,[108]
 209  0014  C0A9 000E   	lmov [3753],a
 211  0016              #line 211 "c:\users\longshuangmin\desktop\worke_space\g-501\g-501\OpMode_Comm_CAL.C"
 211  0016  0774        	mov a,[116]
 211  0017  C0AA 000E   	lmov [3754],a
 211  0019  DF2B 000E   	lclr [3755]
 212  001B              #line 212 "c:\users\longshuangmin\desktop\worke_space\g-501\g-501\OpMode_Comm_CAL.C"
 212  001B  C72A 000E   	lmov a,[3754]
 212  001D  C0AB 000E   	lmov [3755],a
 212  001F  DF2A 000E   	lclr [3754]
 213  0021              #line 213 "c:\users\longshuangmin\desktop\worke_space\g-501\g-501\OpMode_Comm_CAL.C"
 213  0021  0773        	mov a,[115]
 213  0022  C3AA 000E   	laddm a,[3754]
 213  0024  3C0A        	sz c
 213  0025  D4AB 000E   	linc [3755]
 214  0027              #line 214 "c:\users\longshuangmin\desktop\worke_space\g-501\g-501\OpMode_Comm_CAL.C"
文件：OpMode_Comm_CAL.C 编译器版本 HGASM 0202 页次6

 214  0027  0F04        	mov a,4
 214  0028              _LI1:
 214  0028  340A        	clr c
 214  0029  DBAB 000E   	lrrc [3755]
 214  002B  DBAA 000E   	lrrc [3754]
 214  002D  1785        	sdz acc
 214  002E  2800     R  	jmp _LI1
 217  002F              #line 217 "c:\users\longshuangmin\desktop\worke_space\g-501\g-501\OpMode_Comm_CAL.C"
 217  002F  0F0A        	mov a,10
 217  0030  C32A 000E   	ladd a,[3754]
 217  0032  C0AC 000E   	lmov [3756],a
 217  0034  0F00        	mov a,0
 217  0035  D32B 000E   	ladc a,[3755]
 217  0037  C0AD 000E   	lmov [3757],a
 224  0039              #line 224 "c:\users\longshuangmin\desktop\worke_space\g-501\g-501\OpMode_Comm_CAL.C"
 224  0039              	fcall _fun_UART0PowerOnInit
 227  0040              #line 227 "c:\users\longshuangmin\desktop\worke_space\g-501\g-501\OpMode_Comm_CAL.C"
 227  0040  0F01        	mov a,1
 227  0041  0080     E  	mov _fun_DACVREFInit_2[0],a
 227  0042  1F00     E  	clr _fun_DACVREFInit_2[1]
 227  0043              	fcall _fun_DACVREFInit
 229  004A              #line 229 "c:\users\longshuangmin\desktop\worke_space\g-501\g-501\OpMode_Comm_CAL.C"
 229  004A  0F01        	mov a,1
 229  004B  0080     E  	mov _fun_DACnInit_2[0],a
 229  004C  1F00     E  	clr _fun_DACnInit_2[1]
 229  004D  0F01        	mov a,1
 229  004E              	fcall _fun_DACnInit
 240  0055              #line 240 "c:\users\longshuangmin\desktop\worke_space\g-501\g-501\OpMode_Comm_CAL.C"
 240  0055              	fcall _fun_CalOPA1Offset
 241  005C              #line 241 "c:\users\longshuangmin\desktop\worke_space\g-501\g-501\OpMode_Comm_CAL.C"
 241  005C              	fcall _fun_CalOPA2Offset
 242  0063              #line 242 "c:\users\longshuangmin\desktop\worke_space\g-501\g-501\OpMode_Comm_CAL.C"
 242  0063              	fcall _fun_CalOPA3Offset
 245  006A              #line 245 "c:\users\longshuangmin\desktop\worke_space\g-501\g-501\OpMode_Comm_CAL.C"
 245  006A  0F01        	mov a,1
 245  006B  0080     E  	mov _fun_DACVREFInit_2[0],a
 245  006C  1F00     E  	clr _fun_DACVREFInit_2[1]
 245  006D              	fcall _fun_DACVREFInit
 247  0074              #line 247 "c:\users\longshuangmin\desktop\worke_space\g-501\g-501\OpMode_Comm_CAL.C"
 247  0074  0F01        	mov a,1
 247  0075  0080     E  	mov _fun_DACnInit_2[0],a
 247  0076  1F00     E  	clr _fun_DACnInit_2[1]
 247  0077  0F01        	mov a,1
 247  0078              	fcall _fun_DACnInit
 253  007F              #line 253 "c:\users\longshuangmin\desktop\worke_space\g-501\g-501\OpMode_Comm_CAL.C"
 253  007F  0F00        	mov a,0
 253  0080              	fcall _LCD_Clear
 255  0087              #line 255 "c:\users\longshuangmin\desktop\worke_space\g-501\g-501\OpMode_Comm_CAL.C"
 255  0087  0F00        	mov a,0
 255  0088              	fcall _LCD_Clear
 257  008F              #line 257 "c:\users\longshuangmin\desktop\worke_space\g-501\g-501\OpMode_Comm_CAL.C"
 257  008F  36EF        	clr [111].5
 259  0090              #line 259 "c:\users\longshuangmin\desktop\worke_space\g-501\g-501\OpMode_Comm_CAL.C"
 259  0090  326F        	set [111].4
 260  0091              #line 260 "c:\users\longshuangmin\desktop\worke_space\g-501\g-501\OpMode_Comm_CAL.C"
 260  0091  306F        	set [111].0
 261  0092              #line 261 "c:\users\longshuangmin\desktop\worke_space\g-501\g-501\OpMode_Comm_CAL.C"
 261  0092  34F1        	clr [113].1
 261  0093  3071        	set [113].0
 262  0094              #line 262 "c:\users\longshuangmin\desktop\worke_space\g-501\g-501\OpMode_Comm_CAL.C"
文件：OpMode_Comm_CAL.C 编译器版本 HGASM 0202 页次7

 262  0094              	fcall _Measurement_Op1n1_Op1s1
 265  009B              #line 265 "c:\users\longshuangmin\desktop\worke_space\g-501\g-501\OpMode_Comm_CAL.C"
 265  009B  32ED        	set [109].5
 270  009C              #line 270 "c:\users\longshuangmin\desktop\worke_space\g-501\g-501\OpMode_Comm_CAL.C"
 270  009C  1F00     E  	clr _M_TaskBuf1[0]
 271  009D              #line 271 "c:\users\longshuangmin\desktop\worke_space\g-501\g-501\OpMode_Comm_CAL.C"
 271  009D  1F00     E  	clr _M_Cbuf0[0]
 272  009E              #line 272 "c:\users\longshuangmin\desktop\worke_space\g-501\g-501\OpMode_Comm_CAL.C"
 272  009E  1F00     E  	clr _M_RTC_display[0]
 272  009F  1F00     E  	clr _M_RTC_display[1]
 273  00A0              #line 273 "c:\users\longshuangmin\desktop\worke_space\g-501\g-501\OpMode_Comm_CAL.C"
 273  00A0  1F00     E  	clr _M_No_Active_Cnt[0]
 273  00A1  1F00     E  	clr _M_No_Active_Cnt[1]
 275  00A2              #line 275 "c:\users\longshuangmin\desktop\worke_space\g-501\g-501\OpMode_Comm_CAL.C"
 275  00A2  DF00 000E   	lclr [3712]
 276  00A4              #line 276 "c:\users\longshuangmin\desktop\worke_space\g-501\g-501\OpMode_Comm_CAL.C"
 276  00A4  DF03 000E   	lclr [3715]
 277  00A6              #line 277 "c:\users\longshuangmin\desktop\worke_space\g-501\g-501\OpMode_Comm_CAL.C"
 277  00A6  DF06 000E   	lclr [3718]
 278  00A8              #line 278 "c:\users\longshuangmin\desktop\worke_space\g-501\g-501\OpMode_Comm_CAL.C"
 278  00A8  DF07 000E   	lclr [3719]
 279  00AA              #line 279 "c:\users\longshuangmin\desktop\worke_space\g-501\g-501\OpMode_Comm_CAL.C"
 279  00AA  1480     E  	inc _M_TaskBuf0[0]
 281  00AB              #line 281 "c:\users\longshuangmin\desktop\worke_space\g-501\g-501\OpMode_Comm_CAL.C"
 281  00AB  3000     E  	set _Flag4[0].1
 282  00AC              #line 282 "c:\users\longshuangmin\desktop\worke_space\g-501\g-501\OpMode_Comm_CAL.C"
 282  00AC  0F01        	mov a,1
 282  00AD  C086 000E   	lmov [3718],a
 285  00AF              #line 285 "c:\users\longshuangmin\desktop\worke_space\g-501\g-501\OpMode_Comm_CAL.C"
 285  00AF  0F24        	mov a,36
 285  00B0  0080     E  	mov _memset_2[4],a
 285  00B1  1F00     E  	clr _memset_2[5]
 285  00B2  1F00     E  	clr _memset_2[2]
 285  00B3  1F00     E  	clr _memset_2[3]
 285  00B4  0F00     E  	mov a,low offset _lcd
 285  00B5  0080     E  	mov _memset_2[0],a
 285  00B6  0F00     E  	mov a,high offset _lcd
 285  00B7  0080     E  	mov _memset_2[1],a
 285  00B8              	fcall _memset
 286  00BF              #line 286 "c:\users\longshuangmin\desktop\worke_space\g-501\g-501\OpMode_Comm_CAL.C"
 286  00BF  0F00     R  	mov a,low offset _LC0
 286  00C0  0080     E  	mov _Show_BigString_2[0],a
 286  00C1  0F00     R  	mov a,high offset _LC0
 286  00C2  0080     E  	mov _Show_BigString_2[1],a
 286  00C3              	fcall _Show_BigString
 287  00CA              #line 287 "c:\users\longshuangmin\desktop\worke_space\g-501\g-501\OpMode_Comm_CAL.C"
 287  00CA  1F00     E  	clr _builtin_holtek_udivmodqi4_2[3]
 287  00CB  C729 000E   	lmov a,[3753]
 287  00CD  0080     E  	mov _builtin_holtek_udivmodqi4_2[0],a
 287  00CE  0F64        	mov a,100
 287  00CF  0080     E  	mov _builtin_holtek_udivmodqi4_2[1],a
 287  00D0              	fcall _builtin_holtek_udivmodqi4
 287  00D7  0700     E  	mov a,_builtin_holtek_udivmodqi4_2[0]
 287  00D8  0080     E  	mov ra,a
 287  00D9  1F00     E  	clr _builtin_holtek_udivmodqi4_2[3]
 287  00DA  C729 000E   	lmov a,[3753]
 287  00DC  0080     E  	mov _builtin_holtek_udivmodqi4_2[0],a
 287  00DD  0F64        	mov a,100
 287  00DE  0080     E  	mov _builtin_holtek_udivmodqi4_2[1],a
 287  00DF              	fcall _builtin_holtek_udivmodqi4
文件：OpMode_Comm_CAL.C 编译器版本 HGASM 0202 页次8

 287  00E6  0700     E  	mov a,_builtin_holtek_udivmodqi4_2[2]
 287  00E7  0080     E  	mov _Lcd_Clock_Process_2[0],a
 287  00E8  0700     E  	mov a,ra
 287  00E9              	fcall _Lcd_Clock_Process
 288  00F0              #line 288 "c:\users\longshuangmin\desktop\worke_space\g-501\g-501\OpMode_Comm_CAL.C"
 288  00F0  3000     E  	set _Flag2[0].1
 293  00F1              #line 293 "c:\users\longshuangmin\desktop\worke_space\g-501\g-501\OpMode_Comm_CAL.C"
 293  00F1  2800     R  	jmp _L17
 293  00F2              _L74:
 298  00F2              #line 298 "c:\users\longshuangmin\desktop\worke_space\g-501\g-501\OpMode_Comm_CAL.C"
 298  00F2              	fcall _uart_order
 302  00F9              #line 302 "c:\users\longshuangmin\desktop\worke_space\g-501\g-501\OpMode_Comm_CAL.C"
 302  00F9  DE06 000E   	lsnz [3718]
 302  00FB  2800     R  	jmp _L17
 304  00FC              #line 304 "c:\users\longshuangmin\desktop\worke_space\g-501\g-501\OpMode_Comm_CAL.C"
 304  00FC  1F00     E  	clr _M_No_Active_Cnt[0]
 304  00FD  1F00     E  	clr _M_No_Active_Cnt[1]
 305  00FE              #line 305 "c:\users\longshuangmin\desktop\worke_space\g-501\g-501\OpMode_Comm_CAL.C"
 305  00FE  C702 001E   	lmov a,[7810]
 305  0100  0080     R  	mov _TestingMode_2[0],a
 305  0101  0700     R  	mov a,_TestingMode_2[0]
 305  0102  0A01        	sub a,1
 305  0103  3D0A        	sz z
 305  0104  2800     R  	jmp _L22
 305  0105  0A01        	sub a,(2)-(1)
 305  0106  3D0A        	sz z
 305  0107  2800     R  	jmp _L23
 305  0108  0700     R  	mov a,_TestingMode_2[0]
 305  0109  0A03        	sub a,3
 305  010A  3D0A        	sz z
 305  010B  2800     R  	jmp _L24
 305  010C  0A01        	sub a,(4)-(3)
 305  010D  3D0A        	sz z
 305  010E  2800     R  	jmp _L25
 305  010F  0700     R  	mov a,_TestingMode_2[0]
 305  0110  0A05        	sub a,5
 305  0111  3D0A        	sz z
 305  0112  2800     R  	jmp _L26
 305  0113  0A01        	sub a,(6)-(5)
 305  0114  3D0A        	sz z
 305  0115  2800     R  	jmp _L27
 305  0116  0700     R  	mov a,_TestingMode_2[0]
 305  0117  0A07        	sub a,7
 305  0118  3D0A        	sz z
 305  0119  2800     R  	jmp _L28
 305  011A  0A01        	sub a,(8)-(7)
 305  011B  3D0A        	sz z
 305  011C  2800     R  	jmp _L29
 305  011D  0700     R  	mov a,_TestingMode_2[0]
 305  011E  0A09        	sub a,9
 305  011F  3D0A        	sz z
 305  0120  2800     R  	jmp _L30
 305  0121  0700     R  	mov a,_TestingMode_2[0]
 305  0122  0AEE        	sub a,238
 305  0123  390A        	snz z
 305  0124  2800     R  	jmp _L21
 788  0125              #line 788 "c:\users\longshuangmin\desktop\worke_space\g-501\g-501\OpMode_Comm_CAL.C"
 788  0125  0F55        	mov a,85
 788  0126  C080 001F   	lmov [8064],a
 789  0128              #line 789 "c:\users\longshuangmin\desktop\worke_space\g-501\g-501\OpMode_Comm_CAL.C"
文件：OpMode_Comm_CAL.C 编译器版本 HGASM 0202 页次9

 789  0128  0F07        	mov a,7
 789  0129  C081 001F   	lmov [8065],a
 790  012B              #line 790 "c:\users\longshuangmin\desktop\worke_space\g-501\g-501\OpMode_Comm_CAL.C"
 790  012B  C702 001E   	lmov a,[7810]
 790  012D  C082 001F   	lmov [8066],a
 791  012F              #line 791 "c:\users\longshuangmin\desktop\worke_space\g-501\g-501\OpMode_Comm_CAL.C"
 791  012F  DF03 001F   	lclr [8067]
 792  0131              #line 792 "c:\users\longshuangmin\desktop\worke_space\g-501\g-501\OpMode_Comm_CAL.C"
 792  0131  DF04 001F   	lclr [8068]
 792  0133  2800     R  	jmp _L73
 792  0134              _L22:
 310  0134              #line 310 "c:\users\longshuangmin\desktop\worke_space\g-501\g-501\OpMode_Comm_CAL.C"
 310  0134  0F55        	mov a,85
 310  0135  C080 001F   	lmov [8064],a
 311  0137              #line 311 "c:\users\longshuangmin\desktop\worke_space\g-501\g-501\OpMode_Comm_CAL.C"
 311  0137  0F07        	mov a,7
 311  0138  C081 001F   	lmov [8065],a
 313  013A              #line 313 "c:\users\longshuangmin\desktop\worke_space\g-501\g-501\OpMode_Comm_CAL.C"
 313  013A  DF00 000A   	lclr [2688]
 313  013C              _L32:
 313  013C  0F08        	mov a,8
 313  013D  C200 000A   	lsub a,[2688]
 313  013F  380A        	snz c
 313  0140  2800     R  	jmp _L75
 314  0141              #line 314 "c:\users\longshuangmin\desktop\worke_space\g-501\g-501\OpMode_Comm_CAL.C"
 314  0141  0F83        	mov a,low (offset _M_UART_RxFIFO+3)
 314  0142  C300 000A   	ladd a,[2688]
 314  0144  0083        	mov mp,a
 314  0145  0F1E        	mov a,high (offset _M_UART_RxFIFO+3)
 314  0146  1F04        	clr sbp
 314  0147  1384        	adcm a,sbp
 314  0148              	fcall _Crom2Prom
 314  014F  0080     E  	mov ra,a
 314  0150  0FA0        	mov a,low offset _Calibration
 314  0151  C300 000A   	ladd a,[2688]
 314  0153  0083        	mov mp,a
 314  0154  0F0E        	mov a,high offset _Calibration
 314  0155  1F04        	clr sbp
 314  0156  1384        	adcm a,sbp
 314  0157  0700     E  	mov a,ra
 314  0158  0082        	mov ir,a
 313  0159              #line 313 "c:\users\longshuangmin\desktop\worke_space\g-501\g-501\OpMode_Comm_CAL.C"
 313  0159  D480 000A   	linc [2688]
 313  015B  2800     R  	jmp _L32
 313  015C              _L75:
 316  015C              #line 316 "c:\users\longshuangmin\desktop\worke_space\g-501\g-501\OpMode_Comm_CAL.C"
 316  015C  C702 001E   	lmov a,[7810]
 316  015E  C082 001F   	lmov [8066],a
 318  0160              #line 318 "c:\users\longshuangmin\desktop\worke_space\g-501\g-501\OpMode_Comm_CAL.C"
 318  0160  2800     R  	jmp _L21
 318  0161              _L23:
 322  0161              #line 322 "c:\users\longshuangmin\desktop\worke_space\g-501\g-501\OpMode_Comm_CAL.C"
 322  0161  D703 001E   	lsdza [7811]
 322  0163  2800     R  	jmp _L34
 324  0164              #line 324 "c:\users\longshuangmin\desktop\worke_space\g-501\g-501\OpMode_Comm_CAL.C"
 324  0164  D4A9 000E   	linc [3753]
 324  0166              _L34:
 327  0166              #line 327 "c:\users\longshuangmin\desktop\worke_space\g-501\g-501\OpMode_Comm_CAL.C"
 327  0166  C703 001E   	lmov a,[7811]
 327  0168  0A02        	sub a,2
文件：OpMode_Comm_CAL.C 编译器版本 HGASM 0202 页次10

 327  0169  390A        	snz z
 327  016A  2800     R  	jmp _L35
 329  016B              #line 329 "c:\users\longshuangmin\desktop\worke_space\g-501\g-501\OpMode_Comm_CAL.C"
 329  016B  D5A9 000E   	ldec [3753]
 329  016D              _L35:
 331  016D              #line 331 "c:\users\longshuangmin\desktop\worke_space\g-501\g-501\OpMode_Comm_CAL.C"
 331  016D  C729 000E   	lmov a,[3753]
 331  016F  00EC        	mov [108],a
 333  0170              #line 333 "c:\users\longshuangmin\desktop\worke_space\g-501\g-501\OpMode_Comm_CAL.C"
 333  0170  1F00     E  	clr _M_Unit[0]
 334  0171              #line 334 "c:\users\longshuangmin\desktop\worke_space\g-501\g-501\OpMode_Comm_CAL.C"
 334  0171  0F24        	mov a,36
 334  0172  0080     E  	mov _memset_2[4],a
 334  0173  1F00     E  	clr _memset_2[5]
 334  0174  1F00     E  	clr _memset_2[2]
 334  0175  1F00     E  	clr _memset_2[3]
 334  0176  0F00     E  	mov a,low offset _lcd
 334  0177  0080     E  	mov _memset_2[0],a
 334  0178  0F00     E  	mov a,high offset _lcd
 334  0179  0080     E  	mov _memset_2[1],a
 334  017A              	fcall _memset
 335  0181              #line 335 "c:\users\longshuangmin\desktop\worke_space\g-501\g-501\OpMode_Comm_CAL.C"
 335  0181  0F00     R  	mov a,low offset _LC0
 335  0182  0080     E  	mov _Show_BigString_2[0],a
 335  0183  0F00     R  	mov a,high offset _LC0
 335  0184  0080     E  	mov _Show_BigString_2[1],a
 335  0185              	fcall _Show_BigString
 336  018C              #line 336 "c:\users\longshuangmin\desktop\worke_space\g-501\g-501\OpMode_Comm_CAL.C"
 336  018C  1F00     E  	clr _builtin_holtek_udivmodqi4_2[3]
 336  018D  C729 000E   	lmov a,[3753]
 336  018F  0080     E  	mov _builtin_holtek_udivmodqi4_2[0],a
 336  0190  0F64        	mov a,100
 336  0191  0080     E  	mov _builtin_holtek_udivmodqi4_2[1],a
 336  0192              	fcall _builtin_holtek_udivmodqi4
 336  0199  0700     E  	mov a,_builtin_holtek_udivmodqi4_2[0]
 336  019A  0080     E  	mov ra,a
 336  019B  1F00     E  	clr _builtin_holtek_udivmodqi4_2[3]
 336  019C  C729 000E   	lmov a,[3753]
 336  019E  0080     E  	mov _builtin_holtek_udivmodqi4_2[0],a
 336  019F  0F64        	mov a,100
 336  01A0  0080     E  	mov _builtin_holtek_udivmodqi4_2[1],a
 336  01A1              	fcall _builtin_holtek_udivmodqi4
 336  01A8  0700     E  	mov a,_builtin_holtek_udivmodqi4_2[2]
 336  01A9  0080     E  	mov _Lcd_Clock_Process_2[0],a
 336  01AA  0700     E  	mov a,ra
 336  01AB              	fcall _Lcd_Clock_Process
 338  01B2              #line 338 "c:\users\longshuangmin\desktop\worke_space\g-501\g-501\OpMode_Comm_CAL.C"
 338  01B2  3000     E  	set _Flag2[0].1
 341  01B3              #line 341 "c:\users\longshuangmin\desktop\worke_space\g-501\g-501\OpMode_Comm_CAL.C"
 341  01B3  0F55        	mov a,85
 341  01B4  C080 001F   	lmov [8064],a
 342  01B6              #line 342 "c:\users\longshuangmin\desktop\worke_space\g-501\g-501\OpMode_Comm_CAL.C"
 342  01B6  0F07        	mov a,7
 342  01B7  C081 001F   	lmov [8065],a
 344  01B9              #line 344 "c:\users\longshuangmin\desktop\worke_space\g-501\g-501\OpMode_Comm_CAL.C"
 344  01B9  C702 001E   	lmov a,[7810]
 344  01BB  C082 001F   	lmov [8066],a
 346  01BD              #line 346 "c:\users\longshuangmin\desktop\worke_space\g-501\g-501\OpMode_Comm_CAL.C"
 346  01BD  076C        	mov a,[108]
 346  01BE  C083 001F   	lmov [8067],a
文件：OpMode_Comm_CAL.C 编译器版本 HGASM 0202 页次11

 347  01C0              #line 347 "c:\users\longshuangmin\desktop\worke_space\g-501\g-501\OpMode_Comm_CAL.C"
 347  01C0  DF04 001F   	lclr [8068]
 347  01C2  2800     R  	jmp _L69
 347  01C3              _L24:
 360  01C3              #line 360 "c:\users\longshuangmin\desktop\worke_space\g-501\g-501\OpMode_Comm_CAL.C"
 360  01C3  D703 001E   	lsdza [7811]
 360  01C5  2800     R  	jmp _L36
 362  01C6              #line 362 "c:\users\longshuangmin\desktop\worke_space\g-501\g-501\OpMode_Comm_CAL.C"
 362  01C6  0FFF        	mov a,255
 362  01C7  C3AA 000E   	laddm a,[3754]
 362  01C9  0FFF        	mov a,255
 362  01CA  D3AB 000E   	ladcm a,[3755]
 362  01CC              _L36:
 365  01CC              #line 365 "c:\users\longshuangmin\desktop\worke_space\g-501\g-501\OpMode_Comm_CAL.C"
 365  01CC  C703 001E   	lmov a,[7811]
 365  01CE  0A02        	sub a,2
 365  01CF  390A        	snz z
 365  01D0  2800     R  	jmp _L37
 367  01D1              #line 367 "c:\users\longshuangmin\desktop\worke_space\g-501\g-501\OpMode_Comm_CAL.C"
 367  01D1  D4AA 000E   	linc [3754]
 367  01D3  3D0A        	sz z
 367  01D4  D4AB 000E   	linc [3755]
 367  01D6              _L37:
 370  01D6              #line 370 "c:\users\longshuangmin\desktop\worke_space\g-501\g-501\OpMode_Comm_CAL.C"
 370  01D6  D12B 000E   	lswapa [3755]
 370  01D8  0EF0        	and a,0f0h
 370  01D9  0080     E  	mov rc,a
 370  01DA  D12A 000E   	lswapa [3754]
 370  01DC  0E0F        	and a,0fh
 370  01DD  0580     E  	orm a,rc
 370  01DE  D12A 000E   	lswapa [3754]
 370  01E0  0EF0        	and a,0f0h
 370  01E1  0080     E  	mov rb,a
 371  01E2              #line 371 "c:\users\longshuangmin\desktop\worke_space\g-501\g-501\OpMode_Comm_CAL.C"
 371  01E2  0700     E  	mov a,rb
 371  01E3  00F3        	mov [115],a
 372  01E4              #line 372 "c:\users\longshuangmin\desktop\worke_space\g-501\g-501\OpMode_Comm_CAL.C"
 372  01E4  0700     E  	mov a,rc
 372  01E5  00F4        	mov [116],a
 373  01E6              #line 373 "c:\users\longshuangmin\desktop\worke_space\g-501\g-501\OpMode_Comm_CAL.C"
 373  01E6  C72A 000E   	lmov a,[3754]
 373  01E8  C0AC 000E   	lmov [3756],a
 373  01EA  C72B 000E   	lmov a,[3755]
 373  01EC  C0AD 000E   	lmov [3757],a
 374  01EE              #line 374 "c:\users\longshuangmin\desktop\worke_space\g-501\g-501\OpMode_Comm_CAL.C"
 374  01EE  C72A 000E   	lmov a,[3754]
 374  01F0  0080     E  	mov rb,a
 374  01F1  C72B 000E   	lmov a,[3755]
 374  01F3  0080     E  	mov rc,a
 374  01F4  340A        	clr c
 374  01F5  1B80     E  	rrc rc
 374  01F6  1B80     E  	rrc rb
 374  01F7  0700     E  	mov a,rb
 374  01F8  C3AC 000E   	laddm a,[3756]
 374  01FA  0700     E  	mov a,rc
 374  01FB  D3AD 000E   	ladcm a,[3757]
 376  01FD              #line 376 "c:\users\longshuangmin\desktop\worke_space\g-501\g-501\OpMode_Comm_CAL.C"
 376  01FD  1F00     E  	clr _M_Unit[0]
 378  01FE              #line 378 "c:\users\longshuangmin\desktop\worke_space\g-501\g-501\OpMode_Comm_CAL.C"
 378  01FE  0F24        	mov a,36
文件：OpMode_Comm_CAL.C 编译器版本 HGASM 0202 页次12

 378  01FF  0080     E  	mov _memset_2[4],a
 378  0200  1F00     E  	clr _memset_2[5]
 378  0201  1F00     E  	clr _memset_2[2]
 378  0202  1F00     E  	clr _memset_2[3]
 378  0203  0F00     E  	mov a,low offset _lcd
 378  0204  0080     E  	mov _memset_2[0],a
 378  0205  0F00     E  	mov a,high offset _lcd
 378  0206  0080     E  	mov _memset_2[1],a
 378  0207              	fcall _memset
 379  020E              #line 379 "c:\users\longshuangmin\desktop\worke_space\g-501\g-501\OpMode_Comm_CAL.C"
 379  020E  0F00     R  	mov a,low offset _LC1
 379  020F  0080     E  	mov _Show_BigString_2[0],a
 379  0210  0F00     R  	mov a,high offset _LC1
 379  0211  0080     E  	mov _Show_BigString_2[1],a
 379  0212              	fcall _Show_BigString
 380  0219              #line 380 "c:\users\longshuangmin\desktop\worke_space\g-501\g-501\OpMode_Comm_CAL.C"
 380  0219  1B20        	rrca intc
 380  021A  3420        	clr intc.0
 380  021B  C72A 000E   	lmov a,[3754]
 380  021D  00D9        	mov mduwr0,a
 380  021E  C72B 000E   	lmov a,[3755]
 380  0220  00DA        	mov mduwr1,a
 380  0221  0F64        	mov a,100
 380  0222  00DD        	mov mduwr4,a
 380  0223  0F00        	mov a,0
 380  0224  00DE        	mov mduwr5,a
 380  0225  0F06        	mov a,6
 380  0226              _LI2:
 380  0226  1785        	sdz acc
 380  0227  2800     R  	jmp _LI2
 380  0228  0759        	mov a,mduwr0
 380  0229  0080     E  	mov rb,a
 380  022A  075A        	mov a,mduwr1
 380  022B  0080     E  	mov rc,a
 380  022C  3C0A        	sz c
 380  022D  3020        	set intc.0
 380  022E  1B20        	rrca intc
 380  022F  3420        	clr intc.0
 380  0230  C72A 000E   	lmov a,[3754]
 380  0232  00D9        	mov mduwr0,a
 380  0233  C72B 000E   	lmov a,[3755]
 380  0235  00DA        	mov mduwr1,a
 380  0236  0F64        	mov a,100
 380  0237  00DD        	mov mduwr4,a
 380  0238  0F00        	mov a,0
 380  0239  00DE        	mov mduwr5,a
 380  023A  0F06        	mov a,6
 380  023B              _LI3:
 380  023B  1785        	sdz acc
 380  023C  2800     R  	jmp _LI3
 380  023D  075D        	mov a,mduwr4
 380  023E  0080     E  	mov rd,a
 380  023F  075E        	mov a,mduwr5
 380  0240  0080     E  	mov re,a
 380  0241  3C0A        	sz c
 380  0242  3020        	set intc.0
 380  0243  0700     E  	mov a,rd
 380  0244  0080     E  	mov _Lcd_Clock_Process_2[0],a
 380  0245  0700     E  	mov a,rb
 380  0246              	fcall _Lcd_Clock_Process
文件：OpMode_Comm_CAL.C 编译器版本 HGASM 0202 页次13

 382  024D              #line 382 "c:\users\longshuangmin\desktop\worke_space\g-501\g-501\OpMode_Comm_CAL.C"
 382  024D  3000     E  	set _Flag2[0].1
 385  024E              #line 385 "c:\users\longshuangmin\desktop\worke_space\g-501\g-501\OpMode_Comm_CAL.C"
 385  024E  0F55        	mov a,85
 385  024F  C080 001F   	lmov [8064],a
 386  0251              #line 386 "c:\users\longshuangmin\desktop\worke_space\g-501\g-501\OpMode_Comm_CAL.C"
 386  0251  0F07        	mov a,7
 386  0252  C081 001F   	lmov [8065],a
 387  0254              #line 387 "c:\users\longshuangmin\desktop\worke_space\g-501\g-501\OpMode_Comm_CAL.C"
 387  0254  C702 001E   	lmov a,[7810]
 387  0256  C082 001F   	lmov [8066],a
 388  0258              #line 388 "c:\users\longshuangmin\desktop\worke_space\g-501\g-501\OpMode_Comm_CAL.C"
 388  0258  C72A 000E   	lmov a,[3754]
 388  025A  0080     E  	mov rb,a
 388  025B  C72B 000E   	lmov a,[3755]
 388  025D  0080     E  	mov rc,a
 388  025E  0700     E  	mov a,rb
 388  025F  C083 001F   	lmov [8067],a
 389  0261              #line 389 "c:\users\longshuangmin\desktop\worke_space\g-501\g-501\OpMode_Comm_CAL.C"
 389  0261  C72A 000E   	lmov a,[3754]
 389  0263  0080     E  	mov rb,a
 389  0264  C72B 000E   	lmov a,[3755]
 389  0266  0080     E  	mov rc,a
 389  0267              _L71:
 389  0267  0700     E  	mov a,rc
 389  0268  C084 001F   	lmov [8068],a
 389  026A              _L69:
 390  026A              #line 390 "c:\users\longshuangmin\desktop\worke_space\g-501\g-501\OpMode_Comm_CAL.C"
 390  026A  DF05 001F   	lclr [8069]
 391  026C              #line 391 "c:\users\longshuangmin\desktop\worke_space\g-501\g-501\OpMode_Comm_CAL.C"
 391  026C  DF06 001F   	lclr [8070]
 393  026E              #line 393 "c:\users\longshuangmin\desktop\worke_space\g-501\g-501\OpMode_Comm_CAL.C"
 393  026E  2800     R  	jmp _L21
 393  026F              _L25:
 400  026F              #line 400 "c:\users\longshuangmin\desktop\worke_space\g-501\g-501\OpMode_Comm_CAL.C"
 400  026F  D703 001E   	lsdza [7811]
 400  0271  2800     R  	jmp _L38
 402  0272              #line 402 "c:\users\longshuangmin\desktop\worke_space\g-501\g-501\OpMode_Comm_CAL.C"
 402  0272  0FFF        	mov a,255
 402  0273  C3AC 000E   	laddm a,[3756]
 402  0275  0FFF        	mov a,255
 402  0276  D3AD 000E   	ladcm a,[3757]
 402  0278              _L38:
 405  0278              #line 405 "c:\users\longshuangmin\desktop\worke_space\g-501\g-501\OpMode_Comm_CAL.C"
 405  0278  C703 001E   	lmov a,[7811]
 405  027A  0A02        	sub a,2
 405  027B  390A        	snz z
 405  027C  2800     R  	jmp _L39
 407  027D              #line 407 "c:\users\longshuangmin\desktop\worke_space\g-501\g-501\OpMode_Comm_CAL.C"
 407  027D  D4AC 000E   	linc [3756]
 407  027F  3D0A        	sz z
 407  0280  D4AD 000E   	linc [3757]
 407  0282              _L39:
 410  0282              #line 410 "c:\users\longshuangmin\desktop\worke_space\g-501\g-501\OpMode_Comm_CAL.C"
 410  0282  D12D 000E   	lswapa [3757]
 410  0284  0EF0        	and a,0f0h
 410  0285  0080     E  	mov rc,a
 410  0286  D12C 000E   	lswapa [3756]
 410  0288  0E0F        	and a,0fh
 410  0289  0580     E  	orm a,rc
文件：OpMode_Comm_CAL.C 编译器版本 HGASM 0202 页次14

 410  028A  D12C 000E   	lswapa [3756]
 410  028C  0EF0        	and a,0f0h
 410  028D  0080     E  	mov rb,a
 411  028E              #line 411 "c:\users\longshuangmin\desktop\worke_space\g-501\g-501\OpMode_Comm_CAL.C"
 411  028E  0700     E  	mov a,rb
 411  028F  00F3        	mov [115],a
 412  0290              #line 412 "c:\users\longshuangmin\desktop\worke_space\g-501\g-501\OpMode_Comm_CAL.C"
 412  0290  0700     E  	mov a,rc
 412  0291  00F4        	mov [116],a
 415  0292              #line 415 "c:\users\longshuangmin\desktop\worke_space\g-501\g-501\OpMode_Comm_CAL.C"
 415  0292  1F00     E  	clr _M_Unit[0]
 417  0293              #line 417 "c:\users\longshuangmin\desktop\worke_space\g-501\g-501\OpMode_Comm_CAL.C"
 417  0293  0F24        	mov a,36
 417  0294  0080     E  	mov _memset_2[4],a
 417  0295  1F00     E  	clr _memset_2[5]
 417  0296  1F00     E  	clr _memset_2[2]
 417  0297  1F00     E  	clr _memset_2[3]
 417  0298  0F00     E  	mov a,low offset _lcd
 417  0299  0080     E  	mov _memset_2[0],a
 417  029A  0F00     E  	mov a,high offset _lcd
 417  029B  0080     E  	mov _memset_2[1],a
 417  029C              	fcall _memset
 418  02A3              #line 418 "c:\users\longshuangmin\desktop\worke_space\g-501\g-501\OpMode_Comm_CAL.C"
 418  02A3  0F00     R  	mov a,low offset _LC2
 418  02A4  0080     E  	mov _Show_BigString_2[0],a
 418  02A5  0F00     R  	mov a,high offset _LC2
 418  02A6  0080     E  	mov _Show_BigString_2[1],a
 418  02A7              	fcall _Show_BigString
 419  02AE              #line 419 "c:\users\longshuangmin\desktop\worke_space\g-501\g-501\OpMode_Comm_CAL.C"
 419  02AE  1B20        	rrca intc
 419  02AF  3420        	clr intc.0
 419  02B0  C72C 000E   	lmov a,[3756]
 419  02B2  00D9        	mov mduwr0,a
 419  02B3  C72D 000E   	lmov a,[3757]
 419  02B5  00DA        	mov mduwr1,a
 419  02B6  0F64        	mov a,100
 419  02B7  00DD        	mov mduwr4,a
 419  02B8  0F00        	mov a,0
 419  02B9  00DE        	mov mduwr5,a
 419  02BA  0F06        	mov a,6
 419  02BB              _LI4:
 419  02BB  1785        	sdz acc
 419  02BC  2800     R  	jmp _LI4
 419  02BD  0759        	mov a,mduwr0
 419  02BE  0080     E  	mov rb,a
 419  02BF  075A        	mov a,mduwr1
 419  02C0  0080     E  	mov rc,a
 419  02C1  3C0A        	sz c
 419  02C2  3020        	set intc.0
 419  02C3  1B20        	rrca intc
 419  02C4  3420        	clr intc.0
 419  02C5  C72C 000E   	lmov a,[3756]
 419  02C7  00D9        	mov mduwr0,a
 419  02C8  C72D 000E   	lmov a,[3757]
 419  02CA  00DA        	mov mduwr1,a
 419  02CB  0F64        	mov a,100
 419  02CC  00DD        	mov mduwr4,a
 419  02CD  0F00        	mov a,0
 419  02CE  00DE        	mov mduwr5,a
 419  02CF  0F06        	mov a,6
文件：OpMode_Comm_CAL.C 编译器版本 HGASM 0202 页次15

 419  02D0              _LI5:
 419  02D0  1785        	sdz acc
 419  02D1  2800     R  	jmp _LI5
 419  02D2  075D        	mov a,mduwr4
 419  02D3  0080     E  	mov rd,a
 419  02D4  075E        	mov a,mduwr5
 419  02D5  0080     E  	mov re,a
 419  02D6  3C0A        	sz c
 419  02D7  3020        	set intc.0
 419  02D8  0700     E  	mov a,rd
 419  02D9  0080     E  	mov _Lcd_Clock_Process_2[0],a
 419  02DA  0700     E  	mov a,rb
 419  02DB              	fcall _Lcd_Clock_Process
 421  02E2              #line 421 "c:\users\longshuangmin\desktop\worke_space\g-501\g-501\OpMode_Comm_CAL.C"
 421  02E2  3000     E  	set _Flag2[0].1
 424  02E3              #line 424 "c:\users\longshuangmin\desktop\worke_space\g-501\g-501\OpMode_Comm_CAL.C"
 424  02E3  0F55        	mov a,85
 424  02E4  C080 001F   	lmov [8064],a
 425  02E6              #line 425 "c:\users\longshuangmin\desktop\worke_space\g-501\g-501\OpMode_Comm_CAL.C"
 425  02E6  0F07        	mov a,7
 425  02E7  C081 001F   	lmov [8065],a
 426  02E9              #line 426 "c:\users\longshuangmin\desktop\worke_space\g-501\g-501\OpMode_Comm_CAL.C"
 426  02E9  C702 001E   	lmov a,[7810]
 426  02EB  C082 001F   	lmov [8066],a
 427  02ED              #line 427 "c:\users\longshuangmin\desktop\worke_space\g-501\g-501\OpMode_Comm_CAL.C"
 427  02ED  C72C 000E   	lmov a,[3756]
 427  02EF  0080     E  	mov rb,a
 427  02F0  C72D 000E   	lmov a,[3757]
 427  02F2  0080     E  	mov rc,a
 427  02F3  0700     E  	mov a,rb
 427  02F4  C083 001F   	lmov [8067],a
 428  02F6              #line 428 "c:\users\longshuangmin\desktop\worke_space\g-501\g-501\OpMode_Comm_CAL.C"
 428  02F6  C72C 000E   	lmov a,[3756]
 428  02F8  0080     E  	mov rb,a
 428  02F9  C72D 000E   	lmov a,[3757]
 428  02FB  0080     E  	mov rc,a
 428  02FC  2800     R  	jmp _L71
 428  02FD              _L26:
 439  02FD              #line 439 "c:\users\longshuangmin\desktop\worke_space\g-501\g-501\OpMode_Comm_CAL.C"
 439  02FD  C707 000E   	lmov a,[3719]
 439  02FF  0080     R  	mov _TestingMode_2[0],a
 439  0300  0700     R  	mov a,_TestingMode_2[0]
 439  0301  0A00        	sub a,0
 439  0302  3D0A        	sz z
 439  0303  2800     R  	jmp _L40
 439  0304  0A01        	sub a,(1)-(0)
 439  0305  3D0A        	sz z
 439  0306  2800     R  	jmp _L41
 439  0307  0700     R  	mov a,_TestingMode_2[0]
 439  0308  0A02        	sub a,2
 439  0309  390A        	snz z
 439  030A  2800     R  	jmp _L21
 569  030B              #line 569 "c:\users\longshuangmin\desktop\worke_space\g-501\g-501\OpMode_Comm_CAL.C"
 569  030B  DF00 000A   	lclr [2688]
 570  030D              #line 570 "c:\users\longshuangmin\desktop\worke_space\g-501\g-501\OpMode_Comm_CAL.C"
 570  030D  DF00 0009   	lclr [2432]
 570  030F  DF01 0009   	lclr [2433]
 570  0311  DF02 0009   	lclr [2434]
 570  0313  DF03 0009   	lclr [2435]
 571  0315              #line 571 "c:\users\longshuangmin\desktop\worke_space\g-501\g-501\OpMode_Comm_CAL.C"
文件：OpMode_Comm_CAL.C 编译器版本 HGASM 0202 页次16

 571  0315  DF00 000A   	lclr [2688]
 571  0317  2800     R  	jmp _L47
 571  0318              _L40:
 443  0318              #line 443 "c:\users\longshuangmin\desktop\worke_space\g-501\g-501\OpMode_Comm_CAL.C"
 443  0318  C704 001E   	lmov a,[7812]
 443  031A  C0FC 0012   	lmov [4860],a
 443  031C  DF7D 0012   	lclr [4861]
 444  031E              #line 444 "c:\users\longshuangmin\desktop\worke_space\g-501\g-501\OpMode_Comm_CAL.C"
 444  031E  C77C 0012   	lmov a,[4860]
 444  0320  C0FD 0012   	lmov [4861],a
 444  0322  DF7C 0012   	lclr [4860]
 445  0324              #line 445 "c:\users\longshuangmin\desktop\worke_space\g-501\g-501\OpMode_Comm_CAL.C"
 445  0324  C703 001E   	lmov a,[7811]
 445  0326  C3FC 0012   	laddm a,[4860]
 445  0328  3C0A        	sz c
 445  0329  D4FD 0012   	linc [4861]
 449  032B              #line 449 "c:\users\longshuangmin\desktop\worke_space\g-501\g-501\OpMode_Comm_CAL.C"
 449  032B  3020        	set [32].0
 453  032C              #line 453 "c:\users\longshuangmin\desktop\worke_space\g-501\g-501\OpMode_Comm_CAL.C"
 453  032C  D12B 000E   	lswapa [3755]
 453  032E  0EF0        	and a,0f0h
 453  032F  0080     E  	mov rc,a
 453  0330  D12A 000E   	lswapa [3754]
 453  0332  0E0F        	and a,0fh
 453  0333  0580     E  	orm a,rc
 453  0334  D12A 000E   	lswapa [3754]
 453  0336  0EF0        	and a,0f0h
 453  0337  0080     E  	mov rb,a
 454  0338              #line 454 "c:\users\longshuangmin\desktop\worke_space\g-501\g-501\OpMode_Comm_CAL.C"
 454  0338  0700     E  	mov a,rb
 454  0339  00F3        	mov [115],a
 455  033A              #line 455 "c:\users\longshuangmin\desktop\worke_space\g-501\g-501\OpMode_Comm_CAL.C"
 455  033A  0700     E  	mov a,rc
 455  033B  00F4        	mov [116],a
 457  033C              #line 457 "c:\users\longshuangmin\desktop\worke_space\g-501\g-501\OpMode_Comm_CAL.C"
 457  033C              	fcall _fun_UART0PowerOnInit
 460  0343              #line 460 "c:\users\longshuangmin\desktop\worke_space\g-501\g-501\OpMode_Comm_CAL.C"
 460  0343  0F01        	mov a,1
 460  0344  0080     E  	mov _fun_DACVREFInit_2[0],a
 460  0345  1F00     E  	clr _fun_DACVREFInit_2[1]
 460  0346              	fcall _fun_DACVREFInit
 462  034D              #line 462 "c:\users\longshuangmin\desktop\worke_space\g-501\g-501\OpMode_Comm_CAL.C"
 462  034D  0F01        	mov a,1
 462  034E  0080     E  	mov _fun_DACnInit_2[0],a
 462  034F  1F00     E  	clr _fun_DACnInit_2[1]
 462  0350  0F01        	mov a,1
 462  0351              	fcall _fun_DACnInit
 473  0358              #line 473 "c:\users\longshuangmin\desktop\worke_space\g-501\g-501\OpMode_Comm_CAL.C"
 473  0358              	fcall _fun_CalOPA1Offset
 474  035F              #line 474 "c:\users\longshuangmin\desktop\worke_space\g-501\g-501\OpMode_Comm_CAL.C"
 474  035F              	fcall _fun_CalOPA2Offset
 475  0366              #line 475 "c:\users\longshuangmin\desktop\worke_space\g-501\g-501\OpMode_Comm_CAL.C"
 475  0366              	fcall _fun_CalOPA3Offset
 478  036D              #line 478 "c:\users\longshuangmin\desktop\worke_space\g-501\g-501\OpMode_Comm_CAL.C"
 478  036D  0F01        	mov a,1
 478  036E  0080     E  	mov _fun_DACVREFInit_2[0],a
 478  036F  1F00     E  	clr _fun_DACVREFInit_2[1]
 478  0370              	fcall _fun_DACVREFInit
 480  0377              #line 480 "c:\users\longshuangmin\desktop\worke_space\g-501\g-501\OpMode_Comm_CAL.C"
 480  0377  0F01        	mov a,1
文件：OpMode_Comm_CAL.C 编译器版本 HGASM 0202 页次17

 480  0378  0080     E  	mov _fun_DACnInit_2[0],a
 480  0379  1F00     E  	clr _fun_DACnInit_2[1]
 480  037A  0F01        	mov a,1
 480  037B              	fcall _fun_DACnInit
 483  0382              #line 483 "c:\users\longshuangmin\desktop\worke_space\g-501\g-501\OpMode_Comm_CAL.C"
 483  0382              	fcall _fun_ADCStop
 484  0389              #line 484 "c:\users\longshuangmin\desktop\worke_space\g-501\g-501\OpMode_Comm_CAL.C"
 484  0389  1F78        	clr [120]
 485  038A              #line 485 "c:\users\longshuangmin\desktop\worke_space\g-501\g-501\OpMode_Comm_CAL.C"
 485  038A  37FB        	clr [123].7
 485  038B  36FC        	clr [124].5
 486  038C              #line 486 "c:\users\longshuangmin\desktop\worke_space\g-501\g-501\OpMode_Comm_CAL.C"
 486  038C              	fcall _fun_StripModuleAllOpen
 487  0393              #line 487 "c:\users\longshuangmin\desktop\worke_space\g-501\g-501\OpMode_Comm_CAL.C"
 487  0393  34F1        	clr [113].1
 487  0394  3471        	clr [113].0
 488  0395              #line 488 "c:\users\longshuangmin\desktop\worke_space\g-501\g-501\OpMode_Comm_CAL.C"
 488  0395  35F1        	clr [113].3
 488  0396  3571        	clr [113].2
 489  0397              #line 489 "c:\users\longshuangmin\desktop\worke_space\g-501\g-501\OpMode_Comm_CAL.C"
 489  0397  3678        	clr [120].4
 490  0398              #line 490 "c:\users\longshuangmin\desktop\worke_space\g-501\g-501\OpMode_Comm_CAL.C"
 490  0398  35FF        	clr [127].3
 491  0399              #line 491 "c:\users\longshuangmin\desktop\worke_space\g-501\g-501\OpMode_Comm_CAL.C"
 491  0399  357F        	clr [127].2
 494  039A              #line 494 "c:\users\longshuangmin\desktop\worke_space\g-501\g-501\OpMode_Comm_CAL.C"
 494  039A  3215        	set [21].4
 495  039B              #line 495 "c:\users\longshuangmin\desktop\worke_space\g-501\g-501\OpMode_Comm_CAL.C"
 495  039B  3616        	clr [22].4
 497  039C              #line 497 "c:\users\longshuangmin\desktop\worke_space\g-501\g-501\OpMode_Comm_CAL.C"
 497  039C  3596        	clr [22].3
 518  039D              #line 518 "c:\users\longshuangmin\desktop\worke_space\g-501\g-501\OpMode_Comm_CAL.C"
 518  039D              	fcall _InitADC_Op1n1_Op1s1
 520  03A4              #line 520 "c:\users\longshuangmin\desktop\worke_space\g-501\g-501\OpMode_Comm_CAL.C"
 520  03A4  3170        	set [112].2
 520  03A5  34F0        	clr [112].1
 520  03A6  3470        	clr [112].0
 522  03A7              #line 522 "c:\users\longshuangmin\desktop\worke_space\g-501\g-501\OpMode_Comm_CAL.C"
 522  03A7              	fcall _fun_ADCStart
 524  03AE              #line 524 "c:\users\longshuangmin\desktop\worke_space\g-501\g-501\OpMode_Comm_CAL.C"
 524  03AE  3170        	set [112].2
 524  03AF  34F0        	clr [112].1
 524  03B0  3470        	clr [112].0
 525  03B1              #line 525 "c:\users\longshuangmin\desktop\worke_space\g-501\g-501\OpMode_Comm_CAL.C"
 525  03B1  32F0        	set [112].5
 525  03B2  3670        	clr [112].4
 525  03B3  35F0        	clr [112].3
 531  03B4              #line 531 "c:\users\longshuangmin\desktop\worke_space\g-501\g-501\OpMode_Comm_CAL.C"
 531  03B4  D487 000E   	linc [3719]
 532  03B6              #line 532 "c:\users\longshuangmin\desktop\worke_space\g-501\g-501\OpMode_Comm_CAL.C"
 532  03B6  DF06 000E   	lclr [3718]
 533  03B8              #line 533 "c:\users\longshuangmin\desktop\worke_space\g-501\g-501\OpMode_Comm_CAL.C"
 533  03B8  DF13 000E   	lclr [3731]
 534  03BA              #line 534 "c:\users\longshuangmin\desktop\worke_space\g-501\g-501\OpMode_Comm_CAL.C"
 534  03BA  2800     R  	jmp _L21
 534  03BB              _L41:
 540  03BB              #line 540 "c:\users\longshuangmin\desktop\worke_space\g-501\g-501\OpMode_Comm_CAL.C"
 540  03BB  DF06 000E   	lclr [3718]
 541  03BD              #line 541 "c:\users\longshuangmin\desktop\worke_space\g-501\g-501\OpMode_Comm_CAL.C"
 541  03BD  3020        	set [32].0
文件：OpMode_Comm_CAL.C 编译器版本 HGASM 0202 页次18

 541  03BE              _L44:
 544  03BE              #line 544 "c:\users\longshuangmin\desktop\worke_space\g-501\g-501\OpMode_Comm_CAL.C"
 544  03BE              ;# 544 "c:\users\longshuangmin\desktop\worke_space\g-501\g-501\OpMode_Comm_CAL.C" 1
 544  03BE  0001        	clr wdt
 545  03BF              #line 545 "c:\users\longshuangmin\desktop\worke_space\g-501\g-501\OpMode_Comm_CAL.C"
 545  03BF  3800     E  	snz _SDKADCSourceData[5].0
 545  03C0  2800     R  	jmp _L44
 547  03C1              #line 547 "c:\users\longshuangmin\desktop\worke_space\g-501\g-501\OpMode_Comm_CAL.C"
 547  03C1  C713 000E   	lmov a,[3731]
 547  03C3  0E3F        	and a,63
 547  03C4  0080     E  	mov rb,a
 547  03C5  1F00     E  	clr rc
 547  03C6  0700     E  	mov a,_SDKADCSourceData[0]
 547  03C7  0080     E  	mov rd,a
 547  03C8  0700     E  	mov a,_SDKADCSourceData[1]
 547  03C9  0080     E  	mov re,a
 547  03CA  0700     E  	mov a,_SDKADCSourceData[2]
 547  03CB  0080     E  	mov rf,a
 547  03CC  0700     E  	mov a,_SDKADCSourceData[3]
 547  03CD  0080     E  	mov rg,a
 547  03CE  0700     E  	mov a,rf
 547  03CF  0080     E  	mov rd,a
 547  03D0  0700     E  	mov a,rg
 547  03D1  0080     E  	mov re,a
 547  03D2  1F00     E  	clr rg
 547  03D3  3C00     E  	sz re.7
 547  03D4  1F80     E  	set rg
 547  03D5  1F00     E  	clr rf
 547  03D6  3C00     E  	sz re.7
 547  03D7  1F80     E  	set rf
 547  03D8  340A        	clr c
 547  03D9  1A80     E  	rlc rb
 547  03DA  1A80     E  	rlc rc
 547  03DB  0F80        	mov a,low offset _DC_data_buf
 547  03DC  0300     E  	add a,rb
 547  03DD  0083        	mov mp,a
 547  03DE  0F0B        	mov a,high offset _DC_data_buf
 547  03DF  1300     E  	adc a,rc
 547  03E0  0084        	mov sbp,a
 547  03E1  0700     E  	mov a,rd
 547  03E2  0082        	mov ir,a
 547  03E3  1483        	inc mp
 547  03E4  0700     E  	mov a,re
 547  03E5  0082        	mov ir,a
 548  03E6              #line 548 "c:\users\longshuangmin\desktop\worke_space\g-501\g-501\OpMode_Comm_CAL.C"
 548  03E6  D493 000E   	linc [3731]
 549  03E8              #line 549 "c:\users\longshuangmin\desktop\worke_space\g-501\g-501\OpMode_Comm_CAL.C"
 549  03E8  0FC8        	mov a,200
 549  03E9  C213 000E   	lsub a,[3731]
 549  03EB  3C0A        	sz c
 549  03EC  2800     R  	jmp _L45
 551  03ED              #line 551 "c:\users\longshuangmin\desktop\worke_space\g-501\g-501\OpMode_Comm_CAL.C"
 551  03ED  DF13 000E   	lclr [3731]
 552  03EF              #line 552 "c:\users\longshuangmin\desktop\worke_space\g-501\g-501\OpMode_Comm_CAL.C"
 552  03EF  DF00 000A   	lclr [2688]
 556  03F1              #line 556 "c:\users\longshuangmin\desktop\worke_space\g-501\g-501\OpMode_Comm_CAL.C"
 556  03F1  D487 000E   	linc [3719]
 565  03F3              #line 565 "c:\users\longshuangmin\desktop\worke_space\g-501\g-501\OpMode_Comm_CAL.C"
 565  03F3  2800     R  	jmp _L21
 565  03F4              _L45:
文件：OpMode_Comm_CAL.C 编译器版本 HGASM 0202 页次19

 560  03F4              #line 560 "c:\users\longshuangmin\desktop\worke_space\g-501\g-501\OpMode_Comm_CAL.C"
 560  03F4  3400     E  	clr _SDKADCSourceData[5].0
 560  03F5  2800     R  	jmp _L44
 560  03F6              _L47:
 571  03F6              #line 571 "c:\users\longshuangmin\desktop\worke_space\g-501\g-501\OpMode_Comm_CAL.C"
 571  03F6  0F3F        	mov a,63
 571  03F7  C200 000A   	lsub a,[2688]
 571  03F9  380A        	snz c
 571  03FA  2800     R  	jmp _L76
 572  03FB              #line 572 "c:\users\longshuangmin\desktop\worke_space\g-501\g-501\OpMode_Comm_CAL.C"
 572  03FB  C700 000A   	lmov a,[2688]
 572  03FD  0080     E  	mov rb,a
 572  03FE  1F00     E  	clr rc
 572  03FF  340A        	clr c
 572  0400  1A80     E  	rlc rb
 572  0401  1A80     E  	rlc rc
 572  0402  0F80        	mov a,low offset _DC_data_buf
 572  0403  0300     E  	add a,rb
 572  0404  0083        	mov mp,a
 572  0405  0F0B        	mov a,high offset _DC_data_buf
 572  0406  1300     E  	adc a,rc
 572  0407  0084        	mov sbp,a
 572  0408              	fcall _Crom2Prom
 572  040F  0080     E  	mov rd,a
 572  0410              	fcall _Crom2PromNext
 572  0417  0080     E  	mov re,a
 572  0418  0700     E  	mov a,re
 572  0419  0080     E  	mov _builtin_holtek_mant1[1],a
 572  041A  0700     E  	mov a,rd
 572  041B  0080     E  	mov _builtin_holtek_mant1[0],a
 572  041C              	fcall _builtin_holtek_itod
 572  0423  0700     E  	mov a,_builtin_holtek_mant12p[0]
 572  0424  0080     E  	mov rg,a
 572  0425  0700     E  	mov a,_builtin_holtek_mant1[2]
 572  0426  0080     E  	mov rf,a
 572  0427  0700     E  	mov a,_builtin_holtek_mant1[1]
 572  0428  0080     E  	mov re,a
 572  0429  0700     E  	mov a,_builtin_holtek_mant1[0]
 572  042A  0080     E  	mov rd,a
 572  042B  C703 0009   	lmov a,[2435]
 572  042D  0080     E  	mov _builtin_holtek_mant12p[0],a
 572  042E  C702 0009   	lmov a,[2434]
 572  0430  0080     E  	mov _builtin_holtek_mant1[2],a
 572  0431  C701 0009   	lmov a,[2433]
 572  0433  0080     E  	mov _builtin_holtek_mant1[1],a
 572  0434  C700 0009   	lmov a,[2432]
 572  0436  0080     E  	mov _builtin_holtek_mant1[0],a
 572  0437  0700     E  	mov a,rg
 572  0438  0080     E  	mov _builtin_holtek_mant12p[1],a
 572  0439  0700     E  	mov a,rf
 572  043A  0080     E  	mov _builtin_holtek_mant2[2],a
 572  043B  0700     E  	mov a,re
 572  043C  0080     E  	mov _builtin_holtek_mant2[1],a
 572  043D  0700     E  	mov a,rd
 572  043E  0080     E  	mov _builtin_holtek_mant2[0],a
 572  043F              	fcall _builtin_holtek_dtadd
 572  0446  0700     E  	mov a,_builtin_holtek_mant12p[0]
 572  0447  C083 0009   	lmov [2435],a
 572  0449  0700     E  	mov a,_builtin_holtek_mant1[2]
 572  044A  C082 0009   	lmov [2434],a
文件：OpMode_Comm_CAL.C 编译器版本 HGASM 0202 页次20

 572  044C  0700     E  	mov a,_builtin_holtek_mant1[1]
 572  044D  C081 0009   	lmov [2433],a
 572  044F  0700     E  	mov a,_builtin_holtek_mant1[0]
 572  0450  C080 0009   	lmov [2432],a
 571  0452              #line 571 "c:\users\longshuangmin\desktop\worke_space\g-501\g-501\OpMode_Comm_CAL.C"
 571  0452  D480 000A   	linc [2688]
 571  0454  2800     R  	jmp _L47
 571  0455              _L76:
 573  0455              #line 573 "c:\users\longshuangmin\desktop\worke_space\g-501\g-501\OpMode_Comm_CAL.C"
 573  0455  C703 0009   	lmov a,[2435]
 573  0457  0080     E  	mov _builtin_holtek_mant12p[0],a
 573  0458  C702 0009   	lmov a,[2434]
 573  045A  0080     E  	mov _builtin_holtek_mant1[2],a
 573  045B  C701 0009   	lmov a,[2433]
 573  045D  0080     E  	mov _builtin_holtek_mant1[1],a
 573  045E  C700 0009   	lmov a,[2432]
 573  0460  0080     E  	mov _builtin_holtek_mant1[0],a
 573  0461  0F3C        	mov a,60
 573  0462  0080     E  	mov _builtin_holtek_mant12p[1],a
 573  0463  0F80        	mov a,128
 573  0464  0080     E  	mov _builtin_holtek_mant2[2],a
 573  0465  0F00        	mov a,0
 573  0466  0080     E  	mov _builtin_holtek_mant2[1],a
 573  0467  0F00        	mov a,0
 573  0468  0080     E  	mov _builtin_holtek_mant2[0],a
 573  0469              	fcall _builtin_holtek_dtmul
 573  0470  0700     E  	mov a,_builtin_holtek_mant12p[0]
 573  0471  C083 0009   	lmov [2435],a
 573  0473  0700     E  	mov a,_builtin_holtek_mant1[2]
 573  0474  C082 0009   	lmov [2434],a
 573  0476  0700     E  	mov a,_builtin_holtek_mant1[1]
 573  0477  C081 0009   	lmov [2433],a
 573  0479  0700     E  	mov a,_builtin_holtek_mant1[0]
 573  047A  C080 0009   	lmov [2432],a
 574  047C              #line 574 "c:\users\longshuangmin\desktop\worke_space\g-501\g-501\OpMode_Comm_CAL.C"
 574  047C  C703 0009   	lmov a,[2435]
 574  047E  0080     E  	mov _builtin_holtek_mant12p[0],a
 574  047F  C702 0009   	lmov a,[2434]
 574  0481  0080     E  	mov _builtin_holtek_mant1[2],a
 574  0482  C701 0009   	lmov a,[2433]
 574  0484  0080     E  	mov _builtin_holtek_mant1[1],a
 574  0485  C700 0009   	lmov a,[2432]
 574  0487  0080     E  	mov _builtin_holtek_mant1[0],a
 574  0488              	fcall _builtin_holtek_dtol
 574  048F  0700     E  	mov a,_builtin_holtek_mant12p[0]
 574  0490  0080     E  	mov rg,a
 574  0491  0700     E  	mov a,_builtin_holtek_mant1[2]
 574  0492  0080     E  	mov rf,a
 574  0493  0700     E  	mov a,_builtin_holtek_mant1[1]
 574  0494  0080     E  	mov re,a
 574  0495  0700     E  	mov a,_builtin_holtek_mant1[0]
 574  0496  0080     E  	mov rd,a
 574  0497  0700     E  	mov a,rd
 574  0498  C0AE 000E   	lmov [3758],a
 574  049A  0700     E  	mov a,re
 574  049B  C0AF 000E   	lmov [3759],a
 577  049D              #line 577 "c:\users\longshuangmin\desktop\worke_space\g-501\g-501\OpMode_Comm_CAL.C"
 577  049D  C77D 0012   	lmov a,[4861]
 577  049F  0080     E  	mov _builtin_holtek_mant1[1],a
 577  04A0  C77C 0012   	lmov a,[4860]
文件：OpMode_Comm_CAL.C 编译器版本 HGASM 0202 页次21

 577  04A2  0080     E  	mov _builtin_holtek_mant1[0],a
 577  04A3  3400     E  	clr _builtin_holtek_signs.0
 577  04A4              	fcall _builtin_holtek_uitod
 577  04AB  0700     E  	mov a,_builtin_holtek_mant12p[0]
 577  04AC  0080     E  	mov rg,a
 577  04AD  0700     E  	mov a,_builtin_holtek_mant1[2]
 577  04AE  0080     E  	mov rf,a
 577  04AF  0700     E  	mov a,_builtin_holtek_mant1[1]
 577  04B0  0080     E  	mov re,a
 577  04B1  0700     E  	mov a,_builtin_holtek_mant1[0]
 577  04B2  0080     E  	mov rd,a
 577  04B3  C703 0009   	lmov a,[2435]
 577  04B5  0080     E  	mov _builtin_holtek_mant12p[0],a
 577  04B6  C702 0009   	lmov a,[2434]
 577  04B8  0080     E  	mov _builtin_holtek_mant1[2],a
 577  04B9  C701 0009   	lmov a,[2433]
 577  04BB  0080     E  	mov _builtin_holtek_mant1[1],a
 577  04BC  C700 0009   	lmov a,[2432]
 577  04BE  0080     E  	mov _builtin_holtek_mant1[0],a
 577  04BF  0700     E  	mov a,rg
 577  04C0  0080     E  	mov _builtin_holtek_mant12p[1],a
 577  04C1  0700     E  	mov a,rf
 577  04C2  0080     E  	mov _builtin_holtek_mant2[2],a
 577  04C3  0700     E  	mov a,re
 577  04C4  0080     E  	mov _builtin_holtek_mant2[1],a
 577  04C5  0700     E  	mov a,rd
 577  04C6  0080     E  	mov _builtin_holtek_mant2[0],a
 577  04C7              	fcall _builtin_holtek_dtdiv
 577  04CE  0700     E  	mov a,_builtin_holtek_mant12p[0]
 577  04CF  C0B3 000E   	lmov [3763],a
 577  04D1  0700     E  	mov a,_builtin_holtek_mant1[2]
 577  04D2  C0B2 000E   	lmov [3762],a
 577  04D4  0700     E  	mov a,_builtin_holtek_mant1[1]
 577  04D5  C0B1 000E   	lmov [3761],a
 577  04D7  0700     E  	mov a,_builtin_holtek_mant1[0]
 577  04D8  C0B0 000E   	lmov [3760],a
 580  04DA              #line 580 "c:\users\longshuangmin\desktop\worke_space\g-501\g-501\OpMode_Comm_CAL.C"
 580  04DA  0F55        	mov a,85
 580  04DB  C080 001F   	lmov [8064],a
 581  04DD              #line 581 "c:\users\longshuangmin\desktop\worke_space\g-501\g-501\OpMode_Comm_CAL.C"
 581  04DD  0F09        	mov a,9
 581  04DE  C081 001F   	lmov [8065],a
 582  04E0              #line 582 "c:\users\longshuangmin\desktop\worke_space\g-501\g-501\OpMode_Comm_CAL.C"
 582  04E0  C702 001E   	lmov a,[7810]
 582  04E2  C082 001F   	lmov [8066],a
 584  04E4              #line 584 "c:\users\longshuangmin\desktop\worke_space\g-501\g-501\OpMode_Comm_CAL.C"
 584  04E4  C733 000E   	lmov a,[3763]
 584  04E6  0080     E  	mov _builtin_holtek_mant12p[0],a
 584  04E7  C732 000E   	lmov a,[3762]
 584  04E9  0080     E  	mov _builtin_holtek_mant1[2],a
 584  04EA  C731 000E   	lmov a,[3761]
 584  04EC  0080     E  	mov _builtin_holtek_mant1[1],a
 584  04ED  C730 000E   	lmov a,[3760]
 584  04EF  0080     E  	mov _builtin_holtek_mant1[0],a
 584  04F0  0F44        	mov a,68
 584  04F1  0080     E  	mov _builtin_holtek_mant12p[1],a
 584  04F2  0F7A        	mov a,122
 584  04F3  0080     E  	mov _builtin_holtek_mant2[2],a
 584  04F4  0F00        	mov a,0
 584  04F5  0080     E  	mov _builtin_holtek_mant2[1],a
文件：OpMode_Comm_CAL.C 编译器版本 HGASM 0202 页次22

 584  04F6  0F00        	mov a,0
 584  04F7  0080     E  	mov _builtin_holtek_mant2[0],a
 584  04F8              	fcall _builtin_holtek_dtmul
 584  04FF  0700     E  	mov a,_builtin_holtek_mant12p[0]
 584  0500  0080     E  	mov rg,a
 584  0501  0700     E  	mov a,_builtin_holtek_mant1[2]
 584  0502  0080     E  	mov rf,a
 584  0503  0700     E  	mov a,_builtin_holtek_mant1[1]
 584  0504  0080     E  	mov re,a
 584  0505  0700     E  	mov a,_builtin_holtek_mant1[0]
 584  0506  0080     E  	mov rd,a
 584  0507  0700     E  	mov a,rg
 584  0508  0080     E  	mov _builtin_holtek_mant12p[0],a
 584  0509  0700     E  	mov a,rf
 584  050A  0080     E  	mov _builtin_holtek_mant1[2],a
 584  050B  0700     E  	mov a,re
 584  050C  0080     E  	mov _builtin_holtek_mant1[1],a
 584  050D  0700     E  	mov a,rd
 584  050E  0080     E  	mov _builtin_holtek_mant1[0],a
 584  050F              	fcall _builtin_holtek_dtol
 584  0516  0700     E  	mov a,_builtin_holtek_mant12p[0]
 584  0517  0080     E  	mov rg,a
 584  0518  0700     E  	mov a,_builtin_holtek_mant1[2]
 584  0519  0080     E  	mov rf,a
 584  051A  0700     E  	mov a,_builtin_holtek_mant1[1]
 584  051B  0080     E  	mov re,a
 584  051C  0700     E  	mov a,_builtin_holtek_mant1[0]
 584  051D  0080     E  	mov rd,a
 586  051E              #line 586 "c:\users\longshuangmin\desktop\worke_space\g-501\g-501\OpMode_Comm_CAL.C"
 586  051E  0700     E  	mov a,rd
 586  051F  C083 001F   	lmov [8067],a
 587  0521              #line 587 "c:\users\longshuangmin\desktop\worke_space\g-501\g-501\OpMode_Comm_CAL.C"
 587  0521  0700     E  	mov a,re
 587  0522  C084 001F   	lmov [8068],a
 589  0524              #line 589 "c:\users\longshuangmin\desktop\worke_space\g-501\g-501\OpMode_Comm_CAL.C"
 589  0524  C72E 000E   	lmov a,[3758]
 589  0526  0080     E  	mov rb,a
 589  0527  C72F 000E   	lmov a,[3759]
 589  0529  0080     E  	mov rc,a
 589  052A  0700     E  	mov a,rb
 589  052B  C085 001F   	lmov [8069],a
 590  052D              #line 590 "c:\users\longshuangmin\desktop\worke_space\g-501\g-501\OpMode_Comm_CAL.C"
 590  052D  C72E 000E   	lmov a,[3758]
 590  052F  0080     E  	mov rb,a
 590  0530  C72F 000E   	lmov a,[3759]
 590  0532  0080     E  	mov rc,a
 590  0533  0700     E  	mov a,rc
 590  0534  C086 001F   	lmov [8070],a
 592  0536              #line 592 "c:\users\longshuangmin\desktop\worke_space\g-501\g-501\OpMode_Comm_CAL.C"
 592  0536  DF07 001F   	lclr [8071]
 593  0538              #line 593 "c:\users\longshuangmin\desktop\worke_space\g-501\g-501\OpMode_Comm_CAL.C"
 593  0538  DF08 001F   	lclr [8072]
 597  053A              #line 597 "c:\users\longshuangmin\desktop\worke_space\g-501\g-501\OpMode_Comm_CAL.C"
 597  053A  3020        	set [32].0
 598  053B              #line 598 "c:\users\longshuangmin\desktop\worke_space\g-501\g-501\OpMode_Comm_CAL.C"
 598  053B  1B20        	rrca intc
 598  053C  3420        	clr intc.0
 598  053D  0700     E  	mov a,rd
 598  053E  00D9        	mov mduwr0,a
 598  053F  0700     E  	mov a,re
文件：OpMode_Comm_CAL.C 编译器版本 HGASM 0202 页次23

 598  0540  00DA        	mov mduwr1,a
 598  0541  0F64        	mov a,100
 598  0542  00DD        	mov mduwr4,a
 598  0543  0F00        	mov a,0
 598  0544  00DE        	mov mduwr5,a
 598  0545  0F06        	mov a,6
 598  0546              _LI6:
 598  0546  1785        	sdz acc
 598  0547  2800     R  	jmp _LI6
 598  0548  0759        	mov a,mduwr0
 598  0549  0080     E  	mov rb,a
 598  054A  075A        	mov a,mduwr1
 598  054B  0080     E  	mov rc,a
 598  054C  3C0A        	sz c
 598  054D  3020        	set intc.0
 598  054E  1B20        	rrca intc
 598  054F  3420        	clr intc.0
 598  0550  0700     E  	mov a,rd
 598  0551  00D9        	mov mduwr0,a
 598  0552  0700     E  	mov a,re
 598  0553  00DA        	mov mduwr1,a
 598  0554  0F64        	mov a,100
 598  0555  00DD        	mov mduwr4,a
 598  0556  0F00        	mov a,0
 598  0557  00DE        	mov mduwr5,a
 598  0558  0F06        	mov a,6
 598  0559              _LI7:
 598  0559  1785        	sdz acc
 598  055A  2800     R  	jmp _LI7
 598  055B  075D        	mov a,mduwr4
 598  055C  0080     E  	mov rd,a
 598  055D  075E        	mov a,mduwr5
 598  055E  0080     E  	mov re,a
 598  055F  3C0A        	sz c
 598  0560  3020        	set intc.0
 598  0561  0700     E  	mov a,rd
 598  0562  0080     E  	mov _Lcd_Clock_Process_2[0],a
 598  0563  0700     E  	mov a,rb
 598  0564              	fcall _Lcd_Clock_Process
 598  056B  2800     R  	jmp _L72
 598  056C              _L27:
 613  056C              #line 613 "c:\users\longshuangmin\desktop\worke_space\g-501\g-501\OpMode_Comm_CAL.C"
 613  056C              	fcall _Measurement_Temp
 613  0573  0700     E  	mov a,ra
 613  0574  0080     E  	mov _M_Temperature[0],a
 613  0575  0700     E  	mov a,rb
 613  0576  0080     E  	mov _M_Temperature[1],a
 614  0577              #line 614 "c:\users\longshuangmin\desktop\worke_space\g-501\g-501\OpMode_Comm_CAL.C"
 614  0577  0F00        	mov a,0
 614  0578              	fcall _LCD_Clear_Buff
 615  057F              #line 615 "c:\users\longshuangmin\desktop\worke_space\g-501\g-501\OpMode_Comm_CAL.C"
 615  057F  0700     E  	mov a,_M_Temperature[0]
 615  0580  0080     E  	mov rb,a
 615  0581  0700     E  	mov a,_M_Temperature[1]
 615  0582  0080     E  	mov rc,a
 615  0583  1B20        	rrca intc
 615  0584  3420        	clr intc.0
 615  0585  0700     E  	mov a,rb
 615  0586  00D9        	mov mduwr0,a
 615  0587  0700     E  	mov a,rc
文件：OpMode_Comm_CAL.C 编译器版本 HGASM 0202 页次24

 615  0588  00DA        	mov mduwr1,a
 615  0589  0F64        	mov a,100
 615  058A  00DD        	mov mduwr4,a
 615  058B  0F00        	mov a,0
 615  058C  00DE        	mov mduwr5,a
 615  058D  0F06        	mov a,6
 615  058E              _LI8:
 615  058E  1785        	sdz acc
 615  058F  2800     R  	jmp _LI8
 615  0590  0759        	mov a,mduwr0
 615  0591  0080     E  	mov rd,a
 615  0592  075A        	mov a,mduwr1
 615  0593  0080     E  	mov re,a
 615  0594  3C0A        	sz c
 615  0595  3020        	set intc.0
 615  0596  1B20        	rrca intc
 615  0597  3420        	clr intc.0
 615  0598  0700     E  	mov a,rb
 615  0599  00D9        	mov mduwr0,a
 615  059A  0700     E  	mov a,rc
 615  059B  00DA        	mov mduwr1,a
 615  059C  0F64        	mov a,100
 615  059D  00DD        	mov mduwr4,a
 615  059E  0F00        	mov a,0
 615  059F  00DE        	mov mduwr5,a
 615  05A0  0F06        	mov a,6
 615  05A1              _LI9:
 615  05A1  1785        	sdz acc
 615  05A2  2800     R  	jmp _LI9
 615  05A3  075D        	mov a,mduwr4
 615  05A4  0080     E  	mov rb,a
 615  05A5  075E        	mov a,mduwr5
 615  05A6  0080     E  	mov rc,a
 615  05A7  3C0A        	sz c
 615  05A8  3020        	set intc.0
 615  05A9  0700     E  	mov a,rb
 615  05AA  0080     E  	mov _Lcd_Clock_Process_2[0],a
 615  05AB  0700     E  	mov a,rd
 615  05AC              	fcall _Lcd_Clock_Process
 618  05B3              #line 618 "c:\users\longshuangmin\desktop\worke_space\g-501\g-501\OpMode_Comm_CAL.C"
 618  05B3  0F55        	mov a,85
 618  05B4  C080 001F   	lmov [8064],a
 619  05B6              #line 619 "c:\users\longshuangmin\desktop\worke_space\g-501\g-501\OpMode_Comm_CAL.C"
 619  05B6  0F07        	mov a,7
 619  05B7  C081 001F   	lmov [8065],a
 621  05B9              #line 621 "c:\users\longshuangmin\desktop\worke_space\g-501\g-501\OpMode_Comm_CAL.C"
 621  05B9  C702 001E   	lmov a,[7810]
 621  05BB  C082 001F   	lmov [8066],a
 626  05BD              #line 626 "c:\users\longshuangmin\desktop\worke_space\g-501\g-501\OpMode_Comm_CAL.C"
 626  05BD  C703 001E   	lmov a,[7811]
 626  05BF  C083 001F   	lmov [8067],a
 627  05C1              #line 627 "c:\users\longshuangmin\desktop\worke_space\g-501\g-501\OpMode_Comm_CAL.C"
 627  05C1  C704 001E   	lmov a,[7812]
 627  05C3  C084 001F   	lmov [8068],a
 629  05C5              #line 629 "c:\users\longshuangmin\desktop\worke_space\g-501\g-501\OpMode_Comm_CAL.C"
 629  05C5  DF05 001F   	lclr [8069]
 630  05C7              #line 630 "c:\users\longshuangmin\desktop\worke_space\g-501\g-501\OpMode_Comm_CAL.C"
 630  05C7  DF06 001F   	lclr [8070]
 632  05C9              #line 632 "c:\users\longshuangmin\desktop\worke_space\g-501\g-501\OpMode_Comm_CAL.C"
 632  05C9  C704 001E   	lmov a,[7812]
文件：OpMode_Comm_CAL.C 编译器版本 HGASM 0202 页次25

 632  05CB  C094 000E   	lmov [3732],a
 632  05CD  DF15 000E   	lclr [3733]
 633  05CF              #line 633 "c:\users\longshuangmin\desktop\worke_space\g-501\g-501\OpMode_Comm_CAL.C"
 633  05CF  C714 000E   	lmov a,[3732]
 633  05D1  C095 000E   	lmov [3733],a
 633  05D3  DF14 000E   	lclr [3732]
 634  05D5              #line 634 "c:\users\longshuangmin\desktop\worke_space\g-501\g-501\OpMode_Comm_CAL.C"
 634  05D5  C703 001E   	lmov a,[7811]
 634  05D7  C394 000E   	laddm a,[3732]
 634  05D9  3C0A        	sz c
 634  05DA  D495 000E   	linc [3733]
 636  05DC              #line 636 "c:\users\longshuangmin\desktop\worke_space\g-501\g-501\OpMode_Comm_CAL.C"
 636  05DC  0700     E  	mov a,_M_Temperature[0]
 636  05DD  C096 000E   	lmov [3734],a
 636  05DF  0700     E  	mov a,_M_Temperature[1]
 636  05E0  C097 000E   	lmov [3735],a
 638  05E2              #line 638 "c:\users\longshuangmin\desktop\worke_space\g-501\g-501\OpMode_Comm_CAL.C"
 638  05E2  C716 000E   	lmov a,[3734]
 638  05E4  C214 000E   	lsub a,[3732]
 638  05E6  0080     E  	mov ra,a
 638  05E7  C717 000E   	lmov a,[3735]
 638  05E9  D215 000E   	lsbc a,[3733]
 638  05EB  0080     E  	mov rb,a
 638  05EC  0700     E  	mov a,ra
 638  05ED  C0B4 000E   	lmov [3764],a
 638  05EF  0700     E  	mov a,rb
 638  05F0  C0B5 000E   	lmov [3765],a
 641  05F2              #line 641 "c:\users\longshuangmin\desktop\worke_space\g-501\g-501\OpMode_Comm_CAL.C"
 641  05F2              	fcall _Measurement_Temp
 641  05F9  0700     E  	mov a,ra
 641  05FA  0080     R  	mov _TestingMode_2[0],a
 641  05FB  0700     E  	mov a,rb
 641  05FC  0080     R  	mov _TestingMode_2[1],a
 641  05FD  0700     R  	mov a,_TestingMode_2[0]
 641  05FE  0080     E  	mov _M_Temperature[0],a
 641  05FF  0700     R  	mov a,_TestingMode_2[1]
 641  0600  0080     E  	mov _M_Temperature[1],a
 643  0601              #line 643 "c:\users\longshuangmin\desktop\worke_space\g-501\g-501\OpMode_Comm_CAL.C"
 643  0601  FFB5 000E   	lsz [3765].7
 643  0603  2800     R  	jmp _L49
 643  0604  C734 000E   	lmov a,[3764]
 643  0606  C535 000E   	lor a,[3765]
 643  0608  3D0A        	sz z
 643  0609  2800     R  	jmp _L49
 644  060A              #line 644 "c:\users\longshuangmin\desktop\worke_space\g-501\g-501\OpMode_Comm_CAL.C"
 644  060A  0700     E  	mov a,ra
 644  060B  C234 000E   	lsub a,[3764]
 644  060D  0080     E  	mov ra,a
 644  060E  0700     E  	mov a,rb
 644  060F  D235 000E   	lsbc a,[3765]
 644  0611  0080     E  	mov rb,a
 644  0612  0700     E  	mov a,ra
 644  0613  0080     E  	mov _M_Temperature[0],a
 644  0614  0700     E  	mov a,rb
 644  0615  0080     E  	mov _M_Temperature[1],a
 644  0616  2800     R  	jmp _L50
 644  0617              _L49:
 646  0617              #line 646 "c:\users\longshuangmin\desktop\worke_space\g-501\g-501\OpMode_Comm_CAL.C"
 646  0617  C734 000E   	lmov a,[3764]
 646  0619  0080     E  	mov _abs_2[0],a
文件：OpMode_Comm_CAL.C 编译器版本 HGASM 0202 页次26

 646  061A  C735 000E   	lmov a,[3765]
 646  061C  0080     E  	mov _abs_2[1],a
 646  061D              	fcall _abs
 646  0624  0700     R  	mov a,_TestingMode_2[0]
 646  0625  0300     E  	add a,ra
 646  0626  0080     E  	mov _M_Temperature[0],a
 646  0627  0700     R  	mov a,_TestingMode_2[1]
 646  0628  1300     E  	adc a,rb
 646  0629  0080     E  	mov _M_Temperature[1],a
 646  062A              _L50:
 650  062A              #line 650 "c:\users\longshuangmin\desktop\worke_space\g-501\g-501\OpMode_Comm_CAL.C"
 650  062A  0700     E  	mov a,_M_Temperature[0]
 650  062B  0080     E  	mov _ShowDec_BigNum_2[0],a
 650  062C  0700     E  	mov a,_M_Temperature[1]
 650  062D  0080     E  	mov _ShowDec_BigNum_2[1],a
 650  062E              	fcall _ShowDec_BigNum
 651  0635              #line 651 "c:\users\longshuangmin\desktop\worke_space\g-501\g-501\OpMode_Comm_CAL.C"
 651  0635  3000     E  	set _lcd[28].0
 655  0636              #line 655 "c:\users\longshuangmin\desktop\worke_space\g-501\g-501\OpMode_Comm_CAL.C"
 655  0636  3020        	set [32].0
 655  0637              _L72:
 656  0637              #line 656 "c:\users\longshuangmin\desktop\worke_space\g-501\g-501\OpMode_Comm_CAL.C"
 656  0637  3000     E  	set _Flag2[0].1
 660  0638              #line 660 "c:\users\longshuangmin\desktop\worke_space\g-501\g-501\OpMode_Comm_CAL.C"
 660  0638  2800     R  	jmp _L21
 660  0639              _L28:
 666  0639              #line 666 "c:\users\longshuangmin\desktop\worke_space\g-501\g-501\OpMode_Comm_CAL.C"
 666  0639              	fcall _intit_Impedance
 667  0640              #line 667 "c:\users\longshuangmin\desktop\worke_space\g-501\g-501\OpMode_Comm_CAL.C"
 667  0640  3216        	set [22].4
 668  0641              #line 668 "c:\users\longshuangmin\desktop\worke_space\g-501\g-501\OpMode_Comm_CAL.C"
 668  0641  32F0        	set [112].5
 668  0642  3670        	clr [112].4
 668  0643  35F0        	clr [112].3
 669  0644              #line 669 "c:\users\longshuangmin\desktop\worke_space\g-501\g-501\OpMode_Comm_CAL.C"
 669  0644  1F00     E  	clr _M_Cbuf0[0]
 670  0645              #line 670 "c:\users\longshuangmin\desktop\worke_space\g-501\g-501\OpMode_Comm_CAL.C"
 670  0645  DF13 000E   	lclr [3731]
 671  0647              #line 671 "c:\users\longshuangmin\desktop\worke_space\g-501\g-501\OpMode_Comm_CAL.C"
 671  0647  0F00        	mov a,0
 671  0648              _L68:
 671  0648              	fcall _Set_HCT_Adc_Channel
 671  064F              _L52:
 676  064F              #line 676 "c:\users\longshuangmin\desktop\worke_space\g-501\g-501\OpMode_Comm_CAL.C"
 676  064F              ;# 676 "c:\users\longshuangmin\desktop\worke_space\g-501\g-501\OpMode_Comm_CAL.C" 1
 676  064F  0001        	clr wdt
 677  0650              #line 677 "c:\users\longshuangmin\desktop\worke_space\g-501\g-501\OpMode_Comm_CAL.C"
 677  0650  3800     E  	snz _SDKADCSourceData[5].0
 677  0651  2800     R  	jmp _L52
 679  0652              #line 679 "c:\users\longshuangmin\desktop\worke_space\g-501\g-501\OpMode_Comm_CAL.C"
 679  0652  3400     E  	clr _SDKADCSourceData[5].0
 681  0653              #line 681 "c:\users\longshuangmin\desktop\worke_space\g-501\g-501\OpMode_Comm_CAL.C"
 681  0653  C713 000E   	lmov a,[3731]
 681  0655  0080     E  	mov rb,a
 681  0656  1400     E  	inca rb
 681  0657  C093 000E   	lmov [3731],a
 681  0659  1F00     E  	clr rc
 681  065A  0700     E  	mov a,_SDKADCSourceData[0]
 681  065B  0080     E  	mov rd,a
 681  065C  0700     E  	mov a,_SDKADCSourceData[1]
文件：OpMode_Comm_CAL.C 编译器版本 HGASM 0202 页次27

 681  065D  0080     E  	mov re,a
 681  065E  0700     E  	mov a,_SDKADCSourceData[2]
 681  065F  0080     E  	mov rf,a
 681  0660  0700     E  	mov a,_SDKADCSourceData[3]
 681  0661  0080     E  	mov rg,a
 681  0662  0700     E  	mov a,rf
 681  0663  0080     E  	mov rd,a
 681  0664  0700     E  	mov a,rg
 681  0665  0080     E  	mov re,a
 681  0666  1F00     E  	clr rg
 681  0667  3C00     E  	sz re.7
 681  0668  1F80     E  	set rg
 681  0669  1F00     E  	clr rf
 681  066A  3C00     E  	sz re.7
 681  066B  1F80     E  	set rf
 681  066C  340A        	clr c
 681  066D  1A80     E  	rlc rb
 681  066E  1A80     E  	rlc rc
 681  066F  0F80        	mov a,low offset _M_Impedance_data
 681  0670  0300     E  	add a,rb
 681  0671  0083        	mov mp,a
 681  0672  0F08        	mov a,high offset _M_Impedance_data
 681  0673  1300     E  	adc a,rc
 681  0674  0084        	mov sbp,a
 681  0675  0700     E  	mov a,rd
 681  0676  0082        	mov ir,a
 681  0677  1483        	inc mp
 681  0678  0700     E  	mov a,re
 681  0679  0082        	mov ir,a
 683  067A              #line 683 "c:\users\longshuangmin\desktop\worke_space\g-501\g-501\OpMode_Comm_CAL.C"
 683  067A  1400     E  	inca _M_Cbuf0[0]
 683  067B  0080     E  	mov ra,a
 683  067C  0700     E  	mov a,ra
 683  067D  0080     E  	mov _M_Cbuf0[0],a
 684  067E              #line 684 "c:\users\longshuangmin\desktop\worke_space\g-501\g-501\OpMode_Comm_CAL.C"
 684  067E  0F03        	mov a,3
 684  067F  0200     E  	sub a,ra
 684  0680  3C0A        	sz c
 684  0681  2800     R  	jmp _L53
 686  0682              #line 686 "c:\users\longshuangmin\desktop\worke_space\g-501\g-501\OpMode_Comm_CAL.C"
 686  0682  1F00     E  	clr _M_Cbuf0[0]
 708  0683              #line 708 "c:\users\longshuangmin\desktop\worke_space\g-501\g-501\OpMode_Comm_CAL.C"
 708  0683  0F80        	mov a,low offset _M_Impedance_data
 708  0684  0080     E  	mov _Impedance_Compute_2[0],a
 708  0685  0F08        	mov a,high offset _M_Impedance_data
 708  0686  0080     E  	mov _Impedance_Compute_2[1],a
 708  0687              	fcall _Impedance_Compute
 708  068E  0700     E  	mov a,ra
 708  068F  0080     E  	mov _M_Impedance[0],a
 708  0690  0700     E  	mov a,rb
 708  0691  0080     E  	mov _M_Impedance[1],a
 708  0692  0700     E  	mov a,rc
 708  0693  0080     E  	mov _M_Impedance[2],a
 708  0694  0700     E  	mov a,rd
 708  0695  0080     E  	mov _M_Impedance[3],a
 710  0696              #line 710 "c:\users\longshuangmin\desktop\worke_space\g-501\g-501\OpMode_Comm_CAL.C"
 710  0696  0F55        	mov a,85
 710  0697  C080 001F   	lmov [8064],a
 711  0699              #line 711 "c:\users\longshuangmin\desktop\worke_space\g-501\g-501\OpMode_Comm_CAL.C"
 711  0699  0F07        	mov a,7
文件：OpMode_Comm_CAL.C 编译器版本 HGASM 0202 页次28

 711  069A  C081 001F   	lmov [8065],a
 712  069C              #line 712 "c:\users\longshuangmin\desktop\worke_space\g-501\g-501\OpMode_Comm_CAL.C"
 712  069C  C702 001E   	lmov a,[7810]
 712  069E  C082 001F   	lmov [8066],a
 713  06A0              #line 713 "c:\users\longshuangmin\desktop\worke_space\g-501\g-501\OpMode_Comm_CAL.C"
 713  06A0  0700     E  	mov a,rd
 713  06A1  0080     E  	mov _builtin_holtek_mant12p[0],a
 713  06A2  0700     E  	mov a,rc
 713  06A3  0080     E  	mov _builtin_holtek_mant1[2],a
 713  06A4  0700     E  	mov a,rb
 713  06A5  0080     E  	mov _builtin_holtek_mant1[1],a
 713  06A6  0700     E  	mov a,ra
 713  06A7  0080     E  	mov _builtin_holtek_mant1[0],a
 713  06A8  0F44        	mov a,68
 713  06A9  0080     E  	mov _builtin_holtek_mant12p[1],a
 713  06AA  0F7A        	mov a,122
 713  06AB  0080     E  	mov _builtin_holtek_mant2[2],a
 713  06AC  0F00        	mov a,0
 713  06AD  0080     E  	mov _builtin_holtek_mant2[1],a
 713  06AE  0F00        	mov a,0
 713  06AF  0080     E  	mov _builtin_holtek_mant2[0],a
 713  06B0              	fcall _builtin_holtek_dtmul
 713  06B7  0700     E  	mov a,_builtin_holtek_mant12p[0]
 713  06B8  0080     E  	mov rg,a
 713  06B9  0700     E  	mov a,_builtin_holtek_mant1[2]
 713  06BA  0080     E  	mov rf,a
 713  06BB  0700     E  	mov a,_builtin_holtek_mant1[1]
 713  06BC  0080     E  	mov re,a
 713  06BD  0700     E  	mov a,_builtin_holtek_mant1[0]
 713  06BE  0080     E  	mov rd,a
 713  06BF  0700     E  	mov a,rg
 713  06C0  0080     E  	mov _builtin_holtek_mant12p[0],a
 713  06C1  0700     E  	mov a,rf
 713  06C2  0080     E  	mov _builtin_holtek_mant1[2],a
 713  06C3  0700     E  	mov a,re
 713  06C4  0080     E  	mov _builtin_holtek_mant1[1],a
 713  06C5  0700     E  	mov a,rd
 713  06C6  0080     E  	mov _builtin_holtek_mant1[0],a
 713  06C7  0F4F        	mov a,79
 713  06C8  0080     E  	mov _builtin_holtek_mant12p[1],a
 713  06C9  0F00        	mov a,0
 713  06CA  0080     E  	mov _builtin_holtek_mant2[2],a
 713  06CB  0F00        	mov a,0
 713  06CC  0080     E  	mov _builtin_holtek_mant2[1],a
 713  06CD  0F00        	mov a,0
 713  06CE  0080     E  	mov _builtin_holtek_mant2[0],a
 713  06CF              	fcall _builtin_holtek_dtsub
 713  06D6  3800     E  	snz _builtin_holtek_mant12p[0].7
 713  06D7  2800     R  	jmp _L54
 713  06D8  0700     E  	mov a,rg
 713  06D9  0080     E  	mov _builtin_holtek_mant12p[0],a
 713  06DA  0700     E  	mov a,rf
 713  06DB  0080     E  	mov _builtin_holtek_mant1[2],a
 713  06DC  0700     E  	mov a,re
 713  06DD  0080     E  	mov _builtin_holtek_mant1[1],a
 713  06DE  0700     E  	mov a,rd
 713  06DF  0080     E  	mov _builtin_holtek_mant1[0],a
 713  06E0              	fcall _builtin_holtek_dtol
 713  06E7  0700     E  	mov a,_builtin_holtek_mant12p[0]
 713  06E8  0080     E  	mov rg,a
文件：OpMode_Comm_CAL.C 编译器版本 HGASM 0202 页次29

 713  06E9  0700     E  	mov a,_builtin_holtek_mant1[2]
 713  06EA  0080     E  	mov rf,a
 713  06EB  0700     E  	mov a,_builtin_holtek_mant1[1]
 713  06EC  0080     E  	mov re,a
 713  06ED  0700     E  	mov a,_builtin_holtek_mant1[0]
 713  06EE  0080     E  	mov rd,a
 713  06EF  2800     R  	jmp _L55
 713  06F0              _L54:
 713  06F0  0700     E  	mov a,rg
 713  06F1  0080     E  	mov _builtin_holtek_mant12p[0],a
 713  06F2  0700     E  	mov a,rf
 713  06F3  0080     E  	mov _builtin_holtek_mant1[2],a
 713  06F4  0700     E  	mov a,re
 713  06F5  0080     E  	mov _builtin_holtek_mant1[1],a
 713  06F6  0700     E  	mov a,rd
 713  06F7  0080     E  	mov _builtin_holtek_mant1[0],a
 713  06F8  0F4F        	mov a,79
 713  06F9  0080     E  	mov _builtin_holtek_mant12p[1],a
 713  06FA  0F00        	mov a,0
 713  06FB  0080     E  	mov _builtin_holtek_mant2[2],a
 713  06FC  0F00        	mov a,0
 713  06FD  0080     E  	mov _builtin_holtek_mant2[1],a
 713  06FE  0F00        	mov a,0
 713  06FF  0080     E  	mov _builtin_holtek_mant2[0],a
 713  0700              	fcall _builtin_holtek_dtsub
 713  0707  0700     E  	mov a,_builtin_holtek_mant12p[0]
 713  0708  0080     E  	mov rg,a
 713  0709  0700     E  	mov a,_builtin_holtek_mant1[2]
 713  070A  0080     E  	mov rf,a
 713  070B  0700     E  	mov a,_builtin_holtek_mant1[1]
 713  070C  0080     E  	mov re,a
 713  070D  0700     E  	mov a,_builtin_holtek_mant1[0]
 713  070E  0080     E  	mov rd,a
 713  070F  0700     E  	mov a,rg
 713  0710  0080     E  	mov _builtin_holtek_mant12p[0],a
 713  0711  0700     E  	mov a,rf
 713  0712  0080     E  	mov _builtin_holtek_mant1[2],a
 713  0713  0700     E  	mov a,re
 713  0714  0080     E  	mov _builtin_holtek_mant1[1],a
 713  0715  0700     E  	mov a,rd
 713  0716  0080     E  	mov _builtin_holtek_mant1[0],a
 713  0717              	fcall _builtin_holtek_dtol
 713  071E  0700     E  	mov a,_builtin_holtek_mant12p[0]
 713  071F  0080     E  	mov rg,a
 713  0720  0700     E  	mov a,_builtin_holtek_mant1[2]
 713  0721  0080     E  	mov rf,a
 713  0722  0700     E  	mov a,_builtin_holtek_mant1[1]
 713  0723  0080     E  	mov re,a
 713  0724  0700     E  	mov a,_builtin_holtek_mant1[0]
 713  0725  0080     E  	mov rd,a
 713  0726  0F00        	mov a,0
 713  0727  0380     E  	addm a,rd
 713  0728  1380     E  	adcm a,re
 713  0729  1380     E  	adcm a,rf
 713  072A  0F80        	mov a,128
 713  072B  1380     E  	adcm a,rg
 713  072C              _L55:
 713  072C  0700     E  	mov a,rd
 713  072D  0080     E  	mov _M_Lbuf0[0],a
 713  072E  0700     E  	mov a,re
文件：OpMode_Comm_CAL.C 编译器版本 HGASM 0202 页次30

 713  072F  0080     E  	mov _M_Lbuf0[1],a
 713  0730  0700     E  	mov a,rf
 713  0731  0080     E  	mov _M_Lbuf0[2],a
 713  0732  0700     E  	mov a,rg
 713  0733  0080     E  	mov _M_Lbuf0[3],a
 714  0734              #line 714 "c:\users\longshuangmin\desktop\worke_space\g-501\g-501\OpMode_Comm_CAL.C"
 714  0734  0700     E  	mov a,rd
 714  0735  C083 001F   	lmov [8067],a
 715  0737              #line 715 "c:\users\longshuangmin\desktop\worke_space\g-501\g-501\OpMode_Comm_CAL.C"
 715  0737  0700     E  	mov a,re
 715  0738  C084 001F   	lmov [8068],a
 715  073A  2800     R  	jmp _L73
 715  073B              _L53:
 702  073B              #line 702 "c:\users\longshuangmin\desktop\worke_space\g-501\g-501\OpMode_Comm_CAL.C"
 702  073B  0700     E  	mov a,ra
 702  073C  2800     R  	jmp _L68
 702  073D              _L29:
 731  073D              #line 731 "c:\users\longshuangmin\desktop\worke_space\g-501\g-501\OpMode_Comm_CAL.C"
 731  073D  DF36 000E   	lclr [3766]
 731  073F  DF37 000E   	lclr [3767]
 732  0741              #line 732 "c:\users\longshuangmin\desktop\worke_space\g-501\g-501\OpMode_Comm_CAL.C"
 732  0741  DF13 000E   	lclr [3731]
 732  0743              _L57:
 732  0743  0F15        	mov a,21
 732  0744  C213 000E   	lsub a,[3731]
 732  0746  380A        	snz c
 732  0747  2800     R  	jmp _L77
 734  0748              #line 734 "c:\users\longshuangmin\desktop\worke_space\g-501\g-501\OpMode_Comm_CAL.C"
 734  0748  0FA0        	mov a,low offset _Calibration
 734  0749  C313 000E   	ladd a,[3731]
 734  074B  0083        	mov mp,a
 734  074C  0F0E        	mov a,high offset _Calibration
 734  074D  1F04        	clr sbp
 734  074E  1384        	adcm a,sbp
 734  074F              	fcall _Crom2Prom
 734  0756  0080     E  	mov ra,a
 734  0757  0700     E  	mov a,ra
 734  0758  C3B6 000E   	laddm a,[3766]
 734  075A  3C0A        	sz c
 734  075B  D4B7 000E   	linc [3767]
 732  075D              #line 732 "c:\users\longshuangmin\desktop\worke_space\g-501\g-501\OpMode_Comm_CAL.C"
 732  075D  D493 000E   	linc [3731]
 732  075F  2800     R  	jmp _L57
 732  0760              _L77:
 737  0760              #line 737 "c:\users\longshuangmin\desktop\worke_space\g-501\g-501\OpMode_Comm_CAL.C"
 737  0760  0F18        	mov a,24
 737  0761  0080     E  	mov _Write_EEPROMBuf_2[2],a
 737  0762  0FA0        	mov a,low offset _Calibration
 737  0763  0080     E  	mov _Write_EEPROMBuf_2[0],a
 737  0764  0F0E        	mov a,high offset _Calibration
 737  0765  0080     E  	mov _Write_EEPROMBuf_2[1],a
 737  0766  0F00        	mov a,0
 737  0767              	fcall _Write_EEPROMBuf
 738  076E              #line 738 "c:\users\longshuangmin\desktop\worke_space\g-501\g-501\OpMode_Comm_CAL.C"
 738  076E  0F18        	mov a,24
 738  076F  0080     E  	mov _Write_EEPROMBuf_2[2],a
 738  0770  0FA0        	mov a,low offset _Calibration
 738  0771  0080     E  	mov _Write_EEPROMBuf_2[0],a
 738  0772  0F0E        	mov a,high offset _Calibration
 738  0773  0080     E  	mov _Write_EEPROMBuf_2[1],a
文件：OpMode_Comm_CAL.C 编译器版本 HGASM 0202 页次31

 738  0774  0F20        	mov a,32
 738  0775              	fcall _Write_EEPROMBuf
 739  077C              #line 739 "c:\users\longshuangmin\desktop\worke_space\g-501\g-501\OpMode_Comm_CAL.C"
 739  077C  0F55        	mov a,85
 739  077D  C089 0014   	lmov [5257],a
 740  077F              #line 740 "c:\users\longshuangmin\desktop\worke_space\g-501\g-501\OpMode_Comm_CAL.C"
 740  077F  0F01        	mov a,1
 740  0780  0080     E  	mov _Write_EEPROMBuf_2[2],a
 740  0781  0F89        	mov a,low offset _set_temp_25
 740  0782  0080     E  	mov _Write_EEPROMBuf_2[0],a
 740  0783  0F14        	mov a,high offset _set_temp_25
 740  0784  0080     E  	mov _Write_EEPROMBuf_2[1],a
 740  0785  0F7F        	mov a,127
 740  0786              	fcall _Write_EEPROMBuf
 741  078D              #line 741 "c:\users\longshuangmin\desktop\worke_space\g-501\g-501\OpMode_Comm_CAL.C"
 741  078D  0F18        	mov a,24
 741  078E  0080     E  	mov _memset_2[4],a
 741  078F  1F00     E  	clr _memset_2[5]
 741  0790  1F00     E  	clr _memset_2[2]
 741  0791  1F00     E  	clr _memset_2[3]
 741  0792  0FA0        	mov a,low offset _Calibration
 741  0793  0080     E  	mov _memset_2[0],a
 741  0794  0F0E        	mov a,high offset _Calibration
 741  0795  0080     E  	mov _memset_2[1],a
 741  0796              	fcall _memset
 742  079D              #line 742 "c:\users\longshuangmin\desktop\worke_space\g-501\g-501\OpMode_Comm_CAL.C"
 742  079D  0F18        	mov a,24
 742  079E  0080     E  	mov _Read_EEPROMBuf_2[2],a
 742  079F  0FA0        	mov a,low offset _Calibration
 742  07A0  0080     E  	mov _Read_EEPROMBuf_2[0],a
 742  07A1  0F0E        	mov a,high offset _Calibration
 742  07A2  0080     E  	mov _Read_EEPROMBuf_2[1],a
 742  07A3  0F20        	mov a,32
 742  07A4              	fcall _Read_EEPROMBuf
 745  07AB              #line 745 "c:\users\longshuangmin\desktop\worke_space\g-501\g-501\OpMode_Comm_CAL.C"
 745  07AB  0F55        	mov a,85
 745  07AC  C080 001F   	lmov [8064],a
 746  07AE              #line 746 "c:\users\longshuangmin\desktop\worke_space\g-501\g-501\OpMode_Comm_CAL.C"
 746  07AE  0F1B        	mov a,27
 746  07AF  C081 001F   	lmov [8065],a
 747  07B1              #line 747 "c:\users\longshuangmin\desktop\worke_space\g-501\g-501\OpMode_Comm_CAL.C"
 747  07B1  C702 001E   	lmov a,[7810]
 747  07B3  C082 001F   	lmov [8066],a
 749  07B5              #line 749 "c:\users\longshuangmin\desktop\worke_space\g-501\g-501\OpMode_Comm_CAL.C"
 749  07B5  DF00 000A   	lclr [2688]
 747  07B7              #line 747 "c:\users\longshuangmin\desktop\worke_space\g-501\g-501\OpMode_Comm_CAL.C"
 747  07B7  0F03        	mov a,3
 747  07B8  0080     E  	mov ra,a
 747  07B9              _L59:
 747  07B9  0700     E  	mov a,ra
 747  07BA  0080     E  	mov rb,a
 747  07BB  1480     E  	inc rb
 749  07BC              #line 749 "c:\users\longshuangmin\desktop\worke_space\g-501\g-501\OpMode_Comm_CAL.C"
 749  07BC  0F17        	mov a,23
 749  07BD  C200 000A   	lsub a,[2688]
 749  07BF  380A        	snz c
 749  07C0  2800     R  	jmp _L78
 750  07C1              #line 750 "c:\users\longshuangmin\desktop\worke_space\g-501\g-501\OpMode_Comm_CAL.C"
 750  07C1  0FA0        	mov a,low offset _Calibration
 750  07C2  C300 000A   	ladd a,[2688]
文件：OpMode_Comm_CAL.C 编译器版本 HGASM 0202 页次32

 750  07C4  0083        	mov mp,a
 750  07C5  0F0E        	mov a,high offset _Calibration
 750  07C6  1F04        	clr sbp
 750  07C7  1384        	adcm a,sbp
 750  07C8              	fcall _Crom2Prom
 750  07CF  0080     E  	mov rc,a
 750  07D0  0F80        	mov a,low offset _M_UART_TxFIFO
 750  07D1  0300     E  	add a,ra
 750  07D2  0083        	mov mp,a
 750  07D3  0F1F        	mov a,high offset _M_UART_TxFIFO
 750  07D4  1F04        	clr sbp
 750  07D5  1384        	adcm a,sbp
 750  07D6  0700     E  	mov a,rc
 750  07D7  0082        	mov ir,a
 749  07D8              #line 749 "c:\users\longshuangmin\desktop\worke_space\g-501\g-501\OpMode_Comm_CAL.C"
 749  07D8  D480 000A   	linc [2688]
 750  07DA              #line 750 "c:\users\longshuangmin\desktop\worke_space\g-501\g-501\OpMode_Comm_CAL.C"
 750  07DA  0700     E  	mov a,rb
 750  07DB  0080     E  	mov ra,a
 750  07DC  2800     R  	jmp _L59
 750  07DD              _L78:
 752  07DD              #line 752 "c:\users\longshuangmin\desktop\worke_space\g-501\g-501\OpMode_Comm_CAL.C"
 752  07DD  0F80        	mov a,low offset _M_UART_TxFIFO
 752  07DE  0300     E  	add a,ra
 752  07DF  0083        	mov mp,a
 752  07E0  0F1F        	mov a,high offset _M_UART_TxFIFO
 752  07E1  1F04        	clr sbp
 752  07E2  1384        	adcm a,sbp
 752  07E3  0F00        	mov a,0
 752  07E4  0082        	mov ir,a
 753  07E5              #line 753 "c:\users\longshuangmin\desktop\worke_space\g-501\g-501\OpMode_Comm_CAL.C"
 753  07E5  0F80        	mov a,low offset _M_UART_TxFIFO
 753  07E6  0300     E  	add a,rb
 753  07E7  0083        	mov mp,a
 753  07E8  0F1F        	mov a,high offset _M_UART_TxFIFO
 753  07E9  1F04        	clr sbp
 753  07EA  1384        	adcm a,sbp
 753  07EB  0F00        	mov a,0
 753  07EC  0082        	mov ir,a
 753  07ED  2800     R  	jmp _L70
 753  07EE              _L30:
 764  07EE              #line 764 "c:\users\longshuangmin\desktop\worke_space\g-501\g-501\OpMode_Comm_CAL.C"
 764  07EE  0F55        	mov a,85
 764  07EF  C080 001F   	lmov [8064],a
 765  07F1              #line 765 "c:\users\longshuangmin\desktop\worke_space\g-501\g-501\OpMode_Comm_CAL.C"
 765  07F1  0F07        	mov a,7
 765  07F2  C081 001F   	lmov [8065],a
 766  07F4              #line 766 "c:\users\longshuangmin\desktop\worke_space\g-501\g-501\OpMode_Comm_CAL.C"
 766  07F4  C702 001E   	lmov a,[7810]
 766  07F6  C082 001F   	lmov [8066],a
 767  07F8              #line 767 "c:\users\longshuangmin\desktop\worke_space\g-501\g-501\OpMode_Comm_CAL.C"
 767  07F8  DF03 001F   	lclr [8067]
 768  07FA              #line 768 "c:\users\longshuangmin\desktop\worke_space\g-501\g-501\OpMode_Comm_CAL.C"
 768  07FA  DF04 001F   	lclr [8068]
 770  07FC              #line 770 "c:\users\longshuangmin\desktop\worke_space\g-501\g-501\OpMode_Comm_CAL.C"
 770  07FC  DF05 001F   	lclr [8069]
 771  07FE              #line 771 "c:\users\longshuangmin\desktop\worke_space\g-501\g-501\OpMode_Comm_CAL.C"
 771  07FE  DF06 001F   	lclr [8070]
 773  0800              #line 773 "c:\users\longshuangmin\desktop\worke_space\g-501\g-501\OpMode_Comm_CAL.C"
 773  0800  3096        	set [22].1
文件：OpMode_Comm_CAL.C 编译器版本 HGASM 0202 页次33

 774  0801              #line 774 "c:\users\longshuangmin\desktop\worke_space\g-501\g-501\OpMode_Comm_CAL.C"
 774  0801  0F03        	mov a,3
 774  0802  0080     E  	mov _M_Task[0],a
 775  0803              #line 775 "c:\users\longshuangmin\desktop\worke_space\g-501\g-501\OpMode_Comm_CAL.C"
 775  0803  1F00     E  	clr _M_TaskBuf0[0]
 776  0804              #line 776 "c:\users\longshuangmin\desktop\worke_space\g-501\g-501\OpMode_Comm_CAL.C"
 776  0804  1F00     E  	clr _M_TaskBuf1[0]
 778  0805              #line 778 "c:\users\longshuangmin\desktop\worke_space\g-501\g-501\OpMode_Comm_CAL.C"
 778  0805  1F00     E  	clr _M_Error_Task[0]
 780  0806              #line 780 "c:\users\longshuangmin\desktop\worke_space\g-501\g-501\OpMode_Comm_CAL.C"
 780  0806  0F00        	mov a,0
 780  0807              	fcall _LCD_Clear
 781  080E              #line 781 "c:\users\longshuangmin\desktop\worke_space\g-501\g-501\OpMode_Comm_CAL.C"
 781  080E  3000     E  	set _M_Unit[0].0
 781  080F  2800     R  	jmp _L70
 781  0810              _L73:
 794  0810              #line 794 "c:\users\longshuangmin\desktop\worke_space\g-501\g-501\OpMode_Comm_CAL.C"
 794  0810  DF05 001F   	lclr [8069]
 795  0812              #line 795 "c:\users\longshuangmin\desktop\worke_space\g-501\g-501\OpMode_Comm_CAL.C"
 795  0812  DF06 001F   	lclr [8070]
 795  0814              _L70:
 796  0814              #line 796 "c:\users\longshuangmin\desktop\worke_space\g-501\g-501\OpMode_Comm_CAL.C"
 796  0814  3020        	set [32].0
 796  0815              _L21:
 803  0815              #line 803 "c:\users\longshuangmin\desktop\worke_space\g-501\g-501\OpMode_Comm_CAL.C"
 803  0815  DE06 000E   	lsnz [3718]
 803  0817  2800     R  	jmp _L17
 805  0818              #line 805 "c:\users\longshuangmin\desktop\worke_space\g-501\g-501\OpMode_Comm_CAL.C"
 805  0818  3020        	set [32].0
 806  0819              #line 806 "c:\users\longshuangmin\desktop\worke_space\g-501\g-501\OpMode_Comm_CAL.C"
 806  0819  DF07 000E   	lclr [3719]
 808  081B              #line 808 "c:\users\longshuangmin\desktop\worke_space\g-501\g-501\OpMode_Comm_CAL.C"
 808  081B  DF00 000A   	lclr [2688]
 807  081D              #line 807 "c:\users\longshuangmin\desktop\worke_space\g-501\g-501\OpMode_Comm_CAL.C"
 807  081D  1F00     E  	clr rb
 807  081E  1F00     E  	clr rc
 807  081F              _L62:
 808  081F              #line 808 "c:\users\longshuangmin\desktop\worke_space\g-501\g-501\OpMode_Comm_CAL.C"
 808  081F  C700 000A   	lmov a,[2688]
 808  0821  0080     E  	mov rf,a
 808  0822  1F00     E  	clr rg
 808  0823  0FFE        	mov a,254
 808  0824  C301 001F   	ladd a,[8065]
 808  0826  0080     E  	mov rd,a
 808  0827  0FFF        	mov a,255
 808  0828  1F00     E  	clr re
 808  0829  1380     E  	adcm a,re
 808  082A  0700     E  	mov a,rf
 808  082B  0200     E  	sub a,rd
 808  082C  0700     E  	mov a,rg
 808  082D  1200     E  	sbc a,re
 808  082E  3B8A        	snz sc
 808  082F  2800     R  	jmp _L79
 809  0830              #line 809 "c:\users\longshuangmin\desktop\worke_space\g-501\g-501\OpMode_Comm_CAL.C"
 809  0830  0F80        	mov a,low offset _M_UART_TxFIFO
 809  0831  C300 000A   	ladd a,[2688]
 809  0833  0083        	mov mp,a
 809  0834  0F1F        	mov a,high offset _M_UART_TxFIFO
 809  0835  1F04        	clr sbp
 809  0836  1384        	adcm a,sbp
文件：OpMode_Comm_CAL.C 编译器版本 HGASM 0202 页次34

 809  0837              	fcall _Crom2Prom
 809  083E  0080     E  	mov ra,a
 809  083F  0700     E  	mov a,ra
 809  0840  0380     E  	addm a,rb
 809  0841  3C0A        	sz c
 809  0842  1480     E  	inc rc
 808  0843              #line 808 "c:\users\longshuangmin\desktop\worke_space\g-501\g-501\OpMode_Comm_CAL.C"
 808  0843  D480 000A   	linc [2688]
 808  0845  2800     R  	jmp _L62
 808  0846              _L79:
 810  0846              #line 810 "c:\users\longshuangmin\desktop\worke_space\g-501\g-501\OpMode_Comm_CAL.C"
 810  0846  0F7E        	mov a,low (offset _M_UART_TxFIFO-2)
 810  0847  C301 001F   	ladd a,[8065]
 810  0849  0083        	mov mp,a
 810  084A  0F1F        	mov a,high (offset _M_UART_TxFIFO-2)
 810  084B  1F04        	clr sbp
 810  084C  1384        	adcm a,sbp
 810  084D  0700     E  	mov a,rb
 810  084E  0082        	mov ir,a
 811  084F              #line 811 "c:\users\longshuangmin\desktop\worke_space\g-501\g-501\OpMode_Comm_CAL.C"
 811  084F  0F7F        	mov a,low (offset _M_UART_TxFIFO-1)
 811  0850  C301 001F   	ladd a,[8065]
 811  0852  0083        	mov mp,a
 811  0853  0F1F        	mov a,high (offset _M_UART_TxFIFO-1)
 811  0854  1F04        	clr sbp
 811  0855  1384        	adcm a,sbp
 811  0856  0700     E  	mov a,rc
 811  0857  0082        	mov ir,a
 813  0858              #line 813 "c:\users\longshuangmin\desktop\worke_space\g-501\g-501\OpMode_Comm_CAL.C"
 813  0858  C701 001F   	lmov a,[8065]
 813  085A  0080     E  	mov _M_UART_TxLength[0],a
 814  085B              #line 814 "c:\users\longshuangmin\desktop\worke_space\g-501\g-501\OpMode_Comm_CAL.C"
 814  085B  1F00     E  	clr _M_UART_TxIndex[0]
 815  085C              #line 815 "c:\users\longshuangmin\desktop\worke_space\g-501\g-501\OpMode_Comm_CAL.C"
 815  085C  C700 001F   	lmov a,[8064]
 815  085E  00B2        	mov [50],a
 817  085F              #line 817 "c:\users\longshuangmin\desktop\worke_space\g-501\g-501\OpMode_Comm_CAL.C"
 817  085F  1F00     E  	clr _M_UART_RxIndex[0]
 818  0860              #line 818 "c:\users\longshuangmin\desktop\worke_space\g-501\g-501\OpMode_Comm_CAL.C"
 818  0860  0F80        	mov a,-128
 818  0861  0080     E  	mov _memset_2[4],a
 818  0862  1F00     E  	clr _memset_2[5]
 818  0863  1F00     E  	clr _memset_2[2]
 818  0864  1F00     E  	clr _memset_2[3]
 818  0865  0F80        	mov a,low offset _M_UART_RxFIFO
 818  0866  0080     E  	mov _memset_2[0],a
 818  0867  0F1E        	mov a,high offset _M_UART_RxFIFO
 818  0868  0080     E  	mov _memset_2[1],a
 818  0869              	fcall _memset
 819  0870              #line 819 "c:\users\longshuangmin\desktop\worke_space\g-501\g-501\OpMode_Comm_CAL.C"
 819  0870  DF06 000E   	lclr [3718]
 819  0872              _L17:
 828  0872              #line 828 "c:\users\longshuangmin\desktop\worke_space\g-501\g-501\OpMode_Comm_CAL.C"
 828  0872  1480     E  	inc _M_No_Active_Cnt[0]
 828  0873  3D0A        	sz z
 828  0874  1480     E  	inc _M_No_Active_Cnt[1]
 829  0875              #line 829 "c:\users\longshuangmin\desktop\worke_space\g-501\g-501\OpMode_Comm_CAL.C"
 829  0875  0F6F        	mov a,111
 829  0876  0200     E  	sub a,_M_No_Active_Cnt[0]
 829  0877  0F17        	mov a,23
文件：OpMode_Comm_CAL.C 编译器版本 HGASM 0202 页次35

 829  0878  1200     E  	sbc a,_M_No_Active_Cnt[1]
 829  0879  3C0A        	sz c
 829  087A  2800     R  	jmp _L16
 831  087B              #line 831 "c:\users\longshuangmin\desktop\worke_space\g-501\g-501\OpMode_Comm_CAL.C"
 831  087B  1F00     E  	clr _M_No_Active_Cnt[0]
 831  087C  1F00     E  	clr _M_No_Active_Cnt[1]
 832  087D              #line 832 "c:\users\longshuangmin\desktop\worke_space\g-501\g-501\OpMode_Comm_CAL.C"
 832  087D  0F03        	mov a,3
 832  087E  0080     E  	mov _M_Task[0],a
 833  087F              #line 833 "c:\users\longshuangmin\desktop\worke_space\g-501\g-501\OpMode_Comm_CAL.C"
 833  087F  1F00     E  	clr _M_TaskBuf0[0]
 834  0880              #line 834 "c:\users\longshuangmin\desktop\worke_space\g-501\g-501\OpMode_Comm_CAL.C"
 834  0880  1F00     E  	clr _M_TaskBuf1[0]
 835  0881              #line 835 "c:\users\longshuangmin\desktop\worke_space\g-501\g-501\OpMode_Comm_CAL.C"
 835  0881  1F00     E  	clr _M_RTC_display[0]
 835  0882  1F00     E  	clr _M_RTC_display[1]
 835  0883              _L16:
 835  0883  0003        	ret
 835  0884              _TestingMode endp
 835  0884              #line 835 "c:\users\longshuangmin\desktop\worke_space\g-501\g-501\OpMode_Comm_CAL.C"
 835  0884              #pragma debug scope 1 1
 835  0006              @crom	.section 'crom'
 835  0006              _LC3:
 835  0006              	db 04ch,02dh,062h,00h
 835  0008              @crom	.section 'crom'
 835  0008              _LC4:
 835  0008              	db 045h,02dh,062h,00h
 835  000A              public _Error_meassage_process
 835  000A              #pragma debug scope 4 1
 845  000A              #line 845 "c:\users\longshuangmin\desktop\worke_space\g-501\g-501\OpMode_Comm_CAL.C"
 845  0000              _Error_meassage_process .section 'code'
 845  0000              _Error_meassage_process proc
 845  0000  00              local _Error_meassage_process_2 db 1 dup(?)	; 0,1
 846  0001              #line 846 "c:\users\longshuangmin\desktop\worke_space\g-501\g-501\OpMode_Comm_CAL.C"
 846  0000  0700     E  	mov a,_M_Error_Task[0]
 846  0001  0080     R  	mov _Error_meassage_process_2[0],a
 846  0002  0700     R  	mov a,_Error_meassage_process_2[0]
 846  0003  0A00        	sub a,0
 846  0004  3D0A        	sz z
 846  0005  2800     R  	jmp _L80
 846  0006  0A01        	sub a,(1)-(0)
 846  0007  3D0A        	sz z
 846  0008  2800     R  	jmp _L82
 850  0009              #line 850 "c:\users\longshuangmin\desktop\worke_space\g-501\g-501\OpMode_Comm_CAL.C"
 850  0009  0700     R  	mov a,_Error_meassage_process_2[0]
 850  000A  0A02        	sub a,2
 850  000B  3D0A        	sz z
 850  000C  2800     R  	jmp _L83
 850  000D  0A01        	sub a,(3)-(2)
 850  000E  3D0A        	sz z
 850  000F  2800     R  	jmp _L84
 850  0010  0700     R  	mov a,_Error_meassage_process_2[0]
 850  0011  0A04        	sub a,4
 850  0012  3D0A        	sz z
 850  0013  2800     R  	jmp _L85
 850  0014  0A01        	sub a,(5)-(4)
 850  0015  3D0A        	sz z
 850  0016  2800     R  	jmp _L86
 850  0017  0700     R  	mov a,_Error_meassage_process_2[0]
 850  0018  0A06        	sub a,6
文件：OpMode_Comm_CAL.C 编译器版本 HGASM 0202 页次36

 850  0019  3D0A        	sz z
 850  001A  2800     R  	jmp _L87
 850  001B  0700     R  	mov a,_Error_meassage_process_2[0]
 850  001C  0A07        	sub a,7
 850  001D  390A        	snz z
 850  001E  2800     R  	jmp _L80
 899  001F              #line 899 "c:\users\longshuangmin\desktop\worke_space\g-501\g-501\OpMode_Comm_CAL.C"
 899  001F  0F00     E  	mov a,low (offset _charTab+138)
 899  0020  0083        	mov mp,a
 899  0021  0F00     E  	mov a,high (offset _charTab+138)
 899  0022  0084        	mov sbp,a
 899  0023              	fcall _Crom2Prom
 899  002A  0080     E  	mov _lcd[16],a
 899  002B              	fcall _Crom2PromNext
 899  0032  0080     E  	mov _lcd[17],a
 901  0033              #line 901 "c:\users\longshuangmin\desktop\worke_space\g-501\g-501\OpMode_Comm_CAL.C"
 901  0033  0FCF        	mov a,207
 901  0034  0383        	addm a,mp
 901  0035  0FFF        	mov a,255
 901  0036  1384        	adcm a,sbp
 901  0037              	fcall _Crom2Prom
 901  003E  0080     E  	mov _lcd[18],a
 901  003F              	fcall _Crom2PromNext
 901  0046  0080     E  	mov _lcd[19],a
 902  0047              #line 902 "c:\users\longshuangmin\desktop\worke_space\g-501\g-501\OpMode_Comm_CAL.C"
 902  0047  0F2B        	mov a,43
 902  0048  0383        	addm a,mp
 902  0049  0F00        	mov a,0
 902  004A  1384        	adcm a,sbp
 902  004B  2800     R  	jmp _L92
 902  004C              _L82:
 855  004C              #line 855 "c:\users\longshuangmin\desktop\worke_space\g-501\g-501\OpMode_Comm_CAL.C"
 855  004C  0F00     E  	mov a,low (offset _charTab+138)
 855  004D  0083        	mov mp,a
 855  004E  0F00     E  	mov a,high (offset _charTab+138)
 855  004F  0084        	mov sbp,a
 855  0050              	fcall _Crom2Prom
 855  0057  0080     E  	mov _lcd[16],a
 855  0058              	fcall _Crom2PromNext
 855  005F  0080     E  	mov _lcd[17],a
 857  0060              #line 857 "c:\users\longshuangmin\desktop\worke_space\g-501\g-501\OpMode_Comm_CAL.C"
 857  0060  0FCF        	mov a,207
 857  0061  0383        	addm a,mp
 857  0062  0FFF        	mov a,255
 857  0063  1384        	adcm a,sbp
 857  0064              	fcall _Crom2Prom
 857  006B  0080     E  	mov _lcd[18],a
 857  006C              	fcall _Crom2PromNext
 857  0073  0080     E  	mov _lcd[19],a
 858  0074              #line 858 "c:\users\longshuangmin\desktop\worke_space\g-501\g-501\OpMode_Comm_CAL.C"
 858  0074  0F4F        	mov a,79
 858  0075  0383        	addm a,mp
 858  0076  0F00        	mov a,0
 858  0077  1384        	adcm a,sbp
 858  0078  2800     R  	jmp _L92
 858  0079              _L83:
 863  0079              #line 863 "c:\users\longshuangmin\desktop\worke_space\g-501\g-501\OpMode_Comm_CAL.C"
 863  0079  0F00     R  	mov a,low offset _LC3
 863  007A  0080     E  	mov _Show_BigString_2[0],a
 863  007B  0F00     R  	mov a,high offset _LC3
文件：OpMode_Comm_CAL.C 编译器版本 HGASM 0202 页次37

 863  007C  0080     E  	mov _Show_BigString_2[1],a
 863  007D  2800     R  	jmp _L93
 863  007E              _L84:
 869  007E              #line 869 "c:\users\longshuangmin\desktop\worke_space\g-501\g-501\OpMode_Comm_CAL.C"
 869  007E  0F00     E  	mov a,low (offset _charTab+138)
 869  007F  0083        	mov mp,a
 869  0080  0F00     E  	mov a,high (offset _charTab+138)
 869  0081  0084        	mov sbp,a
 869  0082              	fcall _Crom2Prom
 869  0089  0080     E  	mov _lcd[16],a
 869  008A              	fcall _Crom2PromNext
 869  0091  0080     E  	mov _lcd[17],a
 871  0092              #line 871 "c:\users\longshuangmin\desktop\worke_space\g-501\g-501\OpMode_Comm_CAL.C"
 871  0092  0FCF        	mov a,207
 871  0093  0383        	addm a,mp
 871  0094  0FFF        	mov a,255
 871  0095  1384        	adcm a,sbp
 871  0096              	fcall _Crom2Prom
 871  009D  0080     E  	mov _lcd[18],a
 871  009E              	fcall _Crom2PromNext
 871  00A5  0080     E  	mov _lcd[19],a
 872  00A6              #line 872 "c:\users\longshuangmin\desktop\worke_space\g-501\g-501\OpMode_Comm_CAL.C"
 872  00A6  0F0B        	mov a,11
 872  00A7  0383        	addm a,mp
 872  00A8  0F00        	mov a,0
 872  00A9  1384        	adcm a,sbp
 872  00AA  2800     R  	jmp _L92
 872  00AB              _L85:
 877  00AB              #line 877 "c:\users\longshuangmin\desktop\worke_space\g-501\g-501\OpMode_Comm_CAL.C"
 877  00AB  0F00     E  	mov a,low (offset _charTab+138)
 877  00AC  0083        	mov mp,a
 877  00AD  0F00     E  	mov a,high (offset _charTab+138)
 877  00AE  0084        	mov sbp,a
 877  00AF              	fcall _Crom2Prom
 877  00B6  0080     E  	mov _lcd[16],a
 877  00B7              	fcall _Crom2PromNext
 877  00BE  0080     E  	mov _lcd[17],a
 879  00BF              #line 879 "c:\users\longshuangmin\desktop\worke_space\g-501\g-501\OpMode_Comm_CAL.C"
 879  00BF  0FCF        	mov a,207
 879  00C0  0383        	addm a,mp
 879  00C1  0FFF        	mov a,255
 879  00C2  1384        	adcm a,sbp
 879  00C3              	fcall _Crom2Prom
 879  00CA  0080     E  	mov _lcd[18],a
 879  00CB              	fcall _Crom2PromNext
 879  00D2  0080     E  	mov _lcd[19],a
 881  00D3              #line 881 "c:\users\longshuangmin\desktop\worke_space\g-501\g-501\OpMode_Comm_CAL.C"
 881  00D3  0F8D        	mov a,141
 881  00D4  0383        	addm a,mp
 881  00D5  0F00        	mov a,0
 881  00D6  1384        	adcm a,sbp
 881  00D7  2800     R  	jmp _L92
 881  00D8              _L86:
 885  00D8              #line 885 "c:\users\longshuangmin\desktop\worke_space\g-501\g-501\OpMode_Comm_CAL.C"
 885  00D8  0F00     E  	mov a,low (offset _charTab+138)
 885  00D9  0083        	mov mp,a
 885  00DA  0F00     E  	mov a,high (offset _charTab+138)
 885  00DB  0084        	mov sbp,a
 885  00DC              	fcall _Crom2Prom
 885  00E3  0080     E  	mov _lcd[16],a
文件：OpMode_Comm_CAL.C 编译器版本 HGASM 0202 页次38

 885  00E4              	fcall _Crom2PromNext
 885  00EB  0080     E  	mov _lcd[17],a
 887  00EC              #line 887 "c:\users\longshuangmin\desktop\worke_space\g-501\g-501\OpMode_Comm_CAL.C"
 887  00EC  0FCF        	mov a,207
 887  00ED  0383        	addm a,mp
 887  00EE  0FFF        	mov a,255
 887  00EF  1384        	adcm a,sbp
 887  00F0              	fcall _Crom2Prom
 887  00F7  0080     E  	mov _lcd[18],a
 887  00F8              	fcall _Crom2PromNext
 887  00FF  0080     E  	mov _lcd[19],a
 889  0100              #line 889 "c:\users\longshuangmin\desktop\worke_space\g-501\g-501\OpMode_Comm_CAL.C"
 889  0100  0F0F        	mov a,15
 889  0101  0383        	addm a,mp
 889  0102  0F00        	mov a,0
 889  0103  1384        	adcm a,sbp
 889  0104  2800     R  	jmp _L92
 889  0105              _L87:
 894  0105              #line 894 "c:\users\longshuangmin\desktop\worke_space\g-501\g-501\OpMode_Comm_CAL.C"
 894  0105  0F00     R  	mov a,low offset _LC4
 894  0106  0080     E  	mov _Show_BigString_2[0],a
 894  0107  0F00     R  	mov a,high offset _LC4
 894  0108  0080     E  	mov _Show_BigString_2[1],a
 894  0109              _L93:
 894  0109              	fcall _Show_BigString
 895  0110              #line 895 "c:\users\longshuangmin\desktop\worke_space\g-501\g-501\OpMode_Comm_CAL.C"
 895  0110  2800     R  	jmp _L80
 895  0111              _L92:
 902  0111              #line 902 "c:\users\longshuangmin\desktop\worke_space\g-501\g-501\OpMode_Comm_CAL.C"
 902  0111              	fcall _Crom2Prom
 902  0118  0080     E  	mov _lcd[20],a
 902  0119              	fcall _Crom2PromNext
 902  0120  0080     E  	mov _lcd[21],a
 902  0121              _L80:
 902  0121  0003        	ret
 902  0122              _Error_meassage_process endp
 902  0122              #line 902 "c:\users\longshuangmin\desktop\worke_space\g-501\g-501\OpMode_Comm_CAL.C"
 902  0122              #pragma debug scope 1 1
  17  0122              #line 17 "c:\users\longshuangmin\desktop\worke_space\g-501\g-501\OpMode_Comm_CAL.C"
  17  0122              public _bdmode
  17  0000              @HCCINIT0_bdmode .section 'data'
  17  0000  0002[       _bdmode	db 2 dup(0)
            00
            ]
  17  0002              #pragma debug variable 12 1 _bdmode "bdmode"
  17  0002              
  17  0000              @HCCINIT .section 'data'
  17  0000              #pragma debug struct_end
  17  0000              #pragma debug struct_end
  17  0000              #pragma debug union_end
  17  0000              #pragma debug union_end
  17  0000              #pragma debug variable 43 1 ___pa "__pa" 1
  17  0000              #pragma debug struct_end
  17  0000              #pragma debug struct_end
  17  0000              #pragma debug union_end
  17  0000              #pragma debug union_end
  17  0000              #pragma debug variable 45 1 ___pac "__pac" 1
  17  0000              #pragma debug struct_end
  17  0000              #pragma debug struct_end
  17  0000              #pragma debug union_end
文件：OpMode_Comm_CAL.C 编译器版本 HGASM 0202 页次39

  17  0000              #pragma debug union_end
  17  0000              #pragma debug variable 47 1 ___papu "__papu" 1
  17  0000              #pragma debug struct_end
  17  0000              #pragma debug struct_end
  17  0000              #pragma debug union_end
  17  0000              #pragma debug union_end
  17  0000              #pragma debug variable 49 1 ___intc0 "__intc0" 1
  17  0000              #pragma debug struct_end
  17  0000              #pragma debug struct_end
  17  0000              #pragma debug union_end
  17  0000              #pragma debug union_end
  17  0000              #pragma debug variable 51 1 ___txr_rxr0 "__txr_rxr0" 1
  17  0000              #pragma debug variable 8 1 ___pvref "__pvref" 1
  17  0000              #pragma debug struct_end
  17  0000              #pragma debug struct_end
  17  0000              #pragma debug union_end
  17  0000              #pragma debug union_end
  17  0000              #pragma debug variable 53 1 ___opa1c "__opa1c" 1
  17  0000              #pragma debug struct_end
  17  0000              #pragma debug struct_end
  17  0000              #pragma debug union_end
  17  0000              #pragma debug union_end
  17  0000              #pragma debug variable 55 1 ___gsc1 "__gsc1" 1
  17  0000              #pragma debug struct_end
  17  0000              #pragma debug struct_end
  17  0000              #pragma debug union_end
  17  0000              #pragma debug union_end
  17  0000              #pragma debug variable 57 1 ___gsc2 "__gsc2" 1
  17  0000              #pragma debug struct_end
  17  0000              #pragma debug struct_end
  17  0000              #pragma debug union_end
  17  0000              #pragma debug union_end
  17  0000              #pragma debug variable 59 1 ___gsc3 "__gsc3" 1
  17  0000              #pragma debug variable 8 1 ___afeda1l "__afeda1l" 1
  17  0000              #pragma debug variable 8 1 ___afeda1h "__afeda1h" 1
  17  0000              #pragma debug struct_end
  17  0000              #pragma debug struct_end
  17  0000              #pragma debug union_end
  17  0000              #pragma debug union_end
  17  0000              #pragma debug variable 61 1 ___sgc "__sgc" 1
  17  0000              #pragma debug struct_end
  17  0000              #pragma debug struct_end
  17  0000              #pragma debug union_end
  17  0000              #pragma debug union_end
  17  0000              #pragma debug variable 63 1 ___bopac0 "__bopac0" 1
  17  0000              #pragma debug struct_end
  17  0000              #pragma debug struct_end
  17  0000              #pragma debug union_end
  17  0000              #pragma debug union_end
  17  0000              #pragma debug variable 65 1 ___bopac1 "__bopac1" 1
  17  0000              #pragma debug struct_end
  17  0000              #pragma debug struct_end
  17  0000              #pragma debug union_end
  17  0000              #pragma debug union_end
  17  0000              #pragma debug variable 67 1 ___bswc2 "__bswc2" 1
  17  0000              #pragma debug array 68 8 128 1
  17  0000              #pragma debug array 68 8 128 1
  17  0000              #pragma debug variable 68 1 _M_UART_RxFIFO "M_UART_RxFIFO" 128
  17  0000              #pragma debug variable 68 1 _M_UART_TxFIFO "M_UART_TxFIFO" 128
  17  0000              #pragma debug array 69 11 40 1
文件：OpMode_Comm_CAL.C 编译器版本 HGASM 0202 页次40

  17  0000              #pragma debug array 69 11 40 1
  17  0000              #pragma debug variable 69 1 _M_Impedance_data "M_Impedance_data" 80
  17  0000              #pragma debug array 70 29 10 1
  17  0000              #pragma debug array 70 29 10 1
  17  0000              #pragma debug variable 70 1 _M_Impedance_buf "M_Impedance_buf" 40
  17  0000              #pragma debug variable 8 1 _mi "mi" 1
  17  0000              #pragma debug array 71 11 64 1
  17  0000              #pragma debug array 71 11 64 1
  17  0000              #pragma debug variable 71 1 _DC_data_buf "DC_data_buf" 128
  17  0000              #pragma debug variable 8 1 _memkey "memkey" 1
  17  0000              #pragma debug variable 8 1 _setkey "setkey" 1
  17  0000              #pragma debug variable 8 1 _uar_en "uar_en" 1
  17  0000              #pragma debug variable 8 1 _test_mode "test_mode" 1
  17  0000              #pragma debug variable 8 1 _imp "imp" 1
  17  0000              #pragma debug variable 11 1 _avg_ad "avg_ad" 2
  17  0000              #pragma debug variable 11 1 _avg_ad2 "avg_ad2" 2
  17  0000              #pragma debug struct_end
  17  0000              #pragma debug struct_end
  17  0000              #pragma debug union_end
  17  0000              #pragma debug union_end
  17  0000              #pragma debug variable 73 1 _Calibration "Calibration" 24
  17  0000              #pragma debug variable 12 1 _auto_code "auto_code" 2
  17  0000              #pragma debug variable 7 1 _set_temp_25 "set_temp_25" 1
  17  0000              
  17  0000              ; output external variables
  17  0000              extern _charTab:near
  17  0000              extern _M_UART_TxIndex:byte
  17  0000              extern _M_UART_TxLength:byte
  17  0000              extern _M_Error_Task:byte
  17  0000              extern _M_Task:byte
  17  0000              extern _M_Lbuf0:byte
  17  0000              extern _M_Impedance:byte
  17  0000              extern _M_Temperature:byte
  17  0000              extern _SDKADCSourceData:byte
  17  0000              extern _M_Unit:byte
  17  0000              extern _Flag2:byte
  17  0000              extern _lcd:byte
  17  0000              extern _Flag4:byte
  17  0000              extern _M_No_Active_Cnt:byte
  17  0000              extern _M_RTC_display:byte
  17  0000              extern _M_Cbuf0:byte
  17  0000              extern _M_TaskBuf1:byte
  17  0000              extern _M_TaskBuf0:byte
  17  0000              extern _M_UART_RxIndex:byte
  17  0000              extern _Load_VrefDaco_Vaule:near
  17  0000              extern _fun_UART0PowerOnInit:near
  17  0000              extern _fun_DACVREFInit_2:byte
  17  0000              extern _fun_DACVREFInit:near
  17  0000              extern _fun_DACnInit_2:byte
  17  0000              extern _fun_DACnInit:near
  17  0000              extern _fun_CalOPA1Offset:near
  17  0000              extern _fun_CalOPA2Offset:near
  17  0000              extern _fun_CalOPA3Offset:near
  17  0000              extern _LCD_Clear:near
  17  0000              extern _Measurement_Op1n1_Op1s1:near
  17  0000              extern _memset_2:byte
  17  0000              extern _memset:near
  17  0000              extern _Show_BigString_2:byte
  17  0000              extern _Show_BigString:near
  17  0000              extern _builtin_holtek_udivmodqi4_2:byte
文件：OpMode_Comm_CAL.C 编译器版本 HGASM 0202 页次41

  17  0000              extern _builtin_holtek_udivmodqi4:near
  17  0000              extern _Lcd_Clock_Process_2:byte
  17  0000              extern _Lcd_Clock_Process:near
  17  0000              extern _fun_ADCStop:near
  17  0000              extern _fun_StripModuleAllOpen:near
  17  0000              extern _InitADC_Op1n1_Op1s1:near
  17  0000              extern _fun_ADCStart:near
  17  0000              extern _builtin_holtek_mant1:byte
  17  0000              extern _builtin_holtek_mant12p:byte
  17  0000              extern _builtin_holtek_itod:near
  17  0000              extern _builtin_holtek_mant2:byte
  17  0000              extern _builtin_holtek_dtadd:near
  17  0000              extern _builtin_holtek_dtmul:near
  17  0000              extern _builtin_holtek_dtol:near
  17  0000              extern _builtin_holtek_signs:byte
  17  0000              extern _builtin_holtek_uitod:near
  17  0000              extern _builtin_holtek_dtdiv:near
  17  0000              extern _Measurement_Temp:near
  17  0000              extern _LCD_Clear_Buff:near
  17  0000              extern _abs_2:byte
  17  0000              extern _abs:near
  17  0000              extern _ShowDec_BigNum_2:byte
  17  0000              extern _ShowDec_BigNum:near
  17  0000              extern _intit_Impedance:near
  17  0000              extern _Set_HCT_Adc_Channel:near
  17  0000              extern _Impedance_Compute_2:byte
  17  0000              extern _Impedance_Compute:near
  17  0000              extern _builtin_holtek_dtsub:near
  17  0000              extern _Write_EEPROMBuf_2:byte
  17  0000              extern _Write_EEPROMBuf:near
  17  0000              extern _Read_EEPROMBuf_2:byte
  17  0000              extern _Read_EEPROMBuf:near
  17  0000              
  17  0000              ; 
  17  0000              ; Generated by holtek-gcc v3.19, Fri May 23 10:39:46 2025
  17  0000              ; Rebuild 718
  17  0000              ; end of file


        0 Errors, 0