文件：OpMode_A.C   编译器版本 HGASM 0202 页次1


   1  0000              ; Generated by holtek-gcc v3.19, Fri May 23 10:39:45 2025
   2  0000              ; 
   3  0000              ; Configuration:
   4  0000              ;       with long instruction
   5  0000              ;       Multi-ROM, Multi-RAM
   6  0000              ;       bits_per_rom_unit:16
   7  0000              ;       with mp1
   8  0000              ;       with tbhp, address(0x9)
   9  0000              ;          Use tabrd-const
  10  0000              ;       
  11  0000              ; SFR address of long-instruction arch:
  12  0000              ;    mp0 = -1,1,0
  13  0000              ;    mp1 = 4,3,2
  14  0000              ;    mp2 = 14,13,12
  15  0000              ;    tbp = 9,7,8
  16  0000              ;    acc = 5
  17  0000              ;    pcl = 6
  18  0000              ;    status = 10
  19  0000              ;    bp = 11
  20  0000              ;    intc = 32
  21  0000              ;       
  22  0000              ;       
  23  0000              ; use 'tabrdc' instead of 'tabrd'
  24  0000              ;       
  25  0000              
  26  0000              #pragma translator "holtek-gcc 4.6.4" "3.19" "build 20130711"
  27  0000              ; Rebuild 718
  28  0000              
  29  0000              ir equ [2]
  30  0000              mp equ [3]
  31  0000              sbp equ [4]
  32  0000              acc equ [5]
  33  0000              bp equ [11]
  34  0000              tblp equ [7]
  35  0000              tbhp equ [9]
  36  0000              status equ [10]
  37  0000              c equ [10].0
  38  0000              ac equ [10].1
  39  0000              z equ [10].2
  40  0000              ov equ [10].3
  41  0000              cz equ [10].6
  42  0000              sc equ [10].7
  43  0000              intc equ [32]
  44  0000              mduwr0 equ [59h]
  45  0000              mduwr1 equ [5ah]
  46  0000              mduwr2 equ [5bh]
  47  0000              mduwr3 equ [5ch]
  48  0000              mduwr4 equ [5dh]
  49  0000              mduwr5 equ [5eh]
  50  0000              mduwrctrl equ [5fh]
  51  0000              
  52  0000              extern ra:byte
  53  0000              extern rb:byte
  54  0000              extern rc:byte
  55  0000              extern rd:byte
  56  0000              extern re:byte
  57  0000              extern rf:byte
  58  0000              extern rg:byte
  59  0000              extern rh:byte
文件：OpMode_A.ASM 编译器版本 HGASM 0202 页次2

  60  0000              extern _Crom2Prom:near
  61  0000              extern _Crom2PromNext:near
  62  0000              
  63  0000              RAMBANK 0 @BITDATASEC, @BITDATASEC1
  64  0000              @HCCINIT	.section 'data'
  65  0000              @HCCINIT0	.section 'data'
  66  0000              @BITDATASEC	 .section 'data'
  67  0000              @BITDATASEC1	 .section 'data'
  68  0000              
  69  0000              #pragma debug scope 1 1
  70  0000              	extern __DELAY3:near
  71  0000              	extern __DELAYX3:near
  72  0000              	extern __DELAYX6:near
  73  0000              	extern __DELAYY5:near
  74  0000              	extern __DELAYY3:near
  75  0000              	extern _builtin_holtek_delay_2:byte
  76  0000              public _init_Error_Task
  77  0000              #pragma debug scope 2 1

  29  0000              #line 29 "c:\users\longshuangmin\desktop\worke_space\g-501\g-501\OpMode_A.C"
  29  0000              _init_Error_Task .section 'code'
  29  0000              _init_Error_Task proc
  29  0000  00              local _init_Error_Task_2 db 1 dup(?)	; 0,1
  29  0000  0080     E  	mov ra,a
  29  0001              #pragma debug variable 8 2 _init_Error_Task_2+0 "err_number"
  31  0001              #line 31 "c:\users\longshuangmin\desktop\worke_space\g-501\g-501\OpMode_A.C"
  31  0001  0F16        	mov a,22
  31  0002  0080     E  	mov _M_TaskBuf0[0],a
  32  0003              #line 32 "c:\users\longshuangmin\desktop\worke_space\g-501\g-501\OpMode_A.C"
  32  0003  1F00     E  	clr _M_TaskBuf1[0]
  34  0004              #line 34 "c:\users\longshuangmin\desktop\worke_space\g-501\g-501\OpMode_A.C"
  34  0004  0700     E  	mov a,ra
  34  0005  0080     E  	mov _M_Error_Task[0],a
  35  0006              #line 35 "c:\users\longshuangmin\desktop\worke_space\g-501\g-501\OpMode_A.C"
  35  0006  1F00     E  	clr _M_ErrorCount[0]
  36  0007              #line 36 "c:\users\longshuangmin\desktop\worke_space\g-501\g-501\OpMode_A.C"
  36  0007  1F00     E  	clr _M_RTC_display[0]
  36  0008  1F00     E  	clr _M_RTC_display[1]
  37  0009              #line 37 "c:\users\longshuangmin\desktop\worke_space\g-501\g-501\OpMode_A.C"
  37  0009  0F00        	mov a,0
  37  000A              	fcall _LCD_Clear
  37  0011  0003        	ret
  37  0012              _init_Error_Task endp
  37  0012              #line 37 "c:\users\longshuangmin\desktop\worke_space\g-501\g-501\OpMode_A.C"
  37  0012              #pragma debug scope 1 1
  37  0012              public _send_uart_data
  37  0012              #pragma debug scope 3 1
 168  0012              #line 168 "c:\users\longshuangmin\desktop\worke_space\g-501\g-501\OpMode_A.C"
 168  0000              _send_uart_data .section 'code'
 168  0000              _send_uart_data proc
 168  0000  0003        	ret
 168  0001              _send_uart_data endp
 168  0001              #line 168 "c:\users\longshuangmin\desktop\worke_space\g-501\g-501\OpMode_A.C"
 168  0001              #pragma debug scope 1 1
 168  0001              ___opa1c equ [109]
 168  0001              ___opa2c equ [110]
 168  0001              ___bopac0 equ [123]
 168  0001              ___bopac1 equ [124]
 168  0001              ___gsc3 equ [113]
 168  0001              ___sgc equ [120]
文件：OpMode_A.C   编译器版本 HGASM 0202 页次3

 168  0001              ___pac equ [21]
 168  0001              ___papu equ [22]
 168  0001              ___pa equ [20]
 168  0001              ___bswc2 equ [127]
 168  0001              public _intit_Impedance
 168  0001              #pragma debug scope 4 1
 315  0001              #line 315 "c:\users\longshuangmin\desktop\worke_space\g-501\g-501\OpMode_A.C"
 315  0000              _intit_Impedance .section 'code'
 315  0000              _intit_Impedance proc
 316  0000              #line 316 "c:\users\longshuangmin\desktop\worke_space\g-501\g-501\OpMode_A.C"
 316  0000  36ED        	clr [109].5
 317  0001              #line 317 "c:\users\longshuangmin\desktop\worke_space\g-501\g-501\OpMode_A.C"
 317  0001  36EE        	clr [110].5
 318  0002              #line 318 "c:\users\longshuangmin\desktop\worke_space\g-501\g-501\OpMode_A.C"
 318  0002  37FB        	clr [123].7
 318  0003  36FC        	clr [124].5
 319  0004              #line 319 "c:\users\longshuangmin\desktop\worke_space\g-501\g-501\OpMode_A.C"
 319  0004  34F1        	clr [113].1
 319  0005  3471        	clr [113].0
 320  0006              #line 320 "c:\users\longshuangmin\desktop\worke_space\g-501\g-501\OpMode_A.C"
 320  0006  35F1        	clr [113].3
 320  0007  3571        	clr [113].2
 321  0008              #line 321 "c:\users\longshuangmin\desktop\worke_space\g-501\g-501\OpMode_A.C"
 321  0008  3678        	clr [120].4
 322  0009              #line 322 "c:\users\longshuangmin\desktop\worke_space\g-501\g-501\OpMode_A.C"
 322  0009              	fcall _fun_StripModuleAllOpen
 330  0010              #line 330 "c:\users\longshuangmin\desktop\worke_space\g-501\g-501\OpMode_A.C"
 330  0010  3195        	set [21].3
 331  0011              #line 331 "c:\users\longshuangmin\desktop\worke_space\g-501\g-501\OpMode_A.C"
 331  0011  3596        	clr [22].3
 333  0012              #line 333 "c:\users\longshuangmin\desktop\worke_space\g-501\g-501\OpMode_A.C"
 333  0012  3616        	clr [22].4
 334  0013              #line 334 "c:\users\longshuangmin\desktop\worke_space\g-501\g-501\OpMode_A.C"
 334  0013  3215        	set [21].4
 336  0014              #line 336 "c:\users\longshuangmin\desktop\worke_space\g-501\g-501\OpMode_A.C"
 336  0014  3496        	clr [22].1
 337  0015              #line 337 "c:\users\longshuangmin\desktop\worke_space\g-501\g-501\OpMode_A.C"
 337  0015  3495        	clr [21].1
 338  0016              #line 338 "c:\users\longshuangmin\desktop\worke_space\g-501\g-501\OpMode_A.C"
 338  0016  3494        	clr [20].1
 360  0017              #line 360 "c:\users\longshuangmin\desktop\worke_space\g-501\g-501\OpMode_A.C"
 360  0017  0F32        	mov a,50
 360  0018  0080     E  	mov _M_SinGain[0],a
 361  0019              #line 361 "c:\users\longshuangmin\desktop\worke_space\g-501\g-501\OpMode_A.C"
 361  0019  0F08        	mov a,8
 361  001A              	fcall _fun_SineWaveInit
 372  0021              #line 372 "c:\users\longshuangmin\desktop\worke_space\g-501\g-501\OpMode_A.C"
 372  0021  33FB        	set [123].7
 372  0022  32FC        	set [124].5
 375  0023              #line 375 "c:\users\longshuangmin\desktop\worke_space\g-501\g-501\OpMode_A.C"
 375  0023  307F        	set [127].0
 375  0024  0003        	ret
 375  0025              _intit_Impedance endp
 375  0025              #line 375 "c:\users\longshuangmin\desktop\worke_space\g-501\g-501\OpMode_A.C"
 375  0025              #pragma debug scope 1 1
 375  0025              _sys_data equ [3456]
 375  0025              _auto_code equ [4860]
 375  0025              _alg_para equ [5262]
 375  0025              public _load_autoCode_data
 375  0025              #pragma debug scope 5 1
文件：OpMode_A.C   编译器版本 HGASM 0202 页次4

 386  0025              #line 386 "c:\users\longshuangmin\desktop\worke_space\g-501\g-501\OpMode_A.C"
 386  0000              _load_autoCode_data .section 'code'
 386  0000              _load_autoCode_data proc
 391  0000              #line 391 "c:\users\longshuangmin\desktop\worke_space\g-501\g-501\OpMode_A.C"
 391  0000  0F00     E  	mov a,low (offset _glucose_auto_code+144)
 391  0001  0083        	mov mp,a
 391  0002  0F00     E  	mov a,high (offset _glucose_auto_code+144)
 391  0003  0084        	mov sbp,a
 391  0004              	fcall _Crom2Prom
 391  000B  0080     E  	mov rd,a
 391  000C              	fcall _Crom2PromNext
 391  0013  0080     E  	mov re,a
 391  0014              	fcall _Crom2PromNext
 391  001B  0080     E  	mov rf,a
 391  001C              	fcall _Crom2PromNext
 391  0023  0080     E  	mov rg,a
 391  0024  0700     E  	mov a,rd
 391  0025  C083 000D   	lmov [3459],a
 391  0027  0700     E  	mov a,re
 391  0028  C084 000D   	lmov [3460],a
 391  002A  0700     E  	mov a,rf
 391  002B  C085 000D   	lmov [3461],a
 391  002D  0700     E  	mov a,rg
 391  002E  C086 000D   	lmov [3462],a
 392  0030              #line 392 "c:\users\longshuangmin\desktop\worke_space\g-501\g-501\OpMode_A.C"
 392  0030  1483        	inc mp
 392  0031  3D0A        	sz z
 392  0032  1484        	inc sbp
 392  0033              	fcall _Crom2Prom
 392  003A  0080     E  	mov rd,a
 392  003B              	fcall _Crom2PromNext
 392  0042  0080     E  	mov re,a
 392  0043              	fcall _Crom2PromNext
 392  004A  0080     E  	mov rf,a
 392  004B              	fcall _Crom2PromNext
 392  0052  0080     E  	mov rg,a
 392  0053  0700     E  	mov a,rd
 392  0054  C087 000D   	lmov [3463],a
 392  0056  0700     E  	mov a,re
 392  0057  C088 000D   	lmov [3464],a
 392  0059  0700     E  	mov a,rf
 392  005A  C089 000D   	lmov [3465],a
 392  005C  0700     E  	mov a,rg
 392  005D  C08A 000D   	lmov [3466],a
 393  005F              #line 393 "c:\users\longshuangmin\desktop\worke_space\g-501\g-501\OpMode_A.C"
 393  005F  1483        	inc mp
 393  0060  3D0A        	sz z
 393  0061  1484        	inc sbp
 393  0062              	fcall _Crom2Prom
 393  0069  0080     E  	mov rd,a
 393  006A              	fcall _Crom2PromNext
 393  0071  0080     E  	mov re,a
 393  0072              	fcall _Crom2PromNext
 393  0079  0080     E  	mov rf,a
 393  007A              	fcall _Crom2PromNext
 393  0081  0080     E  	mov rg,a
 393  0082  0700     E  	mov a,rd
 393  0083  C08B 000D   	lmov [3467],a
 393  0085  0700     E  	mov a,re
 393  0086  C08C 000D   	lmov [3468],a
文件：OpMode_A.C   编译器版本 HGASM 0202 页次5

 393  0088  0700     E  	mov a,rf
 393  0089  C08D 000D   	lmov [3469],a
 393  008B  0700     E  	mov a,rg
 393  008C  C08E 000D   	lmov [3470],a
 394  008E              #line 394 "c:\users\longshuangmin\desktop\worke_space\g-501\g-501\OpMode_A.C"
 394  008E  1483        	inc mp
 394  008F  3D0A        	sz z
 394  0090  1484        	inc sbp
 394  0091              	fcall _Crom2Prom
 394  0098  0080     E  	mov rd,a
 394  0099              	fcall _Crom2PromNext
 394  00A0  0080     E  	mov re,a
 394  00A1              	fcall _Crom2PromNext
 394  00A8  0080     E  	mov rf,a
 394  00A9              	fcall _Crom2PromNext
 394  00B0  0080     E  	mov rg,a
 394  00B1  0700     E  	mov a,rg
 394  00B2  0080     E  	mov _builtin_holtek_mant12p[0],a
 394  00B3  0700     E  	mov a,rf
 394  00B4  0080     E  	mov _builtin_holtek_mant1[2],a
 394  00B5  0700     E  	mov a,re
 394  00B6  0080     E  	mov _builtin_holtek_mant1[1],a
 394  00B7  0700     E  	mov a,rd
 394  00B8  0080     E  	mov _builtin_holtek_mant1[0],a
 394  00B9              	fcall _builtin_holtek_dtol
 394  00C0  0700     E  	mov a,_builtin_holtek_mant12p[0]
 394  00C1  0080     E  	mov rg,a
 394  00C2  0700     E  	mov a,_builtin_holtek_mant1[2]
 394  00C3  0080     E  	mov rf,a
 394  00C4  0700     E  	mov a,_builtin_holtek_mant1[1]
 394  00C5  0080     E  	mov re,a
 394  00C6  0700     E  	mov a,_builtin_holtek_mant1[0]
 394  00C7  0080     E  	mov rd,a
 394  00C8  0700     E  	mov a,rd
 394  00C9  C093 000D   	lmov [3475],a
 394  00CB  0700     E  	mov a,re
 394  00CC  C094 000D   	lmov [3476],a
 395  00CE              #line 395 "c:\users\longshuangmin\desktop\worke_space\g-501\g-501\OpMode_A.C"
 395  00CE  1483        	inc mp
 395  00CF  3D0A        	sz z
 395  00D0  1484        	inc sbp
 395  00D1              	fcall _Crom2Prom
 395  00D8  0080     E  	mov rd,a
 395  00D9              	fcall _Crom2PromNext
 395  00E0  0080     E  	mov re,a
 395  00E1              	fcall _Crom2PromNext
 395  00E8  0080     E  	mov rf,a
 395  00E9              	fcall _Crom2PromNext
 395  00F0  0080     E  	mov rg,a
 395  00F1  0700     E  	mov a,rd
 395  00F2  C08F 000D   	lmov [3471],a
 395  00F4  0700     E  	mov a,re
 395  00F5  C090 000D   	lmov [3472],a
 395  00F7  0700     E  	mov a,rf
 395  00F8  C091 000D   	lmov [3473],a
 395  00FA  0700     E  	mov a,rg
 395  00FB  C092 000D   	lmov [3474],a
 396  00FD              #line 396 "c:\users\longshuangmin\desktop\worke_space\g-501\g-501\OpMode_A.C"
 396  00FD  0F02        	mov a,2
 396  00FE  C0FC 0012   	lmov [4860],a
文件：OpMode_A.C   编译器版本 HGASM 0202 页次6

 396  0100  DF7D 0012   	lclr [4861]
 397  0102              #line 397 "c:\users\longshuangmin\desktop\worke_space\g-501\g-501\OpMode_A.C"
 397  0102  0700     E  	mov a,_M_Strip_Type[0]
 397  0103  0080     E  	mov ra,a
 397  0104  1700     E  	sdza ra
 397  0105  2800     R  	jmp _L5
 400  0106              #line 400 "c:\users\longshuangmin\desktop\worke_space\g-501\g-501\OpMode_A.C"
 400  0106  3800     E  	snz _Flag1[0].4
 400  0107  2800     R  	jmp _L6
 403  0108              #line 403 "c:\users\longshuangmin\desktop\worke_space\g-501\g-501\OpMode_A.C"
 403  0108  0F00     E  	mov a,low offset _glucose_auto_code
 403  0109  0083        	mov mp,a
 403  010A  0F00     E  	mov a,high offset _glucose_auto_code
 403  010B  0084        	mov sbp,a
 403  010C              	fcall _Crom2Prom
 403  0113  0080     E  	mov rd,a
 403  0114              	fcall _Crom2PromNext
 403  011B  0080     E  	mov re,a
 403  011C              	fcall _Crom2PromNext
 403  0123  0080     E  	mov rf,a
 403  0124              	fcall _Crom2PromNext
 403  012B  0080     E  	mov rg,a
 403  012C  0700     E  	mov a,rd
 403  012D  C08E 0014   	lmov [5262],a
 403  012F  0700     E  	mov a,re
 403  0130  C08F 0014   	lmov [5263],a
 403  0132  0700     E  	mov a,rf
 403  0133  C090 0014   	lmov [5264],a
 403  0135  0700     E  	mov a,rg
 403  0136  C091 0014   	lmov [5265],a
 404  0138              #line 404 "c:\users\longshuangmin\desktop\worke_space\g-501\g-501\OpMode_A.C"
 404  0138  1483        	inc mp
 404  0139  3D0A        	sz z
 404  013A  1484        	inc sbp
 404  013B              	fcall _Crom2Prom
 404  0142  0080     E  	mov rd,a
 404  0143              	fcall _Crom2PromNext
 404  014A  0080     E  	mov re,a
 404  014B              	fcall _Crom2PromNext
 404  0152  0080     E  	mov rf,a
 404  0153              	fcall _Crom2PromNext
 404  015A  0080     E  	mov rg,a
 404  015B  0700     E  	mov a,rd
 404  015C  C092 0014   	lmov [5266],a
 404  015E  0700     E  	mov a,re
 404  015F  C093 0014   	lmov [5267],a
 404  0161  0700     E  	mov a,rf
 404  0162  C094 0014   	lmov [5268],a
 404  0164  0700     E  	mov a,rg
 404  0165  C095 0014   	lmov [5269],a
 405  0167              #line 405 "c:\users\longshuangmin\desktop\worke_space\g-501\g-501\OpMode_A.C"
 405  0167  1483        	inc mp
 405  0168  3D0A        	sz z
 405  0169  1484        	inc sbp
 405  016A              	fcall _Crom2Prom
 405  0171  0080     E  	mov rd,a
 405  0172              	fcall _Crom2PromNext
 405  0179  0080     E  	mov re,a
 405  017A              	fcall _Crom2PromNext
 405  0181  0080     E  	mov rf,a
文件：OpMode_A.C   编译器版本 HGASM 0202 页次7

 405  0182              	fcall _Crom2PromNext
 405  0189  0080     E  	mov rg,a
 405  018A  0700     E  	mov a,rd
 405  018B  C096 0014   	lmov [5270],a
 405  018D  0700     E  	mov a,re
 405  018E  C097 0014   	lmov [5271],a
 405  0190  0700     E  	mov a,rf
 405  0191  C098 0014   	lmov [5272],a
 405  0193  0700     E  	mov a,rg
 405  0194  C099 0014   	lmov [5273],a
 408  0196              #line 408 "c:\users\longshuangmin\desktop\worke_space\g-501\g-501\OpMode_A.C"
 408  0196  1483        	inc mp
 408  0197  3D0A        	sz z
 408  0198  1484        	inc sbp
 408  0199              	fcall _Crom2Prom
 408  01A0  0080     E  	mov rd,a
 408  01A1              	fcall _Crom2PromNext
 408  01A8  0080     E  	mov re,a
 408  01A9              	fcall _Crom2PromNext
 408  01B0  0080     E  	mov rf,a
 408  01B1              	fcall _Crom2PromNext
 408  01B8  0080     E  	mov rg,a
 408  01B9  0700     E  	mov a,rd
 408  01BA  C09A 0014   	lmov [5274],a
 408  01BC  0700     E  	mov a,re
 408  01BD  C09B 0014   	lmov [5275],a
 408  01BF  0700     E  	mov a,rf
 408  01C0  C09C 0014   	lmov [5276],a
 408  01C2  0700     E  	mov a,rg
 408  01C3  C09D 0014   	lmov [5277],a
 409  01C5              #line 409 "c:\users\longshuangmin\desktop\worke_space\g-501\g-501\OpMode_A.C"
 409  01C5  1483        	inc mp
 409  01C6  3D0A        	sz z
 409  01C7  1484        	inc sbp
 409  01C8              	fcall _Crom2Prom
 409  01CF  0080     E  	mov rd,a
 409  01D0              	fcall _Crom2PromNext
 409  01D7  0080     E  	mov re,a
 409  01D8              	fcall _Crom2PromNext
 409  01DF  0080     E  	mov rf,a
 409  01E0              	fcall _Crom2PromNext
 409  01E7  0080     E  	mov rg,a
 409  01E8  0700     E  	mov a,rd
 409  01E9  C09E 0014   	lmov [5278],a
 409  01EB  0700     E  	mov a,re
 409  01EC  C09F 0014   	lmov [5279],a
 409  01EE  0700     E  	mov a,rf
 409  01EF  C0A0 0014   	lmov [5280],a
 409  01F1  0700     E  	mov a,rg
 409  01F2  C0A1 0014   	lmov [5281],a
 410  01F4              #line 410 "c:\users\longshuangmin\desktop\worke_space\g-501\g-501\OpMode_A.C"
 410  01F4  1483        	inc mp
 410  01F5  3D0A        	sz z
 410  01F6  1484        	inc sbp
 410  01F7              	fcall _Crom2Prom
 410  01FE  0080     E  	mov rd,a
 410  01FF              	fcall _Crom2PromNext
 410  0206  0080     E  	mov re,a
 410  0207              	fcall _Crom2PromNext
 410  020E  0080     E  	mov rf,a
文件：OpMode_A.C   编译器版本 HGASM 0202 页次8

 410  020F              	fcall _Crom2PromNext
 410  0216  0080     E  	mov rg,a
 410  0217  0700     E  	mov a,rd
 410  0218  C0A2 0014   	lmov [5282],a
 410  021A  0700     E  	mov a,re
 410  021B  C0A3 0014   	lmov [5283],a
 410  021D  0700     E  	mov a,rf
 410  021E  C0A4 0014   	lmov [5284],a
 410  0220  0700     E  	mov a,rg
 410  0221  C0A5 0014   	lmov [5285],a
 416  0223              #line 416 "c:\users\longshuangmin\desktop\worke_space\g-501\g-501\OpMode_A.C"
 416  0223  1483        	inc mp
 416  0224  3D0A        	sz z
 416  0225  1484        	inc sbp
 416  0226              	fcall _Crom2Prom
 416  022D  0080     E  	mov rd,a
 416  022E              	fcall _Crom2PromNext
 416  0235  0080     E  	mov re,a
 416  0236              	fcall _Crom2PromNext
 416  023D  0080     E  	mov rf,a
 416  023E              	fcall _Crom2PromNext
 416  0245  0080     E  	mov rg,a
 416  0246  0700     E  	mov a,rd
 416  0247  C0A6 0014   	lmov [5286],a
 416  0249  0700     E  	mov a,re
 416  024A  C0A7 0014   	lmov [5287],a
 416  024C  0700     E  	mov a,rf
 416  024D  C0A8 0014   	lmov [5288],a
 416  024F  0700     E  	mov a,rg
 416  0250  C0A9 0014   	lmov [5289],a
 417  0252              #line 417 "c:\users\longshuangmin\desktop\worke_space\g-501\g-501\OpMode_A.C"
 417  0252  1483        	inc mp
 417  0253  3D0A        	sz z
 417  0254  1484        	inc sbp
 417  0255              	fcall _Crom2Prom
 417  025C  0080     E  	mov rd,a
 417  025D              	fcall _Crom2PromNext
 417  0264  0080     E  	mov re,a
 417  0265              	fcall _Crom2PromNext
 417  026C  0080     E  	mov rf,a
 417  026D              	fcall _Crom2PromNext
 417  0274  0080     E  	mov rg,a
 417  0275  0700     E  	mov a,rd
 417  0276  C0AA 0014   	lmov [5290],a
 417  0278  0700     E  	mov a,re
 417  0279  C0AB 0014   	lmov [5291],a
 417  027B  0700     E  	mov a,rf
 417  027C  C0AC 0014   	lmov [5292],a
 417  027E  0700     E  	mov a,rg
 417  027F  C0AD 0014   	lmov [5293],a
 418  0281              #line 418 "c:\users\longshuangmin\desktop\worke_space\g-501\g-501\OpMode_A.C"
 418  0281  1483        	inc mp
 418  0282  3D0A        	sz z
 418  0283  1484        	inc sbp
 418  0284              	fcall _Crom2Prom
 418  028B  0080     E  	mov rd,a
 418  028C              	fcall _Crom2PromNext
 418  0293  0080     E  	mov re,a
 418  0294              	fcall _Crom2PromNext
 418  029B  0080     E  	mov rf,a
文件：OpMode_A.C   编译器版本 HGASM 0202 页次9

 418  029C              	fcall _Crom2PromNext
 418  02A3  0080     E  	mov rg,a
 418  02A4  0700     E  	mov a,rd
 418  02A5  C0AE 0014   	lmov [5294],a
 418  02A7  0700     E  	mov a,re
 418  02A8  C0AF 0014   	lmov [5295],a
 418  02AA  0700     E  	mov a,rf
 418  02AB  C0B0 0014   	lmov [5296],a
 418  02AD  0700     E  	mov a,rg
 418  02AE  C0B1 0014   	lmov [5297],a
 420  02B0              #line 420 "c:\users\longshuangmin\desktop\worke_space\g-501\g-501\OpMode_A.C"
 420  02B0  1483        	inc mp
 420  02B1  3D0A        	sz z
 420  02B2  1484        	inc sbp
 420  02B3              	fcall _Crom2Prom
 420  02BA  0080     E  	mov rd,a
 420  02BB              	fcall _Crom2PromNext
 420  02C2  0080     E  	mov re,a
 420  02C3              	fcall _Crom2PromNext
 420  02CA  0080     E  	mov rf,a
 420  02CB              	fcall _Crom2PromNext
 420  02D2  0080     E  	mov rg,a
 420  02D3  0700     E  	mov a,rd
 420  02D4  C0B2 0014   	lmov [5298],a
 420  02D6  0700     E  	mov a,re
 420  02D7  C0B3 0014   	lmov [5299],a
 420  02D9  0700     E  	mov a,rf
 420  02DA  C0B4 0014   	lmov [5300],a
 420  02DC  0700     E  	mov a,rg
 420  02DD  C0B5 0014   	lmov [5301],a
 421  02DF              #line 421 "c:\users\longshuangmin\desktop\worke_space\g-501\g-501\OpMode_A.C"
 421  02DF  1483        	inc mp
 421  02E0  3D0A        	sz z
 421  02E1  1484        	inc sbp
 421  02E2              	fcall _Crom2Prom
 421  02E9  0080     E  	mov rd,a
 421  02EA              	fcall _Crom2PromNext
 421  02F1  0080     E  	mov re,a
 421  02F2              	fcall _Crom2PromNext
 421  02F9  0080     E  	mov rf,a
 421  02FA              	fcall _Crom2PromNext
 421  0301  0080     E  	mov rg,a
 421  0302  0700     E  	mov a,rd
 421  0303  C0B6 0014   	lmov [5302],a
 421  0305  0700     E  	mov a,re
 421  0306  C0B7 0014   	lmov [5303],a
 421  0308  0700     E  	mov a,rf
 421  0309  C0B8 0014   	lmov [5304],a
 421  030B  0700     E  	mov a,rg
 421  030C  C0B9 0014   	lmov [5305],a
 422  030E              #line 422 "c:\users\longshuangmin\desktop\worke_space\g-501\g-501\OpMode_A.C"
 422  030E  1483        	inc mp
 422  030F  3D0A        	sz z
 422  0310  1484        	inc sbp
 422  0311              	fcall _Crom2Prom
 422  0318  0080     E  	mov rd,a
 422  0319              	fcall _Crom2PromNext
 422  0320  0080     E  	mov re,a
 422  0321              	fcall _Crom2PromNext
 422  0328  0080     E  	mov rf,a
文件：OpMode_A.C   编译器版本 HGASM 0202 页次10

 422  0329              	fcall _Crom2PromNext
 422  0330  0080     E  	mov rg,a
 422  0331  0700     E  	mov a,rd
 422  0332  C0BA 0014   	lmov [5306],a
 422  0334  0700     E  	mov a,re
 422  0335  C0BB 0014   	lmov [5307],a
 422  0337  0700     E  	mov a,rf
 422  0338  C0BC 0014   	lmov [5308],a
 422  033A  0700     E  	mov a,rg
 422  033B  C0BD 0014   	lmov [5309],a
 424  033D              #line 424 "c:\users\longshuangmin\desktop\worke_space\g-501\g-501\OpMode_A.C"
 424  033D  1483        	inc mp
 424  033E  3D0A        	sz z
 424  033F  1484        	inc sbp
 424  0340              	fcall _Crom2Prom
 424  0347  0080     E  	mov rd,a
 424  0348              	fcall _Crom2PromNext
 424  034F  0080     E  	mov re,a
 424  0350              	fcall _Crom2PromNext
 424  0357  0080     E  	mov rf,a
 424  0358              	fcall _Crom2PromNext
 424  035F  0080     E  	mov rg,a
 424  0360  0700     E  	mov a,rd
 424  0361  C0BE 0014   	lmov [5310],a
 424  0363  0700     E  	mov a,re
 424  0364  C0BF 0014   	lmov [5311],a
 424  0366  0700     E  	mov a,rf
 424  0367  C0C0 0014   	lmov [5312],a
 424  0369  0700     E  	mov a,rg
 424  036A  C0C1 0014   	lmov [5313],a
 425  036C              #line 425 "c:\users\longshuangmin\desktop\worke_space\g-501\g-501\OpMode_A.C"
 425  036C  1483        	inc mp
 425  036D  3D0A        	sz z
 425  036E  1484        	inc sbp
 425  036F              	fcall _Crom2Prom
 425  0376  0080     E  	mov rd,a
 425  0377              	fcall _Crom2PromNext
 425  037E  0080     E  	mov re,a
 425  037F              	fcall _Crom2PromNext
 425  0386  0080     E  	mov rf,a
 425  0387              	fcall _Crom2PromNext
 425  038E  0080     E  	mov rg,a
 425  038F  0700     E  	mov a,rd
 425  0390  C0C2 0014   	lmov [5314],a
 425  0392  0700     E  	mov a,re
 425  0393  C0C3 0014   	lmov [5315],a
 425  0395  0700     E  	mov a,rf
 425  0396  C0C4 0014   	lmov [5316],a
 425  0398  0700     E  	mov a,rg
 425  0399  C0C5 0014   	lmov [5317],a
 426  039B              #line 426 "c:\users\longshuangmin\desktop\worke_space\g-501\g-501\OpMode_A.C"
 426  039B  1483        	inc mp
 426  039C  3D0A        	sz z
 426  039D  1484        	inc sbp
 426  039E              	fcall _Crom2Prom
 426  03A5  0080     E  	mov rd,a
 426  03A6              	fcall _Crom2PromNext
 426  03AD  0080     E  	mov re,a
 426  03AE              	fcall _Crom2PromNext
 426  03B5  0080     E  	mov rf,a
文件：OpMode_A.C   编译器版本 HGASM 0202 页次11

 426  03B6              	fcall _Crom2PromNext
 426  03BD  0080     E  	mov rg,a
 426  03BE  0700     E  	mov a,rd
 426  03BF  C0C6 0014   	lmov [5318],a
 426  03C1  0700     E  	mov a,re
 426  03C2  C0C7 0014   	lmov [5319],a
 426  03C4  0700     E  	mov a,rf
 426  03C5  C0C8 0014   	lmov [5320],a
 426  03C7  0700     E  	mov a,rg
 426  03C8  C0C9 0014   	lmov [5321],a
 428  03CA              #line 428 "c:\users\longshuangmin\desktop\worke_space\g-501\g-501\OpMode_A.C"
 428  03CA  1483        	inc mp
 428  03CB  3D0A        	sz z
 428  03CC  1484        	inc sbp
 428  03CD              	fcall _Crom2Prom
 428  03D4  0080     E  	mov rd,a
 428  03D5              	fcall _Crom2PromNext
 428  03DC  0080     E  	mov re,a
 428  03DD              	fcall _Crom2PromNext
 428  03E4  0080     E  	mov rf,a
 428  03E5              	fcall _Crom2PromNext
 428  03EC  0080     E  	mov rg,a
 428  03ED  0700     E  	mov a,rd
 428  03EE  C0CA 0014   	lmov [5322],a
 428  03F0  0700     E  	mov a,re
 428  03F1  C0CB 0014   	lmov [5323],a
 428  03F3  0700     E  	mov a,rf
 428  03F4  C0CC 0014   	lmov [5324],a
 428  03F6  0700     E  	mov a,rg
 428  03F7  C0CD 0014   	lmov [5325],a
 429  03F9              #line 429 "c:\users\longshuangmin\desktop\worke_space\g-501\g-501\OpMode_A.C"
 429  03F9  1483        	inc mp
 429  03FA  3D0A        	sz z
 429  03FB  1484        	inc sbp
 429  03FC              	fcall _Crom2Prom
 429  0403  0080     E  	mov rd,a
 429  0404              	fcall _Crom2PromNext
 429  040B  0080     E  	mov re,a
 429  040C              	fcall _Crom2PromNext
 429  0413  0080     E  	mov rf,a
 429  0414              	fcall _Crom2PromNext
 429  041B  0080     E  	mov rg,a
 429  041C  0700     E  	mov a,rd
 429  041D  C0CE 0014   	lmov [5326],a
 429  041F  0700     E  	mov a,re
 429  0420  C0CF 0014   	lmov [5327],a
 429  0422  0700     E  	mov a,rf
 429  0423  C0D0 0014   	lmov [5328],a
 429  0425  0700     E  	mov a,rg
 429  0426  C0D1 0014   	lmov [5329],a
 430  0428              #line 430 "c:\users\longshuangmin\desktop\worke_space\g-501\g-501\OpMode_A.C"
 430  0428  1483        	inc mp
 430  0429  3D0A        	sz z
 430  042A  1484        	inc sbp
 430  042B  2800     R  	jmp _L7
 430  042C              _L6:
 436  042C              #line 436 "c:\users\longshuangmin\desktop\worke_space\g-501\g-501\OpMode_A.C"
 436  042C  0FFF        	mov a,255
 436  042D  C37C 0012   	ladd a,[4860]
 436  042F  0080     E  	mov rb,a
文件：OpMode_A.C   编译器版本 HGASM 0202 页次12

 436  0430  0FFF        	mov a,255
 436  0431  D37D 0012   	ladc a,[4861]
 436  0433  0080     E  	mov rc,a
 436  0434  1B20        	rrca intc
 436  0435  3420        	clr intc.0
 436  0436  0700     E  	mov a,rb
 436  0437  00D9        	mov mduwr0,a
 436  0438  0F48        	mov a,72
 436  0439  00DD        	mov mduwr4,a
 436  043A  0700     E  	mov a,rc
 436  043B  00DA        	mov mduwr1,a
 436  043C  0F00        	mov a,0
 436  043D  00DE        	mov mduwr5,a
 436  043E  0F06        	mov a,6
 436  043F              _LI1:
 436  043F  1785        	sdz acc
 436  0440  2800     R  	jmp _LI1
 436  0441  0759        	mov a,mduwr0
 436  0442  0080     E  	mov rb,a
 436  0443  075A        	mov a,mduwr1
 436  0444  0080     E  	mov rc,a
 436  0445  3C0A        	sz c
 436  0446  3020        	set intc.0
 436  0447  0F00     E  	mov a,low offset _glucose_auto_code
 436  0448  0300     E  	add a,rb
 436  0449  0083        	mov mp,a
 436  044A  0F00     E  	mov a,high offset _glucose_auto_code
 436  044B  1300     E  	adc a,rc
 436  044C  0084        	mov sbp,a
 436  044D              	fcall _Crom2Prom
 436  0454  0080     E  	mov rd,a
 436  0455              	fcall _Crom2PromNext
 436  045C  0080     E  	mov re,a
 436  045D              	fcall _Crom2PromNext
 436  0464  0080     E  	mov rf,a
 436  0465              	fcall _Crom2PromNext
 436  046C  0080     E  	mov rg,a
 436  046D  0700     E  	mov a,rd
 436  046E  C08E 0014   	lmov [5262],a
 436  0470  0700     E  	mov a,re
 436  0471  C08F 0014   	lmov [5263],a
 436  0473  0700     E  	mov a,rf
 436  0474  C090 0014   	lmov [5264],a
 436  0476  0700     E  	mov a,rg
 436  0477  C091 0014   	lmov [5265],a
 437  0479              #line 437 "c:\users\longshuangmin\desktop\worke_space\g-501\g-501\OpMode_A.C"
 437  0479  0FFF        	mov a,255
 437  047A  C37C 0012   	ladd a,[4860]
 437  047C  0080     E  	mov rb,a
 437  047D  0FFF        	mov a,255
 437  047E  D37D 0012   	ladc a,[4861]
 437  0480  0080     E  	mov rc,a
 437  0481  1B20        	rrca intc
 437  0482  3420        	clr intc.0
 437  0483  0700     E  	mov a,rb
 437  0484  00D9        	mov mduwr0,a
 437  0485  0F48        	mov a,72
 437  0486  00DD        	mov mduwr4,a
 437  0487  0700     E  	mov a,rc
 437  0488  00DA        	mov mduwr1,a
文件：OpMode_A.C   编译器版本 HGASM 0202 页次13

 437  0489  0F00        	mov a,0
 437  048A  00DE        	mov mduwr5,a
 437  048B  0F06        	mov a,6
 437  048C              _LI2:
 437  048C  1785        	sdz acc
 437  048D  2800     R  	jmp _LI2
 437  048E  0759        	mov a,mduwr0
 437  048F  0080     E  	mov rb,a
 437  0490  075A        	mov a,mduwr1
 437  0491  0080     E  	mov rc,a
 437  0492  3C0A        	sz c
 437  0493  3020        	set intc.0
 437  0494  0F00     E  	mov a,low (offset _glucose_auto_code+4)
 437  0495  0300     E  	add a,rb
 437  0496  0083        	mov mp,a
 437  0497  0F00     E  	mov a,high (offset _glucose_auto_code+4)
 437  0498  1300     E  	adc a,rc
 437  0499  0084        	mov sbp,a
 437  049A              	fcall _Crom2Prom
 437  04A1  0080     E  	mov rd,a
 437  04A2              	fcall _Crom2PromNext
 437  04A9  0080     E  	mov re,a
 437  04AA              	fcall _Crom2PromNext
 437  04B1  0080     E  	mov rf,a
 437  04B2              	fcall _Crom2PromNext
 437  04B9  0080     E  	mov rg,a
 437  04BA  0700     E  	mov a,rd
 437  04BB  C092 0014   	lmov [5266],a
 437  04BD  0700     E  	mov a,re
 437  04BE  C093 0014   	lmov [5267],a
 437  04C0  0700     E  	mov a,rf
 437  04C1  C094 0014   	lmov [5268],a
 437  04C3  0700     E  	mov a,rg
 437  04C4  C095 0014   	lmov [5269],a
 438  04C6              #line 438 "c:\users\longshuangmin\desktop\worke_space\g-501\g-501\OpMode_A.C"
 438  04C6  0FFF        	mov a,255
 438  04C7  C37C 0012   	ladd a,[4860]
 438  04C9  0080     E  	mov rb,a
 438  04CA  0FFF        	mov a,255
 438  04CB  D37D 0012   	ladc a,[4861]
 438  04CD  0080     E  	mov rc,a
 438  04CE  1B20        	rrca intc
 438  04CF  3420        	clr intc.0
 438  04D0  0700     E  	mov a,rb
 438  04D1  00D9        	mov mduwr0,a
 438  04D2  0F48        	mov a,72
 438  04D3  00DD        	mov mduwr4,a
 438  04D4  0700     E  	mov a,rc
 438  04D5  00DA        	mov mduwr1,a
 438  04D6  0F00        	mov a,0
 438  04D7  00DE        	mov mduwr5,a
 438  04D8  0F06        	mov a,6
 438  04D9              _LI3:
 438  04D9  1785        	sdz acc
 438  04DA  2800     R  	jmp _LI3
 438  04DB  0759        	mov a,mduwr0
 438  04DC  0080     E  	mov rb,a
 438  04DD  075A        	mov a,mduwr1
 438  04DE  0080     E  	mov rc,a
 438  04DF  3C0A        	sz c
文件：OpMode_A.C   编译器版本 HGASM 0202 页次14

 438  04E0  3020        	set intc.0
 438  04E1  0F00     E  	mov a,low (offset _glucose_auto_code+8)
 438  04E2  0300     E  	add a,rb
 438  04E3  0083        	mov mp,a
 438  04E4  0F00     E  	mov a,high (offset _glucose_auto_code+8)
 438  04E5  1300     E  	adc a,rc
 438  04E6  0084        	mov sbp,a
 438  04E7              	fcall _Crom2Prom
 438  04EE  0080     E  	mov rd,a
 438  04EF              	fcall _Crom2PromNext
 438  04F6  0080     E  	mov re,a
 438  04F7              	fcall _Crom2PromNext
 438  04FE  0080     E  	mov rf,a
 438  04FF              	fcall _Crom2PromNext
 438  0506  0080     E  	mov rg,a
 438  0507  0700     E  	mov a,rd
 438  0508  C096 0014   	lmov [5270],a
 438  050A  0700     E  	mov a,re
 438  050B  C097 0014   	lmov [5271],a
 438  050D  0700     E  	mov a,rf
 438  050E  C098 0014   	lmov [5272],a
 438  0510  0700     E  	mov a,rg
 438  0511  C099 0014   	lmov [5273],a
 441  0513              #line 441 "c:\users\longshuangmin\desktop\worke_space\g-501\g-501\OpMode_A.C"
 441  0513  0FFF        	mov a,255
 441  0514  C37C 0012   	ladd a,[4860]
 441  0516  0080     E  	mov rb,a
 441  0517  0FFF        	mov a,255
 441  0518  D37D 0012   	ladc a,[4861]
 441  051A  0080     E  	mov rc,a
 441  051B  1B20        	rrca intc
 441  051C  3420        	clr intc.0
 441  051D  0700     E  	mov a,rb
 441  051E  00D9        	mov mduwr0,a
 441  051F  0F48        	mov a,72
 441  0520  00DD        	mov mduwr4,a
 441  0521  0700     E  	mov a,rc
 441  0522  00DA        	mov mduwr1,a
 441  0523  0F00        	mov a,0
 441  0524  00DE        	mov mduwr5,a
 441  0525  0F06        	mov a,6
 441  0526              _LI4:
 441  0526  1785        	sdz acc
 441  0527  2800     R  	jmp _LI4
 441  0528  0759        	mov a,mduwr0
 441  0529  0080     E  	mov rb,a
 441  052A  075A        	mov a,mduwr1
 441  052B  0080     E  	mov rc,a
 441  052C  3C0A        	sz c
 441  052D  3020        	set intc.0
 441  052E  0F00     E  	mov a,low (offset _glucose_auto_code+12)
 441  052F  0300     E  	add a,rb
 441  0530  0083        	mov mp,a
 441  0531  0F00     E  	mov a,high (offset _glucose_auto_code+12)
 441  0532  1300     E  	adc a,rc
 441  0533  0084        	mov sbp,a
 441  0534              	fcall _Crom2Prom
 441  053B  0080     E  	mov rd,a
 441  053C              	fcall _Crom2PromNext
 441  0543  0080     E  	mov re,a
文件：OpMode_A.C   编译器版本 HGASM 0202 页次15

 441  0544              	fcall _Crom2PromNext
 441  054B  0080     E  	mov rf,a
 441  054C              	fcall _Crom2PromNext
 441  0553  0080     E  	mov rg,a
 441  0554  0700     E  	mov a,rd
 441  0555  C09A 0014   	lmov [5274],a
 441  0557  0700     E  	mov a,re
 441  0558  C09B 0014   	lmov [5275],a
 441  055A  0700     E  	mov a,rf
 441  055B  C09C 0014   	lmov [5276],a
 441  055D  0700     E  	mov a,rg
 441  055E  C09D 0014   	lmov [5277],a
 442  0560              #line 442 "c:\users\longshuangmin\desktop\worke_space\g-501\g-501\OpMode_A.C"
 442  0560  0FFF        	mov a,255
 442  0561  C37C 0012   	ladd a,[4860]
 442  0563  0080     E  	mov rb,a
 442  0564  0FFF        	mov a,255
 442  0565  D37D 0012   	ladc a,[4861]
 442  0567  0080     E  	mov rc,a
 442  0568  1B20        	rrca intc
 442  0569  3420        	clr intc.0
 442  056A  0700     E  	mov a,rb
 442  056B  00D9        	mov mduwr0,a
 442  056C  0F48        	mov a,72
 442  056D  00DD        	mov mduwr4,a
 442  056E  0700     E  	mov a,rc
 442  056F  00DA        	mov mduwr1,a
 442  0570  0F00        	mov a,0
 442  0571  00DE        	mov mduwr5,a
 442  0572  0F06        	mov a,6
 442  0573              _LI5:
 442  0573  1785        	sdz acc
 442  0574  2800     R  	jmp _LI5
 442  0575  0759        	mov a,mduwr0
 442  0576  0080     E  	mov rb,a
 442  0577  075A        	mov a,mduwr1
 442  0578  0080     E  	mov rc,a
 442  0579  3C0A        	sz c
 442  057A  3020        	set intc.0
 442  057B  0F00     E  	mov a,low (offset _glucose_auto_code+16)
 442  057C  0300     E  	add a,rb
 442  057D  0083        	mov mp,a
 442  057E  0F00     E  	mov a,high (offset _glucose_auto_code+16)
 442  057F  1300     E  	adc a,rc
 442  0580  0084        	mov sbp,a
 442  0581              	fcall _Crom2Prom
 442  0588  0080     E  	mov rd,a
 442  0589              	fcall _Crom2PromNext
 442  0590  0080     E  	mov re,a
 442  0591              	fcall _Crom2PromNext
 442  0598  0080     E  	mov rf,a
 442  0599              	fcall _Crom2PromNext
 442  05A0  0080     E  	mov rg,a
 442  05A1  0700     E  	mov a,rd
 442  05A2  C09E 0014   	lmov [5278],a
 442  05A4  0700     E  	mov a,re
 442  05A5  C09F 0014   	lmov [5279],a
 442  05A7  0700     E  	mov a,rf
 442  05A8  C0A0 0014   	lmov [5280],a
 442  05AA  0700     E  	mov a,rg
文件：OpMode_A.C   编译器版本 HGASM 0202 页次16

 442  05AB  C0A1 0014   	lmov [5281],a
 443  05AD              #line 443 "c:\users\longshuangmin\desktop\worke_space\g-501\g-501\OpMode_A.C"
 443  05AD  0FFF        	mov a,255
 443  05AE  C37C 0012   	ladd a,[4860]
 443  05B0  0080     E  	mov rb,a
 443  05B1  0FFF        	mov a,255
 443  05B2  D37D 0012   	ladc a,[4861]
 443  05B4  0080     E  	mov rc,a
 443  05B5  1B20        	rrca intc
 443  05B6  3420        	clr intc.0
 443  05B7  0700     E  	mov a,rb
 443  05B8  00D9        	mov mduwr0,a
 443  05B9  0F48        	mov a,72
 443  05BA  00DD        	mov mduwr4,a
 443  05BB  0700     E  	mov a,rc
 443  05BC  00DA        	mov mduwr1,a
 443  05BD  0F00        	mov a,0
 443  05BE  00DE        	mov mduwr5,a
 443  05BF  0F06        	mov a,6
 443  05C0              _LI6:
 443  05C0  1785        	sdz acc
 443  05C1  2800     R  	jmp _LI6
 443  05C2  0759        	mov a,mduwr0
 443  05C3  0080     E  	mov rb,a
 443  05C4  075A        	mov a,mduwr1
 443  05C5  0080     E  	mov rc,a
 443  05C6  3C0A        	sz c
 443  05C7  3020        	set intc.0
 443  05C8  0F00     E  	mov a,low (offset _glucose_auto_code+20)
 443  05C9  0300     E  	add a,rb
 443  05CA  0083        	mov mp,a
 443  05CB  0F00     E  	mov a,high (offset _glucose_auto_code+20)
 443  05CC  1300     E  	adc a,rc
 443  05CD  0084        	mov sbp,a
 443  05CE              	fcall _Crom2Prom
 443  05D5  0080     E  	mov rd,a
 443  05D6              	fcall _Crom2PromNext
 443  05DD  0080     E  	mov re,a
 443  05DE              	fcall _Crom2PromNext
 443  05E5  0080     E  	mov rf,a
 443  05E6              	fcall _Crom2PromNext
 443  05ED  0080     E  	mov rg,a
 443  05EE  0700     E  	mov a,rd
 443  05EF  C0A2 0014   	lmov [5282],a
 443  05F1  0700     E  	mov a,re
 443  05F2  C0A3 0014   	lmov [5283],a
 443  05F4  0700     E  	mov a,rf
 443  05F5  C0A4 0014   	lmov [5284],a
 443  05F7  0700     E  	mov a,rg
 443  05F8  C0A5 0014   	lmov [5285],a
 449  05FA              #line 449 "c:\users\longshuangmin\desktop\worke_space\g-501\g-501\OpMode_A.C"
 449  05FA  0FFF        	mov a,255
 449  05FB  C37C 0012   	ladd a,[4860]
 449  05FD  0080     E  	mov rb,a
 449  05FE  0FFF        	mov a,255
 449  05FF  D37D 0012   	ladc a,[4861]
 449  0601  0080     E  	mov rc,a
 449  0602  1B20        	rrca intc
 449  0603  3420        	clr intc.0
 449  0604  0700     E  	mov a,rb
文件：OpMode_A.C   编译器版本 HGASM 0202 页次17

 449  0605  00D9        	mov mduwr0,a
 449  0606  0F48        	mov a,72
 449  0607  00DD        	mov mduwr4,a
 449  0608  0700     E  	mov a,rc
 449  0609  00DA        	mov mduwr1,a
 449  060A  0F00        	mov a,0
 449  060B  00DE        	mov mduwr5,a
 449  060C  0F06        	mov a,6
 449  060D              _LI7:
 449  060D  1785        	sdz acc
 449  060E  2800     R  	jmp _LI7
 449  060F  0759        	mov a,mduwr0
 449  0610  0080     E  	mov rb,a
 449  0611  075A        	mov a,mduwr1
 449  0612  0080     E  	mov rc,a
 449  0613  3C0A        	sz c
 449  0614  3020        	set intc.0
 449  0615  0F00     E  	mov a,low (offset _glucose_auto_code+24)
 449  0616  0300     E  	add a,rb
 449  0617  0083        	mov mp,a
 449  0618  0F00     E  	mov a,high (offset _glucose_auto_code+24)
 449  0619  1300     E  	adc a,rc
 449  061A  0084        	mov sbp,a
 449  061B              	fcall _Crom2Prom
 449  0622  0080     E  	mov rd,a
 449  0623              	fcall _Crom2PromNext
 449  062A  0080     E  	mov re,a
 449  062B              	fcall _Crom2PromNext
 449  0632  0080     E  	mov rf,a
 449  0633              	fcall _Crom2PromNext
 449  063A  0080     E  	mov rg,a
 449  063B  0700     E  	mov a,rd
 449  063C  C0A6 0014   	lmov [5286],a
 449  063E  0700     E  	mov a,re
 449  063F  C0A7 0014   	lmov [5287],a
 449  0641  0700     E  	mov a,rf
 449  0642  C0A8 0014   	lmov [5288],a
 449  0644  0700     E  	mov a,rg
 449  0645  C0A9 0014   	lmov [5289],a
 450  0647              #line 450 "c:\users\longshuangmin\desktop\worke_space\g-501\g-501\OpMode_A.C"
 450  0647  0FFF        	mov a,255
 450  0648  C37C 0012   	ladd a,[4860]
 450  064A  0080     E  	mov rb,a
 450  064B  0FFF        	mov a,255
 450  064C  D37D 0012   	ladc a,[4861]
 450  064E  0080     E  	mov rc,a
 450  064F  1B20        	rrca intc
 450  0650  3420        	clr intc.0
 450  0651  0700     E  	mov a,rb
 450  0652  00D9        	mov mduwr0,a
 450  0653  0F48        	mov a,72
 450  0654  00DD        	mov mduwr4,a
 450  0655  0700     E  	mov a,rc
 450  0656  00DA        	mov mduwr1,a
 450  0657  0F00        	mov a,0
 450  0658  00DE        	mov mduwr5,a
 450  0659  0F06        	mov a,6
 450  065A              _LI8:
 450  065A  1785        	sdz acc
 450  065B  2800     R  	jmp _LI8
文件：OpMode_A.C   编译器版本 HGASM 0202 页次18

 450  065C  0759        	mov a,mduwr0
 450  065D  0080     E  	mov rb,a
 450  065E  075A        	mov a,mduwr1
 450  065F  0080     E  	mov rc,a
 450  0660  3C0A        	sz c
 450  0661  3020        	set intc.0
 450  0662  0F00     E  	mov a,low (offset _glucose_auto_code+28)
 450  0663  0300     E  	add a,rb
 450  0664  0083        	mov mp,a
 450  0665  0F00     E  	mov a,high (offset _glucose_auto_code+28)
 450  0666  1300     E  	adc a,rc
 450  0667  0084        	mov sbp,a
 450  0668              	fcall _Crom2Prom
 450  066F  0080     E  	mov rd,a
 450  0670              	fcall _Crom2PromNext
 450  0677  0080     E  	mov re,a
 450  0678              	fcall _Crom2PromNext
 450  067F  0080     E  	mov rf,a
 450  0680              	fcall _Crom2PromNext
 450  0687  0080     E  	mov rg,a
 450  0688  0700     E  	mov a,rd
 450  0689  C0AA 0014   	lmov [5290],a
 450  068B  0700     E  	mov a,re
 450  068C  C0AB 0014   	lmov [5291],a
 450  068E  0700     E  	mov a,rf
 450  068F  C0AC 0014   	lmov [5292],a
 450  0691  0700     E  	mov a,rg
 450  0692  C0AD 0014   	lmov [5293],a
 451  0694              #line 451 "c:\users\longshuangmin\desktop\worke_space\g-501\g-501\OpMode_A.C"
 451  0694  0FFF        	mov a,255
 451  0695  C37C 0012   	ladd a,[4860]
 451  0697  0080     E  	mov rb,a
 451  0698  0FFF        	mov a,255
 451  0699  D37D 0012   	ladc a,[4861]
 451  069B  0080     E  	mov rc,a
 451  069C  1B20        	rrca intc
 451  069D  3420        	clr intc.0
 451  069E  0700     E  	mov a,rb
 451  069F  00D9        	mov mduwr0,a
 451  06A0  0F48        	mov a,72
 451  06A1  00DD        	mov mduwr4,a
 451  06A2  0700     E  	mov a,rc
 451  06A3  00DA        	mov mduwr1,a
 451  06A4  0F00        	mov a,0
 451  06A5  00DE        	mov mduwr5,a
 451  06A6  0F06        	mov a,6
 451  06A7              _LI9:
 451  06A7  1785        	sdz acc
 451  06A8  2800     R  	jmp _LI9
 451  06A9  0759        	mov a,mduwr0
 451  06AA  0080     E  	mov rb,a
 451  06AB  075A        	mov a,mduwr1
 451  06AC  0080     E  	mov rc,a
 451  06AD  3C0A        	sz c
 451  06AE  3020        	set intc.0
 451  06AF  0F00     E  	mov a,low (offset _glucose_auto_code+32)
 451  06B0  0300     E  	add a,rb
 451  06B1  0083        	mov mp,a
 451  06B2  0F00     E  	mov a,high (offset _glucose_auto_code+32)
 451  06B3  1300     E  	adc a,rc
文件：OpMode_A.C   编译器版本 HGASM 0202 页次19

 451  06B4  0084        	mov sbp,a
 451  06B5              	fcall _Crom2Prom
 451  06BC  0080     E  	mov rd,a
 451  06BD              	fcall _Crom2PromNext
 451  06C4  0080     E  	mov re,a
 451  06C5              	fcall _Crom2PromNext
 451  06CC  0080     E  	mov rf,a
 451  06CD              	fcall _Crom2PromNext
 451  06D4  0080     E  	mov rg,a
 451  06D5  0700     E  	mov a,rd
 451  06D6  C0AE 0014   	lmov [5294],a
 451  06D8  0700     E  	mov a,re
 451  06D9  C0AF 0014   	lmov [5295],a
 451  06DB  0700     E  	mov a,rf
 451  06DC  C0B0 0014   	lmov [5296],a
 451  06DE  0700     E  	mov a,rg
 451  06DF  C0B1 0014   	lmov [5297],a
 453  06E1              #line 453 "c:\users\longshuangmin\desktop\worke_space\g-501\g-501\OpMode_A.C"
 453  06E1  0FFF        	mov a,255
 453  06E2  C37C 0012   	ladd a,[4860]
 453  06E4  0080     E  	mov rb,a
 453  06E5  0FFF        	mov a,255
 453  06E6  D37D 0012   	ladc a,[4861]
 453  06E8  0080     E  	mov rc,a
 453  06E9  1B20        	rrca intc
 453  06EA  3420        	clr intc.0
 453  06EB  0700     E  	mov a,rb
 453  06EC  00D9        	mov mduwr0,a
 453  06ED  0F48        	mov a,72
 453  06EE  00DD        	mov mduwr4,a
 453  06EF  0700     E  	mov a,rc
 453  06F0  00DA        	mov mduwr1,a
 453  06F1  0F00        	mov a,0
 453  06F2  00DE        	mov mduwr5,a
 453  06F3  0F06        	mov a,6
 453  06F4              _LI10:
 453  06F4  1785        	sdz acc
 453  06F5  2800     R  	jmp _LI10
 453  06F6  0759        	mov a,mduwr0
 453  06F7  0080     E  	mov rb,a
 453  06F8  075A        	mov a,mduwr1
 453  06F9  0080     E  	mov rc,a
 453  06FA  3C0A        	sz c
 453  06FB  3020        	set intc.0
 453  06FC  0F00     E  	mov a,low (offset _glucose_auto_code+36)
 453  06FD  0300     E  	add a,rb
 453  06FE  0083        	mov mp,a
 453  06FF  0F00     E  	mov a,high (offset _glucose_auto_code+36)
 453  0700  1300     E  	adc a,rc
 453  0701  0084        	mov sbp,a
 453  0702              	fcall _Crom2Prom
 453  0709  0080     E  	mov rd,a
 453  070A              	fcall _Crom2PromNext
 453  0711  0080     E  	mov re,a
 453  0712              	fcall _Crom2PromNext
 453  0719  0080     E  	mov rf,a
 453  071A              	fcall _Crom2PromNext
 453  0721  0080     E  	mov rg,a
 453  0722  0700     E  	mov a,rd
 453  0723  C0B2 0014   	lmov [5298],a
文件：OpMode_A.C   编译器版本 HGASM 0202 页次20

 453  0725  0700     E  	mov a,re
 453  0726  C0B3 0014   	lmov [5299],a
 453  0728  0700     E  	mov a,rf
 453  0729  C0B4 0014   	lmov [5300],a
 453  072B  0700     E  	mov a,rg
 453  072C  C0B5 0014   	lmov [5301],a
 454  072E              #line 454 "c:\users\longshuangmin\desktop\worke_space\g-501\g-501\OpMode_A.C"
 454  072E  0FFF        	mov a,255
 454  072F  C37C 0012   	ladd a,[4860]
 454  0731  0080     E  	mov rb,a
 454  0732  0FFF        	mov a,255
 454  0733  D37D 0012   	ladc a,[4861]
 454  0735  0080     E  	mov rc,a
 454  0736  1B20        	rrca intc
 454  0737  3420        	clr intc.0
 454  0738  0700     E  	mov a,rb
 454  0739  00D9        	mov mduwr0,a
 454  073A  0F48        	mov a,72
 454  073B  00DD        	mov mduwr4,a
 454  073C  0700     E  	mov a,rc
 454  073D  00DA        	mov mduwr1,a
 454  073E  0F00        	mov a,0
 454  073F  00DE        	mov mduwr5,a
 454  0740  0F06        	mov a,6
 454  0741              _LI11:
 454  0741  1785        	sdz acc
 454  0742  2800     R  	jmp _LI11
 454  0743  0759        	mov a,mduwr0
 454  0744  0080     E  	mov rb,a
 454  0745  075A        	mov a,mduwr1
 454  0746  0080     E  	mov rc,a
 454  0747  3C0A        	sz c
 454  0748  3020        	set intc.0
 454  0749  0F00     E  	mov a,low (offset _glucose_auto_code+40)
 454  074A  0300     E  	add a,rb
 454  074B  0083        	mov mp,a
 454  074C  0F00     E  	mov a,high (offset _glucose_auto_code+40)
 454  074D  1300     E  	adc a,rc
 454  074E  0084        	mov sbp,a
 454  074F              	fcall _Crom2Prom
 454  0756  0080     E  	mov rd,a
 454  0757              	fcall _Crom2PromNext
 454  075E  0080     E  	mov re,a
 454  075F              	fcall _Crom2PromNext
 454  0766  0080     E  	mov rf,a
 454  0767              	fcall _Crom2PromNext
 454  076E  0080     E  	mov rg,a
 454  076F  0700     E  	mov a,rd
 454  0770  C0B6 0014   	lmov [5302],a
 454  0772  0700     E  	mov a,re
 454  0773  C0B7 0014   	lmov [5303],a
 454  0775  0700     E  	mov a,rf
 454  0776  C0B8 0014   	lmov [5304],a
 454  0778  0700     E  	mov a,rg
 454  0779  C0B9 0014   	lmov [5305],a
 455  077B              #line 455 "c:\users\longshuangmin\desktop\worke_space\g-501\g-501\OpMode_A.C"
 455  077B  0FFF        	mov a,255
 455  077C  C37C 0012   	ladd a,[4860]
 455  077E  0080     E  	mov rb,a
 455  077F  0FFF        	mov a,255
文件：OpMode_A.C   编译器版本 HGASM 0202 页次21

 455  0780  D37D 0012   	ladc a,[4861]
 455  0782  0080     E  	mov rc,a
 455  0783  1B20        	rrca intc
 455  0784  3420        	clr intc.0
 455  0785  0700     E  	mov a,rb
 455  0786  00D9        	mov mduwr0,a
 455  0787  0F48        	mov a,72
 455  0788  00DD        	mov mduwr4,a
 455  0789  0700     E  	mov a,rc
 455  078A  00DA        	mov mduwr1,a
 455  078B  0F00        	mov a,0
 455  078C  00DE        	mov mduwr5,a
 455  078D  0F06        	mov a,6
 455  078E              _LI12:
 455  078E  1785        	sdz acc
 455  078F  2800     R  	jmp _LI12
 455  0790  0759        	mov a,mduwr0
 455  0791  0080     E  	mov rb,a
 455  0792  075A        	mov a,mduwr1
 455  0793  0080     E  	mov rc,a
 455  0794  3C0A        	sz c
 455  0795  3020        	set intc.0
 455  0796  0F00     E  	mov a,low (offset _glucose_auto_code+44)
 455  0797  0300     E  	add a,rb
 455  0798  0083        	mov mp,a
 455  0799  0F00     E  	mov a,high (offset _glucose_auto_code+44)
 455  079A  1300     E  	adc a,rc
 455  079B  0084        	mov sbp,a
 455  079C              	fcall _Crom2Prom
 455  07A3  0080     E  	mov rd,a
 455  07A4              	fcall _Crom2PromNext
 455  07AB  0080     E  	mov re,a
 455  07AC              	fcall _Crom2PromNext
 455  07B3  0080     E  	mov rf,a
 455  07B4              	fcall _Crom2PromNext
 455  07BB  0080     E  	mov rg,a
 455  07BC  0700     E  	mov a,rd
 455  07BD  C0BA 0014   	lmov [5306],a
 455  07BF  0700     E  	mov a,re
 455  07C0  C0BB 0014   	lmov [5307],a
 455  07C2  0700     E  	mov a,rf
 455  07C3  C0BC 0014   	lmov [5308],a
 455  07C5  0700     E  	mov a,rg
 455  07C6  C0BD 0014   	lmov [5309],a
 457  07C8              #line 457 "c:\users\longshuangmin\desktop\worke_space\g-501\g-501\OpMode_A.C"
 457  07C8  0FFF        	mov a,255
 457  07C9  C37C 0012   	ladd a,[4860]
 457  07CB  0080     E  	mov rb,a
 457  07CC  0FFF        	mov a,255
 457  07CD  D37D 0012   	ladc a,[4861]
 457  07CF  0080     E  	mov rc,a
 457  07D0  1B20        	rrca intc
 457  07D1  3420        	clr intc.0
 457  07D2  0700     E  	mov a,rb
 457  07D3  00D9        	mov mduwr0,a
 457  07D4  0F48        	mov a,72
 457  07D5  00DD        	mov mduwr4,a
 457  07D6  0700     E  	mov a,rc
 457  07D7  00DA        	mov mduwr1,a
 457  07D8  0F00        	mov a,0
文件：OpMode_A.C   编译器版本 HGASM 0202 页次22

 457  07D9  00DE        	mov mduwr5,a
 457  07DA  0F06        	mov a,6
 457  07DB              _LI13:
 457  07DB  1785        	sdz acc
 457  07DC  2800     R  	jmp _LI13
 457  07DD  0759        	mov a,mduwr0
 457  07DE  0080     E  	mov rb,a
 457  07DF  075A        	mov a,mduwr1
 457  07E0  0080     E  	mov rc,a
 457  07E1  3C0A        	sz c
 457  07E2  3020        	set intc.0
 457  07E3  0F00     E  	mov a,low (offset _glucose_auto_code+48)
 457  07E4  0300     E  	add a,rb
 457  07E5  0083        	mov mp,a
 457  07E6  0F00     E  	mov a,high (offset _glucose_auto_code+48)
 457  07E7  1300     E  	adc a,rc
 457  07E8  0084        	mov sbp,a
 457  07E9              	fcall _Crom2Prom
 457  07F0  0080     E  	mov rd,a
 457  07F1              	fcall _Crom2PromNext
 457  07F8  0080     E  	mov re,a
 457  07F9              	fcall _Crom2PromNext
 457  0800  0080     E  	mov rf,a
 457  0801              	fcall _Crom2PromNext
 457  0808  0080     E  	mov rg,a
 457  0809  0700     E  	mov a,rd
 457  080A  C0BE 0014   	lmov [5310],a
 457  080C  0700     E  	mov a,re
 457  080D  C0BF 0014   	lmov [5311],a
 457  080F  0700     E  	mov a,rf
 457  0810  C0C0 0014   	lmov [5312],a
 457  0812  0700     E  	mov a,rg
 457  0813  C0C1 0014   	lmov [5313],a
 458  0815              #line 458 "c:\users\longshuangmin\desktop\worke_space\g-501\g-501\OpMode_A.C"
 458  0815  0FFF        	mov a,255
 458  0816  C37C 0012   	ladd a,[4860]
 458  0818  0080     E  	mov rb,a
 458  0819  0FFF        	mov a,255
 458  081A  D37D 0012   	ladc a,[4861]
 458  081C  0080     E  	mov rc,a
 458  081D  1B20        	rrca intc
 458  081E  3420        	clr intc.0
 458  081F  0700     E  	mov a,rb
 458  0820  00D9        	mov mduwr0,a
 458  0821  0F48        	mov a,72
 458  0822  00DD        	mov mduwr4,a
 458  0823  0700     E  	mov a,rc
 458  0824  00DA        	mov mduwr1,a
 458  0825  0F00        	mov a,0
 458  0826  00DE        	mov mduwr5,a
 458  0827  0F06        	mov a,6
 458  0828              _LI14:
 458  0828  1785        	sdz acc
 458  0829  2800     R  	jmp _LI14
 458  082A  0759        	mov a,mduwr0
 458  082B  0080     E  	mov rb,a
 458  082C  075A        	mov a,mduwr1
 458  082D  0080     E  	mov rc,a
 458  082E  3C0A        	sz c
 458  082F  3020        	set intc.0
文件：OpMode_A.C   编译器版本 HGASM 0202 页次23

 458  0830  0F00     E  	mov a,low (offset _glucose_auto_code+52)
 458  0831  0300     E  	add a,rb
 458  0832  0083        	mov mp,a
 458  0833  0F00     E  	mov a,high (offset _glucose_auto_code+52)
 458  0834  1300     E  	adc a,rc
 458  0835  0084        	mov sbp,a
 458  0836              	fcall _Crom2Prom
 458  083D  0080     E  	mov rd,a
 458  083E              	fcall _Crom2PromNext
 458  0845  0080     E  	mov re,a
 458  0846              	fcall _Crom2PromNext
 458  084D  0080     E  	mov rf,a
 458  084E              	fcall _Crom2PromNext
 458  0855  0080     E  	mov rg,a
 458  0856  0700     E  	mov a,rd
 458  0857  C0C2 0014   	lmov [5314],a
 458  0859  0700     E  	mov a,re
 458  085A  C0C3 0014   	lmov [5315],a
 458  085C  0700     E  	mov a,rf
 458  085D  C0C4 0014   	lmov [5316],a
 458  085F  0700     E  	mov a,rg
 458  0860  C0C5 0014   	lmov [5317],a
 459  0862              #line 459 "c:\users\longshuangmin\desktop\worke_space\g-501\g-501\OpMode_A.C"
 459  0862  0FFF        	mov a,255
 459  0863  C37C 0012   	ladd a,[4860]
 459  0865  0080     E  	mov rb,a
 459  0866  0FFF        	mov a,255
 459  0867  D37D 0012   	ladc a,[4861]
 459  0869  0080     E  	mov rc,a
 459  086A  1B20        	rrca intc
 459  086B  3420        	clr intc.0
 459  086C  0700     E  	mov a,rb
 459  086D  00D9        	mov mduwr0,a
 459  086E  0F48        	mov a,72
 459  086F  00DD        	mov mduwr4,a
 459  0870  0700     E  	mov a,rc
 459  0871  00DA        	mov mduwr1,a
 459  0872  0F00        	mov a,0
 459  0873  00DE        	mov mduwr5,a
 459  0874  0F06        	mov a,6
 459  0875              _LI15:
 459  0875  1785        	sdz acc
 459  0876  2800     R  	jmp _LI15
 459  0877  0759        	mov a,mduwr0
 459  0878  0080     E  	mov rb,a
 459  0879  075A        	mov a,mduwr1
 459  087A  0080     E  	mov rc,a
 459  087B  3C0A        	sz c
 459  087C  3020        	set intc.0
 459  087D  0F00     E  	mov a,low (offset _glucose_auto_code+56)
 459  087E  0300     E  	add a,rb
 459  087F  0083        	mov mp,a
 459  0880  0F00     E  	mov a,high (offset _glucose_auto_code+56)
 459  0881  1300     E  	adc a,rc
 459  0882  0084        	mov sbp,a
 459  0883              	fcall _Crom2Prom
 459  088A  0080     E  	mov rd,a
 459  088B              	fcall _Crom2PromNext
 459  0892  0080     E  	mov re,a
 459  0893              	fcall _Crom2PromNext
文件：OpMode_A.C   编译器版本 HGASM 0202 页次24

 459  089A  0080     E  	mov rf,a
 459  089B              	fcall _Crom2PromNext
 459  08A2  0080     E  	mov rg,a
 459  08A3  0700     E  	mov a,rd
 459  08A4  C0C6 0014   	lmov [5318],a
 459  08A6  0700     E  	mov a,re
 459  08A7  C0C7 0014   	lmov [5319],a
 459  08A9  0700     E  	mov a,rf
 459  08AA  C0C8 0014   	lmov [5320],a
 459  08AC  0700     E  	mov a,rg
 459  08AD  C0C9 0014   	lmov [5321],a
 461  08AF              #line 461 "c:\users\longshuangmin\desktop\worke_space\g-501\g-501\OpMode_A.C"
 461  08AF  0FFF        	mov a,255
 461  08B0  C37C 0012   	ladd a,[4860]
 461  08B2  0080     E  	mov rb,a
 461  08B3  0FFF        	mov a,255
 461  08B4  D37D 0012   	ladc a,[4861]
 461  08B6  0080     E  	mov rc,a
 461  08B7  1B20        	rrca intc
 461  08B8  3420        	clr intc.0
 461  08B9  0700     E  	mov a,rb
 461  08BA  00D9        	mov mduwr0,a
 461  08BB  0F48        	mov a,72
 461  08BC  00DD        	mov mduwr4,a
 461  08BD  0700     E  	mov a,rc
 461  08BE  00DA        	mov mduwr1,a
 461  08BF  0F00        	mov a,0
 461  08C0  00DE        	mov mduwr5,a
 461  08C1  0F06        	mov a,6
 461  08C2              _LI16:
 461  08C2  1785        	sdz acc
 461  08C3  2800     R  	jmp _LI16
 461  08C4  0759        	mov a,mduwr0
 461  08C5  0080     E  	mov rb,a
 461  08C6  075A        	mov a,mduwr1
 461  08C7  0080     E  	mov rc,a
 461  08C8  3C0A        	sz c
 461  08C9  3020        	set intc.0
 461  08CA  0F00     E  	mov a,low (offset _glucose_auto_code+60)
 461  08CB  0300     E  	add a,rb
 461  08CC  0083        	mov mp,a
 461  08CD  0F00     E  	mov a,high (offset _glucose_auto_code+60)
 461  08CE  1300     E  	adc a,rc
 461  08CF  0084        	mov sbp,a
 461  08D0              	fcall _Crom2Prom
 461  08D7  0080     E  	mov rd,a
 461  08D8              	fcall _Crom2PromNext
 461  08DF  0080     E  	mov re,a
 461  08E0              	fcall _Crom2PromNext
 461  08E7  0080     E  	mov rf,a
 461  08E8              	fcall _Crom2PromNext
 461  08EF  0080     E  	mov rg,a
 461  08F0  0700     E  	mov a,rd
 461  08F1  C0CA 0014   	lmov [5322],a
 461  08F3  0700     E  	mov a,re
 461  08F4  C0CB 0014   	lmov [5323],a
 461  08F6  0700     E  	mov a,rf
 461  08F7  C0CC 0014   	lmov [5324],a
 461  08F9  0700     E  	mov a,rg
 461  08FA  C0CD 0014   	lmov [5325],a
文件：OpMode_A.C   编译器版本 HGASM 0202 页次25

 462  08FC              #line 462 "c:\users\longshuangmin\desktop\worke_space\g-501\g-501\OpMode_A.C"
 462  08FC  0FFF        	mov a,255
 462  08FD  C37C 0012   	ladd a,[4860]
 462  08FF  0080     E  	mov rb,a
 462  0900  0FFF        	mov a,255
 462  0901  D37D 0012   	ladc a,[4861]
 462  0903  0080     E  	mov rc,a
 462  0904  1B20        	rrca intc
 462  0905  3420        	clr intc.0
 462  0906  0700     E  	mov a,rb
 462  0907  00D9        	mov mduwr0,a
 462  0908  0F48        	mov a,72
 462  0909  00DD        	mov mduwr4,a
 462  090A  0700     E  	mov a,rc
 462  090B  00DA        	mov mduwr1,a
 462  090C  0F00        	mov a,0
 462  090D  00DE        	mov mduwr5,a
 462  090E  0F06        	mov a,6
 462  090F              _LI17:
 462  090F  1785        	sdz acc
 462  0910  2800     R  	jmp _LI17
 462  0911  0759        	mov a,mduwr0
 462  0912  0080     E  	mov rb,a
 462  0913  075A        	mov a,mduwr1
 462  0914  0080     E  	mov rc,a
 462  0915  3C0A        	sz c
 462  0916  3020        	set intc.0
 462  0917  0F00     E  	mov a,low (offset _glucose_auto_code+64)
 462  0918  0300     E  	add a,rb
 462  0919  0083        	mov mp,a
 462  091A  0F00     E  	mov a,high (offset _glucose_auto_code+64)
 462  091B  1300     E  	adc a,rc
 462  091C  0084        	mov sbp,a
 462  091D              	fcall _Crom2Prom
 462  0924  0080     E  	mov rd,a
 462  0925              	fcall _Crom2PromNext
 462  092C  0080     E  	mov re,a
 462  092D              	fcall _Crom2PromNext
 462  0934  0080     E  	mov rf,a
 462  0935              	fcall _Crom2PromNext
 462  093C  0080     E  	mov rg,a
 462  093D  0700     E  	mov a,rd
 462  093E  C0CE 0014   	lmov [5326],a
 462  0940  0700     E  	mov a,re
 462  0941  C0CF 0014   	lmov [5327],a
 462  0943  0700     E  	mov a,rf
 462  0944  C0D0 0014   	lmov [5328],a
 462  0946  0700     E  	mov a,rg
 462  0947  C0D1 0014   	lmov [5329],a
 463  0949              #line 463 "c:\users\longshuangmin\desktop\worke_space\g-501\g-501\OpMode_A.C"
 463  0949  0FFF        	mov a,255
 463  094A  C37C 0012   	ladd a,[4860]
 463  094C  0080     E  	mov rb,a
 463  094D  0FFF        	mov a,255
 463  094E  D37D 0012   	ladc a,[4861]
 463  0950  0080     E  	mov rc,a
 463  0951  1B20        	rrca intc
 463  0952  3420        	clr intc.0
 463  0953  0700     E  	mov a,rb
 463  0954  00D9        	mov mduwr0,a
文件：OpMode_A.C   编译器版本 HGASM 0202 页次26

 463  0955  0F48        	mov a,72
 463  0956  00DD        	mov mduwr4,a
 463  0957  0700     E  	mov a,rc
 463  0958  00DA        	mov mduwr1,a
 463  0959  0F00        	mov a,0
 463  095A  00DE        	mov mduwr5,a
 463  095B  0F06        	mov a,6
 463  095C              _LI18:
 463  095C  1785        	sdz acc
 463  095D  2800     R  	jmp _LI18
 463  095E  0759        	mov a,mduwr0
 463  095F  0080     E  	mov rb,a
 463  0960  075A        	mov a,mduwr1
 463  0961  0080     E  	mov rc,a
 463  0962  3C0A        	sz c
 463  0963  3020        	set intc.0
 463  0964  0F00     E  	mov a,low (offset _glucose_auto_code+68)
 463  0965  0300     E  	add a,rb
 463  0966  0083        	mov mp,a
 463  0967  0F00     E  	mov a,high (offset _glucose_auto_code+68)
 463  0968  1300     E  	adc a,rc
 463  0969  0084        	mov sbp,a
 463  096A              _L7:
 463  096A              	fcall _Crom2Prom
 463  0971  0080     E  	mov rd,a
 463  0972              	fcall _Crom2PromNext
 463  0979  0080     E  	mov re,a
 463  097A              	fcall _Crom2PromNext
 463  0981  0080     E  	mov rf,a
 463  0982              	fcall _Crom2PromNext
 463  0989  0080     E  	mov rg,a
 463  098A  0700     E  	mov a,rd
 463  098B  C0D2 0014   	lmov [5330],a
 463  098D  0700     E  	mov a,re
 463  098E  C0D3 0014   	lmov [5331],a
 463  0990  0700     E  	mov a,rf
 463  0991  C0D4 0014   	lmov [5332],a
 463  0993  0700     E  	mov a,rg
 463  0994  C0D5 0014   	lmov [5333],a
 463  0996              _L5:
 489  0996              #line 489 "c:\users\longshuangmin\desktop\worke_space\g-501\g-501\OpMode_A.C"
 489  0996  0700     E  	mov a,ra
 489  0997  C080 000D   	lmov [3456],a
 490  0999              #line 490 "c:\users\longshuangmin\desktop\worke_space\g-501\g-501\OpMode_A.C"
 490  0999  C77C 0012   	lmov a,[4860]
 490  099B  C081 000D   	lmov [3457],a
 490  099D  C77D 0012   	lmov a,[4861]
 490  099F  C082 000D   	lmov [3458],a
 490  09A1  0003        	ret
 490  09A2              _load_autoCode_data endp
 490  09A2              #line 490 "c:\users\longshuangmin\desktop\worke_space\g-501\g-501\OpMode_A.C"
 490  09A2              #pragma debug scope 1 1
 490  09A2              public _get_auto_code
 490  09A2              #pragma debug scope 6 1
 523  09A2              #line 523 "c:\users\longshuangmin\desktop\worke_space\g-501\g-501\OpMode_A.C"
 523  0000              _get_auto_code .section 'code'
 523  0000              _get_auto_code proc
 616  0000              #line 616 "c:\users\longshuangmin\desktop\worke_space\g-501\g-501\OpMode_A.C"
 616  0000              	fcall _load_autoCode_data
 616  0007  0003        	ret
文件：OpMode_A.C   编译器版本 HGASM 0202 页次27

 616  0008              _get_auto_code endp
 616  0008              #line 616 "c:\users\longshuangmin\desktop\worke_space\g-501\g-501\OpMode_A.C"
 616  0008              #pragma debug scope 1 1
 616  0008              ___intc0 equ [32]
 616  0008              public _get_glucose
 616  0008              #pragma debug scope 7 1
 627  0008              #line 627 "c:\users\longshuangmin\desktop\worke_space\g-501\g-501\OpMode_A.C"
 627  0000              _get_glucose .section 'code'
 627  0000              _get_glucose proc
 627  0000  0005[           local _get_glucose_2 db 5 dup(?)	; 0,5
            00
            ]
 627  0000  0080     R  	mov _get_glucose_2[0],a
 627  0001              #pragma debug variable 8 7 _get_glucose_2+0 "temp"
 630  0001              #line 630 "c:\users\longshuangmin\desktop\worke_space\g-501\g-501\OpMode_A.C"
 630  0001  3420        	clr [32].0
 631  0002              #line 631 "c:\users\longshuangmin\desktop\worke_space\g-501\g-501\OpMode_A.C"
 631  0002  C711 0014   	lmov a,[5265]
 631  0004  0080     E  	mov _builtin_holtek_mant12p[0],a
 631  0005  C710 0014   	lmov a,[5264]
 631  0007  0080     E  	mov _builtin_holtek_mant1[2],a
 631  0008  C70F 0014   	lmov a,[5263]
 631  000A  0080     E  	mov _builtin_holtek_mant1[1],a
 631  000B  C70E 0014   	lmov a,[5262]
 631  000D  0080     E  	mov _builtin_holtek_mant1[0],a
 631  000E  C72C 000D   	lmov a,[3500]
 631  0010  0080     E  	mov _builtin_holtek_mant12p[1],a
 631  0011  C72B 000D   	lmov a,[3499]
 631  0013  0080     E  	mov _builtin_holtek_mant2[2],a
 631  0014  C72A 000D   	lmov a,[3498]
 631  0016  0080     E  	mov _builtin_holtek_mant2[1],a
 631  0017  C729 000D   	lmov a,[3497]
 631  0019  0080     E  	mov _builtin_holtek_mant2[0],a
 631  001A              	fcall _builtin_holtek_dtmul
 631  0021  0700     E  	mov a,_builtin_holtek_mant12p[0]
 631  0022  0080     E  	mov rg,a
 631  0023  0700     E  	mov a,_builtin_holtek_mant1[2]
 631  0024  0080     E  	mov rf,a
 631  0025  0700     E  	mov a,_builtin_holtek_mant1[1]
 631  0026  0080     E  	mov re,a
 631  0027  0700     E  	mov a,_builtin_holtek_mant1[0]
 631  0028  0080     E  	mov rd,a
 631  0029  0700     E  	mov a,rg
 631  002A  0080     E  	mov _builtin_holtek_mant12p[0],a
 631  002B  0700     E  	mov a,rf
 631  002C  0080     E  	mov _builtin_holtek_mant1[2],a
 631  002D  0700     E  	mov a,re
 631  002E  0080     E  	mov _builtin_holtek_mant1[1],a
 631  002F  0700     E  	mov a,rd
 631  0030  0080     E  	mov _builtin_holtek_mant1[0],a
 631  0031  C72C 000D   	lmov a,[3500]
 631  0033  0080     E  	mov _builtin_holtek_mant12p[1],a
 631  0034  C72B 000D   	lmov a,[3499]
 631  0036  0080     E  	mov _builtin_holtek_mant2[2],a
 631  0037  C72A 000D   	lmov a,[3498]
 631  0039  0080     E  	mov _builtin_holtek_mant2[1],a
 631  003A  C729 000D   	lmov a,[3497]
 631  003C  0080     E  	mov _builtin_holtek_mant2[0],a
 631  003D              	fcall _builtin_holtek_dtmul
 631  0044  0700     E  	mov a,_builtin_holtek_mant12p[0]
文件：OpMode_A.C   编译器版本 HGASM 0202 页次28

 631  0045  0080     R  	mov _get_glucose_2[4],a
 631  0046  0700     E  	mov a,_builtin_holtek_mant1[2]
 631  0047  0080     R  	mov _get_glucose_2[3],a
 631  0048  0700     E  	mov a,_builtin_holtek_mant1[1]
 631  0049  0080     R  	mov _get_glucose_2[2],a
 631  004A  0700     E  	mov a,_builtin_holtek_mant1[0]
 631  004B  0080     R  	mov _get_glucose_2[1],a
 631  004C  C715 0014   	lmov a,[5269]
 631  004E  0080     E  	mov _builtin_holtek_mant12p[0],a
 631  004F  C714 0014   	lmov a,[5268]
 631  0051  0080     E  	mov _builtin_holtek_mant1[2],a
 631  0052  C713 0014   	lmov a,[5267]
 631  0054  0080     E  	mov _builtin_holtek_mant1[1],a
 631  0055  C712 0014   	lmov a,[5266]
 631  0057  0080     E  	mov _builtin_holtek_mant1[0],a
 631  0058  C72C 000D   	lmov a,[3500]
 631  005A  0080     E  	mov _builtin_holtek_mant12p[1],a
 631  005B  C72B 000D   	lmov a,[3499]
 631  005D  0080     E  	mov _builtin_holtek_mant2[2],a
 631  005E  C72A 000D   	lmov a,[3498]
 631  0060  0080     E  	mov _builtin_holtek_mant2[1],a
 631  0061  C729 000D   	lmov a,[3497]
 631  0063  0080     E  	mov _builtin_holtek_mant2[0],a
 631  0064              	fcall _builtin_holtek_dtmul
 631  006B  0700     E  	mov a,_builtin_holtek_mant12p[0]
 631  006C  0080     E  	mov rg,a
 631  006D  0700     E  	mov a,_builtin_holtek_mant1[2]
 631  006E  0080     E  	mov rf,a
 631  006F  0700     E  	mov a,_builtin_holtek_mant1[1]
 631  0070  0080     E  	mov re,a
 631  0071  0700     E  	mov a,_builtin_holtek_mant1[0]
 631  0072  0080     E  	mov rd,a
 631  0073  0700     R  	mov a,_get_glucose_2[4]
 631  0074  0080     E  	mov _builtin_holtek_mant12p[0],a
 631  0075  0700     R  	mov a,_get_glucose_2[3]
 631  0076  0080     E  	mov _builtin_holtek_mant1[2],a
 631  0077  0700     R  	mov a,_get_glucose_2[2]
 631  0078  0080     E  	mov _builtin_holtek_mant1[1],a
 631  0079  0700     R  	mov a,_get_glucose_2[1]
 631  007A  0080     E  	mov _builtin_holtek_mant1[0],a
 631  007B  0700     E  	mov a,rg
 631  007C  0080     E  	mov _builtin_holtek_mant12p[1],a
 631  007D  0700     E  	mov a,rf
 631  007E  0080     E  	mov _builtin_holtek_mant2[2],a
 631  007F  0700     E  	mov a,re
 631  0080  0080     E  	mov _builtin_holtek_mant2[1],a
 631  0081  0700     E  	mov a,rd
 631  0082  0080     E  	mov _builtin_holtek_mant2[0],a
 631  0083              	fcall _builtin_holtek_dtadd
 631  008A  0700     E  	mov a,_builtin_holtek_mant12p[0]
 631  008B  0080     E  	mov rg,a
 631  008C  0700     E  	mov a,_builtin_holtek_mant1[2]
 631  008D  0080     E  	mov rf,a
 631  008E  0700     E  	mov a,_builtin_holtek_mant1[1]
 631  008F  0080     E  	mov re,a
 631  0090  0700     E  	mov a,_builtin_holtek_mant1[0]
 631  0091  0080     E  	mov rd,a
 631  0092  0700     E  	mov a,rg
 631  0093  0080     E  	mov _builtin_holtek_mant12p[0],a
 631  0094  0700     E  	mov a,rf
文件：OpMode_A.C   编译器版本 HGASM 0202 页次29

 631  0095  0080     E  	mov _builtin_holtek_mant1[2],a
 631  0096  0700     E  	mov a,re
 631  0097  0080     E  	mov _builtin_holtek_mant1[1],a
 631  0098  0700     E  	mov a,rd
 631  0099  0080     E  	mov _builtin_holtek_mant1[0],a
 631  009A  C719 0014   	lmov a,[5273]
 631  009C  0080     E  	mov _builtin_holtek_mant12p[1],a
 631  009D  C718 0014   	lmov a,[5272]
 631  009F  0080     E  	mov _builtin_holtek_mant2[2],a
 631  00A0  C717 0014   	lmov a,[5271]
 631  00A2  0080     E  	mov _builtin_holtek_mant2[1],a
 631  00A3  C716 0014   	lmov a,[5270]
 631  00A5  0080     E  	mov _builtin_holtek_mant2[0],a
 631  00A6              	fcall _builtin_holtek_dtadd
 631  00AD  0700     E  	mov a,_builtin_holtek_mant12p[0]
 631  00AE  C0B8 000D   	lmov [3512],a
 631  00B0  0700     E  	mov a,_builtin_holtek_mant1[2]
 631  00B1  C0B7 000D   	lmov [3511],a
 631  00B3  0700     E  	mov a,_builtin_holtek_mant1[1]
 631  00B4  C0B6 000D   	lmov [3510],a
 631  00B6  0700     E  	mov a,_builtin_holtek_mant1[0]
 631  00B7  C0B5 000D   	lmov [3509],a
 632  00B9              #line 632 "c:\users\longshuangmin\desktop\worke_space\g-501\g-501\OpMode_A.C"
 632  00B9  1E00     R  	snz _get_glucose_2[0]
 632  00BA  2800     R  	jmp _L11
 633  00BB              #line 633 "c:\users\longshuangmin\desktop\worke_space\g-501\g-501\OpMode_A.C"
 633  00BB  C71D 0014   	lmov a,[5277]
 633  00BD  0080     E  	mov _builtin_holtek_mant12p[0],a
 633  00BE  C71C 0014   	lmov a,[5276]
 633  00C0  0080     E  	mov _builtin_holtek_mant1[2],a
 633  00C1  C71B 0014   	lmov a,[5275]
 633  00C3  0080     E  	mov _builtin_holtek_mant1[1],a
 633  00C4  C71A 0014   	lmov a,[5274]
 633  00C6  0080     E  	mov _builtin_holtek_mant1[0],a
 633  00C7  C738 000D   	lmov a,[3512]
 633  00C9  0080     E  	mov _builtin_holtek_mant12p[1],a
 633  00CA  C737 000D   	lmov a,[3511]
 633  00CC  0080     E  	mov _builtin_holtek_mant2[2],a
 633  00CD  C736 000D   	lmov a,[3510]
 633  00CF  0080     E  	mov _builtin_holtek_mant2[1],a
 633  00D0  C735 000D   	lmov a,[3509]
 633  00D2  0080     E  	mov _builtin_holtek_mant2[0],a
 633  00D3              	fcall _builtin_holtek_dtmul
 633  00DA  0700     E  	mov a,_builtin_holtek_mant12p[0]
 633  00DB  0080     E  	mov rg,a
 633  00DC  0700     E  	mov a,_builtin_holtek_mant1[2]
 633  00DD  0080     E  	mov rf,a
 633  00DE  0700     E  	mov a,_builtin_holtek_mant1[1]
 633  00DF  0080     E  	mov re,a
 633  00E0  0700     E  	mov a,_builtin_holtek_mant1[0]
 633  00E1  0080     E  	mov rd,a
 633  00E2  0700     E  	mov a,rg
 633  00E3  0080     E  	mov _builtin_holtek_mant12p[0],a
 633  00E4  0700     E  	mov a,rf
 633  00E5  0080     E  	mov _builtin_holtek_mant1[2],a
 633  00E6  0700     E  	mov a,re
 633  00E7  0080     E  	mov _builtin_holtek_mant1[1],a
 633  00E8  0700     E  	mov a,rd
 633  00E9  0080     E  	mov _builtin_holtek_mant1[0],a
 633  00EA  C738 000D   	lmov a,[3512]
文件：OpMode_A.C   编译器版本 HGASM 0202 页次30

 633  00EC  0080     E  	mov _builtin_holtek_mant12p[1],a
 633  00ED  C737 000D   	lmov a,[3511]
 633  00EF  0080     E  	mov _builtin_holtek_mant2[2],a
 633  00F0  C736 000D   	lmov a,[3510]
 633  00F2  0080     E  	mov _builtin_holtek_mant2[1],a
 633  00F3  C735 000D   	lmov a,[3509]
 633  00F5  0080     E  	mov _builtin_holtek_mant2[0],a
 633  00F6              	fcall _builtin_holtek_dtmul
 633  00FD  0700     E  	mov a,_builtin_holtek_mant12p[0]
 633  00FE  0080     R  	mov _get_glucose_2[4],a
 633  00FF  0700     E  	mov a,_builtin_holtek_mant1[2]
 633  0100  0080     R  	mov _get_glucose_2[3],a
 633  0101  0700     E  	mov a,_builtin_holtek_mant1[1]
 633  0102  0080     R  	mov _get_glucose_2[2],a
 633  0103  0700     E  	mov a,_builtin_holtek_mant1[0]
 633  0104  0080     R  	mov _get_glucose_2[1],a
 633  0105  C721 0014   	lmov a,[5281]
 633  0107  0080     E  	mov _builtin_holtek_mant12p[0],a
 633  0108  C720 0014   	lmov a,[5280]
 633  010A  0080     E  	mov _builtin_holtek_mant1[2],a
 633  010B  C71F 0014   	lmov a,[5279]
 633  010D  0080     E  	mov _builtin_holtek_mant1[1],a
 633  010E  C71E 0014   	lmov a,[5278]
 633  0110  0080     E  	mov _builtin_holtek_mant1[0],a
 633  0111  C738 000D   	lmov a,[3512]
 633  0113  0080     E  	mov _builtin_holtek_mant12p[1],a
 633  0114  C737 000D   	lmov a,[3511]
 633  0116  0080     E  	mov _builtin_holtek_mant2[2],a
 633  0117  C736 000D   	lmov a,[3510]
 633  0119  0080     E  	mov _builtin_holtek_mant2[1],a
 633  011A  C735 000D   	lmov a,[3509]
 633  011C  0080     E  	mov _builtin_holtek_mant2[0],a
 633  011D              	fcall _builtin_holtek_dtmul
 633  0124  0700     E  	mov a,_builtin_holtek_mant12p[0]
 633  0125  0080     E  	mov rg,a
 633  0126  0700     E  	mov a,_builtin_holtek_mant1[2]
 633  0127  0080     E  	mov rf,a
 633  0128  0700     E  	mov a,_builtin_holtek_mant1[1]
 633  0129  0080     E  	mov re,a
 633  012A  0700     E  	mov a,_builtin_holtek_mant1[0]
 633  012B  0080     E  	mov rd,a
 633  012C  0700     R  	mov a,_get_glucose_2[4]
 633  012D  0080     E  	mov _builtin_holtek_mant12p[0],a
 633  012E  0700     R  	mov a,_get_glucose_2[3]
 633  012F  0080     E  	mov _builtin_holtek_mant1[2],a
 633  0130  0700     R  	mov a,_get_glucose_2[2]
 633  0131  0080     E  	mov _builtin_holtek_mant1[1],a
 633  0132  0700     R  	mov a,_get_glucose_2[1]
 633  0133  0080     E  	mov _builtin_holtek_mant1[0],a
 633  0134  0700     E  	mov a,rg
 633  0135  0080     E  	mov _builtin_holtek_mant12p[1],a
 633  0136  0700     E  	mov a,rf
 633  0137  0080     E  	mov _builtin_holtek_mant2[2],a
 633  0138  0700     E  	mov a,re
 633  0139  0080     E  	mov _builtin_holtek_mant2[1],a
 633  013A  0700     E  	mov a,rd
 633  013B  0080     E  	mov _builtin_holtek_mant2[0],a
 633  013C              	fcall _builtin_holtek_dtadd
 633  0143  0700     E  	mov a,_builtin_holtek_mant12p[0]
 633  0144  0080     E  	mov rg,a
文件：OpMode_A.C   编译器版本 HGASM 0202 页次31

 633  0145  0700     E  	mov a,_builtin_holtek_mant1[2]
 633  0146  0080     E  	mov rf,a
 633  0147  0700     E  	mov a,_builtin_holtek_mant1[1]
 633  0148  0080     E  	mov re,a
 633  0149  0700     E  	mov a,_builtin_holtek_mant1[0]
 633  014A  0080     E  	mov rd,a
 633  014B  0700     E  	mov a,rg
 633  014C  0080     E  	mov _builtin_holtek_mant12p[0],a
 633  014D  0700     E  	mov a,rf
 633  014E  0080     E  	mov _builtin_holtek_mant1[2],a
 633  014F  0700     E  	mov a,re
 633  0150  0080     E  	mov _builtin_holtek_mant1[1],a
 633  0151  0700     E  	mov a,rd
 633  0152  0080     E  	mov _builtin_holtek_mant1[0],a
 633  0153  C725 0014   	lmov a,[5285]
 633  0155  0080     E  	mov _builtin_holtek_mant12p[1],a
 633  0156  C724 0014   	lmov a,[5284]
 633  0158  0080     E  	mov _builtin_holtek_mant2[2],a
 633  0159  C723 0014   	lmov a,[5283]
 633  015B  0080     E  	mov _builtin_holtek_mant2[1],a
 633  015C  C722 0014   	lmov a,[5282]
 633  015E  0080     E  	mov _builtin_holtek_mant2[0],a
 633  015F              	fcall _builtin_holtek_dtadd
 633  0166  0700     E  	mov a,_builtin_holtek_mant12p[0]
 633  0167  C0BC 000D   	lmov [3516],a
 633  0169  0700     E  	mov a,_builtin_holtek_mant1[2]
 633  016A  C0BB 000D   	lmov [3515],a
 633  016C  0700     E  	mov a,_builtin_holtek_mant1[1]
 633  016D  C0BA 000D   	lmov [3514],a
 633  016F  0700     E  	mov a,_builtin_holtek_mant1[0]
 633  0170  C0B9 000D   	lmov [3513],a
 633  0172  2800     R  	jmp _L12
 633  0173              _L11:
 635  0173              #line 635 "c:\users\longshuangmin\desktop\worke_space\g-501\g-501\OpMode_A.C"
 635  0173  DF39 000D   	lclr [3513]
 635  0175  DF3A 000D   	lclr [3514]
 635  0177  0F80        	mov a,-128
 635  0178  C0BB 000D   	lmov [3515],a
 635  017A  0F3F        	mov a,63
 635  017B  C0BC 000D   	lmov [3516],a
 635  017D              _L12:
 636  017D              #line 636 "c:\users\longshuangmin\desktop\worke_space\g-501\g-501\OpMode_A.C"
 636  017D  C730 000D   	lmov a,[3504]
 636  017F  0080     E  	mov _builtin_holtek_mant12p[0],a
 636  0180  C72F 000D   	lmov a,[3503]
 636  0182  0080     E  	mov _builtin_holtek_mant1[2],a
 636  0183  C72E 000D   	lmov a,[3502]
 636  0185  0080     E  	mov _builtin_holtek_mant1[1],a
 636  0186  C72D 000D   	lmov a,[3501]
 636  0188  0080     E  	mov _builtin_holtek_mant1[0],a
 636  0189  C73C 000D   	lmov a,[3516]
 636  018B  0080     E  	mov _builtin_holtek_mant12p[1],a
 636  018C  C73B 000D   	lmov a,[3515]
 636  018E  0080     E  	mov _builtin_holtek_mant2[2],a
 636  018F  C73A 000D   	lmov a,[3514]
 636  0191  0080     E  	mov _builtin_holtek_mant2[1],a
 636  0192  C739 000D   	lmov a,[3513]
 636  0194  0080     E  	mov _builtin_holtek_mant2[0],a
 636  0195              	fcall _builtin_holtek_dtmul
 636  019C  0700     E  	mov a,_builtin_holtek_mant12p[0]
文件：OpMode_A.C   编译器版本 HGASM 0202 页次32

 636  019D  C0C0 000D   	lmov [3520],a
 636  019F  0700     E  	mov a,_builtin_holtek_mant1[2]
 636  01A0  C0BF 000D   	lmov [3519],a
 636  01A2  0700     E  	mov a,_builtin_holtek_mant1[1]
 636  01A3  C0BE 000D   	lmov [3518],a
 636  01A5  0700     E  	mov a,_builtin_holtek_mant1[0]
 636  01A6  C0BD 000D   	lmov [3517],a
 639  01A8              #line 639 "c:\users\longshuangmin\desktop\worke_space\g-501\g-501\OpMode_A.C"
 639  01A8  C729 0014   	lmov a,[5289]
 639  01AA  0080     E  	mov _builtin_holtek_mant12p[0],a
 639  01AB  C728 0014   	lmov a,[5288]
 639  01AD  0080     E  	mov _builtin_holtek_mant1[2],a
 639  01AE  C727 0014   	lmov a,[5287]
 639  01B0  0080     E  	mov _builtin_holtek_mant1[1],a
 639  01B1  C726 0014   	lmov a,[5286]
 639  01B3  0080     E  	mov _builtin_holtek_mant1[0],a
 639  01B4  C738 000D   	lmov a,[3512]
 639  01B6  0080     E  	mov _builtin_holtek_mant12p[1],a
 639  01B7  C737 000D   	lmov a,[3511]
 639  01B9  0080     E  	mov _builtin_holtek_mant2[2],a
 639  01BA  C736 000D   	lmov a,[3510]
 639  01BC  0080     E  	mov _builtin_holtek_mant2[1],a
 639  01BD  C735 000D   	lmov a,[3509]
 639  01BF  0080     E  	mov _builtin_holtek_mant2[0],a
 639  01C0              	fcall _builtin_holtek_dtmul
 639  01C7  0700     E  	mov a,_builtin_holtek_mant12p[0]
 639  01C8  0080     E  	mov rg,a
 639  01C9  0700     E  	mov a,_builtin_holtek_mant1[2]
 639  01CA  0080     E  	mov rf,a
 639  01CB  0700     E  	mov a,_builtin_holtek_mant1[1]
 639  01CC  0080     E  	mov re,a
 639  01CD  0700     E  	mov a,_builtin_holtek_mant1[0]
 639  01CE  0080     E  	mov rd,a
 639  01CF  0700     E  	mov a,rg
 639  01D0  0080     E  	mov _builtin_holtek_mant12p[0],a
 639  01D1  0700     E  	mov a,rf
 639  01D2  0080     E  	mov _builtin_holtek_mant1[2],a
 639  01D3  0700     E  	mov a,re
 639  01D4  0080     E  	mov _builtin_holtek_mant1[1],a
 639  01D5  0700     E  	mov a,rd
 639  01D6  0080     E  	mov _builtin_holtek_mant1[0],a
 639  01D7  C738 000D   	lmov a,[3512]
 639  01D9  0080     E  	mov _builtin_holtek_mant12p[1],a
 639  01DA  C737 000D   	lmov a,[3511]
 639  01DC  0080     E  	mov _builtin_holtek_mant2[2],a
 639  01DD  C736 000D   	lmov a,[3510]
 639  01DF  0080     E  	mov _builtin_holtek_mant2[1],a
 639  01E0  C735 000D   	lmov a,[3509]
 639  01E2  0080     E  	mov _builtin_holtek_mant2[0],a
 639  01E3              	fcall _builtin_holtek_dtmul
 639  01EA  0700     E  	mov a,_builtin_holtek_mant12p[0]
 639  01EB  0080     R  	mov _get_glucose_2[4],a
 639  01EC  0700     E  	mov a,_builtin_holtek_mant1[2]
 639  01ED  0080     R  	mov _get_glucose_2[3],a
 639  01EE  0700     E  	mov a,_builtin_holtek_mant1[1]
 639  01EF  0080     R  	mov _get_glucose_2[2],a
 639  01F0  0700     E  	mov a,_builtin_holtek_mant1[0]
 639  01F1  0080     R  	mov _get_glucose_2[1],a
 639  01F2  C72D 0014   	lmov a,[5293]
 639  01F4  0080     E  	mov _builtin_holtek_mant12p[0],a
文件：OpMode_A.C   编译器版本 HGASM 0202 页次33

 639  01F5  C72C 0014   	lmov a,[5292]
 639  01F7  0080     E  	mov _builtin_holtek_mant1[2],a
 639  01F8  C72B 0014   	lmov a,[5291]
 639  01FA  0080     E  	mov _builtin_holtek_mant1[1],a
 639  01FB  C72A 0014   	lmov a,[5290]
 639  01FD  0080     E  	mov _builtin_holtek_mant1[0],a
 639  01FE  C738 000D   	lmov a,[3512]
 639  0200  0080     E  	mov _builtin_holtek_mant12p[1],a
 639  0201  C737 000D   	lmov a,[3511]
 639  0203  0080     E  	mov _builtin_holtek_mant2[2],a
 639  0204  C736 000D   	lmov a,[3510]
 639  0206  0080     E  	mov _builtin_holtek_mant2[1],a
 639  0207  C735 000D   	lmov a,[3509]
 639  0209  0080     E  	mov _builtin_holtek_mant2[0],a
 639  020A              	fcall _builtin_holtek_dtmul
 639  0211  0700     E  	mov a,_builtin_holtek_mant12p[0]
 639  0212  0080     E  	mov rg,a
 639  0213  0700     E  	mov a,_builtin_holtek_mant1[2]
 639  0214  0080     E  	mov rf,a
 639  0215  0700     E  	mov a,_builtin_holtek_mant1[1]
 639  0216  0080     E  	mov re,a
 639  0217  0700     E  	mov a,_builtin_holtek_mant1[0]
 639  0218  0080     E  	mov rd,a
 639  0219  0700     R  	mov a,_get_glucose_2[4]
 639  021A  0080     E  	mov _builtin_holtek_mant12p[0],a
 639  021B  0700     R  	mov a,_get_glucose_2[3]
 639  021C  0080     E  	mov _builtin_holtek_mant1[2],a
 639  021D  0700     R  	mov a,_get_glucose_2[2]
 639  021E  0080     E  	mov _builtin_holtek_mant1[1],a
 639  021F  0700     R  	mov a,_get_glucose_2[1]
 639  0220  0080     E  	mov _builtin_holtek_mant1[0],a
 639  0221  0700     E  	mov a,rg
 639  0222  0080     E  	mov _builtin_holtek_mant12p[1],a
 639  0223  0700     E  	mov a,rf
 639  0224  0080     E  	mov _builtin_holtek_mant2[2],a
 639  0225  0700     E  	mov a,re
 639  0226  0080     E  	mov _builtin_holtek_mant2[1],a
 639  0227  0700     E  	mov a,rd
 639  0228  0080     E  	mov _builtin_holtek_mant2[0],a
 639  0229              	fcall _builtin_holtek_dtadd
 639  0230  0700     E  	mov a,_builtin_holtek_mant12p[0]
 639  0231  0080     E  	mov rg,a
 639  0232  0700     E  	mov a,_builtin_holtek_mant1[2]
 639  0233  0080     E  	mov rf,a
 639  0234  0700     E  	mov a,_builtin_holtek_mant1[1]
 639  0235  0080     E  	mov re,a
 639  0236  0700     E  	mov a,_builtin_holtek_mant1[0]
 639  0237  0080     E  	mov rd,a
 639  0238  0700     E  	mov a,rg
 639  0239  0080     E  	mov _builtin_holtek_mant12p[0],a
 639  023A  0700     E  	mov a,rf
 639  023B  0080     E  	mov _builtin_holtek_mant1[2],a
 639  023C  0700     E  	mov a,re
 639  023D  0080     E  	mov _builtin_holtek_mant1[1],a
 639  023E  0700     E  	mov a,rd
 639  023F  0080     E  	mov _builtin_holtek_mant1[0],a
 639  0240  C731 0014   	lmov a,[5297]
 639  0242  0080     E  	mov _builtin_holtek_mant12p[1],a
 639  0243  C730 0014   	lmov a,[5296]
 639  0245  0080     E  	mov _builtin_holtek_mant2[2],a
文件：OpMode_A.C   编译器版本 HGASM 0202 页次34

 639  0246  C72F 0014   	lmov a,[5295]
 639  0248  0080     E  	mov _builtin_holtek_mant2[1],a
 639  0249  C72E 0014   	lmov a,[5294]
 639  024B  0080     E  	mov _builtin_holtek_mant2[0],a
 639  024C              	fcall _builtin_holtek_dtadd
 639  0253  0700     E  	mov a,_builtin_holtek_mant12p[0]
 639  0254  C0C4 000D   	lmov [3524],a
 639  0256  0700     E  	mov a,_builtin_holtek_mant1[2]
 639  0257  C0C3 000D   	lmov [3523],a
 639  0259  0700     E  	mov a,_builtin_holtek_mant1[1]
 639  025A  C0C2 000D   	lmov [3522],a
 639  025C  0700     E  	mov a,_builtin_holtek_mant1[0]
 639  025D  C0C1 000D   	lmov [3521],a
 642  025F              #line 642 "c:\users\longshuangmin\desktop\worke_space\g-501\g-501\OpMode_A.C"
 642  025F  C744 000D   	lmov a,[3524]
 642  0261  0080     E  	mov _builtin_holtek_mant12p[0],a
 642  0262  C743 000D   	lmov a,[3523]
 642  0264  0080     E  	mov _builtin_holtek_mant1[2],a
 642  0265  C742 000D   	lmov a,[3522]
 642  0267  0080     E  	mov _builtin_holtek_mant1[1],a
 642  0268  C741 000D   	lmov a,[3521]
 642  026A  0080     E  	mov _builtin_holtek_mant1[0],a
 642  026B  C734 000D   	lmov a,[3508]
 642  026D  0080     E  	mov _builtin_holtek_mant12p[1],a
 642  026E  C733 000D   	lmov a,[3507]
 642  0270  0080     E  	mov _builtin_holtek_mant2[2],a
 642  0271  C732 000D   	lmov a,[3506]
 642  0273  0080     E  	mov _builtin_holtek_mant2[1],a
 642  0274  C731 000D   	lmov a,[3505]
 642  0276  0080     E  	mov _builtin_holtek_mant2[0],a
 642  0277              	fcall _builtin_holtek_dtmul
 642  027E  0700     E  	mov a,_builtin_holtek_mant12p[0]
 642  027F  C0C8 000D   	lmov [3528],a
 642  0281  0700     E  	mov a,_builtin_holtek_mant1[2]
 642  0282  C0C7 000D   	lmov [3527],a
 642  0284  0700     E  	mov a,_builtin_holtek_mant1[1]
 642  0285  C0C6 000D   	lmov [3526],a
 642  0287  0700     E  	mov a,_builtin_holtek_mant1[0]
 642  0288  C0C5 000D   	lmov [3525],a
 644  028A              #line 644 "c:\users\longshuangmin\desktop\worke_space\g-501\g-501\OpMode_A.C"
 644  028A  C735 0014   	lmov a,[5301]
 644  028C  0080     E  	mov _builtin_holtek_mant12p[0],a
 644  028D  C734 0014   	lmov a,[5300]
 644  028F  0080     E  	mov _builtin_holtek_mant1[2],a
 644  0290  C733 0014   	lmov a,[5299]
 644  0292  0080     E  	mov _builtin_holtek_mant1[1],a
 644  0293  C732 0014   	lmov a,[5298]
 644  0295  0080     E  	mov _builtin_holtek_mant1[0],a
 644  0296  C748 000D   	lmov a,[3528]
 644  0298  0080     E  	mov _builtin_holtek_mant12p[1],a
 644  0299  C747 000D   	lmov a,[3527]
 644  029B  0080     E  	mov _builtin_holtek_mant2[2],a
 644  029C  C746 000D   	lmov a,[3526]
 644  029E  0080     E  	mov _builtin_holtek_mant2[1],a
 644  029F  C745 000D   	lmov a,[3525]
 644  02A1  0080     E  	mov _builtin_holtek_mant2[0],a
 644  02A2              	fcall _builtin_holtek_dtmul
 644  02A9  0700     E  	mov a,_builtin_holtek_mant12p[0]
 644  02AA  0080     E  	mov rg,a
 644  02AB  0700     E  	mov a,_builtin_holtek_mant1[2]
文件：OpMode_A.C   编译器版本 HGASM 0202 页次35

 644  02AC  0080     E  	mov rf,a
 644  02AD  0700     E  	mov a,_builtin_holtek_mant1[1]
 644  02AE  0080     E  	mov re,a
 644  02AF  0700     E  	mov a,_builtin_holtek_mant1[0]
 644  02B0  0080     E  	mov rd,a
 644  02B1  0700     E  	mov a,rg
 644  02B2  0080     E  	mov _builtin_holtek_mant12p[0],a
 644  02B3  0700     E  	mov a,rf
 644  02B4  0080     E  	mov _builtin_holtek_mant1[2],a
 644  02B5  0700     E  	mov a,re
 644  02B6  0080     E  	mov _builtin_holtek_mant1[1],a
 644  02B7  0700     E  	mov a,rd
 644  02B8  0080     E  	mov _builtin_holtek_mant1[0],a
 644  02B9  C748 000D   	lmov a,[3528]
 644  02BB  0080     E  	mov _builtin_holtek_mant12p[1],a
 644  02BC  C747 000D   	lmov a,[3527]
 644  02BE  0080     E  	mov _builtin_holtek_mant2[2],a
 644  02BF  C746 000D   	lmov a,[3526]
 644  02C1  0080     E  	mov _builtin_holtek_mant2[1],a
 644  02C2  C745 000D   	lmov a,[3525]
 644  02C4  0080     E  	mov _builtin_holtek_mant2[0],a
 644  02C5              	fcall _builtin_holtek_dtmul
 644  02CC  0700     E  	mov a,_builtin_holtek_mant12p[0]
 644  02CD  0080     R  	mov _get_glucose_2[4],a
 644  02CE  0700     E  	mov a,_builtin_holtek_mant1[2]
 644  02CF  0080     R  	mov _get_glucose_2[3],a
 644  02D0  0700     E  	mov a,_builtin_holtek_mant1[1]
 644  02D1  0080     R  	mov _get_glucose_2[2],a
 644  02D2  0700     E  	mov a,_builtin_holtek_mant1[0]
 644  02D3  0080     R  	mov _get_glucose_2[1],a
 644  02D4  C739 0014   	lmov a,[5305]
 644  02D6  0080     E  	mov _builtin_holtek_mant12p[0],a
 644  02D7  C738 0014   	lmov a,[5304]
 644  02D9  0080     E  	mov _builtin_holtek_mant1[2],a
 644  02DA  C737 0014   	lmov a,[5303]
 644  02DC  0080     E  	mov _builtin_holtek_mant1[1],a
 644  02DD  C736 0014   	lmov a,[5302]
 644  02DF  0080     E  	mov _builtin_holtek_mant1[0],a
 644  02E0  C748 000D   	lmov a,[3528]
 644  02E2  0080     E  	mov _builtin_holtek_mant12p[1],a
 644  02E3  C747 000D   	lmov a,[3527]
 644  02E5  0080     E  	mov _builtin_holtek_mant2[2],a
 644  02E6  C746 000D   	lmov a,[3526]
 644  02E8  0080     E  	mov _builtin_holtek_mant2[1],a
 644  02E9  C745 000D   	lmov a,[3525]
 644  02EB  0080     E  	mov _builtin_holtek_mant2[0],a
 644  02EC              	fcall _builtin_holtek_dtmul
 644  02F3  0700     E  	mov a,_builtin_holtek_mant12p[0]
 644  02F4  0080     E  	mov rg,a
 644  02F5  0700     E  	mov a,_builtin_holtek_mant1[2]
 644  02F6  0080     E  	mov rf,a
 644  02F7  0700     E  	mov a,_builtin_holtek_mant1[1]
 644  02F8  0080     E  	mov re,a
 644  02F9  0700     E  	mov a,_builtin_holtek_mant1[0]
 644  02FA  0080     E  	mov rd,a
 644  02FB  0700     R  	mov a,_get_glucose_2[4]
 644  02FC  0080     E  	mov _builtin_holtek_mant12p[0],a
 644  02FD  0700     R  	mov a,_get_glucose_2[3]
 644  02FE  0080     E  	mov _builtin_holtek_mant1[2],a
 644  02FF  0700     R  	mov a,_get_glucose_2[2]
文件：OpMode_A.C   编译器版本 HGASM 0202 页次36

 644  0300  0080     E  	mov _builtin_holtek_mant1[1],a
 644  0301  0700     R  	mov a,_get_glucose_2[1]
 644  0302  0080     E  	mov _builtin_holtek_mant1[0],a
 644  0303  0700     E  	mov a,rg
 644  0304  0080     E  	mov _builtin_holtek_mant12p[1],a
 644  0305  0700     E  	mov a,rf
 644  0306  0080     E  	mov _builtin_holtek_mant2[2],a
 644  0307  0700     E  	mov a,re
 644  0308  0080     E  	mov _builtin_holtek_mant2[1],a
 644  0309  0700     E  	mov a,rd
 644  030A  0080     E  	mov _builtin_holtek_mant2[0],a
 644  030B              	fcall _builtin_holtek_dtadd
 644  0312  0700     E  	mov a,_builtin_holtek_mant12p[0]
 644  0313  0080     E  	mov rg,a
 644  0314  0700     E  	mov a,_builtin_holtek_mant1[2]
 644  0315  0080     E  	mov rf,a
 644  0316  0700     E  	mov a,_builtin_holtek_mant1[1]
 644  0317  0080     E  	mov re,a
 644  0318  0700     E  	mov a,_builtin_holtek_mant1[0]
 644  0319  0080     E  	mov rd,a
 644  031A  0700     E  	mov a,rg
 644  031B  0080     E  	mov _builtin_holtek_mant12p[0],a
 644  031C  0700     E  	mov a,rf
 644  031D  0080     E  	mov _builtin_holtek_mant1[2],a
 644  031E  0700     E  	mov a,re
 644  031F  0080     E  	mov _builtin_holtek_mant1[1],a
 644  0320  0700     E  	mov a,rd
 644  0321  0080     E  	mov _builtin_holtek_mant1[0],a
 644  0322  C73D 0014   	lmov a,[5309]
 644  0324  0080     E  	mov _builtin_holtek_mant12p[1],a
 644  0325  C73C 0014   	lmov a,[5308]
 644  0327  0080     E  	mov _builtin_holtek_mant2[2],a
 644  0328  C73B 0014   	lmov a,[5307]
 644  032A  0080     E  	mov _builtin_holtek_mant2[1],a
 644  032B  C73A 0014   	lmov a,[5306]
 644  032D  0080     E  	mov _builtin_holtek_mant2[0],a
 644  032E              	fcall _builtin_holtek_dtadd
 644  0335  0700     E  	mov a,_builtin_holtek_mant12p[0]
 644  0336  C0CC 000D   	lmov [3532],a
 644  0338  0700     E  	mov a,_builtin_holtek_mant1[2]
 644  0339  C0CB 000D   	lmov [3531],a
 644  033B  0700     E  	mov a,_builtin_holtek_mant1[1]
 644  033C  C0CA 000D   	lmov [3530],a
 644  033E  0700     E  	mov a,_builtin_holtek_mant1[0]
 644  033F  C0C9 000D   	lmov [3529],a
 645  0341              #line 645 "c:\users\longshuangmin\desktop\worke_space\g-501\g-501\OpMode_A.C"
 645  0341  C741 0014   	lmov a,[5313]
 645  0343  0080     E  	mov _builtin_holtek_mant12p[0],a
 645  0344  C740 0014   	lmov a,[5312]
 645  0346  0080     E  	mov _builtin_holtek_mant1[2],a
 645  0347  C73F 0014   	lmov a,[5311]
 645  0349  0080     E  	mov _builtin_holtek_mant1[1],a
 645  034A  C73E 0014   	lmov a,[5310]
 645  034C  0080     E  	mov _builtin_holtek_mant1[0],a
 645  034D  C748 000D   	lmov a,[3528]
 645  034F  0080     E  	mov _builtin_holtek_mant12p[1],a
 645  0350  C747 000D   	lmov a,[3527]
 645  0352  0080     E  	mov _builtin_holtek_mant2[2],a
 645  0353  C746 000D   	lmov a,[3526]
 645  0355  0080     E  	mov _builtin_holtek_mant2[1],a
文件：OpMode_A.C   编译器版本 HGASM 0202 页次37

 645  0356  C745 000D   	lmov a,[3525]
 645  0358  0080     E  	mov _builtin_holtek_mant2[0],a
 645  0359              	fcall _builtin_holtek_dtmul
 645  0360  0700     E  	mov a,_builtin_holtek_mant12p[0]
 645  0361  0080     E  	mov rg,a
 645  0362  0700     E  	mov a,_builtin_holtek_mant1[2]
 645  0363  0080     E  	mov rf,a
 645  0364  0700     E  	mov a,_builtin_holtek_mant1[1]
 645  0365  0080     E  	mov re,a
 645  0366  0700     E  	mov a,_builtin_holtek_mant1[0]
 645  0367  0080     E  	mov rd,a
 645  0368  0700     E  	mov a,rg
 645  0369  0080     E  	mov _builtin_holtek_mant12p[0],a
 645  036A  0700     E  	mov a,rf
 645  036B  0080     E  	mov _builtin_holtek_mant1[2],a
 645  036C  0700     E  	mov a,re
 645  036D  0080     E  	mov _builtin_holtek_mant1[1],a
 645  036E  0700     E  	mov a,rd
 645  036F  0080     E  	mov _builtin_holtek_mant1[0],a
 645  0370  C748 000D   	lmov a,[3528]
 645  0372  0080     E  	mov _builtin_holtek_mant12p[1],a
 645  0373  C747 000D   	lmov a,[3527]
 645  0375  0080     E  	mov _builtin_holtek_mant2[2],a
 645  0376  C746 000D   	lmov a,[3526]
 645  0378  0080     E  	mov _builtin_holtek_mant2[1],a
 645  0379  C745 000D   	lmov a,[3525]
 645  037B  0080     E  	mov _builtin_holtek_mant2[0],a
 645  037C              	fcall _builtin_holtek_dtmul
 645  0383  0700     E  	mov a,_builtin_holtek_mant12p[0]
 645  0384  0080     R  	mov _get_glucose_2[4],a
 645  0385  0700     E  	mov a,_builtin_holtek_mant1[2]
 645  0386  0080     R  	mov _get_glucose_2[3],a
 645  0387  0700     E  	mov a,_builtin_holtek_mant1[1]
 645  0388  0080     R  	mov _get_glucose_2[2],a
 645  0389  0700     E  	mov a,_builtin_holtek_mant1[0]
 645  038A  0080     R  	mov _get_glucose_2[1],a
 645  038B  C745 0014   	lmov a,[5317]
 645  038D  0080     E  	mov _builtin_holtek_mant12p[0],a
 645  038E  C744 0014   	lmov a,[5316]
 645  0390  0080     E  	mov _builtin_holtek_mant1[2],a
 645  0391  C743 0014   	lmov a,[5315]
 645  0393  0080     E  	mov _builtin_holtek_mant1[1],a
 645  0394  C742 0014   	lmov a,[5314]
 645  0396  0080     E  	mov _builtin_holtek_mant1[0],a
 645  0397  C748 000D   	lmov a,[3528]
 645  0399  0080     E  	mov _builtin_holtek_mant12p[1],a
 645  039A  C747 000D   	lmov a,[3527]
 645  039C  0080     E  	mov _builtin_holtek_mant2[2],a
 645  039D  C746 000D   	lmov a,[3526]
 645  039F  0080     E  	mov _builtin_holtek_mant2[1],a
 645  03A0  C745 000D   	lmov a,[3525]
 645  03A2  0080     E  	mov _builtin_holtek_mant2[0],a
 645  03A3              	fcall _builtin_holtek_dtmul
 645  03AA  0700     E  	mov a,_builtin_holtek_mant12p[0]
 645  03AB  0080     E  	mov rg,a
 645  03AC  0700     E  	mov a,_builtin_holtek_mant1[2]
 645  03AD  0080     E  	mov rf,a
 645  03AE  0700     E  	mov a,_builtin_holtek_mant1[1]
 645  03AF  0080     E  	mov re,a
 645  03B0  0700     E  	mov a,_builtin_holtek_mant1[0]
文件：OpMode_A.C   编译器版本 HGASM 0202 页次38

 645  03B1  0080     E  	mov rd,a
 645  03B2  0700     R  	mov a,_get_glucose_2[4]
 645  03B3  0080     E  	mov _builtin_holtek_mant12p[0],a
 645  03B4  0700     R  	mov a,_get_glucose_2[3]
 645  03B5  0080     E  	mov _builtin_holtek_mant1[2],a
 645  03B6  0700     R  	mov a,_get_glucose_2[2]
 645  03B7  0080     E  	mov _builtin_holtek_mant1[1],a
 645  03B8  0700     R  	mov a,_get_glucose_2[1]
 645  03B9  0080     E  	mov _builtin_holtek_mant1[0],a
 645  03BA  0700     E  	mov a,rg
 645  03BB  0080     E  	mov _builtin_holtek_mant12p[1],a
 645  03BC  0700     E  	mov a,rf
 645  03BD  0080     E  	mov _builtin_holtek_mant2[2],a
 645  03BE  0700     E  	mov a,re
 645  03BF  0080     E  	mov _builtin_holtek_mant2[1],a
 645  03C0  0700     E  	mov a,rd
 645  03C1  0080     E  	mov _builtin_holtek_mant2[0],a
 645  03C2              	fcall _builtin_holtek_dtadd
 645  03C9  0700     E  	mov a,_builtin_holtek_mant12p[0]
 645  03CA  0080     E  	mov rg,a
 645  03CB  0700     E  	mov a,_builtin_holtek_mant1[2]
 645  03CC  0080     E  	mov rf,a
 645  03CD  0700     E  	mov a,_builtin_holtek_mant1[1]
 645  03CE  0080     E  	mov re,a
 645  03CF  0700     E  	mov a,_builtin_holtek_mant1[0]
 645  03D0  0080     E  	mov rd,a
 645  03D1  0700     E  	mov a,rg
 645  03D2  0080     E  	mov _builtin_holtek_mant12p[0],a
 645  03D3  0700     E  	mov a,rf
 645  03D4  0080     E  	mov _builtin_holtek_mant1[2],a
 645  03D5  0700     E  	mov a,re
 645  03D6  0080     E  	mov _builtin_holtek_mant1[1],a
 645  03D7  0700     E  	mov a,rd
 645  03D8  0080     E  	mov _builtin_holtek_mant1[0],a
 645  03D9  C749 0014   	lmov a,[5321]
 645  03DB  0080     E  	mov _builtin_holtek_mant12p[1],a
 645  03DC  C748 0014   	lmov a,[5320]
 645  03DE  0080     E  	mov _builtin_holtek_mant2[2],a
 645  03DF  C747 0014   	lmov a,[5319]
 645  03E1  0080     E  	mov _builtin_holtek_mant2[1],a
 645  03E2  C746 0014   	lmov a,[5318]
 645  03E4  0080     E  	mov _builtin_holtek_mant2[0],a
 645  03E5              	fcall _builtin_holtek_dtadd
 645  03EC  0700     E  	mov a,_builtin_holtek_mant12p[0]
 645  03ED  C0D0 000D   	lmov [3536],a
 645  03EF  0700     E  	mov a,_builtin_holtek_mant1[2]
 645  03F0  C0CF 000D   	lmov [3535],a
 645  03F2  0700     E  	mov a,_builtin_holtek_mant1[1]
 645  03F3  C0CE 000D   	lmov [3534],a
 645  03F5  0700     E  	mov a,_builtin_holtek_mant1[0]
 645  03F6  C0CD 000D   	lmov [3533],a
 646  03F8              #line 646 "c:\users\longshuangmin\desktop\worke_space\g-501\g-501\OpMode_A.C"
 646  03F8  C740 000D   	lmov a,[3520]
 646  03FA  0080     E  	mov _builtin_holtek_mant12p[0],a
 646  03FB  C73F 000D   	lmov a,[3519]
 646  03FD  0080     E  	mov _builtin_holtek_mant1[2],a
 646  03FE  C73E 000D   	lmov a,[3518]
 646  0400  0080     E  	mov _builtin_holtek_mant1[1],a
 646  0401  C73D 000D   	lmov a,[3517]
 646  0403  0080     E  	mov _builtin_holtek_mant1[0],a
文件：OpMode_A.C   编译器版本 HGASM 0202 页次39

 646  0404  C748 000D   	lmov a,[3528]
 646  0406  0080     E  	mov _builtin_holtek_mant12p[1],a
 646  0407  C747 000D   	lmov a,[3527]
 646  0409  0080     E  	mov _builtin_holtek_mant2[2],a
 646  040A  C746 000D   	lmov a,[3526]
 646  040C  0080     E  	mov _builtin_holtek_mant2[1],a
 646  040D  C745 000D   	lmov a,[3525]
 646  040F  0080     E  	mov _builtin_holtek_mant2[0],a
 646  0410              	fcall _builtin_holtek_dtdiv
 646  0417  0700     E  	mov a,_builtin_holtek_mant12p[0]
 646  0418  0080     E  	mov rg,a
 646  0419  0700     E  	mov a,_builtin_holtek_mant1[2]
 646  041A  0080     E  	mov rf,a
 646  041B  0700     E  	mov a,_builtin_holtek_mant1[1]
 646  041C  0080     E  	mov re,a
 646  041D  0700     E  	mov a,_builtin_holtek_mant1[0]
 646  041E  0080     E  	mov rd,a
 646  041F  0700     E  	mov a,rg
 646  0420  0080     E  	mov _builtin_holtek_mant12p[0],a
 646  0421  0700     E  	mov a,rf
 646  0422  0080     E  	mov _builtin_holtek_mant1[2],a
 646  0423  0700     E  	mov a,re
 646  0424  0080     E  	mov _builtin_holtek_mant1[1],a
 646  0425  0700     E  	mov a,rd
 646  0426  0080     E  	mov _builtin_holtek_mant1[0],a
 646  0427  0F42        	mov a,66
 646  0428  0080     E  	mov _builtin_holtek_mant12p[1],a
 646  0429  0FC8        	mov a,200
 646  042A  0080     E  	mov _builtin_holtek_mant2[2],a
 646  042B  0F00        	mov a,0
 646  042C  0080     E  	mov _builtin_holtek_mant2[1],a
 646  042D  0F00        	mov a,0
 646  042E  0080     E  	mov _builtin_holtek_mant2[0],a
 646  042F              	fcall _builtin_holtek_dtmul
 646  0436  0700     E  	mov a,_builtin_holtek_mant12p[0]
 646  0437  C0E0 000D   	lmov [3552],a
 646  0439  0700     E  	mov a,_builtin_holtek_mant1[2]
 646  043A  C0DF 000D   	lmov [3551],a
 646  043C  0700     E  	mov a,_builtin_holtek_mant1[1]
 646  043D  C0DE 000D   	lmov [3550],a
 646  043F  0700     E  	mov a,_builtin_holtek_mant1[0]
 646  0440  C0DD 000D   	lmov [3549],a
 647  0442              #line 647 "c:\users\longshuangmin\desktop\worke_space\g-501\g-501\OpMode_A.C"
 647  0442  C760 000D   	lmov a,[3552]
 647  0444  0080     E  	mov _builtin_holtek_mant12p[0],a
 647  0445  C75F 000D   	lmov a,[3551]
 647  0447  0080     E  	mov _builtin_holtek_mant1[2],a
 647  0448  C75E 000D   	lmov a,[3550]
 647  044A  0080     E  	mov _builtin_holtek_mant1[1],a
 647  044B  C75D 000D   	lmov a,[3549]
 647  044D  0080     E  	mov _builtin_holtek_mant1[0],a
 647  044E  0F42        	mov a,66
 647  044F  0080     E  	mov _builtin_holtek_mant12p[1],a
 647  0450  0F70        	mov a,112
 647  0451  0080     E  	mov _builtin_holtek_mant2[2],a
 647  0452  0F00        	mov a,0
 647  0453  0080     E  	mov _builtin_holtek_mant2[1],a
 647  0454  0F00        	mov a,0
 647  0455  0080     E  	mov _builtin_holtek_mant2[0],a
 647  0456              	fcall _builtin_holtek_dtsub
文件：OpMode_A.C   编译器版本 HGASM 0202 页次40

 647  045D  3C00     E  	sz _builtin_holtek_mant12p[0].7
 647  045E  2800     R  	jmp _LI19
 647  045F  0700     E  	mov a,_builtin_holtek_mant12p[0]
 647  0460  0500     E  	or a,_builtin_holtek_mant1[2]
 647  0461  0500     E  	or a,_builtin_holtek_mant1[1]
 647  0462  0500     E  	or a,_builtin_holtek_mant1[0]
 647  0463  390A        	snz z
 647  0464  2800     R  	jmp _L18
 647  0465              _LI19:
 647  0465  C74D 000D   	lmov a,[3533]
 647  0467  0080     E  	mov rd,a
 647  0468  C74E 000D   	lmov a,[3534]
 647  046A  0080     E  	mov re,a
 647  046B  C74F 000D   	lmov a,[3535]
 647  046D  0080     E  	mov rf,a
 647  046E  C750 000D   	lmov a,[3536]
 647  0470  0080     E  	mov rg,a
 647  0471  2800     R  	jmp _L15
 647  0472              _L18:
 647  0472  C749 000D   	lmov a,[3529]
 647  0474  0080     E  	mov rd,a
 647  0475  C74A 000D   	lmov a,[3530]
 647  0477  0080     E  	mov re,a
 647  0478  C74B 000D   	lmov a,[3531]
 647  047A  0080     E  	mov rf,a
 647  047B  C74C 000D   	lmov a,[3532]
 647  047D  0080     E  	mov rg,a
 647  047E              _L15:
 647  047E  0700     E  	mov a,rd
 647  047F  C0D1 000D   	lmov [3537],a
 647  0481  0700     E  	mov a,re
 647  0482  C0D2 000D   	lmov [3538],a
 647  0484  0700     E  	mov a,rf
 647  0485  C0D3 000D   	lmov [3539],a
 647  0487  0700     E  	mov a,rg
 647  0488  C0D4 000D   	lmov [3540],a
 648  048A              #line 648 "c:\users\longshuangmin\desktop\worke_space\g-501\g-501\OpMode_A.C"
 648  048A  C748 000D   	lmov a,[3528]
 648  048C  0080     E  	mov _builtin_holtek_mant12p[0],a
 648  048D  C747 000D   	lmov a,[3527]
 648  048F  0080     E  	mov _builtin_holtek_mant1[2],a
 648  0490  C746 000D   	lmov a,[3526]
 648  0492  0080     E  	mov _builtin_holtek_mant1[1],a
 648  0493  C745 000D   	lmov a,[3525]
 648  0495  0080     E  	mov _builtin_holtek_mant1[0],a
 648  0496  0F41        	mov a,65
 648  0497  0080     E  	mov _builtin_holtek_mant12p[1],a
 648  0498  0FF0        	mov a,240
 648  0499  0080     E  	mov _builtin_holtek_mant2[2],a
 648  049A  0F00        	mov a,0
 648  049B  0080     E  	mov _builtin_holtek_mant2[1],a
 648  049C  0F00        	mov a,0
 648  049D  0080     E  	mov _builtin_holtek_mant2[0],a
 648  049E              	fcall _builtin_holtek_dtsub
 648  04A5  3C00     E  	sz _builtin_holtek_mant12p[0].7
 648  04A6  2800     R  	jmp _LI20
 648  04A7  0700     E  	mov a,_builtin_holtek_mant12p[0]
 648  04A8  0500     E  	or a,_builtin_holtek_mant1[2]
 648  04A9  0500     E  	or a,_builtin_holtek_mant1[1]
 648  04AA  0500     E  	or a,_builtin_holtek_mant1[0]
文件：OpMode_A.C   编译器版本 HGASM 0202 页次41

 648  04AB  390A        	snz z
 648  04AC  2800     R  	jmp _L17
 648  04AD              _LI20:
 648  04AD  C751 000D   	lmov a,[3537]
 648  04AF  0080     E  	mov rd,a
 648  04B0  C752 000D   	lmov a,[3538]
 648  04B2  0080     E  	mov re,a
 648  04B3  C753 000D   	lmov a,[3539]
 648  04B5  0080     E  	mov rf,a
 648  04B6  C754 000D   	lmov a,[3540]
 648  04B8  0080     E  	mov rg,a
 648  04B9  2800     R  	jmp _L16
 648  04BA              _L17:
 648  04BA  0F9A        	mov a,-102
 648  04BB  0080     E  	mov rd,a
 648  04BC  0F99        	mov a,-103
 648  04BD  0080     E  	mov re,a
 648  04BE  0F59        	mov a,89
 648  04BF  0080     E  	mov rf,a
 648  04C0  0F3F        	mov a,63
 648  04C1  0080     E  	mov rg,a
 648  04C2              _L16:
 648  04C2  0700     E  	mov a,rd
 648  04C3  C0D5 000D   	lmov [3541],a
 648  04C5  0700     E  	mov a,re
 648  04C6  C0D6 000D   	lmov [3542],a
 648  04C8  0700     E  	mov a,rf
 648  04C9  C0D7 000D   	lmov [3543],a
 648  04CB  0700     E  	mov a,rg
 648  04CC  C0D8 000D   	lmov [3544],a
 650  04CE              #line 650 "c:\users\longshuangmin\desktop\worke_space\g-501\g-501\OpMode_A.C"
 650  04CE  C740 000D   	lmov a,[3520]
 650  04D0  0080     E  	mov _builtin_holtek_mant12p[0],a
 650  04D1  C73F 000D   	lmov a,[3519]
 650  04D3  0080     E  	mov _builtin_holtek_mant1[2],a
 650  04D4  C73E 000D   	lmov a,[3518]
 650  04D6  0080     E  	mov _builtin_holtek_mant1[1],a
 650  04D7  C73D 000D   	lmov a,[3517]
 650  04D9  0080     E  	mov _builtin_holtek_mant1[0],a
 650  04DA  C758 000D   	lmov a,[3544]
 650  04DC  0080     E  	mov _builtin_holtek_mant12p[1],a
 650  04DD  C757 000D   	lmov a,[3543]
 650  04DF  0080     E  	mov _builtin_holtek_mant2[2],a
 650  04E0  C756 000D   	lmov a,[3542]
 650  04E2  0080     E  	mov _builtin_holtek_mant2[1],a
 650  04E3  C755 000D   	lmov a,[3541]
 650  04E5  0080     E  	mov _builtin_holtek_mant2[0],a
 650  04E6              	fcall _builtin_holtek_dtmul
 650  04ED  0700     E  	mov a,_builtin_holtek_mant12p[0]
 650  04EE  C0DC 000D   	lmov [3548],a
 650  04F0  0700     E  	mov a,_builtin_holtek_mant1[2]
 650  04F1  C0DB 000D   	lmov [3547],a
 650  04F3  0700     E  	mov a,_builtin_holtek_mant1[1]
 650  04F4  C0DA 000D   	lmov [3546],a
 650  04F6  0700     E  	mov a,_builtin_holtek_mant1[0]
 650  04F7  C0D9 000D   	lmov [3545],a
 652  04F9              #line 652 "c:\users\longshuangmin\desktop\worke_space\g-501\g-501\OpMode_A.C"
 652  04F9  C74D 0014   	lmov a,[5325]
 652  04FB  0080     E  	mov _builtin_holtek_mant12p[0],a
 652  04FC  C74C 0014   	lmov a,[5324]
文件：OpMode_A.C   编译器版本 HGASM 0202 页次42

 652  04FE  0080     E  	mov _builtin_holtek_mant1[2],a
 652  04FF  C74B 0014   	lmov a,[5323]
 652  0501  0080     E  	mov _builtin_holtek_mant1[1],a
 652  0502  C74A 0014   	lmov a,[5322]
 652  0504  0080     E  	mov _builtin_holtek_mant1[0],a
 652  0505  C75C 000D   	lmov a,[3548]
 652  0507  0080     E  	mov _builtin_holtek_mant12p[1],a
 652  0508  C75B 000D   	lmov a,[3547]
 652  050A  0080     E  	mov _builtin_holtek_mant2[2],a
 652  050B  C75A 000D   	lmov a,[3546]
 652  050D  0080     E  	mov _builtin_holtek_mant2[1],a
 652  050E  C759 000D   	lmov a,[3545]
 652  0510  0080     E  	mov _builtin_holtek_mant2[0],a
 652  0511              	fcall _builtin_holtek_dtmul
 652  0518  0700     E  	mov a,_builtin_holtek_mant12p[0]
 652  0519  0080     E  	mov rg,a
 652  051A  0700     E  	mov a,_builtin_holtek_mant1[2]
 652  051B  0080     E  	mov rf,a
 652  051C  0700     E  	mov a,_builtin_holtek_mant1[1]
 652  051D  0080     E  	mov re,a
 652  051E  0700     E  	mov a,_builtin_holtek_mant1[0]
 652  051F  0080     E  	mov rd,a
 652  0520  0700     E  	mov a,rg
 652  0521  0080     E  	mov _builtin_holtek_mant12p[0],a
 652  0522  0700     E  	mov a,rf
 652  0523  0080     E  	mov _builtin_holtek_mant1[2],a
 652  0524  0700     E  	mov a,re
 652  0525  0080     E  	mov _builtin_holtek_mant1[1],a
 652  0526  0700     E  	mov a,rd
 652  0527  0080     E  	mov _builtin_holtek_mant1[0],a
 652  0528  C75C 000D   	lmov a,[3548]
 652  052A  0080     E  	mov _builtin_holtek_mant12p[1],a
 652  052B  C75B 000D   	lmov a,[3547]
 652  052D  0080     E  	mov _builtin_holtek_mant2[2],a
 652  052E  C75A 000D   	lmov a,[3546]
 652  0530  0080     E  	mov _builtin_holtek_mant2[1],a
 652  0531  C759 000D   	lmov a,[3545]
 652  0533  0080     E  	mov _builtin_holtek_mant2[0],a
 652  0534              	fcall _builtin_holtek_dtmul
 652  053B  0700     E  	mov a,_builtin_holtek_mant12p[0]
 652  053C  0080     R  	mov _get_glucose_2[4],a
 652  053D  0700     E  	mov a,_builtin_holtek_mant1[2]
 652  053E  0080     R  	mov _get_glucose_2[3],a
 652  053F  0700     E  	mov a,_builtin_holtek_mant1[1]
 652  0540  0080     R  	mov _get_glucose_2[2],a
 652  0541  0700     E  	mov a,_builtin_holtek_mant1[0]
 652  0542  0080     R  	mov _get_glucose_2[1],a
 652  0543  C751 0014   	lmov a,[5329]
 652  0545  0080     E  	mov _builtin_holtek_mant12p[0],a
 652  0546  C750 0014   	lmov a,[5328]
 652  0548  0080     E  	mov _builtin_holtek_mant1[2],a
 652  0549  C74F 0014   	lmov a,[5327]
 652  054B  0080     E  	mov _builtin_holtek_mant1[1],a
 652  054C  C74E 0014   	lmov a,[5326]
 652  054E  0080     E  	mov _builtin_holtek_mant1[0],a
 652  054F  C75C 000D   	lmov a,[3548]
 652  0551  0080     E  	mov _builtin_holtek_mant12p[1],a
 652  0552  C75B 000D   	lmov a,[3547]
 652  0554  0080     E  	mov _builtin_holtek_mant2[2],a
 652  0555  C75A 000D   	lmov a,[3546]
文件：OpMode_A.C   编译器版本 HGASM 0202 页次43

 652  0557  0080     E  	mov _builtin_holtek_mant2[1],a
 652  0558  C759 000D   	lmov a,[3545]
 652  055A  0080     E  	mov _builtin_holtek_mant2[0],a
 652  055B              	fcall _builtin_holtek_dtmul
 652  0562  0700     E  	mov a,_builtin_holtek_mant12p[0]
 652  0563  0080     E  	mov rg,a
 652  0564  0700     E  	mov a,_builtin_holtek_mant1[2]
 652  0565  0080     E  	mov rf,a
 652  0566  0700     E  	mov a,_builtin_holtek_mant1[1]
 652  0567  0080     E  	mov re,a
 652  0568  0700     E  	mov a,_builtin_holtek_mant1[0]
 652  0569  0080     E  	mov rd,a
 652  056A  0700     R  	mov a,_get_glucose_2[4]
 652  056B  0080     E  	mov _builtin_holtek_mant12p[0],a
 652  056C  0700     R  	mov a,_get_glucose_2[3]
 652  056D  0080     E  	mov _builtin_holtek_mant1[2],a
 652  056E  0700     R  	mov a,_get_glucose_2[2]
 652  056F  0080     E  	mov _builtin_holtek_mant1[1],a
 652  0570  0700     R  	mov a,_get_glucose_2[1]
 652  0571  0080     E  	mov _builtin_holtek_mant1[0],a
 652  0572  0700     E  	mov a,rg
 652  0573  0080     E  	mov _builtin_holtek_mant12p[1],a
 652  0574  0700     E  	mov a,rf
 652  0575  0080     E  	mov _builtin_holtek_mant2[2],a
 652  0576  0700     E  	mov a,re
 652  0577  0080     E  	mov _builtin_holtek_mant2[1],a
 652  0578  0700     E  	mov a,rd
 652  0579  0080     E  	mov _builtin_holtek_mant2[0],a
 652  057A              	fcall _builtin_holtek_dtadd
 652  0581  0700     E  	mov a,_builtin_holtek_mant12p[0]
 652  0582  0080     E  	mov rg,a
 652  0583  0700     E  	mov a,_builtin_holtek_mant1[2]
 652  0584  0080     E  	mov rf,a
 652  0585  0700     E  	mov a,_builtin_holtek_mant1[1]
 652  0586  0080     E  	mov re,a
 652  0587  0700     E  	mov a,_builtin_holtek_mant1[0]
 652  0588  0080     E  	mov rd,a
 652  0589  0700     E  	mov a,rg
 652  058A  0080     E  	mov _builtin_holtek_mant12p[0],a
 652  058B  0700     E  	mov a,rf
 652  058C  0080     E  	mov _builtin_holtek_mant1[2],a
 652  058D  0700     E  	mov a,re
 652  058E  0080     E  	mov _builtin_holtek_mant1[1],a
 652  058F  0700     E  	mov a,rd
 652  0590  0080     E  	mov _builtin_holtek_mant1[0],a
 652  0591  C755 0014   	lmov a,[5333]
 652  0593  0080     E  	mov _builtin_holtek_mant12p[1],a
 652  0594  C754 0014   	lmov a,[5332]
 652  0596  0080     E  	mov _builtin_holtek_mant2[2],a
 652  0597  C753 0014   	lmov a,[5331]
 652  0599  0080     E  	mov _builtin_holtek_mant2[1],a
 652  059A  C752 0014   	lmov a,[5330]
 652  059C  0080     E  	mov _builtin_holtek_mant2[0],a
 652  059D              	fcall _builtin_holtek_dtadd
 652  05A4  0700     E  	mov a,_builtin_holtek_mant12p[0]
 652  05A5  C0E4 000D   	lmov [3556],a
 652  05A7  0700     E  	mov a,_builtin_holtek_mant1[2]
 652  05A8  C0E3 000D   	lmov [3555],a
 652  05AA  0700     E  	mov a,_builtin_holtek_mant1[1]
 652  05AB  C0E2 000D   	lmov [3554],a
文件：OpMode_A.C   编译器版本 HGASM 0202 页次44

 652  05AD  0700     E  	mov a,_builtin_holtek_mant1[0]
 652  05AE  C0E1 000D   	lmov [3553],a
 658  05B0              #line 658 "c:\users\longshuangmin\desktop\worke_space\g-501\g-501\OpMode_A.C"
 658  05B0  C764 000D   	lmov a,[3556]
 658  05B2  0080     E  	mov _builtin_holtek_mant12p[0],a
 658  05B3  C763 000D   	lmov a,[3555]
 658  05B5  0080     E  	mov _builtin_holtek_mant1[2],a
 658  05B6  C762 000D   	lmov a,[3554]
 658  05B8  0080     E  	mov _builtin_holtek_mant1[1],a
 658  05B9  C761 000D   	lmov a,[3553]
 658  05BB  0080     E  	mov _builtin_holtek_mant1[0],a
 658  05BC  0F41        	mov a,65
 658  05BD  0080     E  	mov _builtin_holtek_mant12p[1],a
 658  05BE  0F90        	mov a,144
 658  05BF  0080     E  	mov _builtin_holtek_mant2[2],a
 658  05C0  0F00        	mov a,0
 658  05C1  0080     E  	mov _builtin_holtek_mant2[1],a
 658  05C2  0F00        	mov a,0
 658  05C3  0080     E  	mov _builtin_holtek_mant2[0],a
 658  05C4              	fcall _builtin_holtek_dtmul
 658  05CB  0700     E  	mov a,_builtin_holtek_mant12p[0]
 658  05CC  C0E8 000D   	lmov [3560],a
 658  05CE  0700     E  	mov a,_builtin_holtek_mant1[2]
 658  05CF  C0E7 000D   	lmov [3559],a
 658  05D1  0700     E  	mov a,_builtin_holtek_mant1[1]
 658  05D2  C0E6 000D   	lmov [3558],a
 658  05D4  0700     E  	mov a,_builtin_holtek_mant1[0]
 658  05D5  C0E5 000D   	lmov [3557],a
 660  05D7              #line 660 "c:\users\longshuangmin\desktop\worke_space\g-501\g-501\OpMode_A.C"
 660  05D7  3020        	set [32].0
 661  05D8              #line 661 "c:\users\longshuangmin\desktop\worke_space\g-501\g-501\OpMode_A.C"
 661  05D8              ;# 661 "c:\users\longshuangmin\desktop\worke_space\g-501\g-501\OpMode_A.C" 1
 661  05D8  0001        	clr wdt
 661  05D9  0003        	ret
 661  05DA              _get_glucose endp
 661  05DA              #line 661 "c:\users\longshuangmin\desktop\worke_space\g-501\g-501\OpMode_A.C"
 661  05DA              #pragma debug scope 1 1
 661  05DA              public _get_glucose_ctr
 661  05DA              #pragma debug scope 8 1
 673  05DA              #line 673 "c:\users\longshuangmin\desktop\worke_space\g-501\g-501\OpMode_A.C"
 673  0000              _get_glucose_ctr .section 'code'
 673  0000              _get_glucose_ctr proc
 673  0000  0005[           local _get_glucose_ctr_2 db 5 dup(?)	; 0,5
            00
            ]
 673  0000  0080     R  	mov _get_glucose_ctr_2[0],a
 673  0001              #pragma debug variable 8 8 _get_glucose_ctr_2+0 "temp"
 676  0001              #line 676 "c:\users\longshuangmin\desktop\worke_space\g-501\g-501\OpMode_A.C"
 676  0001  C711 0014   	lmov a,[5265]
 676  0003  0080     E  	mov _builtin_holtek_mant12p[0],a
 676  0004  C710 0014   	lmov a,[5264]
 676  0006  0080     E  	mov _builtin_holtek_mant1[2],a
 676  0007  C70F 0014   	lmov a,[5263]
 676  0009  0080     E  	mov _builtin_holtek_mant1[1],a
 676  000A  C70E 0014   	lmov a,[5262]
 676  000C  0080     E  	mov _builtin_holtek_mant1[0],a
 676  000D  C72C 000D   	lmov a,[3500]
 676  000F  0080     E  	mov _builtin_holtek_mant12p[1],a
 676  0010  C72B 000D   	lmov a,[3499]
 676  0012  0080     E  	mov _builtin_holtek_mant2[2],a
文件：OpMode_A.C   编译器版本 HGASM 0202 页次45

 676  0013  C72A 000D   	lmov a,[3498]
 676  0015  0080     E  	mov _builtin_holtek_mant2[1],a
 676  0016  C729 000D   	lmov a,[3497]
 676  0018  0080     E  	mov _builtin_holtek_mant2[0],a
 676  0019              	fcall _builtin_holtek_dtmul
 676  0020  0700     E  	mov a,_builtin_holtek_mant12p[0]
 676  0021  0080     E  	mov rg,a
 676  0022  0700     E  	mov a,_builtin_holtek_mant1[2]
 676  0023  0080     E  	mov rf,a
 676  0024  0700     E  	mov a,_builtin_holtek_mant1[1]
 676  0025  0080     E  	mov re,a
 676  0026  0700     E  	mov a,_builtin_holtek_mant1[0]
 676  0027  0080     E  	mov rd,a
 676  0028  0700     E  	mov a,rg
 676  0029  0080     E  	mov _builtin_holtek_mant12p[0],a
 676  002A  0700     E  	mov a,rf
 676  002B  0080     E  	mov _builtin_holtek_mant1[2],a
 676  002C  0700     E  	mov a,re
 676  002D  0080     E  	mov _builtin_holtek_mant1[1],a
 676  002E  0700     E  	mov a,rd
 676  002F  0080     E  	mov _builtin_holtek_mant1[0],a
 676  0030  C72C 000D   	lmov a,[3500]
 676  0032  0080     E  	mov _builtin_holtek_mant12p[1],a
 676  0033  C72B 000D   	lmov a,[3499]
 676  0035  0080     E  	mov _builtin_holtek_mant2[2],a
 676  0036  C72A 000D   	lmov a,[3498]
 676  0038  0080     E  	mov _builtin_holtek_mant2[1],a
 676  0039  C729 000D   	lmov a,[3497]
 676  003B  0080     E  	mov _builtin_holtek_mant2[0],a
 676  003C              	fcall _builtin_holtek_dtmul
 676  0043  0700     E  	mov a,_builtin_holtek_mant12p[0]
 676  0044  0080     R  	mov _get_glucose_ctr_2[4],a
 676  0045  0700     E  	mov a,_builtin_holtek_mant1[2]
 676  0046  0080     R  	mov _get_glucose_ctr_2[3],a
 676  0047  0700     E  	mov a,_builtin_holtek_mant1[1]
 676  0048  0080     R  	mov _get_glucose_ctr_2[2],a
 676  0049  0700     E  	mov a,_builtin_holtek_mant1[0]
 676  004A  0080     R  	mov _get_glucose_ctr_2[1],a
 676  004B  C715 0014   	lmov a,[5269]
 676  004D  0080     E  	mov _builtin_holtek_mant12p[0],a
 676  004E  C714 0014   	lmov a,[5268]
 676  0050  0080     E  	mov _builtin_holtek_mant1[2],a
 676  0051  C713 0014   	lmov a,[5267]
 676  0053  0080     E  	mov _builtin_holtek_mant1[1],a
 676  0054  C712 0014   	lmov a,[5266]
 676  0056  0080     E  	mov _builtin_holtek_mant1[0],a
 676  0057  C72C 000D   	lmov a,[3500]
 676  0059  0080     E  	mov _builtin_holtek_mant12p[1],a
 676  005A  C72B 000D   	lmov a,[3499]
 676  005C  0080     E  	mov _builtin_holtek_mant2[2],a
 676  005D  C72A 000D   	lmov a,[3498]
 676  005F  0080     E  	mov _builtin_holtek_mant2[1],a
 676  0060  C729 000D   	lmov a,[3497]
 676  0062  0080     E  	mov _builtin_holtek_mant2[0],a
 676  0063              	fcall _builtin_holtek_dtmul
 676  006A  0700     E  	mov a,_builtin_holtek_mant12p[0]
 676  006B  0080     E  	mov rg,a
 676  006C  0700     E  	mov a,_builtin_holtek_mant1[2]
 676  006D  0080     E  	mov rf,a
 676  006E  0700     E  	mov a,_builtin_holtek_mant1[1]
文件：OpMode_A.C   编译器版本 HGASM 0202 页次46

 676  006F  0080     E  	mov re,a
 676  0070  0700     E  	mov a,_builtin_holtek_mant1[0]
 676  0071  0080     E  	mov rd,a
 676  0072  0700     R  	mov a,_get_glucose_ctr_2[4]
 676  0073  0080     E  	mov _builtin_holtek_mant12p[0],a
 676  0074  0700     R  	mov a,_get_glucose_ctr_2[3]
 676  0075  0080     E  	mov _builtin_holtek_mant1[2],a
 676  0076  0700     R  	mov a,_get_glucose_ctr_2[2]
 676  0077  0080     E  	mov _builtin_holtek_mant1[1],a
 676  0078  0700     R  	mov a,_get_glucose_ctr_2[1]
 676  0079  0080     E  	mov _builtin_holtek_mant1[0],a
 676  007A  0700     E  	mov a,rg
 676  007B  0080     E  	mov _builtin_holtek_mant12p[1],a
 676  007C  0700     E  	mov a,rf
 676  007D  0080     E  	mov _builtin_holtek_mant2[2],a
 676  007E  0700     E  	mov a,re
 676  007F  0080     E  	mov _builtin_holtek_mant2[1],a
 676  0080  0700     E  	mov a,rd
 676  0081  0080     E  	mov _builtin_holtek_mant2[0],a
 676  0082              	fcall _builtin_holtek_dtadd
 676  0089  0700     E  	mov a,_builtin_holtek_mant12p[0]
 676  008A  0080     E  	mov rg,a
 676  008B  0700     E  	mov a,_builtin_holtek_mant1[2]
 676  008C  0080     E  	mov rf,a
 676  008D  0700     E  	mov a,_builtin_holtek_mant1[1]
 676  008E  0080     E  	mov re,a
 676  008F  0700     E  	mov a,_builtin_holtek_mant1[0]
 676  0090  0080     E  	mov rd,a
 676  0091  0700     E  	mov a,rg
 676  0092  0080     E  	mov _builtin_holtek_mant12p[0],a
 676  0093  0700     E  	mov a,rf
 676  0094  0080     E  	mov _builtin_holtek_mant1[2],a
 676  0095  0700     E  	mov a,re
 676  0096  0080     E  	mov _builtin_holtek_mant1[1],a
 676  0097  0700     E  	mov a,rd
 676  0098  0080     E  	mov _builtin_holtek_mant1[0],a
 676  0099  C719 0014   	lmov a,[5273]
 676  009B  0080     E  	mov _builtin_holtek_mant12p[1],a
 676  009C  C718 0014   	lmov a,[5272]
 676  009E  0080     E  	mov _builtin_holtek_mant2[2],a
 676  009F  C717 0014   	lmov a,[5271]
 676  00A1  0080     E  	mov _builtin_holtek_mant2[1],a
 676  00A2  C716 0014   	lmov a,[5270]
 676  00A4  0080     E  	mov _builtin_holtek_mant2[0],a
 676  00A5              	fcall _builtin_holtek_dtadd
 676  00AC  0700     E  	mov a,_builtin_holtek_mant12p[0]
 676  00AD  C0B8 000D   	lmov [3512],a
 676  00AF  0700     E  	mov a,_builtin_holtek_mant1[2]
 676  00B0  C0B7 000D   	lmov [3511],a
 676  00B2  0700     E  	mov a,_builtin_holtek_mant1[1]
 676  00B3  C0B6 000D   	lmov [3510],a
 676  00B5  0700     E  	mov a,_builtin_holtek_mant1[0]
 676  00B6  C0B5 000D   	lmov [3509],a
 677  00B8              #line 677 "c:\users\longshuangmin\desktop\worke_space\g-501\g-501\OpMode_A.C"
 677  00B8  3420        	clr [32].0
 678  00B9              #line 678 "c:\users\longshuangmin\desktop\worke_space\g-501\g-501\OpMode_A.C"
 678  00B9  1E00     R  	snz _get_glucose_ctr_2[0]
 678  00BA  2800     R  	jmp _L21
 679  00BB              #line 679 "c:\users\longshuangmin\desktop\worke_space\g-501\g-501\OpMode_A.C"
 679  00BB  C71D 0014   	lmov a,[5277]
文件：OpMode_A.C   编译器版本 HGASM 0202 页次47

 679  00BD  0080     E  	mov _builtin_holtek_mant12p[0],a
 679  00BE  C71C 0014   	lmov a,[5276]
 679  00C0  0080     E  	mov _builtin_holtek_mant1[2],a
 679  00C1  C71B 0014   	lmov a,[5275]
 679  00C3  0080     E  	mov _builtin_holtek_mant1[1],a
 679  00C4  C71A 0014   	lmov a,[5274]
 679  00C6  0080     E  	mov _builtin_holtek_mant1[0],a
 679  00C7  C738 000D   	lmov a,[3512]
 679  00C9  0080     E  	mov _builtin_holtek_mant12p[1],a
 679  00CA  C737 000D   	lmov a,[3511]
 679  00CC  0080     E  	mov _builtin_holtek_mant2[2],a
 679  00CD  C736 000D   	lmov a,[3510]
 679  00CF  0080     E  	mov _builtin_holtek_mant2[1],a
 679  00D0  C735 000D   	lmov a,[3509]
 679  00D2  0080     E  	mov _builtin_holtek_mant2[0],a
 679  00D3              	fcall _builtin_holtek_dtmul
 679  00DA  0700     E  	mov a,_builtin_holtek_mant12p[0]
 679  00DB  0080     E  	mov rg,a
 679  00DC  0700     E  	mov a,_builtin_holtek_mant1[2]
 679  00DD  0080     E  	mov rf,a
 679  00DE  0700     E  	mov a,_builtin_holtek_mant1[1]
 679  00DF  0080     E  	mov re,a
 679  00E0  0700     E  	mov a,_builtin_holtek_mant1[0]
 679  00E1  0080     E  	mov rd,a
 679  00E2  0700     E  	mov a,rg
 679  00E3  0080     E  	mov _builtin_holtek_mant12p[0],a
 679  00E4  0700     E  	mov a,rf
 679  00E5  0080     E  	mov _builtin_holtek_mant1[2],a
 679  00E6  0700     E  	mov a,re
 679  00E7  0080     E  	mov _builtin_holtek_mant1[1],a
 679  00E8  0700     E  	mov a,rd
 679  00E9  0080     E  	mov _builtin_holtek_mant1[0],a
 679  00EA  C738 000D   	lmov a,[3512]
 679  00EC  0080     E  	mov _builtin_holtek_mant12p[1],a
 679  00ED  C737 000D   	lmov a,[3511]
 679  00EF  0080     E  	mov _builtin_holtek_mant2[2],a
 679  00F0  C736 000D   	lmov a,[3510]
 679  00F2  0080     E  	mov _builtin_holtek_mant2[1],a
 679  00F3  C735 000D   	lmov a,[3509]
 679  00F5  0080     E  	mov _builtin_holtek_mant2[0],a
 679  00F6              	fcall _builtin_holtek_dtmul
 679  00FD  0700     E  	mov a,_builtin_holtek_mant12p[0]
 679  00FE  0080     R  	mov _get_glucose_ctr_2[4],a
 679  00FF  0700     E  	mov a,_builtin_holtek_mant1[2]
 679  0100  0080     R  	mov _get_glucose_ctr_2[3],a
 679  0101  0700     E  	mov a,_builtin_holtek_mant1[1]
 679  0102  0080     R  	mov _get_glucose_ctr_2[2],a
 679  0103  0700     E  	mov a,_builtin_holtek_mant1[0]
 679  0104  0080     R  	mov _get_glucose_ctr_2[1],a
 679  0105  C721 0014   	lmov a,[5281]
 679  0107  0080     E  	mov _builtin_holtek_mant12p[0],a
 679  0108  C720 0014   	lmov a,[5280]
 679  010A  0080     E  	mov _builtin_holtek_mant1[2],a
 679  010B  C71F 0014   	lmov a,[5279]
 679  010D  0080     E  	mov _builtin_holtek_mant1[1],a
 679  010E  C71E 0014   	lmov a,[5278]
 679  0110  0080     E  	mov _builtin_holtek_mant1[0],a
 679  0111  C738 000D   	lmov a,[3512]
 679  0113  0080     E  	mov _builtin_holtek_mant12p[1],a
 679  0114  C737 000D   	lmov a,[3511]
文件：OpMode_A.C   编译器版本 HGASM 0202 页次48

 679  0116  0080     E  	mov _builtin_holtek_mant2[2],a
 679  0117  C736 000D   	lmov a,[3510]
 679  0119  0080     E  	mov _builtin_holtek_mant2[1],a
 679  011A  C735 000D   	lmov a,[3509]
 679  011C  0080     E  	mov _builtin_holtek_mant2[0],a
 679  011D              	fcall _builtin_holtek_dtmul
 679  0124  0700     E  	mov a,_builtin_holtek_mant12p[0]
 679  0125  0080     E  	mov rg,a
 679  0126  0700     E  	mov a,_builtin_holtek_mant1[2]
 679  0127  0080     E  	mov rf,a
 679  0128  0700     E  	mov a,_builtin_holtek_mant1[1]
 679  0129  0080     E  	mov re,a
 679  012A  0700     E  	mov a,_builtin_holtek_mant1[0]
 679  012B  0080     E  	mov rd,a
 679  012C  0700     R  	mov a,_get_glucose_ctr_2[4]
 679  012D  0080     E  	mov _builtin_holtek_mant12p[0],a
 679  012E  0700     R  	mov a,_get_glucose_ctr_2[3]
 679  012F  0080     E  	mov _builtin_holtek_mant1[2],a
 679  0130  0700     R  	mov a,_get_glucose_ctr_2[2]
 679  0131  0080     E  	mov _builtin_holtek_mant1[1],a
 679  0132  0700     R  	mov a,_get_glucose_ctr_2[1]
 679  0133  0080     E  	mov _builtin_holtek_mant1[0],a
 679  0134  0700     E  	mov a,rg
 679  0135  0080     E  	mov _builtin_holtek_mant12p[1],a
 679  0136  0700     E  	mov a,rf
 679  0137  0080     E  	mov _builtin_holtek_mant2[2],a
 679  0138  0700     E  	mov a,re
 679  0139  0080     E  	mov _builtin_holtek_mant2[1],a
 679  013A  0700     E  	mov a,rd
 679  013B  0080     E  	mov _builtin_holtek_mant2[0],a
 679  013C              	fcall _builtin_holtek_dtadd
 679  0143  0700     E  	mov a,_builtin_holtek_mant12p[0]
 679  0144  0080     E  	mov rg,a
 679  0145  0700     E  	mov a,_builtin_holtek_mant1[2]
 679  0146  0080     E  	mov rf,a
 679  0147  0700     E  	mov a,_builtin_holtek_mant1[1]
 679  0148  0080     E  	mov re,a
 679  0149  0700     E  	mov a,_builtin_holtek_mant1[0]
 679  014A  0080     E  	mov rd,a
 679  014B  0700     E  	mov a,rg
 679  014C  0080     E  	mov _builtin_holtek_mant12p[0],a
 679  014D  0700     E  	mov a,rf
 679  014E  0080     E  	mov _builtin_holtek_mant1[2],a
 679  014F  0700     E  	mov a,re
 679  0150  0080     E  	mov _builtin_holtek_mant1[1],a
 679  0151  0700     E  	mov a,rd
 679  0152  0080     E  	mov _builtin_holtek_mant1[0],a
 679  0153  C725 0014   	lmov a,[5285]
 679  0155  0080     E  	mov _builtin_holtek_mant12p[1],a
 679  0156  C724 0014   	lmov a,[5284]
 679  0158  0080     E  	mov _builtin_holtek_mant2[2],a
 679  0159  C723 0014   	lmov a,[5283]
 679  015B  0080     E  	mov _builtin_holtek_mant2[1],a
 679  015C  C722 0014   	lmov a,[5282]
 679  015E  0080     E  	mov _builtin_holtek_mant2[0],a
 679  015F              	fcall _builtin_holtek_dtadd
 679  0166  0700     E  	mov a,_builtin_holtek_mant12p[0]
 679  0167  C0BC 000D   	lmov [3516],a
 679  0169  0700     E  	mov a,_builtin_holtek_mant1[2]
 679  016A  C0BB 000D   	lmov [3515],a
文件：OpMode_A.C   编译器版本 HGASM 0202 页次49

 679  016C  0700     E  	mov a,_builtin_holtek_mant1[1]
 679  016D  C0BA 000D   	lmov [3514],a
 679  016F  0700     E  	mov a,_builtin_holtek_mant1[0]
 679  0170  C0B9 000D   	lmov [3513],a
 679  0172  2800     R  	jmp _L22
 679  0173              _L21:
 681  0173              #line 681 "c:\users\longshuangmin\desktop\worke_space\g-501\g-501\OpMode_A.C"
 681  0173  DF39 000D   	lclr [3513]
 681  0175  DF3A 000D   	lclr [3514]
 681  0177  0F80        	mov a,-128
 681  0178  C0BB 000D   	lmov [3515],a
 681  017A  0F3F        	mov a,63
 681  017B  C0BC 000D   	lmov [3516],a
 681  017D              _L22:
 682  017D              #line 682 "c:\users\longshuangmin\desktop\worke_space\g-501\g-501\OpMode_A.C"
 682  017D  C730 000D   	lmov a,[3504]
 682  017F  0080     E  	mov _builtin_holtek_mant12p[0],a
 682  0180  C72F 000D   	lmov a,[3503]
 682  0182  0080     E  	mov _builtin_holtek_mant1[2],a
 682  0183  C72E 000D   	lmov a,[3502]
 682  0185  0080     E  	mov _builtin_holtek_mant1[1],a
 682  0186  C72D 000D   	lmov a,[3501]
 682  0188  0080     E  	mov _builtin_holtek_mant1[0],a
 682  0189  C73C 000D   	lmov a,[3516]
 682  018B  0080     E  	mov _builtin_holtek_mant12p[1],a
 682  018C  C73B 000D   	lmov a,[3515]
 682  018E  0080     E  	mov _builtin_holtek_mant2[2],a
 682  018F  C73A 000D   	lmov a,[3514]
 682  0191  0080     E  	mov _builtin_holtek_mant2[1],a
 682  0192  C739 000D   	lmov a,[3513]
 682  0194  0080     E  	mov _builtin_holtek_mant2[0],a
 682  0195              	fcall _builtin_holtek_dtmul
 682  019C  0700     E  	mov a,_builtin_holtek_mant12p[0]
 682  019D  C0C0 000D   	lmov [3520],a
 682  019F  0700     E  	mov a,_builtin_holtek_mant1[2]
 682  01A0  C0BF 000D   	lmov [3519],a
 682  01A2  0700     E  	mov a,_builtin_holtek_mant1[1]
 682  01A3  C0BE 000D   	lmov [3518],a
 682  01A5  0700     E  	mov a,_builtin_holtek_mant1[0]
 682  01A6  C0BD 000D   	lmov [3517],a
 684  01A8              #line 684 "c:\users\longshuangmin\desktop\worke_space\g-501\g-501\OpMode_A.C"
 684  01A8  C729 0014   	lmov a,[5289]
 684  01AA  0080     E  	mov _builtin_holtek_mant12p[0],a
 684  01AB  C728 0014   	lmov a,[5288]
 684  01AD  0080     E  	mov _builtin_holtek_mant1[2],a
 684  01AE  C727 0014   	lmov a,[5287]
 684  01B0  0080     E  	mov _builtin_holtek_mant1[1],a
 684  01B1  C726 0014   	lmov a,[5286]
 684  01B3  0080     E  	mov _builtin_holtek_mant1[0],a
 684  01B4  C740 000D   	lmov a,[3520]
 684  01B6  0080     E  	mov _builtin_holtek_mant12p[1],a
 684  01B7  C73F 000D   	lmov a,[3519]
 684  01B9  0080     E  	mov _builtin_holtek_mant2[2],a
 684  01BA  C73E 000D   	lmov a,[3518]
 684  01BC  0080     E  	mov _builtin_holtek_mant2[1],a
 684  01BD  C73D 000D   	lmov a,[3517]
 684  01BF  0080     E  	mov _builtin_holtek_mant2[0],a
 684  01C0              	fcall _builtin_holtek_dtmul
 684  01C7  0700     E  	mov a,_builtin_holtek_mant12p[0]
 684  01C8  0080     E  	mov rg,a
文件：OpMode_A.C   编译器版本 HGASM 0202 页次50

 684  01C9  0700     E  	mov a,_builtin_holtek_mant1[2]
 684  01CA  0080     E  	mov rf,a
 684  01CB  0700     E  	mov a,_builtin_holtek_mant1[1]
 684  01CC  0080     E  	mov re,a
 684  01CD  0700     E  	mov a,_builtin_holtek_mant1[0]
 684  01CE  0080     E  	mov rd,a
 684  01CF  0700     E  	mov a,rg
 684  01D0  0080     E  	mov _builtin_holtek_mant12p[0],a
 684  01D1  0700     E  	mov a,rf
 684  01D2  0080     E  	mov _builtin_holtek_mant1[2],a
 684  01D3  0700     E  	mov a,re
 684  01D4  0080     E  	mov _builtin_holtek_mant1[1],a
 684  01D5  0700     E  	mov a,rd
 684  01D6  0080     E  	mov _builtin_holtek_mant1[0],a
 684  01D7  C740 000D   	lmov a,[3520]
 684  01D9  0080     E  	mov _builtin_holtek_mant12p[1],a
 684  01DA  C73F 000D   	lmov a,[3519]
 684  01DC  0080     E  	mov _builtin_holtek_mant2[2],a
 684  01DD  C73E 000D   	lmov a,[3518]
 684  01DF  0080     E  	mov _builtin_holtek_mant2[1],a
 684  01E0  C73D 000D   	lmov a,[3517]
 684  01E2  0080     E  	mov _builtin_holtek_mant2[0],a
 684  01E3              	fcall _builtin_holtek_dtmul
 684  01EA  0700     E  	mov a,_builtin_holtek_mant12p[0]
 684  01EB  0080     R  	mov _get_glucose_ctr_2[4],a
 684  01EC  0700     E  	mov a,_builtin_holtek_mant1[2]
 684  01ED  0080     R  	mov _get_glucose_ctr_2[3],a
 684  01EE  0700     E  	mov a,_builtin_holtek_mant1[1]
 684  01EF  0080     R  	mov _get_glucose_ctr_2[2],a
 684  01F0  0700     E  	mov a,_builtin_holtek_mant1[0]
 684  01F1  0080     R  	mov _get_glucose_ctr_2[1],a
 684  01F2  C72D 0014   	lmov a,[5293]
 684  01F4  0080     E  	mov _builtin_holtek_mant12p[0],a
 684  01F5  C72C 0014   	lmov a,[5292]
 684  01F7  0080     E  	mov _builtin_holtek_mant1[2],a
 684  01F8  C72B 0014   	lmov a,[5291]
 684  01FA  0080     E  	mov _builtin_holtek_mant1[1],a
 684  01FB  C72A 0014   	lmov a,[5290]
 684  01FD  0080     E  	mov _builtin_holtek_mant1[0],a
 684  01FE  C740 000D   	lmov a,[3520]
 684  0200  0080     E  	mov _builtin_holtek_mant12p[1],a
 684  0201  C73F 000D   	lmov a,[3519]
 684  0203  0080     E  	mov _builtin_holtek_mant2[2],a
 684  0204  C73E 000D   	lmov a,[3518]
 684  0206  0080     E  	mov _builtin_holtek_mant2[1],a
 684  0207  C73D 000D   	lmov a,[3517]
 684  0209  0080     E  	mov _builtin_holtek_mant2[0],a
 684  020A              	fcall _builtin_holtek_dtmul
 684  0211  0700     E  	mov a,_builtin_holtek_mant12p[0]
 684  0212  0080     E  	mov rg,a
 684  0213  0700     E  	mov a,_builtin_holtek_mant1[2]
 684  0214  0080     E  	mov rf,a
 684  0215  0700     E  	mov a,_builtin_holtek_mant1[1]
 684  0216  0080     E  	mov re,a
 684  0217  0700     E  	mov a,_builtin_holtek_mant1[0]
 684  0218  0080     E  	mov rd,a
 684  0219  0700     R  	mov a,_get_glucose_ctr_2[4]
 684  021A  0080     E  	mov _builtin_holtek_mant12p[0],a
 684  021B  0700     R  	mov a,_get_glucose_ctr_2[3]
 684  021C  0080     E  	mov _builtin_holtek_mant1[2],a
文件：OpMode_A.C   编译器版本 HGASM 0202 页次51

 684  021D  0700     R  	mov a,_get_glucose_ctr_2[2]
 684  021E  0080     E  	mov _builtin_holtek_mant1[1],a
 684  021F  0700     R  	mov a,_get_glucose_ctr_2[1]
 684  0220  0080     E  	mov _builtin_holtek_mant1[0],a
 684  0221  0700     E  	mov a,rg
 684  0222  0080     E  	mov _builtin_holtek_mant12p[1],a
 684  0223  0700     E  	mov a,rf
 684  0224  0080     E  	mov _builtin_holtek_mant2[2],a
 684  0225  0700     E  	mov a,re
 684  0226  0080     E  	mov _builtin_holtek_mant2[1],a
 684  0227  0700     E  	mov a,rd
 684  0228  0080     E  	mov _builtin_holtek_mant2[0],a
 684  0229              	fcall _builtin_holtek_dtadd
 684  0230  0700     E  	mov a,_builtin_holtek_mant12p[0]
 684  0231  0080     E  	mov rg,a
 684  0232  0700     E  	mov a,_builtin_holtek_mant1[2]
 684  0233  0080     E  	mov rf,a
 684  0234  0700     E  	mov a,_builtin_holtek_mant1[1]
 684  0235  0080     E  	mov re,a
 684  0236  0700     E  	mov a,_builtin_holtek_mant1[0]
 684  0237  0080     E  	mov rd,a
 684  0238  0700     E  	mov a,rg
 684  0239  0080     E  	mov _builtin_holtek_mant12p[0],a
 684  023A  0700     E  	mov a,rf
 684  023B  0080     E  	mov _builtin_holtek_mant1[2],a
 684  023C  0700     E  	mov a,re
 684  023D  0080     E  	mov _builtin_holtek_mant1[1],a
 684  023E  0700     E  	mov a,rd
 684  023F  0080     E  	mov _builtin_holtek_mant1[0],a
 684  0240  C731 0014   	lmov a,[5297]
 684  0242  0080     E  	mov _builtin_holtek_mant12p[1],a
 684  0243  C730 0014   	lmov a,[5296]
 684  0245  0080     E  	mov _builtin_holtek_mant2[2],a
 684  0246  C72F 0014   	lmov a,[5295]
 684  0248  0080     E  	mov _builtin_holtek_mant2[1],a
 684  0249  C72E 0014   	lmov a,[5294]
 684  024B  0080     E  	mov _builtin_holtek_mant2[0],a
 684  024C              	fcall _builtin_holtek_dtadd
 684  0253  0700     E  	mov a,_builtin_holtek_mant12p[0]
 684  0254  C0E4 000D   	lmov [3556],a
 684  0256  0700     E  	mov a,_builtin_holtek_mant1[2]
 684  0257  C0E3 000D   	lmov [3555],a
 684  0259  0700     E  	mov a,_builtin_holtek_mant1[1]
 684  025A  C0E2 000D   	lmov [3554],a
 684  025C  0700     E  	mov a,_builtin_holtek_mant1[0]
 684  025D  C0E1 000D   	lmov [3553],a
 690  025F              #line 690 "c:\users\longshuangmin\desktop\worke_space\g-501\g-501\OpMode_A.C"
 690  025F  C764 000D   	lmov a,[3556]
 690  0261  0080     E  	mov _builtin_holtek_mant12p[0],a
 690  0262  C763 000D   	lmov a,[3555]
 690  0264  0080     E  	mov _builtin_holtek_mant1[2],a
 690  0265  C762 000D   	lmov a,[3554]
 690  0267  0080     E  	mov _builtin_holtek_mant1[1],a
 690  0268  C761 000D   	lmov a,[3553]
 690  026A  0080     E  	mov _builtin_holtek_mant1[0],a
 690  026B  0F41        	mov a,65
 690  026C  0080     E  	mov _builtin_holtek_mant12p[1],a
 690  026D  0F90        	mov a,144
 690  026E  0080     E  	mov _builtin_holtek_mant2[2],a
 690  026F  0F00        	mov a,0
文件：OpMode_A.C   编译器版本 HGASM 0202 页次52

 690  0270  0080     E  	mov _builtin_holtek_mant2[1],a
 690  0271  0F00        	mov a,0
 690  0272  0080     E  	mov _builtin_holtek_mant2[0],a
 690  0273              	fcall _builtin_holtek_dtmul
 690  027A  0700     E  	mov a,_builtin_holtek_mant12p[0]
 690  027B  C0E8 000D   	lmov [3560],a
 690  027D  0700     E  	mov a,_builtin_holtek_mant1[2]
 690  027E  C0E7 000D   	lmov [3559],a
 690  0280  0700     E  	mov a,_builtin_holtek_mant1[1]
 690  0281  C0E6 000D   	lmov [3558],a
 690  0283  0700     E  	mov a,_builtin_holtek_mant1[0]
 690  0284  C0E5 000D   	lmov [3557],a
 692  0286              #line 692 "c:\users\longshuangmin\desktop\worke_space\g-501\g-501\OpMode_A.C"
 692  0286  3020        	set [32].0
 693  0287              #line 693 "c:\users\longshuangmin\desktop\worke_space\g-501\g-501\OpMode_A.C"
 693  0287              ;# 693 "c:\users\longshuangmin\desktop\worke_space\g-501\g-501\OpMode_A.C" 1
 693  0287  0001        	clr wdt
 693  0288  0003        	ret
 693  0289              _get_glucose_ctr endp
 693  0289              #line 693 "c:\users\longshuangmin\desktop\worke_space\g-501\g-501\OpMode_A.C"
 693  0289              #pragma debug scope 1 1
 693  0289              _DC_data_buf equ [2944]
 693  0289              _M_Impedance_data equ [2176]
 693  0289              _meals equ [4026]
 693  0289              _Start_Detection_flag equ [4746]
 693  0289              _M_UART_RxFIFO equ [7808]
 693  0289              _M_UART_TxFIFO equ [8064]
 693  0289              _imp equ [3731]
 693  0289              ___gsc1 equ [111]
 693  0289              ___gsc2 equ [112]
 693  0289              ___u0cr2 equ [49]
 693  0289              ___brg0 equ [51]
 693  0289              _mi equ [2688]
 693  0289              _avg_ad2 equ [3734]
 693  0289              _set_temp_25 equ [5257]
 693  0289              _memkey equ [3712]
 693  0289              _lcd_scan_index equ [4742]
 693  0289              _work_time equ [2690]
 693  0289              ___ptm0c0 equ [80]
 693  0289              ___ptm0al equ [84]
 693  0289              ___ptm0ah equ [85]
 693  0289              _work_time_buf equ [2696]
 693  0289              _send_ok equ [4737]
 693  0289              _old_work_time equ [2694]
 693  0289              _Calibration equ [3744]
 693  0289              _unsend_data equ [4224]
 693  0289              _mymax equ [4025]
 693  0289              _index equ [4024]
 693  0289              _k equ [4022]
 693  0289              _gsm_loop equ [4000]
 693  0289              _m equ [4736]
 693  0000              @crom	.section 'crom'
 693  0000              _LC0:
 693  0000              	db 041h,054h,02bh,051h,049h,044h,045h,041h,043h,054h
 693  0005              	db 03dh,031h,0dh,0ah,00h
 693  0008              @crom	.section 'crom'
 693  0008              _LC1:
 693  0008              	db 041h,054h,02bh,051h,050h,04fh,057h,044h,0dh,0ah
 693  000D              	db 00h
 693  000D              @crom	.section 'crom'
文件：OpMode_A.C   编译器版本 HGASM 0202 页次53

 693  000D              _LC2:
 693  000D              	db 04fh,04bh,0dh,0ah,00h
 693  0010              ___pb equ [36]
 693  0010              ___pcc equ [40]
 693  0010              ___pcpu equ [41]
 693  0010              public _Normal_Measurement_Mode
 693  0010              #pragma debug scope 9 1
 803  0010              #line 803 "c:\users\longshuangmin\desktop\worke_space\g-501\g-501\OpMode_A.C"
 803  0000              _Normal_Measurement_Mode .section 'code'
 803  0000              _Normal_Measurement_Mode proc
 803  0000  0002[           local _Normal_Measurement_Mode_2 db 2 dup(?)	; 0,2
            00
            ]
 807  0002              #line 807 "c:\users\longshuangmin\desktop\worke_space\g-501\g-501\OpMode_A.C"
 807  0000  0700     E  	mov a,_M_RTC_display[0]
 807  0001  0080     E  	mov rd,a
 807  0002  0700     E  	mov a,_M_RTC_display[1]
 807  0003  0080     E  	mov re,a
 807  0004  0F01        	mov a,1
 807  0005  0300     E  	add a,rd
 807  0006  0080     E  	mov rb,a
 807  0007  0F00        	mov a,0
 807  0008  1300     E  	adc a,re
 807  0009  0080     E  	mov rc,a
 807  000A  0700     E  	mov a,rb
 807  000B  0080     E  	mov _M_RTC_display[0],a
 807  000C  0700     E  	mov a,rc
 807  000D  0080     E  	mov _M_RTC_display[1],a
 808  000E              #line 808 "c:\users\longshuangmin\desktop\worke_space\g-501\g-501\OpMode_A.C"
 808  000E  1480     E  	inc _M_No_Active_Cnt[0]
 808  000F  3D0A        	sz z
 808  0010  1480     E  	inc _M_No_Active_Cnt[1]
 809  0011              #line 809 "c:\users\longshuangmin\desktop\worke_space\g-501\g-501\OpMode_A.C"
 809  0011  0F4F        	mov a,79
 809  0012  0200     E  	sub a,_M_No_Active_Cnt[0]
 809  0013  0F46        	mov a,70
 809  0014  1200     E  	sbc a,_M_No_Active_Cnt[1]
 809  0015  3C0A        	sz c
 809  0016  2800     R  	jmp _L24
 812  0017              #line 812 "c:\users\longshuangmin\desktop\worke_space\g-501\g-501\OpMode_A.C"
 812  0017  0F18        	mov a,24
 812  0018  0080     E  	mov _M_TaskBuf0[0],a
 812  0019              _L24:
 815  0019              #line 815 "c:\users\longshuangmin\desktop\worke_space\g-501\g-501\OpMode_A.C"
 815  0019  0700     E  	mov a,_M_TaskBuf0[0]
 815  001A  0A00        	sub a,0
 815  001B  3D0A        	sz z
 815  001C  2800     R  	jmp _L26
 815  001D  0A01        	sub a,(1)-(0)
 815  001E  3D0A        	sz z
 815  001F  2800     R  	jmp _L27
 815  0020  0700     E  	mov a,_M_TaskBuf0[0]
 815  0021  0A02        	sub a,2
 815  0022  3D0A        	sz z
 815  0023  2800     R  	jmp _L28
 815  0024  0A01        	sub a,(3)-(2)
 815  0025  3D0A        	sz z
 815  0026  2800     R  	jmp _L29
 815  0027  0700     E  	mov a,_M_TaskBuf0[0]
 815  0028  0A04        	sub a,4
文件：OpMode_A.C   编译器版本 HGASM 0202 页次54

 815  0029  3D0A        	sz z
 815  002A  2800     R  	jmp _L30
 815  002B  0A01        	sub a,(5)-(4)
 815  002C  3D0A        	sz z
 815  002D  2800     R  	jmp _L31
 815  002E  0700     E  	mov a,_M_TaskBuf0[0]
 815  002F  0A06        	sub a,6
 815  0030  3D0A        	sz z
 815  0031  2800     R  	jmp _L32
 815  0032  0A01        	sub a,(7)-(6)
 815  0033  3D0A        	sz z
 815  0034  2800     R  	jmp _L33
 815  0035  0700     E  	mov a,_M_TaskBuf0[0]
 815  0036  0A08        	sub a,8
 815  0037  3D0A        	sz z
 815  0038  2800     R  	jmp _L34
 815  0039  0A01        	sub a,(9)-(8)
 815  003A  3D0A        	sz z
 815  003B  2800     R  	jmp _L35
 815  003C  0700     E  	mov a,_M_TaskBuf0[0]
 815  003D  0A0A        	sub a,10
 815  003E  3D0A        	sz z
 815  003F  2800     R  	jmp _L36
 815  0040  0A01        	sub a,(11)-(10)
 815  0041  3D0A        	sz z
 815  0042  2800     R  	jmp _L37
 815  0043  0700     E  	mov a,_M_TaskBuf0[0]
 815  0044  0A0F        	sub a,15
 815  0045  3D0A        	sz z
 815  0046  2800     R  	jmp _L38
 815  0047  0A01        	sub a,(16)-(15)
 815  0048  3D0A        	sz z
 815  0049  2800     R  	jmp _L39
 815  004A  0700     E  	mov a,_M_TaskBuf0[0]
 815  004B  0A11        	sub a,17
 815  004C  3D0A        	sz z
 815  004D  2800     R  	jmp _L40
 815  004E  0A01        	sub a,(18)-(17)
 815  004F  3D0A        	sz z
 815  0050  2800     R  	jmp _L41
 815  0051  0700     E  	mov a,_M_TaskBuf0[0]
 815  0052  0A13        	sub a,19
 815  0053  3D0A        	sz z
 815  0054  2800     R  	jmp _L42
 815  0055  0A01        	sub a,(20)-(19)
 815  0056  3D0A        	sz z
 815  0057  2800     R  	jmp _L43
 815  0058  0700     E  	mov a,_M_TaskBuf0[0]
 815  0059  0A16        	sub a,22
 815  005A  3D0A        	sz z
 815  005B  2800     R  	jmp _L44
 815  005C  0700     E  	mov a,_M_TaskBuf0[0]
 815  005D  0A17        	sub a,23
 815  005E  390A        	snz z
 815  005F  2800     R  	jmp _L225
2660  0060              #line 2660 "c:\users\longshuangmin\desktop\worke_space\g-501\g-501\OpMode_A.C"
2660  0060  0F18        	mov a,24
2660  0061  0080     E  	mov _M_TaskBuf0[0],a
2662  0062              #line 2662 "c:\users\longshuangmin\desktop\worke_space\g-501\g-501\OpMode_A.C"
2662  0062  2800     R  	jmp _L23
文件：OpMode_A.C   编译器版本 HGASM 0202 页次55

2662  0063              _L26:
 826  0063              #line 826 "c:\users\longshuangmin\desktop\worke_space\g-501\g-501\OpMode_A.C"
 826  0063  0F01        	mov a,1
 826  0064  0200     E  	sub a,rb
 826  0065  0F00        	mov a,0
 826  0066  1200     E  	sbc a,rc
 826  0067  380A        	snz c
 826  0068  2800     R  	jmp _L46
 830  0069              #line 830 "c:\users\longshuangmin\desktop\worke_space\g-501\g-501\OpMode_A.C"
 830  0069  0F01        	mov a,1
 830  006A              	fcall _LCD_Clear
 831  0071              #line 831 "c:\users\longshuangmin\desktop\worke_space\g-501\g-501\OpMode_A.C"
 831  0071  0F80        	mov a,-128
 831  0072  0080     E  	mov _memset_2[4],a
 831  0073  1F00     E  	clr _memset_2[5]
 831  0074  1F00     E  	clr _memset_2[2]
 831  0075  1F00     E  	clr _memset_2[3]
 831  0076  0F80        	mov a,low offset _DC_data_buf
 831  0077  0080     E  	mov _memset_2[0],a
 831  0078  0F0B        	mov a,high offset _DC_data_buf
 831  0079  0080     E  	mov _memset_2[1],a
 831  007A              	fcall _memset
 832  0081              #line 832 "c:\users\longshuangmin\desktop\worke_space\g-501\g-501\OpMode_A.C"
 832  0081  0F50        	mov a,80
 832  0082  0080     E  	mov _memset_2[4],a
 832  0083  1F00     E  	clr _memset_2[5]
 832  0084  1F00     E  	clr _memset_2[2]
 832  0085  1F00     E  	clr _memset_2[3]
 832  0086  0F80        	mov a,low offset _M_Impedance_data
 832  0087  0080     E  	mov _memset_2[0],a
 832  0088  0F08        	mov a,high offset _M_Impedance_data
 832  0089  0080     E  	mov _memset_2[1],a
 832  008A              	fcall _memset
 834  0091              #line 834 "c:\users\longshuangmin\desktop\worke_space\g-501\g-501\OpMode_A.C"
 834  0091  3000     E  	set _Flag4[0].1
 836  0092              #line 836 "c:\users\longshuangmin\desktop\worke_space\g-501\g-501\OpMode_A.C"
 836  0092  3595        	clr [21].3
 837  0093              #line 837 "c:\users\longshuangmin\desktop\worke_space\g-501\g-501\OpMode_A.C"
 837  0093  3594        	clr [20].3
 839  0094              #line 839 "c:\users\longshuangmin\desktop\worke_space\g-501\g-501\OpMode_A.C"
 839  0094  1F00     E  	clr _M_RTC_display[0]
 839  0095  1F00     E  	clr _M_RTC_display[1]
 840  0096              #line 840 "c:\users\longshuangmin\desktop\worke_space\g-501\g-501\OpMode_A.C"
 840  0096  0F01        	mov a,1
 840  0097  0080     E  	mov _M_TaskBuf0[0],a
 841  0098              #line 841 "c:\users\longshuangmin\desktop\worke_space\g-501\g-501\OpMode_A.C"
 841  0098  1F00     E  	clr _M_TaskBuf1[0]
 842  0099              #line 842 "c:\users\longshuangmin\desktop\worke_space\g-501\g-501\OpMode_A.C"
 842  0099  1F00     E  	clr _M_Cbuf0[0]
 843  009A              #line 843 "c:\users\longshuangmin\desktop\worke_space\g-501\g-501\OpMode_A.C"
 843  009A  3400     E  	clr _Flag1[0].4
 844  009B              #line 844 "c:\users\longshuangmin\desktop\worke_space\g-501\g-501\OpMode_A.C"
 844  009B  1F00     E  	clr _M_No_Active_Cnt[0]
 844  009C  1F00     E  	clr _M_No_Active_Cnt[1]
 845  009D              #line 845 "c:\users\longshuangmin\desktop\worke_space\g-501\g-501\OpMode_A.C"
 845  009D  DF3A 000F   	lclr [4026]
 846  009F              #line 846 "c:\users\longshuangmin\desktop\worke_space\g-501\g-501\OpMode_A.C"
 846  009F  DF0A 0012   	lclr [4746]
 851  00A1              #line 851 "c:\users\longshuangmin\desktop\worke_space\g-501\g-501\OpMode_A.C"
 851  00A1              	fcall _Load_VrefDaco_Vaule
文件：OpMode_A.C   编译器版本 HGASM 0202 页次56

 851  00A8  0080     E  	mov ra,a
 851  00A9  1E00     E  	snz ra
 851  00AA  2800     R  	jmp _L47
 853  00AB              #line 853 "c:\users\longshuangmin\desktop\worke_space\g-501\g-501\OpMode_A.C"
 853  00AB  0F0E        	mov a,14
 853  00AC  2800     R  	jmp _L236
 853  00AD              _L47:
 856  00AD              #line 856 "c:\users\longshuangmin\desktop\worke_space\g-501\g-501\OpMode_A.C"
 856  00AD              	fcall _fun_UART0PowerOnInit
 859  00B4              #line 859 "c:\users\longshuangmin\desktop\worke_space\g-501\g-501\OpMode_A.C"
 859  00B4  0F01        	mov a,1
 859  00B5  0080     E  	mov _fun_DACVREFInit_2[0],a
 859  00B6  1F00     E  	clr _fun_DACVREFInit_2[1]
 859  00B7              	fcall _fun_DACVREFInit
 861  00BE              #line 861 "c:\users\longshuangmin\desktop\worke_space\g-501\g-501\OpMode_A.C"
 861  00BE  0F01        	mov a,1
 861  00BF  0080     E  	mov _fun_DACnInit_2[0],a
 861  00C0  1F00     E  	clr _fun_DACnInit_2[1]
 861  00C1  0F01        	mov a,1
 861  00C2              	fcall _fun_DACnInit
 864  00C9              #line 864 "c:\users\longshuangmin\desktop\worke_space\g-501\g-501\OpMode_A.C"
 864  00C9              	fcall _fun_CalOPA1Offset
 865  00D0              #line 865 "c:\users\longshuangmin\desktop\worke_space\g-501\g-501\OpMode_A.C"
 865  00D0              	fcall _fun_CalOPA2Offset
 866  00D7              #line 866 "c:\users\longshuangmin\desktop\worke_space\g-501\g-501\OpMode_A.C"
 866  00D7              	fcall _fun_CalOPA3Offset
 869  00DE              #line 869 "c:\users\longshuangmin\desktop\worke_space\g-501\g-501\OpMode_A.C"
 869  00DE  0F01        	mov a,1
 869  00DF  0080     E  	mov _fun_DACVREFInit_2[0],a
 869  00E0  1F00     E  	clr _fun_DACVREFInit_2[1]
 869  00E1              	fcall _fun_DACVREFInit
 871  00E8              #line 871 "c:\users\longshuangmin\desktop\worke_space\g-501\g-501\OpMode_A.C"
 871  00E8  0F01        	mov a,1
 871  00E9  0080     E  	mov _fun_DACnInit_2[0],a
 871  00EA  1F00     E  	clr _fun_DACnInit_2[1]
 871  00EB  0F01        	mov a,1
 871  00EC              	fcall _fun_DACnInit
 874  00F3              #line 874 "c:\users\longshuangmin\desktop\worke_space\g-501\g-501\OpMode_A.C"
 874  00F3  0F80        	mov a,-128
 874  00F4  0080     E  	mov _memset_2[4],a
 874  00F5  1F00     E  	clr _memset_2[5]
 874  00F6  1F00     E  	clr _memset_2[2]
 874  00F7  1F00     E  	clr _memset_2[3]
 874  00F8  0F80        	mov a,low offset _M_UART_RxFIFO
 874  00F9  0080     E  	mov _memset_2[0],a
 874  00FA  0F1E        	mov a,high offset _M_UART_RxFIFO
 874  00FB  0080     E  	mov _memset_2[1],a
 874  00FC              	fcall _memset
 875  0103              #line 875 "c:\users\longshuangmin\desktop\worke_space\g-501\g-501\OpMode_A.C"
 875  0103  0F80        	mov a,-128
 875  0104  0080     E  	mov _memset_2[4],a
 875  0105  1F00     E  	clr _memset_2[5]
 875  0106  1F00     E  	clr _memset_2[2]
 875  0107  1F00     E  	clr _memset_2[3]
 875  0108  0F80        	mov a,low offset _M_UART_TxFIFO
 875  0109  0080     E  	mov _memset_2[0],a
 875  010A  0F1F        	mov a,high offset _M_UART_TxFIFO
 875  010B  0080     E  	mov _memset_2[1],a
 875  010C              	fcall _memset
 877  0113              #line 877 "c:\users\longshuangmin\desktop\worke_space\g-501\g-501\OpMode_A.C"
文件：OpMode_A.C   编译器版本 HGASM 0202 页次57

 877  0113  1F00     E  	clr _M_Cbuf0[0]
 879  0114              #line 879 "c:\users\longshuangmin\desktop\worke_space\g-501\g-501\OpMode_A.C"
 879  0114  3400     E  	clr _Flag1[0].6
 880  0115              #line 880 "c:\users\longshuangmin\desktop\worke_space\g-501\g-501\OpMode_A.C"
 880  0115  3400     E  	clr _Flag7[0].2
 881  0116              #line 881 "c:\users\longshuangmin\desktop\worke_space\g-501\g-501\OpMode_A.C"
 881  0116  3400     E  	clr _Flag7[0].1
 882  0117              #line 882 "c:\users\longshuangmin\desktop\worke_space\g-501\g-501\OpMode_A.C"
 882  0117  3400     E  	clr _Flag7[0].3
 883  0118              #line 883 "c:\users\longshuangmin\desktop\worke_space\g-501\g-501\OpMode_A.C"
 883  0118  DF13 000E   	lclr [3731]
 885  011A              #line 885 "c:\users\longshuangmin\desktop\worke_space\g-501\g-501\OpMode_A.C"
 885  011A  3800     E  	snz _Flag1[0].5
 885  011B  2800     R  	jmp _L49
 887  011C              #line 887 "c:\users\longshuangmin\desktop\worke_space\g-501\g-501\OpMode_A.C"
 887  011C  0F06        	mov a,6
 887  011D              _L236:
 887  011D              	fcall _init_Error_Task
 888  0124              #line 888 "c:\users\longshuangmin\desktop\worke_space\g-501\g-501\OpMode_A.C"
 888  0124  2800     R  	jmp _L23
 888  0125              _L49:
 897  0125              #line 897 "c:\users\longshuangmin\desktop\worke_space\g-501\g-501\OpMode_A.C"
 897  0125  DF3A 000F   	lclr [4026]
 898  0127              #line 898 "c:\users\longshuangmin\desktop\worke_space\g-501\g-501\OpMode_A.C"
 898  0127  3400     E  	clr _lcd[28].3
 899  0128              #line 899 "c:\users\longshuangmin\desktop\worke_space\g-501\g-501\OpMode_A.C"
 899  0128  3400     E  	clr _lcd[28].2
 900  0129              #line 900 "c:\users\longshuangmin\desktop\worke_space\g-501\g-501\OpMode_A.C"
 900  0129  3000     E  	set _lcd[28].4
 901  012A              #line 901 "c:\users\longshuangmin\desktop\worke_space\g-501\g-501\OpMode_A.C"
 901  012A  3400     E  	clr _lcd[28].5
 901  012B              _L46:
 905  012B              #line 905 "c:\users\longshuangmin\desktop\worke_space\g-501\g-501\OpMode_A.C"
 905  012B  0F01        	mov a,1
 905  012C  0080     E  	mov _M_TaskBuf0[0],a
 909  012D              #line 909 "c:\users\longshuangmin\desktop\worke_space\g-501\g-501\OpMode_A.C"
 909  012D  2800     R  	jmp _L23
 909  012E              _L27:
 909  012E              #pragma debug scope 10 9
 909  012E              ;begin block, line: 909.-1
 909  012E              #pragma debug scope 11 10
 909  012E              ;begin block, line: 909.-1
 616  012E              #line 616 "c:\users\longshuangmin\desktop\worke_space\g-501\g-501\OpMode_A.C"
 616  012E              	fcall _load_autoCode_data
 616  0135              #pragma debug scope 10 9
 616  0135              #pragma debug scope 9 1
 916  0135              #line 916 "c:\users\longshuangmin\desktop\worke_space\g-501\g-501\OpMode_A.C"
 916  0135  0F02        	mov a,2
 916  0136  0080     E  	mov _M_TaskBuf0[0],a
 918  0137              #line 918 "c:\users\longshuangmin\desktop\worke_space\g-501\g-501\OpMode_A.C"
 918  0137  2800     R  	jmp _L23
 918  0138              _L28:
 931  0138              #line 931 "c:\users\longshuangmin\desktop\worke_space\g-501\g-501\OpMode_A.C"
 931  0138  1500     E  	deca _M_Strip_Type[0]
 931  0139  0080     E  	mov ra,a
 931  013A  0F03        	mov a,3
 931  013B  0200     E  	sub a,ra
 931  013C  3C0A        	sz c
 931  013D  2800     R  	jmp _L50
 933  013E              #line 933 "c:\users\longshuangmin\desktop\worke_space\g-501\g-501\OpMode_A.C"
文件：OpMode_A.C   编译器版本 HGASM 0202 页次58

 933  013E  0F02        	mov a,2
 933  013F  2800     R  	jmp _L236
 933  0140              _L50:
 938  0140              #line 938 "c:\users\longshuangmin\desktop\worke_space\g-501\g-501\OpMode_A.C"
 938  0140  0F03        	mov a,3
 938  0141  0080     E  	mov _M_TaskBuf0[0],a
 939  0142              #line 939 "c:\users\longshuangmin\desktop\worke_space\g-501\g-501\OpMode_A.C"
 939  0142  1F00     E  	clr _M_RTC_display[0]
 939  0143  1F00     E  	clr _M_RTC_display[1]
 940  0144              #line 940 "c:\users\longshuangmin\desktop\worke_space\g-501\g-501\OpMode_A.C"
 940  0144  DF13 000E   	lclr [3731]
 942  0146              #line 942 "c:\users\longshuangmin\desktop\worke_space\g-501\g-501\OpMode_A.C"
 942  0146  2800     R  	jmp _L23
 942  0147              _L29:
 949  0147              #line 949 "c:\users\longshuangmin\desktop\worke_space\g-501\g-501\OpMode_A.C"
 949  0147              	fcall _Measurement_Daco
 949  014E  0700     E  	mov a,rb
 949  014F  0080     E  	mov rc,a
 949  0150  0700     E  	mov a,ra
 949  0151  0080     E  	mov rb,a
 949  0152  0700     E  	mov a,rb
 949  0153  0080     E  	mov _M_Avg_16bit_result[0],a
 949  0154  0700     E  	mov a,rc
 949  0155  0080     E  	mov _M_Avg_16bit_result[1],a
 950  0156              #line 950 "c:\users\longshuangmin\desktop\worke_space\g-501\g-501\OpMode_A.C"
 950  0156  C713 000E   	lmov a,[3731]
 950  0158  0080     E  	mov rd,a
 950  0159  1400     E  	inca rd
 950  015A  C093 000E   	lmov [3731],a
 950  015C  1F00     E  	clr re
 950  015D  340A        	clr c
 950  015E  1A80     E  	rlc rd
 950  015F  1A80     E  	rlc re
 950  0160  0F80        	mov a,low offset _DC_data_buf
 950  0161  0300     E  	add a,rd
 950  0162  0083        	mov mp,a
 950  0163  0F0B        	mov a,high offset _DC_data_buf
 950  0164  1300     E  	adc a,re
 950  0165  0084        	mov sbp,a
 950  0166  0700     E  	mov a,rb
 950  0167  0082        	mov ir,a
 950  0168  1483        	inc mp
 950  0169  0700     E  	mov a,rc
 950  016A  0082        	mov ir,a
 951  016B              #line 951 "c:\users\longshuangmin\desktop\worke_space\g-501\g-501\OpMode_A.C"
 951  016B  0F03        	mov a,3
 951  016C  C213 000E   	lsub a,[3731]
 951  016E  3C0A        	sz c
 951  016F  2800     R  	jmp _L51
 952  0170              #line 952 "c:\users\longshuangmin\desktop\worke_space\g-501\g-501\OpMode_A.C"
 952  0170  DF13 000E   	lclr [3731]
 952  0172              _L51:
 953  0172              #line 953 "c:\users\longshuangmin\desktop\worke_space\g-501\g-501\OpMode_A.C"
 953  0172  0F0C        	mov a,12
 953  0173  0200     E  	sub a,_M_RTC_display[0]
 953  0174  0F00        	mov a,0
 953  0175  1200     E  	sbc a,_M_RTC_display[1]
 953  0176  3C0A        	sz c
 953  0177  2800     R  	jmp _L23
 956  0178              #line 956 "c:\users\longshuangmin\desktop\worke_space\g-501\g-501\OpMode_A.C"
文件：OpMode_A.C   编译器版本 HGASM 0202 页次59

 956  0178  1F00     E  	clr _M_Lbuf0[0]
 956  0179  1F00     E  	clr _M_Lbuf0[1]
 956  017A  1F00     E  	clr _M_Lbuf0[2]
 956  017B  1F00     E  	clr _M_Lbuf0[3]
 957  017C              #line 957 "c:\users\longshuangmin\desktop\worke_space\g-501\g-501\OpMode_A.C"
 957  017C  DF13 000E   	lclr [3731]
 957  017E  1F00     E  	clr rd
 957  017F  1F00     E  	clr re
 957  0180  1F00     E  	clr rf
 957  0181  1F00     E  	clr rg
 957  0182              _L53:
 957  0182  0F03        	mov a,3
 957  0183  C213 000E   	lsub a,[3731]
 957  0185  380A        	snz c
 957  0186  2800     R  	jmp _L243
 958  0187              #line 958 "c:\users\longshuangmin\desktop\worke_space\g-501\g-501\OpMode_A.C"
 958  0187  C713 000E   	lmov a,[3731]
 958  0189  0080     R  	mov _Normal_Measurement_Mode_2[0],a
 958  018A  1F00     R  	clr _Normal_Measurement_Mode_2[1]
 958  018B  340A        	clr c
 958  018C  1A80     R  	rlc _Normal_Measurement_Mode_2[0]
 958  018D  1A80     R  	rlc _Normal_Measurement_Mode_2[1]
 958  018E  0F80        	mov a,low offset _DC_data_buf
 958  018F  0300     R  	add a,_Normal_Measurement_Mode_2[0]
 958  0190  0083        	mov mp,a
 958  0191  0F0B        	mov a,high offset _DC_data_buf
 958  0192  1300     R  	adc a,_Normal_Measurement_Mode_2[1]
 958  0193  0084        	mov sbp,a
 958  0194              	fcall _Crom2Prom
 958  019B  0080     R  	mov _Normal_Measurement_Mode_2[0],a
 958  019C              	fcall _Crom2PromNext
 958  01A3  0080     R  	mov _Normal_Measurement_Mode_2[1],a
 957  01A4              #line 957 "c:\users\longshuangmin\desktop\worke_space\g-501\g-501\OpMode_A.C"
 957  01A4  D493 000E   	linc [3731]
 958  01A6              #line 958 "c:\users\longshuangmin\desktop\worke_space\g-501\g-501\OpMode_A.C"
 958  01A6  0700     R  	mov a,_Normal_Measurement_Mode_2[0]
 958  01A7  0380     E  	addm a,rd
 958  01A8  0700     R  	mov a,_Normal_Measurement_Mode_2[1]
 958  01A9  1380     E  	adcm a,re
 958  01AA  1F05        	clr acc
 958  01AB  3C00     R  	sz _Normal_Measurement_Mode_2[1].7
 958  01AC  1F85        	set acc
 958  01AD  1380     E  	adcm a,rf
 958  01AE  1380     E  	adcm a,rg
 958  01AF  2800     R  	jmp _L53
 958  01B0              _L243:
 959  01B0              #line 959 "c:\users\longshuangmin\desktop\worke_space\g-501\g-501\OpMode_A.C"
 959  01B0  0F02        	mov a,2
 959  01B1              _LI21:
 959  01B1  340A        	clr c
 959  01B2  1B80     E  	rrc rg
 959  01B3  1B80     E  	rrc rf
 959  01B4  1B80     E  	rrc re
 959  01B5  1B80     E  	rrc rd
 959  01B6  1785        	sdz acc
 959  01B7  2800     R  	jmp _LI21
 959  01B8  0700     E  	mov a,rd
 959  01B9  0080     E  	mov _M_Lbuf0[0],a
 959  01BA  0700     E  	mov a,re
 959  01BB  0080     E  	mov _M_Lbuf0[1],a
文件：OpMode_A.C   编译器版本 HGASM 0202 页次60

 959  01BC  0700     E  	mov a,rf
 959  01BD  0080     E  	mov _M_Lbuf0[2],a
 959  01BE  0700     E  	mov a,rg
 959  01BF  0080     E  	mov _M_Lbuf0[3],a
 960  01C0              #line 960 "c:\users\longshuangmin\desktop\worke_space\g-501\g-501\OpMode_A.C"
 960  01C0  1080     E  	sz rg
 960  01C1  2800     R  	jmp _L55
 960  01C2  1080     E  	sz rf
 960  01C3  2800     R  	jmp _L55
 960  01C4  0700     E  	mov a,rd
 960  01C5  0200     E  	sub a,rb
 960  01C6  0700     E  	mov a,re
 960  01C7  1200     E  	sbc a,rc
 960  01C8  3C0A        	sz c
 960  01C9  2800     R  	jmp _L55
 961  01CA              #line 961 "c:\users\longshuangmin\desktop\worke_space\g-501\g-501\OpMode_A.C"
 961  01CA  0700     E  	mov a,rb
 961  01CB  0200     E  	sub a,rd
 961  01CC  0080     E  	mov _M_Excitation_Offset[0],a
 961  01CD  2800     R  	jmp _L56
 961  01CE              _L55:
 963  01CE              #line 963 "c:\users\longshuangmin\desktop\worke_space\g-501\g-501\OpMode_A.C"
 963  01CE  0700     E  	mov a,rd
 963  01CF  0200     E  	sub a,rb
 963  01D0  0080     E  	mov _M_Excitation_Offset[0],a
 963  01D1              _L56:
 964  01D1              #line 964 "c:\users\longshuangmin\desktop\worke_space\g-501\g-501\OpMode_A.C"
 964  01D1  0F64        	mov a,100
 964  01D2  0200     E  	sub a,_M_Excitation_Offset[0]
 964  01D3  3B8A        	snz sc
 964  01D4  2800     R  	jmp _L57
 966  01D5              #line 966 "c:\users\longshuangmin\desktop\worke_space\g-501\g-501\OpMode_A.C"
 966  01D5  0F03        	mov a,3
 966  01D6  2800     R  	jmp _L236
 966  01D7              _L57:
 970  01D7              #line 970 "c:\users\longshuangmin\desktop\worke_space\g-501\g-501\OpMode_A.C"
 970  01D7  326F        	set [111].4
 971  01D8              #line 971 "c:\users\longshuangmin\desktop\worke_space\g-501\g-501\OpMode_A.C"
 971  01D8  306F        	set [111].0
 972  01D9              #line 972 "c:\users\longshuangmin\desktop\worke_space\g-501\g-501\OpMode_A.C"
 972  01D9  34F1        	clr [113].1
 972  01DA  3071        	set [113].0
 973  01DB              #line 973 "c:\users\longshuangmin\desktop\worke_space\g-501\g-501\OpMode_A.C"
 973  01DB              	fcall _Measurement_Op1n1_Op1s1
 974  01E2              #line 974 "c:\users\longshuangmin\desktop\worke_space\g-501\g-501\OpMode_A.C"
 974  01E2  3170        	set [112].2
 974  01E3  34F0        	clr [112].1
 974  01E4  3470        	clr [112].0
 975  01E5              #line 975 "c:\users\longshuangmin\desktop\worke_space\g-501\g-501\OpMode_A.C"
 975  01E5  32F0        	set [112].5
 975  01E6  3670        	clr [112].4
 975  01E7  35F0        	clr [112].3
 976  01E8              #line 976 "c:\users\longshuangmin\desktop\worke_space\g-501\g-501\OpMode_A.C"
 976  01E8  3216        	set [22].4
 977  01E9              #line 977 "c:\users\longshuangmin\desktop\worke_space\g-501\g-501\OpMode_A.C"
 977  01E9  3195        	set [21].3
 978  01EA              #line 978 "c:\users\longshuangmin\desktop\worke_space\g-501\g-501\OpMode_A.C"
 978  01EA  3596        	clr [22].3
 979  01EB              #line 979 "c:\users\longshuangmin\desktop\worke_space\g-501\g-501\OpMode_A.C"
 979  01EB  32ED        	set [109].5
文件：OpMode_A.C   编译器版本 HGASM 0202 页次61

 980  01EC              #line 980 "c:\users\longshuangmin\desktop\worke_space\g-501\g-501\OpMode_A.C"
 980  01EC              	fcall _fun_ADCStart
 981  01F3              #line 981 "c:\users\longshuangmin\desktop\worke_space\g-501\g-501\OpMode_A.C"
 981  01F3  32B1        	set [49].5
 981  01F4  0F0C        	mov a,12
 981  01F5  00B3        	mov [51],a
 982  01F6              #line 982 "c:\users\longshuangmin\desktop\worke_space\g-501\g-501\OpMode_A.C"
 982  01F6  DF00 000A   	lclr [2688]
 983  01F8              #line 983 "c:\users\longshuangmin\desktop\worke_space\g-501\g-501\OpMode_A.C"
 983  01F8  DF13 000E   	lclr [3731]
 984  01FA              #line 984 "c:\users\longshuangmin\desktop\worke_space\g-501\g-501\OpMode_A.C"
 984  01FA  0F04        	mov a,4
 984  01FB  0080     E  	mov _M_TaskBuf0[0],a
 984  01FC  2800     R  	jmp _L23
 984  01FD              _L30:
 994  01FD              #line 994 "c:\users\longshuangmin\desktop\worke_space\g-501\g-501\OpMode_A.C"
 994  01FD  3800     E  	snz _SDKADCSourceData[5].0
 994  01FE  2800     R  	jmp _L23
 996  01FF              #line 996 "c:\users\longshuangmin\desktop\worke_space\g-501\g-501\OpMode_A.C"
 996  01FF  3400     E  	clr _SDKADCSourceData[5].0
 997  0200              #line 997 "c:\users\longshuangmin\desktop\worke_space\g-501\g-501\OpMode_A.C"
 997  0200  0700     E  	mov a,_SDKADCSourceData[0]
 997  0201  0080     E  	mov rd,a
 997  0202  0700     E  	mov a,_SDKADCSourceData[1]
 997  0203  0080     E  	mov re,a
 997  0204  0700     E  	mov a,_SDKADCSourceData[2]
 997  0205  0080     E  	mov rf,a
 997  0206  0700     E  	mov a,_SDKADCSourceData[3]
 997  0207  0080     E  	mov rg,a
 997  0208  0700     E  	mov a,rf
 997  0209  0080     E  	mov rd,a
 997  020A  0700     E  	mov a,rg
 997  020B  0080     E  	mov re,a
 997  020C  1F00     E  	clr rg
 997  020D  3C00     E  	sz re.7
 997  020E  1F80     E  	set rg
 997  020F  1F00     E  	clr rf
 997  0210  3C00     E  	sz re.7
 997  0211  1F80     E  	set rf
 997  0212  0700     E  	mov a,rd
 997  0213  C096 000E   	lmov [3734],a
 997  0215  0700     E  	mov a,re
 997  0216  C097 000E   	lmov [3735],a
 998  0218              #line 998 "c:\users\longshuangmin\desktop\worke_space\g-501\g-501\OpMode_A.C"
 998  0218  FB97 000E   	lsnz [3735].7
 998  021A  2800     R  	jmp _L59
 999  021B              #line 999 "c:\users\longshuangmin\desktop\worke_space\g-501\g-501\OpMode_A.C"
 999  021B  DF16 000E   	lclr [3734]
 999  021D  DF17 000E   	lclr [3735]
 999  021F              _L59:
1000  021F              #line 1000 "c:\users\longshuangmin\desktop\worke_space\g-501\g-501\OpMode_A.C"
1000  021F  C716 000E   	lmov a,[3734]
1000  0221  0080     E  	mov rb,a
1000  0222  C717 000E   	lmov a,[3735]
1000  0224  0080     E  	mov rc,a
1000  0225  1F00     E  	clr _ADCtoCurrent_Convert_2[4]
1000  0226  1F00     E  	clr _ADCtoCurrent_Convert_2[5]
1000  0227  0F88        	mov a,-120
1000  0228  0080     E  	mov _ADCtoCurrent_Convert_2[6],a
1000  0229  0F42        	mov a,66
文件：OpMode_A.C   编译器版本 HGASM 0202 页次62

1000  022A  0080     E  	mov _ADCtoCurrent_Convert_2[7],a
1000  022B  0700     E  	mov a,rb
1000  022C  0080     E  	mov _ADCtoCurrent_Convert_2[0],a
1000  022D  0700     E  	mov a,rc
1000  022E  0080     E  	mov _ADCtoCurrent_Convert_2[1],a
1000  022F  1F05        	clr acc
1000  0230  3C00     E  	sz _ADCtoCurrent_Convert_2[1].7
1000  0231  1F85        	set acc
1000  0232  0080     E  	mov _ADCtoCurrent_Convert_2[2],a
1000  0233  0080     E  	mov _ADCtoCurrent_Convert_2[3],a
1000  0234              	fcall _ADCtoCurrent_Convert
1000  023B  0700     E  	mov a,rd
1000  023C  0080     E  	mov _builtin_holtek_mant12p[0],a
1000  023D  0700     E  	mov a,rc
1000  023E  0080     E  	mov _builtin_holtek_mant1[2],a
1000  023F  0700     E  	mov a,rb
1000  0240  0080     E  	mov _builtin_holtek_mant1[1],a
1000  0241  0700     E  	mov a,ra
1000  0242  0080     E  	mov _builtin_holtek_mant1[0],a
1000  0243              	fcall _builtin_holtek_dtol
1000  024A  0700     E  	mov a,_builtin_holtek_mant12p[0]
1000  024B  0080     E  	mov rg,a
1000  024C  0700     E  	mov a,_builtin_holtek_mant1[2]
1000  024D  0080     E  	mov rf,a
1000  024E  0700     E  	mov a,_builtin_holtek_mant1[1]
1000  024F  0080     E  	mov re,a
1000  0250  0700     E  	mov a,_builtin_holtek_mant1[0]
1000  0251  0080     E  	mov rd,a
1000  0252  0700     E  	mov a,rd
1000  0253  0080     E  	mov _M_Current[0],a
1000  0254  0700     E  	mov a,re
1000  0255  0080     E  	mov _M_Current[1],a
1005  0256              #line 1005 "c:\users\longshuangmin\desktop\worke_space\g-501\g-501\OpMode_A.C"
1005  0256  0700     E  	mov a,re
1005  0257  0080     E  	mov _builtin_holtek_mant1[1],a
1005  0258  0700     E  	mov a,rd
1005  0259  0080     E  	mov _builtin_holtek_mant1[0],a
1005  025A  3400     E  	clr _builtin_holtek_signs.0
1005  025B              	fcall _builtin_holtek_uitod
1005  0262  0700     E  	mov a,_builtin_holtek_mant12p[0]
1005  0263  0080     E  	mov rg,a
1005  0264  0700     E  	mov a,_builtin_holtek_mant1[2]
1005  0265  0080     E  	mov rf,a
1005  0266  0700     E  	mov a,_builtin_holtek_mant1[1]
1005  0267  0080     E  	mov re,a
1005  0268  0700     E  	mov a,_builtin_holtek_mant1[0]
1005  0269  0080     E  	mov rd,a
1005  026A  0700     E  	mov a,rg
1005  026B  0080     E  	mov _builtin_holtek_mant12p[0],a
1005  026C  0700     E  	mov a,rf
1005  026D  0080     E  	mov _builtin_holtek_mant1[2],a
1005  026E  0700     E  	mov a,re
1005  026F  0080     E  	mov _builtin_holtek_mant1[1],a
1005  0270  0700     E  	mov a,rd
1005  0271  0080     E  	mov _builtin_holtek_mant1[0],a
1005  0272  C706 000D   	lmov a,[3462]
1005  0274  0080     E  	mov _builtin_holtek_mant12p[1],a
1005  0275  C705 000D   	lmov a,[3461]
1005  0277  0080     E  	mov _builtin_holtek_mant2[2],a
1005  0278  C704 000D   	lmov a,[3460]
文件：OpMode_A.C   编译器版本 HGASM 0202 页次63

1005  027A  0080     E  	mov _builtin_holtek_mant2[1],a
1005  027B  C703 000D   	lmov a,[3459]
1005  027D  0080     E  	mov _builtin_holtek_mant2[0],a
1005  027E              	fcall _builtin_holtek_dtsub
1005  0285  3C00     E  	sz _builtin_holtek_mant12p[0].7
1005  0286  2800     R  	jmp _LI22
1005  0287  0700     E  	mov a,_builtin_holtek_mant12p[0]
1005  0288  0500     E  	or a,_builtin_holtek_mant1[2]
1005  0289  0500     E  	or a,_builtin_holtek_mant1[1]
1005  028A  0500     E  	or a,_builtin_holtek_mant1[0]
1005  028B  390A        	snz z
1005  028C  2800     R  	jmp _L162
1005  028D              _LI22:
1017  028D              #line 1017 "c:\users\longshuangmin\desktop\worke_space\g-501\g-501\OpMode_A.C"
1017  028D  0F05        	mov a,5
1017  028E  0080     E  	mov _M_TaskBuf0[0],a
1018  028F              #line 1018 "c:\users\longshuangmin\desktop\worke_space\g-501\g-501\OpMode_A.C"
1018  028F  1F00     E  	clr _M_RTC_display[0]
1018  0290  1F00     E  	clr _M_RTC_display[1]
1018  0291  2800     R  	jmp _L237
1018  0292              _L162:
1007  0292              #line 1007 "c:\users\longshuangmin\desktop\worke_space\g-501\g-501\OpMode_A.C"
1007  0292              	fcall _fun_StripModuleAllOpen2
1008  0299              #line 1008 "c:\users\longshuangmin\desktop\worke_space\g-501\g-501\OpMode_A.C"
1008  0299  32F0        	set [112].5
1008  029A  3670        	clr [112].4
1008  029B  35F0        	clr [112].3
1009  029C              #line 1009 "c:\users\longshuangmin\desktop\worke_space\g-501\g-501\OpMode_A.C"
1009  029C  3216        	set [22].4
1010  029D              #line 1010 "c:\users\longshuangmin\desktop\worke_space\g-501\g-501\OpMode_A.C"
1010  029D  0F00        	mov a,0
1010  029E              	fcall _LCD_Clear
1011  02A5              #line 1011 "c:\users\longshuangmin\desktop\worke_space\g-501\g-501\OpMode_A.C"
1011  02A5  0F04        	mov a,4
1011  02A6              	fcall _init_Error_Task
1011  02AD              _L237:
1019  02AD              #line 1019 "c:\users\longshuangmin\desktop\worke_space\g-501\g-501\OpMode_A.C"
1019  02AD  1F00     R  	clr _temp[0]
1020  02AE              #line 1020 "c:\users\longshuangmin\desktop\worke_space\g-501\g-501\OpMode_A.C"
1020  02AE  2800     R  	jmp _L23
1020  02AF              _L31:
1029  02AF              #line 1029 "c:\users\longshuangmin\desktop\worke_space\g-501\g-501\OpMode_A.C"
1029  02AF  0F01        	mov a,1
1029  02B0  0200     E  	sub a,rb
1029  02B1  0F00        	mov a,0
1029  02B2  1200     E  	sbc a,rc
1029  02B3  380A        	snz c
1029  02B4  2800     R  	jmp _L62
1031  02B5              #line 1031 "c:\users\longshuangmin\desktop\worke_space\g-501\g-501\OpMode_A.C"
1031  02B5              	fcall _Measurement_Temp
1031  02BC  0700     E  	mov a,ra
1031  02BD  0080     E  	mov _M_Temperature[0],a
1031  02BE  0700     E  	mov a,rb
1031  02BF  0080     E  	mov _M_Temperature[1],a
1043  02C0              #line 1043 "c:\users\longshuangmin\desktop\worke_space\g-501\g-501\OpMode_A.C"
1043  02C0  C709 0014   	lmov a,[5257]
1043  02C2  0A55        	sub a,85
1043  02C3  390A        	snz z
1043  02C4  2800     R  	jmp _L63
1044  02C5              #line 1044 "c:\users\longshuangmin\desktop\worke_space\g-501\g-501\OpMode_A.C"
文件：OpMode_A.C   编译器版本 HGASM 0202 页次64

1044  02C5  0FFA        	mov a,-6
1044  02C6  0080     E  	mov _M_Temperature[0],a
1044  02C7  1F00     E  	clr _M_Temperature[1]
1044  02C8              _L63:
1047  02C8              #line 1047 "c:\users\longshuangmin\desktop\worke_space\g-501\g-501\OpMode_A.C"
1047  02C8  0FF6        	mov a,246
1047  02C9  0300     E  	add a,_M_Temperature[0]
1047  02CA  0080     E  	mov rb,a
1047  02CB  0FFF        	mov a,255
1047  02CC  1300     E  	adc a,_M_Temperature[1]
1047  02CD  0080     E  	mov rc,a
1047  02CE  0F86        	mov a,134
1047  02CF  0200     E  	sub a,rb
1047  02D0  0F01        	mov a,1
1047  02D1  1200     E  	sbc a,rc
1047  02D2  3C0A        	sz c
1047  02D3  2800     R  	jmp _L64
1050  02D4              #line 1050 "c:\users\longshuangmin\desktop\worke_space\g-501\g-501\OpMode_A.C"
1050  02D4  0F05        	mov a,5
1050  02D5  2800     R  	jmp _L236
1050  02D6              _L64:
1055  02D6              #line 1055 "c:\users\longshuangmin\desktop\worke_space\g-501\g-501\OpMode_A.C"
1055  02D6  0F00        	mov a,0
1055  02D7              	fcall _LCD_Clear_Buff
1056  02DE              #line 1056 "c:\users\longshuangmin\desktop\worke_space\g-501\g-501\OpMode_A.C"
1056  02DE  0700     E  	mov a,_M_Temperature[0]
1056  02DF  0080     R  	mov _Ibuf0[0],a
1056  02E0  0700     E  	mov a,_M_Temperature[1]
1056  02E1  0080     R  	mov _Ibuf0[1],a
1057  02E2              #line 1057 "c:\users\longshuangmin\desktop\worke_space\g-501\g-501\OpMode_A.C"
1057  02E2  3000     E  	set _lcd[28].0
1058  02E3              #line 1058 "c:\users\longshuangmin\desktop\worke_space\g-501\g-501\OpMode_A.C"
1058  02E3  0700     R  	mov a,_Ibuf0[0]
1058  02E4  0080     E  	mov _ShowDec_BigNum_2[0],a
1058  02E5  0700     R  	mov a,_Ibuf0[1]
1058  02E6  0080     E  	mov _ShowDec_BigNum_2[1],a
1058  02E7              	fcall _ShowDec_BigNum
1060  02EE              #line 1060 "c:\users\longshuangmin\desktop\worke_space\g-501\g-501\OpMode_A.C"
1060  02EE  3000     E  	set _Flag2[0].1
1062  02EF              #line 1062 "c:\users\longshuangmin\desktop\worke_space\g-501\g-501\OpMode_A.C"
1062  02EF  326F        	set [111].4
1063  02F0              #line 1063 "c:\users\longshuangmin\desktop\worke_space\g-501\g-501\OpMode_A.C"
1063  02F0  306F        	set [111].0
1064  02F1              #line 1064 "c:\users\longshuangmin\desktop\worke_space\g-501\g-501\OpMode_A.C"
1064  02F1  34F1        	clr [113].1
1064  02F2  3071        	set [113].0
1065  02F3              #line 1065 "c:\users\longshuangmin\desktop\worke_space\g-501\g-501\OpMode_A.C"
1065  02F3              	fcall _Measurement_Op1n1_Op1s1
1066  02FA              #line 1066 "c:\users\longshuangmin\desktop\worke_space\g-501\g-501\OpMode_A.C"
1066  02FA  3170        	set [112].2
1066  02FB  34F0        	clr [112].1
1066  02FC  3470        	clr [112].0
1067  02FD              #line 1067 "c:\users\longshuangmin\desktop\worke_space\g-501\g-501\OpMode_A.C"
1067  02FD  32F0        	set [112].5
1067  02FE  3670        	clr [112].4
1067  02FF  35F0        	clr [112].3
1068  0300              #line 1068 "c:\users\longshuangmin\desktop\worke_space\g-501\g-501\OpMode_A.C"
1068  0300  3216        	set [22].4
1069  0301              #line 1069 "c:\users\longshuangmin\desktop\worke_space\g-501\g-501\OpMode_A.C"
1069  0301  3195        	set [21].3
文件：OpMode_A.C   编译器版本 HGASM 0202 页次65

1070  0302              #line 1070 "c:\users\longshuangmin\desktop\worke_space\g-501\g-501\OpMode_A.C"
1070  0302  3596        	clr [22].3
1071  0303              #line 1071 "c:\users\longshuangmin\desktop\worke_space\g-501\g-501\OpMode_A.C"
1071  0303  32ED        	set [109].5
1072  0304              #line 1072 "c:\users\longshuangmin\desktop\worke_space\g-501\g-501\OpMode_A.C"
1072  0304              	fcall _fun_ADCStart
1073  030B              #line 1073 "c:\users\longshuangmin\desktop\worke_space\g-501\g-501\OpMode_A.C"
1073  030B  DF00 000A   	lclr [2688]
1074  030D              #line 1074 "c:\users\longshuangmin\desktop\worke_space\g-501\g-501\OpMode_A.C"
1074  030D  DF13 000E   	lclr [3731]
1075  030F              #line 1075 "c:\users\longshuangmin\desktop\worke_space\g-501\g-501\OpMode_A.C"
1075  030F  1F00     E  	clr _M_TaskBuf1[0]
1076  0310              #line 1076 "c:\users\longshuangmin\desktop\worke_space\g-501\g-501\OpMode_A.C"
1076  0310  1F00     E  	clr _M_No_Active_Cnt[0]
1076  0311  1F00     E  	clr _M_No_Active_Cnt[1]
1076  0312  2800     R  	jmp _L83
1076  0313              _L62:
1090  0313              #line 1090 "c:\users\longshuangmin\desktop\worke_space\g-501\g-501\OpMode_A.C"
1090  0313  0F3B        	mov a,59
1090  0314  0200     E  	sub a,rb
1090  0315  0F00        	mov a,0
1090  0316  1200     E  	sbc a,rc
1090  0317  3C0A        	sz c
1090  0318  2800     R  	jmp _L23
1093  0319              #line 1093 "c:\users\longshuangmin\desktop\worke_space\g-501\g-501\OpMode_A.C"
1093  0319  0F00        	mov a,0
1093  031A              	fcall _LCD_Clear_Buff
1094  0321              #line 1094 "c:\users\longshuangmin\desktop\worke_space\g-501\g-501\OpMode_A.C"
1094  0321  0F06        	mov a,6
1094  0322  0080     E  	mov _M_TaskBuf0[0],a
1095  0323              #line 1095 "c:\users\longshuangmin\desktop\worke_space\g-501\g-501\OpMode_A.C"
1095  0323  1F00     E  	clr _M_RTC_display[0]
1095  0324  1F00     E  	clr _M_RTC_display[1]
1096  0325              #line 1096 "c:\users\longshuangmin\desktop\worke_space\g-501\g-501\OpMode_A.C"
1096  0325  DF00 000E   	lclr [3712]
1097  0327              #line 1097 "c:\users\longshuangmin\desktop\worke_space\g-501\g-501\OpMode_A.C"
1097  0327  DF06 0012   	lclr [4742]
1097  0329  DF07 0012   	lclr [4743]
1098  032B              #line 1098 "c:\users\longshuangmin\desktop\worke_space\g-501\g-501\OpMode_A.C"
1098  032B  0F01        	mov a,1
1098  032C  C08A 0012   	lmov [4746],a
1098  032E  2800     R  	jmp _L23
1098  032F              _L32:
1106  032F              #line 1106 "c:\users\longshuangmin\desktop\worke_space\g-501\g-501\OpMode_A.C"
1106  032F  3800     E  	snz _SDKADCSourceData[5].0
1106  0330  2800     R  	jmp _L65
1108  0331              #line 1108 "c:\users\longshuangmin\desktop\worke_space\g-501\g-501\OpMode_A.C"
1108  0331  3400     E  	clr _SDKADCSourceData[5].0
1109  0332              #line 1109 "c:\users\longshuangmin\desktop\worke_space\g-501\g-501\OpMode_A.C"
1109  0332  0700     E  	mov a,_SDKADCSourceData[0]
1109  0333  0080     E  	mov rd,a
1109  0334  0700     E  	mov a,_SDKADCSourceData[1]
1109  0335  0080     E  	mov re,a
1109  0336  0700     E  	mov a,_SDKADCSourceData[2]
1109  0337  0080     E  	mov rf,a
1109  0338  0700     E  	mov a,_SDKADCSourceData[3]
1109  0339  0080     E  	mov rg,a
1109  033A  0700     E  	mov a,rf
1109  033B  0080     E  	mov rd,a
1109  033C  0700     E  	mov a,rg
文件：OpMode_A.C   编译器版本 HGASM 0202 页次66

1109  033D  0080     E  	mov re,a
1109  033E  1F00     E  	clr rg
1109  033F  3C00     E  	sz re.7
1109  0340  1F80     E  	set rg
1109  0341  1F00     E  	clr rf
1109  0342  3C00     E  	sz re.7
1109  0343  1F80     E  	set rf
1109  0344  0700     E  	mov a,rd
1109  0345  C096 000E   	lmov [3734],a
1109  0347  0700     E  	mov a,re
1109  0348  C097 000E   	lmov [3735],a
1110  034A              #line 1110 "c:\users\longshuangmin\desktop\worke_space\g-501\g-501\OpMode_A.C"
1110  034A  FB97 000E   	lsnz [3735].7
1110  034C  2800     R  	jmp _L66
1111  034D              #line 1111 "c:\users\longshuangmin\desktop\worke_space\g-501\g-501\OpMode_A.C"
1111  034D  DF16 000E   	lclr [3734]
1111  034F  DF17 000E   	lclr [3735]
1111  0351              _L66:
1112  0351              #line 1112 "c:\users\longshuangmin\desktop\worke_space\g-501\g-501\OpMode_A.C"
1112  0351  C716 000E   	lmov a,[3734]
1112  0353  0080     E  	mov rb,a
1112  0354  C717 000E   	lmov a,[3735]
1112  0356  0080     E  	mov rc,a
1112  0357  1F00     E  	clr _ADCtoCurrent_Convert_2[4]
1112  0358  1F00     E  	clr _ADCtoCurrent_Convert_2[5]
1112  0359  0F88        	mov a,-120
1112  035A  0080     E  	mov _ADCtoCurrent_Convert_2[6],a
1112  035B  0F42        	mov a,66
1112  035C  0080     E  	mov _ADCtoCurrent_Convert_2[7],a
1112  035D  0700     E  	mov a,rb
1112  035E  0080     E  	mov _ADCtoCurrent_Convert_2[0],a
1112  035F  0700     E  	mov a,rc
1112  0360  0080     E  	mov _ADCtoCurrent_Convert_2[1],a
1112  0361  1F05        	clr acc
1112  0362  3C00     E  	sz _ADCtoCurrent_Convert_2[1].7
1112  0363  1F85        	set acc
1112  0364  0080     E  	mov _ADCtoCurrent_Convert_2[2],a
1112  0365  0080     E  	mov _ADCtoCurrent_Convert_2[3],a
1112  0366              	fcall _ADCtoCurrent_Convert
1112  036D  0700     E  	mov a,rd
1112  036E  0080     E  	mov _builtin_holtek_mant12p[0],a
1112  036F  0700     E  	mov a,rc
1112  0370  0080     E  	mov _builtin_holtek_mant1[2],a
1112  0371  0700     E  	mov a,rb
1112  0372  0080     E  	mov _builtin_holtek_mant1[1],a
1112  0373  0700     E  	mov a,ra
1112  0374  0080     E  	mov _builtin_holtek_mant1[0],a
1112  0375              	fcall _builtin_holtek_dtol
1112  037C  0700     E  	mov a,_builtin_holtek_mant12p[0]
1112  037D  0080     E  	mov rg,a
1112  037E  0700     E  	mov a,_builtin_holtek_mant1[2]
1112  037F  0080     E  	mov rf,a
1112  0380  0700     E  	mov a,_builtin_holtek_mant1[1]
1112  0381  0080     E  	mov re,a
1112  0382  0700     E  	mov a,_builtin_holtek_mant1[0]
1112  0383  0080     E  	mov rd,a
1112  0384  0700     E  	mov a,rd
1112  0385  0080     E  	mov _M_Current[0],a
1112  0386  0700     E  	mov a,re
1112  0387  0080     E  	mov _M_Current[1],a
文件：OpMode_A.C   编译器版本 HGASM 0202 页次67

1117  0388              #line 1117 "c:\users\longshuangmin\desktop\worke_space\g-501\g-501\OpMode_A.C"
1117  0388  0700     E  	mov a,re
1117  0389  0080     E  	mov _builtin_holtek_mant1[1],a
1117  038A  0700     E  	mov a,rd
1117  038B  0080     E  	mov _builtin_holtek_mant1[0],a
1117  038C  3400     E  	clr _builtin_holtek_signs.0
1117  038D              	fcall _builtin_holtek_uitod
1117  0394  0700     E  	mov a,_builtin_holtek_mant12p[0]
1117  0395  0080     E  	mov rg,a
1117  0396  0700     E  	mov a,_builtin_holtek_mant1[2]
1117  0397  0080     E  	mov rf,a
1117  0398  0700     E  	mov a,_builtin_holtek_mant1[1]
1117  0399  0080     E  	mov re,a
1117  039A  0700     E  	mov a,_builtin_holtek_mant1[0]
1117  039B  0080     E  	mov rd,a
1117  039C  0700     E  	mov a,rg
1117  039D  0080     E  	mov _builtin_holtek_mant12p[0],a
1117  039E  0700     E  	mov a,rf
1117  039F  0080     E  	mov _builtin_holtek_mant1[2],a
1117  03A0  0700     E  	mov a,re
1117  03A1  0080     E  	mov _builtin_holtek_mant1[1],a
1117  03A2  0700     E  	mov a,rd
1117  03A3  0080     E  	mov _builtin_holtek_mant1[0],a
1117  03A4  C70A 000D   	lmov a,[3466]
1117  03A6  0080     E  	mov _builtin_holtek_mant12p[1],a
1117  03A7  C709 000D   	lmov a,[3465]
1117  03A9  0080     E  	mov _builtin_holtek_mant2[2],a
1117  03AA  C708 000D   	lmov a,[3464]
1117  03AC  0080     E  	mov _builtin_holtek_mant2[1],a
1117  03AD  C707 000D   	lmov a,[3463]
1117  03AF  0080     E  	mov _builtin_holtek_mant2[0],a
1117  03B0              	fcall _builtin_holtek_dtsub
1117  03B7  3C00     E  	sz _builtin_holtek_mant12p[0].7
1117  03B8  2800     R  	jmp _LI23
1117  03B9  0700     E  	mov a,_builtin_holtek_mant12p[0]
1117  03BA  0500     E  	or a,_builtin_holtek_mant1[2]
1117  03BB  0500     E  	or a,_builtin_holtek_mant1[1]
1117  03BC  0500     E  	or a,_builtin_holtek_mant1[0]
1117  03BD  390A        	snz z
1117  03BE  2800     R  	jmp _L163
1117  03BF              _LI23:
1117  03BF  2800     R  	jmp _L244
1117  03C0              _L163:
1135  03C0              #line 1135 "c:\users\longshuangmin\desktop\worke_space\g-501\g-501\OpMode_A.C"
1135  03C0  3000     E  	set _Flag4[0].1
1141  03C1              #line 1141 "c:\users\longshuangmin\desktop\worke_space\g-501\g-501\OpMode_A.C"
1141  03C1  0F00        	mov a,0
1141  03C2              	fcall _LCD_Clear1
1142  03C9              #line 1142 "c:\users\longshuangmin\desktop\worke_space\g-501\g-501\OpMode_A.C"
1142  03C9              	fcall _dis_beat
1143  03D0              #line 1143 "c:\users\longshuangmin\desktop\worke_space\g-501\g-501\OpMode_A.C"
1143  03D0  DF13 000E   	lclr [3731]
1144  03D2              #line 1144 "c:\users\longshuangmin\desktop\worke_space\g-501\g-501\OpMode_A.C"
1144  03D2  DF00 000A   	lclr [2688]
1145  03D4              #line 1145 "c:\users\longshuangmin\desktop\worke_space\g-501\g-501\OpMode_A.C"
1145  03D4  1F00     E  	clr _M_TaskBuf1[0]
1146  03D5              #line 1146 "c:\users\longshuangmin\desktop\worke_space\g-501\g-501\OpMode_A.C"
1146  03D5  1F00     E  	clr _M_No_Active_Cnt[0]
1146  03D6  1F00     E  	clr _M_No_Active_Cnt[1]
1147  03D7              #line 1147 "c:\users\longshuangmin\desktop\worke_space\g-501\g-501\OpMode_A.C"
文件：OpMode_A.C   编译器版本 HGASM 0202 页次68

1147  03D7  1F00     E  	clr _M_RTC_display[0]
1147  03D8  1F00     E  	clr _M_RTC_display[1]
1148  03D9              #line 1148 "c:\users\longshuangmin\desktop\worke_space\g-501\g-501\OpMode_A.C"
1148  03D9  DF0A 0012   	lclr [4746]
1149  03DB              #line 1149 "c:\users\longshuangmin\desktop\worke_space\g-501\g-501\OpMode_A.C"
1149  03DB  0F07        	mov a,7
1149  03DC  0080     E  	mov _M_TaskBuf0[0],a
1150  03DD              #line 1150 "c:\users\longshuangmin\desktop\worke_space\g-501\g-501\OpMode_A.C"
1150  03DD  2800     R  	jmp _L23
1150  03DE              _L244:
1157  03DE              #line 1157 "c:\users\longshuangmin\desktop\worke_space\g-501\g-501\OpMode_A.C"
1157  03DE  3A14        	snz [20].4
1157  03DF  2800     R  	jmp _L69
1159  03E0              #line 1159 "c:\users\longshuangmin\desktop\worke_space\g-501\g-501\OpMode_A.C"
1159  03E0  DF0A 0012   	lclr [4746]
1159  03E2  2800     R  	jmp _L96
1159  03E3              _L69:
1166  03E3              #line 1166 "c:\users\longshuangmin\desktop\worke_space\g-501\g-501\OpMode_A.C"
1166  03E3  0F01        	mov a,1
1166  03E4              	fcall _delay
1166  03EB              _L65:
1176  03EB              #line 1176 "c:\users\longshuangmin\desktop\worke_space\g-501\g-501\OpMode_A.C"
1176  03EB  3C00     E  	sz _Flag2[0].6
1176  03EC  2800     R  	jmp _L70
1183  03ED              #line 1183 "c:\users\longshuangmin\desktop\worke_space\g-501\g-501\OpMode_A.C"
1183  03ED              	fcall _Lcd_Unit
1198  03F4              #line 1198 "c:\users\longshuangmin\desktop\worke_space\g-501\g-501\OpMode_A.C"
1198  03F4  3000     E  	set _Flag2[0].6
1199  03F5              #line 1199 "c:\users\longshuangmin\desktop\worke_space\g-501\g-501\OpMode_A.C"
1199  03F5  3000     E  	set _Flag2[0].1
1199  03F6              _L70:
1203  03F6              #line 1203 "c:\users\longshuangmin\desktop\worke_space\g-501\g-501\OpMode_A.C"
1203  03F6  3800     E  	snz _Flag1[0].7
1203  03F7  2800     R  	jmp _L71
1209  03F8              #line 1209 "c:\users\longshuangmin\desktop\worke_space\g-501\g-501\OpMode_A.C"
1209  03F8  3800     E  	snz _lcd[22].0
1209  03F9  2800     R  	jmp _L72
1210  03FA              #line 1210 "c:\users\longshuangmin\desktop\worke_space\g-501\g-501\OpMode_A.C"
1210  03FA  1F00     E  	clr _LCD_BitSetOut_2[2]
1210  03FB  2800     R  	jmp _L230
1210  03FC              _L72:
1212  03FC              #line 1212 "c:\users\longshuangmin\desktop\worke_space\g-501\g-501\OpMode_A.C"
1212  03FC  0F01        	mov a,1
1212  03FD  0080     E  	mov _LCD_BitSetOut_2[2],a
1212  03FE              _L230:
1212  03FE  1F00     E  	clr _LCD_BitSetOut_2[0]
1212  03FF  1F00     E  	clr _LCD_BitSetOut_2[1]
1212  0400              	fcall _LCD_BitSetOut
1213  0407              #line 1213 "c:\users\longshuangmin\desktop\worke_space\g-501\g-501\OpMode_A.C"
1213  0407  1400     E  	inca _FlashTimeCon[0]
1213  0408  0080     E  	mov ra,a
1213  0409  0700     E  	mov a,ra
1213  040A  0080     E  	mov _FlashTimeCon[0],a
1214  040B              #line 1214 "c:\users\longshuangmin\desktop\worke_space\g-501\g-501\OpMode_A.C"
1214  040B  3800     E  	snz ra.0
1214  040C  2800     R  	jmp _L74
1216  040D              #line 1216 "c:\users\longshuangmin\desktop\worke_space\g-501\g-501\OpMode_A.C"
1216  040D  1E00     E  	snz _FlashTimeFlag[0]
1216  040E  2800     R  	jmp _L75
1218  040F              #line 1218 "c:\users\longshuangmin\desktop\worke_space\g-501\g-501\OpMode_A.C"
文件：OpMode_A.C   编译器版本 HGASM 0202 页次69

1218  040F  1F00     E  	clr _FlashTimeFlag[0]
1219  0410              #line 1219 "c:\users\longshuangmin\desktop\worke_space\g-501\g-501\OpMode_A.C"
1219  0410  0700     E  	mov a,_M_Month[0]
1219  0411  0080     E  	mov ra,a
1219  0412  0700     E  	mov a,_M_Days[0]
1219  0413  0080     E  	mov _Lcd_Month_Day_Process_2[0],a
1219  0414  0700     E  	mov a,ra
1219  0415              	fcall _Lcd_Month_Day_Process
1220  041C              #line 1220 "c:\users\longshuangmin\desktop\worke_space\g-501\g-501\OpMode_A.C"
1220  041C  3400     E  	clr _lcd[24].5
1221  041D              #line 1221 "c:\users\longshuangmin\desktop\worke_space\g-501\g-501\OpMode_A.C"
1221  041D  3400     E  	clr _lcd[24].6
1222  041E              #line 1222 "c:\users\longshuangmin\desktop\worke_space\g-501\g-501\OpMode_A.C"
1222  041E  3400     E  	clr _lcd[24].4
1222  041F  2800     R  	jmp _L76
1222  0420              _L75:
1226  0420              #line 1226 "c:\users\longshuangmin\desktop\worke_space\g-501\g-501\OpMode_A.C"
1226  0420  0F01        	mov a,1
1226  0421  0080     E  	mov _FlashTimeFlag[0],a
1227  0422              #line 1227 "c:\users\longshuangmin\desktop\worke_space\g-501\g-501\OpMode_A.C"
1227  0422  0700     E  	mov a,_M_Hour[0]
1227  0423  0080     E  	mov ra,a
1227  0424  0700     E  	mov a,_M_Minutes[0]
1227  0425  0080     E  	mov _Lcd_Clock_Process_2[0],a
1227  0426  0700     E  	mov a,ra
1227  0427              	fcall _Lcd_Clock_Process
1228  042E              #line 1228 "c:\users\longshuangmin\desktop\worke_space\g-501\g-501\OpMode_A.C"
1228  042E  3000     E  	set _lcd[24].4
1229  042F              #line 1229 "c:\users\longshuangmin\desktop\worke_space\g-501\g-501\OpMode_A.C"
1229  042F  3400     E  	clr _lcd[24].3
1229  0430              _L76:
1232  0430              #line 1232 "c:\users\longshuangmin\desktop\worke_space\g-501\g-501\OpMode_A.C"
1232  0430  DF06 0012   	lclr [4742]
1232  0432  DF07 0012   	lclr [4743]
1233  0434              #line 1233 "c:\users\longshuangmin\desktop\worke_space\g-501\g-501\OpMode_A.C"
1233  0434  3000     E  	set _Flag2[0].1
1233  0435              _L74:
1235  0435              #line 1235 "c:\users\longshuangmin\desktop\worke_space\g-501\g-501\OpMode_A.C"
1235  0435  3400     E  	clr _Flag1[0].7
1235  0436              _L71:
1257  0436              #line 1257 "c:\users\longshuangmin\desktop\worke_space\g-501\g-501\OpMode_A.C"
1257  0436  D700 000E   	lsdza [3712]
1257  0438  2800     R  	jmp _L77
1262  0439              #line 1262 "c:\users\longshuangmin\desktop\worke_space\g-501\g-501\OpMode_A.C"
1262  0439  DF00 000E   	lclr [3712]
1264  043B              #line 1264 "c:\users\longshuangmin\desktop\worke_space\g-501\g-501\OpMode_A.C"
1264  043B  3000     E  	set _Flag4[0].1
1269  043C              #line 1269 "c:\users\longshuangmin\desktop\worke_space\g-501\g-501\OpMode_A.C"
1269  043C  D4BA 000F   	linc [4026]
1270  043E              #line 1270 "c:\users\longshuangmin\desktop\worke_space\g-501\g-501\OpMode_A.C"
1270  043E  0F02        	mov a,2
1270  043F  C23A 000F   	lsub a,[4026]
1270  0441  3C0A        	sz c
1270  0442  2800     R  	jmp _L78
1271  0443              #line 1271 "c:\users\longshuangmin\desktop\worke_space\g-501\g-501\OpMode_A.C"
1271  0443  DF3A 000F   	lclr [4026]
1271  0445              _L78:
1272  0445              #line 1272 "c:\users\longshuangmin\desktop\worke_space\g-501\g-501\OpMode_A.C"
1272  0445  D73A 000F   	lsdza [4026]
1272  0447  2800     R  	jmp _L79
文件：OpMode_A.C   编译器版本 HGASM 0202 页次70

1274  0448              #line 1274 "c:\users\longshuangmin\desktop\worke_space\g-501\g-501\OpMode_A.C"
1274  0448  3400     E  	clr _lcd[28].3
1275  0449              #line 1275 "c:\users\longshuangmin\desktop\worke_space\g-501\g-501\OpMode_A.C"
1275  0449  3000     E  	set _lcd[28].2
1275  044A  2800     R  	jmp _L80
1275  044B              _L79:
1277  044B              #line 1277 "c:\users\longshuangmin\desktop\worke_space\g-501\g-501\OpMode_A.C"
1277  044B  C73A 000F   	lmov a,[4026]
1277  044D  0A02        	sub a,2
1277  044E  390A        	snz z
1277  044F  2800     R  	jmp _L81
1279  0450              #line 1279 "c:\users\longshuangmin\desktop\worke_space\g-501\g-501\OpMode_A.C"
1279  0450  3000     E  	set _lcd[28].3
1279  0451  2800     R  	jmp _L231
1279  0452              _L81:
1284  0452              #line 1284 "c:\users\longshuangmin\desktop\worke_space\g-501\g-501\OpMode_A.C"
1284  0452  3400     E  	clr _lcd[28].3
1284  0453              _L231:
1285  0453              #line 1285 "c:\users\longshuangmin\desktop\worke_space\g-501\g-501\OpMode_A.C"
1285  0453  3400     E  	clr _lcd[28].2
1285  0454              _L80:
1291  0454              #line 1291 "c:\users\longshuangmin\desktop\worke_space\g-501\g-501\OpMode_A.C"
1291  0454  3400     E  	clr _Flag2[0].6
1291  0455              _L77:
1296  0455              #line 1296 "c:\users\longshuangmin\desktop\worke_space\g-501\g-501\OpMode_A.C"
1296  0455  C700 000E   	lmov a,[3712]
1296  0457  0A02        	sub a,2
1296  0458  390A        	snz z
1296  0459  2800     R  	jmp _L23
1298  045A              #line 1298 "c:\users\longshuangmin\desktop\worke_space\g-501\g-501\OpMode_A.C"
1298  045A  DF00 000E   	lclr [3712]
1299  045C              #line 1299 "c:\users\longshuangmin\desktop\worke_space\g-501\g-501\OpMode_A.C"
1299  045C  1F00     E  	clr ra
1299  045D  3800     E  	snz _Flag1[0].4
1299  045E  3000     E  	set ra.4
1299  045F  3400     E  	clr _Flag1[0].4
1299  0460  0700     E  	mov a,ra
1299  0461  0580     E  	orm a,_Flag1[0]
1313  0462              #line 1313 "c:\users\longshuangmin\desktop\worke_space\g-501\g-501\OpMode_A.C"
1313  0462  3000     E  	set _Flag4[0].1
1315  0463              #line 1315 "c:\users\longshuangmin\desktop\worke_space\g-501\g-501\OpMode_A.C"
1315  0463  3800     E  	snz _Flag1[0].4
1315  0464  2800     R  	jmp _L82
1317  0465              #line 1317 "c:\users\longshuangmin\desktop\worke_space\g-501\g-501\OpMode_A.C"
1317  0465  3000     E  	set _lcd[28].5
1317  0466  2800     R  	jmp _L83
1317  0467              _L82:
1321  0467              #line 1321 "c:\users\longshuangmin\desktop\worke_space\g-501\g-501\OpMode_A.C"
1321  0467  3400     E  	clr _lcd[28].5
1321  0468              _L83:
1323  0468              #line 1323 "c:\users\longshuangmin\desktop\worke_space\g-501\g-501\OpMode_A.C"
1323  0468  3400     E  	clr _Flag2[0].6
1323  0469  2800     R  	jmp _L23
1323  046A              _L33:
1332  046A              #line 1332 "c:\users\longshuangmin\desktop\worke_space\g-501\g-501\OpMode_A.C"
1332  046A  3800     E  	snz _SDKADCSourceData[5].0
1332  046B  2800     R  	jmp _L84
1334  046C              #line 1334 "c:\users\longshuangmin\desktop\worke_space\g-501\g-501\OpMode_A.C"
1334  046C  3400     E  	clr _SDKADCSourceData[5].0
1347  046D              #line 1347 "c:\users\longshuangmin\desktop\worke_space\g-501\g-501\OpMode_A.C"
文件：OpMode_A.C   编译器版本 HGASM 0202 页次71

1347  046D  0700     E  	mov a,_SDKADCSourceData[0]
1347  046E  0080     E  	mov rd,a
1347  046F  0700     E  	mov a,_SDKADCSourceData[1]
1347  0470  0080     E  	mov re,a
1347  0471  0700     E  	mov a,_SDKADCSourceData[2]
1347  0472  0080     E  	mov rf,a
1347  0473  0700     E  	mov a,_SDKADCSourceData[3]
1347  0474  0080     E  	mov rg,a
1347  0475  0700     E  	mov a,rf
1347  0476  0080     E  	mov rd,a
1347  0477  0700     E  	mov a,rg
1347  0478  0080     E  	mov re,a
1347  0479  1F00     E  	clr rg
1347  047A  3C00     E  	sz re.7
1347  047B  1F80     E  	set rg
1347  047C  1F00     E  	clr rf
1347  047D  3C00     E  	sz re.7
1347  047E  1F80     E  	set rf
1347  047F  0700     E  	mov a,rd
1347  0480  C096 000E   	lmov [3734],a
1347  0482  0700     E  	mov a,re
1347  0483  C097 000E   	lmov [3735],a
1348  0485              #line 1348 "c:\users\longshuangmin\desktop\worke_space\g-501\g-501\OpMode_A.C"
1348  0485  FB97 000E   	lsnz [3735].7
1348  0487  2800     R  	jmp _L85
1349  0488              #line 1349 "c:\users\longshuangmin\desktop\worke_space\g-501\g-501\OpMode_A.C"
1349  0488  DF16 000E   	lclr [3734]
1349  048A  DF17 000E   	lclr [3735]
1349  048C              _L85:
1359  048C              #line 1359 "c:\users\longshuangmin\desktop\worke_space\g-501\g-501\OpMode_A.C"
1359  048C  C716 000E   	lmov a,[3734]
1359  048E  0080     E  	mov rb,a
1359  048F  C717 000E   	lmov a,[3735]
1359  0491  0080     E  	mov rc,a
1359  0492  1F00     E  	clr _ADCtoCurrent_Convert_2[4]
1359  0493  1F00     E  	clr _ADCtoCurrent_Convert_2[5]
1359  0494  0F88        	mov a,-120
1359  0495  0080     E  	mov _ADCtoCurrent_Convert_2[6],a
1359  0496  0F42        	mov a,66
1359  0497  0080     E  	mov _ADCtoCurrent_Convert_2[7],a
1359  0498  0700     E  	mov a,rb
1359  0499  0080     E  	mov _ADCtoCurrent_Convert_2[0],a
1359  049A  0700     E  	mov a,rc
1359  049B  0080     E  	mov _ADCtoCurrent_Convert_2[1],a
1359  049C  1F05        	clr acc
1359  049D  3C00     E  	sz _ADCtoCurrent_Convert_2[1].7
1359  049E  1F85        	set acc
1359  049F  0080     E  	mov _ADCtoCurrent_Convert_2[2],a
1359  04A0  0080     E  	mov _ADCtoCurrent_Convert_2[3],a
1359  04A1              	fcall _ADCtoCurrent_Convert
1359  04A8  0700     E  	mov a,rd
1359  04A9  0080     E  	mov _builtin_holtek_mant12p[0],a
1359  04AA  0700     E  	mov a,rc
1359  04AB  0080     E  	mov _builtin_holtek_mant1[2],a
1359  04AC  0700     E  	mov a,rb
1359  04AD  0080     E  	mov _builtin_holtek_mant1[1],a
1359  04AE  0700     E  	mov a,ra
1359  04AF  0080     E  	mov _builtin_holtek_mant1[0],a
1359  04B0              	fcall _builtin_holtek_dtol
1359  04B7  0700     E  	mov a,_builtin_holtek_mant12p[0]
文件：OpMode_A.C   编译器版本 HGASM 0202 页次72

1359  04B8  0080     E  	mov rg,a
1359  04B9  0700     E  	mov a,_builtin_holtek_mant1[2]
1359  04BA  0080     E  	mov rf,a
1359  04BB  0700     E  	mov a,_builtin_holtek_mant1[1]
1359  04BC  0080     E  	mov re,a
1359  04BD  0700     E  	mov a,_builtin_holtek_mant1[0]
1359  04BE  0080     E  	mov rd,a
1359  04BF  0700     E  	mov a,rd
1359  04C0  0080     E  	mov _M_Current[0],a
1359  04C1  0700     E  	mov a,re
1359  04C2  0080     E  	mov _M_Current[1],a
1364  04C3              #line 1364 "c:\users\longshuangmin\desktop\worke_space\g-501\g-501\OpMode_A.C"
1364  04C3  0700     E  	mov a,re
1364  04C4  0080     E  	mov _builtin_holtek_mant1[1],a
1364  04C5  0700     E  	mov a,rd
1364  04C6  0080     E  	mov _builtin_holtek_mant1[0],a
1364  04C7  3400     E  	clr _builtin_holtek_signs.0
1364  04C8              	fcall _builtin_holtek_uitod
1364  04CF  0700     E  	mov a,_builtin_holtek_mant12p[0]
1364  04D0  0080     E  	mov rg,a
1364  04D1  0700     E  	mov a,_builtin_holtek_mant1[2]
1364  04D2  0080     E  	mov rf,a
1364  04D3  0700     E  	mov a,_builtin_holtek_mant1[1]
1364  04D4  0080     E  	mov re,a
1364  04D5  0700     E  	mov a,_builtin_holtek_mant1[0]
1364  04D6  0080     E  	mov rd,a
1364  04D7  0700     E  	mov a,rg
1364  04D8  0080     E  	mov _builtin_holtek_mant12p[0],a
1364  04D9  0700     E  	mov a,rf
1364  04DA  0080     E  	mov _builtin_holtek_mant1[2],a
1364  04DB  0700     E  	mov a,re
1364  04DC  0080     E  	mov _builtin_holtek_mant1[1],a
1364  04DD  0700     E  	mov a,rd
1364  04DE  0080     E  	mov _builtin_holtek_mant1[0],a
1364  04DF  C70E 000D   	lmov a,[3470]
1364  04E1  0080     E  	mov _builtin_holtek_mant12p[1],a
1364  04E2  C70D 000D   	lmov a,[3469]
1364  04E4  0080     E  	mov _builtin_holtek_mant2[2],a
1364  04E5  C70C 000D   	lmov a,[3468]
1364  04E7  0080     E  	mov _builtin_holtek_mant2[1],a
1364  04E8  C70B 000D   	lmov a,[3467]
1364  04EA  0080     E  	mov _builtin_holtek_mant2[0],a
1364  04EB              	fcall _builtin_holtek_dtsub
1364  04F2  3C00     E  	sz _builtin_holtek_mant12p[0].7
1364  04F3  2800     R  	jmp _LI24
1364  04F4  0700     E  	mov a,_builtin_holtek_mant12p[0]
1364  04F5  0500     E  	or a,_builtin_holtek_mant1[2]
1364  04F6  0500     E  	or a,_builtin_holtek_mant1[1]
1364  04F7  0500     E  	or a,_builtin_holtek_mant1[0]
1364  04F8  390A        	snz z
1364  04F9  2800     R  	jmp _L164
1364  04FA              _LI24:
1364  04FA  2800     R  	jmp _L84
1364  04FB              _L164:
1367  04FB              #line 1367 "c:\users\longshuangmin\desktop\worke_space\g-501\g-501\OpMode_A.C"
1367  04FB  1F00     E  	clr _M_TaskBuf1[0]
1369  04FC              #line 1369 "c:\users\longshuangmin\desktop\worke_space\g-501\g-501\OpMode_A.C"
1369  04FC  1F00     E  	clr _M_No_Active_Cnt[0]
1369  04FD  1F00     E  	clr _M_No_Active_Cnt[1]
1372  04FE              #line 1372 "c:\users\longshuangmin\desktop\worke_space\g-501\g-501\OpMode_A.C"
文件：OpMode_A.C   编译器版本 HGASM 0202 页次73

1372  04FE  1F00     E  	clr _M_Main_cnt[0]
1373  04FF              #line 1373 "c:\users\longshuangmin\desktop\worke_space\g-501\g-501\OpMode_A.C"
1373  04FF  1F00     E  	clr _M_Main_Cal_Cnt[0]
1377  0500              #line 1377 "c:\users\longshuangmin\desktop\worke_space\g-501\g-501\OpMode_A.C"
1377  0500              	fcall _intit_Impedance
1378  0507              #line 1378 "c:\users\longshuangmin\desktop\worke_space\g-501\g-501\OpMode_A.C"
1378  0507  3216        	set [22].4
1379  0508              #line 1379 "c:\users\longshuangmin\desktop\worke_space\g-501\g-501\OpMode_A.C"
1379  0508  32F0        	set [112].5
1379  0509  3670        	clr [112].4
1379  050A  35F0        	clr [112].3
1380  050B              #line 1380 "c:\users\longshuangmin\desktop\worke_space\g-501\g-501\OpMode_A.C"
1380  050B  1F00     E  	clr _M_Cbuf0[0]
1381  050C              #line 1381 "c:\users\longshuangmin\desktop\worke_space\g-501\g-501\OpMode_A.C"
1381  050C  0F00        	mov a,0
1381  050D              	fcall _Set_HCT_Adc_Channel
1383  0514              #line 1383 "c:\users\longshuangmin\desktop\worke_space\g-501\g-501\OpMode_A.C"
1383  0514  0F05        	mov a,5
1383  0515              	fcall _dis_nub2
1388  051C              #line 1388 "c:\users\longshuangmin\desktop\worke_space\g-501\g-501\OpMode_A.C"
1388  051C  DF13 000E   	lclr [3731]
1389  051E              #line 1389 "c:\users\longshuangmin\desktop\worke_space\g-501\g-501\OpMode_A.C"
1389  051E  DF00 000A   	lclr [2688]
1393  0520              #line 1393 "c:\users\longshuangmin\desktop\worke_space\g-501\g-501\OpMode_A.C"
1393  0520  DF02 000A   	lclr [2690]
1393  0522  DF03 000A   	lclr [2691]
1394  0524              #line 1394 "c:\users\longshuangmin\desktop\worke_space\g-501\g-501\OpMode_A.C"
1394  0524  1F00     E  	clr _M_Main_cnt[0]
1395  0525              #line 1395 "c:\users\longshuangmin\desktop\worke_space\g-501\g-501\OpMode_A.C"
1395  0525  3400     E  	clr _Flag1[0].0
1397  0526              #line 1397 "c:\users\longshuangmin\desktop\worke_space\g-501\g-501\OpMode_A.C"
1397  0526  35D0        	clr [80].3
1398  0527              #line 1398 "c:\users\longshuangmin\desktop\worke_space\g-501\g-501\OpMode_A.C"
1398  0527  DF02 000A   	lclr [2690]
1398  0529  DF03 000A   	lclr [2691]
1399  052B              #line 1399 "c:\users\longshuangmin\desktop\worke_space\g-501\g-501\OpMode_A.C"
1399  052B  1F00     E  	clr _M_Main_cnt[0]
1400  052C              #line 1400 "c:\users\longshuangmin\desktop\worke_space\g-501\g-501\OpMode_A.C"
1400  052C  0F48        	mov a,72
1400  052D  00D4        	mov [84],a
1401  052E              #line 1401 "c:\users\longshuangmin\desktop\worke_space\g-501\g-501\OpMode_A.C"
1401  052E  0F01        	mov a,1
1401  052F  00D5        	mov [85],a
1402  0530              #line 1402 "c:\users\longshuangmin\desktop\worke_space\g-501\g-501\OpMode_A.C"
1402  0530  31D0        	set [80].3
1404  0531              #line 1404 "c:\users\longshuangmin\desktop\worke_space\g-501\g-501\OpMode_A.C"
1404  0531  1F00     E  	clr _M_RTC_display[0]
1404  0532  1F00     E  	clr _M_RTC_display[1]
1405  0533              #line 1405 "c:\users\longshuangmin\desktop\worke_space\g-501\g-501\OpMode_A.C"
1405  0533  DF08 000A   	lclr [2696]
1405  0535  DF09 000A   	lclr [2697]
1406  0537              #line 1406 "c:\users\longshuangmin\desktop\worke_space\g-501\g-501\OpMode_A.C"
1406  0537  0F01        	mov a,1
1406  0538  0080     R  	mov _count[0],a
1407  0539              #line 1407 "c:\users\longshuangmin\desktop\worke_space\g-501\g-501\OpMode_A.C"
1407  0539  0F08        	mov a,8
1407  053A  0080     E  	mov _M_TaskBuf0[0],a
1409  053B              #line 1409 "c:\users\longshuangmin\desktop\worke_space\g-501\g-501\OpMode_A.C"
1409  053B  2800     R  	jmp _L23
1409  053C              _L84:
文件：OpMode_A.C   编译器版本 HGASM 0202 页次74

1416  053C              #line 1416 "c:\users\longshuangmin\desktop\worke_space\g-501\g-501\OpMode_A.C"
1416  053C  0F2B        	mov a,43
1416  053D  0200     E  	sub a,_M_RTC_display[0]
1416  053E  0F01        	mov a,1
1416  053F  1200     E  	sbc a,_M_RTC_display[1]
1416  0540  3C0A        	sz c
1416  0541  2800     R  	jmp _L23
1418  0542              #line 1418 "c:\users\longshuangmin\desktop\worke_space\g-501\g-501\OpMode_A.C"
1418  0542  0F07        	mov a,7
1418  0543  2800     R  	jmp _L236
1418  0544              _L34:
1436  0544              #line 1436 "c:\users\longshuangmin\desktop\worke_space\g-501\g-501\OpMode_A.C"
1436  0544  0F58        	mov a,88
1436  0545  C202 000A   	lsub a,[2690]
1436  0547  0080     E  	mov rd,a
1436  0548  0F02        	mov a,2
1436  0549  D203 000A   	lsbc a,[2691]
1436  054B  0080     E  	mov re,a
1436  054C  0700     E  	mov a,rd
1436  054D  0080     E  	mov _builtin_holtek_udivmodhi4_2[0],a
1436  054E  0700     E  	mov a,re
1436  054F  0080     E  	mov _builtin_holtek_udivmodhi4_2[1],a
1436  0550  0F64        	mov a,100
1436  0551  0080     E  	mov _builtin_holtek_udivmodhi4_2[2],a
1436  0552  0F00        	mov a,0
1436  0553  0080     E  	mov _builtin_holtek_udivmodhi4_2[3],a
1436  0554              	fcall _builtin_holtek_divmodhi4
1436  055B  0700     E  	mov a,_builtin_holtek_udivmodhi4_2[4]
1436  055C  0080     E  	mov rb,a
1436  055D  0700     E  	mov a,_builtin_holtek_udivmodhi4_2[5]
1436  055E  0080     E  	mov rc,a
1436  055F  0700     E  	mov a,rb
1436  0560  0500     E  	or a,rc
1436  0561  390A        	snz z
1436  0562  2800     R  	jmp _L87
1436  0563  C702 000A   	lmov a,[2690]
1436  0565  0A58        	sub a,88
1436  0566  C703 000A   	lmov a,[2691]
1436  0568  0802        	sbc a,2
1436  0569  3F0A        	sz cz
1436  056A  2800     R  	jmp _L87
1438  056B              #line 1438 "c:\users\longshuangmin\desktop\worke_space\g-501\g-501\OpMode_A.C"
1438  056B  0F58        	mov a,88
1438  056C  C202 000A   	lsub a,[2690]
1438  056E  0080     E  	mov rd,a
1438  056F  0F02        	mov a,2
1438  0570  D203 000A   	lsbc a,[2691]
1438  0572  0080     E  	mov re,a
1438  0573  0700     E  	mov a,rd
1438  0574  0080     E  	mov _builtin_holtek_udivmodhi4_2[0],a
1438  0575  0700     E  	mov a,re
1438  0576  0080     E  	mov _builtin_holtek_udivmodhi4_2[1],a
1438  0577  0F64        	mov a,100
1438  0578  0080     E  	mov _builtin_holtek_udivmodhi4_2[2],a
1438  0579  0F00        	mov a,0
1438  057A  0080     E  	mov _builtin_holtek_udivmodhi4_2[3],a
1438  057B              	fcall _builtin_holtek_divmodhi4
1438  0582  0700     E  	mov a,_builtin_holtek_udivmodhi4_2[0]
1438  0583  0080     E  	mov rb,a
1438  0584  0700     E  	mov a,_builtin_holtek_udivmodhi4_2[1]
文件：OpMode_A.C   编译器版本 HGASM 0202 页次75

1438  0585  0080     E  	mov rc,a
1438  0586  1500     E  	deca rb
1438  0587  0080     R  	mov _dis[0],a
1440  0588              #line 1440 "c:\users\longshuangmin\desktop\worke_space\g-501\g-501\OpMode_A.C"
1440  0588  0700     R  	mov a,_dis[0]
1440  0589  0080     E  	mov ra,a
1440  058A  0700     E  	mov a,ra
1440  058B              	fcall _dis_nub2
1440  0592              _L87:
1443  0592              #line 1443 "c:\users\longshuangmin\desktop\worke_space\g-501\g-501\OpMode_A.C"
1443  0592  3800     E  	snz _SDKADCSourceData[5].0
1443  0593  2800     R  	jmp _L88
1445  0594              #line 1445 "c:\users\longshuangmin\desktop\worke_space\g-501\g-501\OpMode_A.C"
1445  0594  3400     E  	clr _SDKADCSourceData[5].0
1447  0595              #line 1447 "c:\users\longshuangmin\desktop\worke_space\g-501\g-501\OpMode_A.C"
1447  0595  C713 000E   	lmov a,[3731]
1447  0597  0080     E  	mov rb,a
1447  0598  1400     E  	inca rb
1447  0599  C093 000E   	lmov [3731],a
1447  059B  1F00     E  	clr rc
1447  059C  0700     E  	mov a,_SDKADCSourceData[0]
1447  059D  0080     E  	mov rd,a
1447  059E  0700     E  	mov a,_SDKADCSourceData[1]
1447  059F  0080     E  	mov re,a
1447  05A0  0700     E  	mov a,_SDKADCSourceData[2]
1447  05A1  0080     E  	mov rf,a
1447  05A2  0700     E  	mov a,_SDKADCSourceData[3]
1447  05A3  0080     E  	mov rg,a
1447  05A4  0700     E  	mov a,rf
1447  05A5  0080     E  	mov rd,a
1447  05A6  0700     E  	mov a,rg
1447  05A7  0080     E  	mov re,a
1447  05A8  1F00     E  	clr rg
1447  05A9  3C00     E  	sz re.7
1447  05AA  1F80     E  	set rg
1447  05AB  1F00     E  	clr rf
1447  05AC  3C00     E  	sz re.7
1447  05AD  1F80     E  	set rf
1447  05AE  340A        	clr c
1447  05AF  1A80     E  	rlc rb
1447  05B0  1A80     E  	rlc rc
1447  05B1  0F80        	mov a,low offset _M_Impedance_data
1447  05B2  0300     E  	add a,rb
1447  05B3  0083        	mov mp,a
1447  05B4  0F08        	mov a,high offset _M_Impedance_data
1447  05B5  1300     E  	adc a,rc
1447  05B6  0084        	mov sbp,a
1447  05B7  0700     E  	mov a,rd
1447  05B8  0082        	mov ir,a
1447  05B9  1483        	inc mp
1447  05BA  0700     E  	mov a,re
1447  05BB  0082        	mov ir,a
1449  05BC              #line 1449 "c:\users\longshuangmin\desktop\worke_space\g-501\g-501\OpMode_A.C"
1449  05BC  1400     E  	inca _M_Cbuf0[0]
1449  05BD  0080     E  	mov ra,a
1450  05BE              #line 1450 "c:\users\longshuangmin\desktop\worke_space\g-501\g-501\OpMode_A.C"
1450  05BE  0F03        	mov a,3
1450  05BF  0200     E  	sub a,ra
1450  05C0  380A        	snz c
1450  05C1  2800     R  	jmp _L89
文件：OpMode_A.C   编译器版本 HGASM 0202 页次76

1449  05C2              #line 1449 "c:\users\longshuangmin\desktop\worke_space\g-501\g-501\OpMode_A.C"
1449  05C2  0700     E  	mov a,ra
1449  05C3  0080     E  	mov _M_Cbuf0[0],a
1449  05C4  2800     R  	jmp _L90
1449  05C5              _L89:
1452  05C5              #line 1452 "c:\users\longshuangmin\desktop\worke_space\g-501\g-501\OpMode_A.C"
1452  05C5  1F00     E  	clr _M_Cbuf0[0]
1453  05C6              #line 1453 "c:\users\longshuangmin\desktop\worke_space\g-501\g-501\OpMode_A.C"
1453  05C6  0700     R  	mov a,_count[0]
1453  05C7  0080     E  	mov rb,a
1453  05C8  1F00     E  	clr rc
1453  05C9  1400     E  	inca rb
1453  05CA  0080     R  	mov _count[0],a
1453  05CB  340A        	clr c
1453  05CC  1A80     E  	rlc rb
1453  05CD  1A80     E  	rlc rc
1453  05CE  0F88        	mov a,low offset _work_time_buf
1453  05CF  0300     E  	add a,rb
1453  05D0  0083        	mov mp,a
1453  05D1  0F0A        	mov a,high offset _work_time_buf
1453  05D2  1300     E  	adc a,rc
1453  05D3  0084        	mov sbp,a
1453  05D4  C702 000A   	lmov a,[2690]
1453  05D6  0082        	mov ir,a
1453  05D7  1483        	inc mp
1453  05D8  C703 000A   	lmov a,[2691]
1453  05DA  0082        	mov ir,a
1453  05DB              _L90:
1470  05DB              #line 1470 "c:\users\longshuangmin\desktop\worke_space\g-501\g-501\OpMode_A.C"
1470  05DB  0700     E  	mov a,_M_Cbuf0[0]
1470  05DC              	fcall _Set_HCT_Adc_Channel
1470  05E3              _L88:
1473  05E3              #line 1473 "c:\users\longshuangmin\desktop\worke_space\g-501\g-501\OpMode_A.C"
1473  05E3  0F63        	mov a,99
1473  05E4  C202 000A   	lsub a,[2690]
1473  05E6  0F00        	mov a,0
1473  05E7  D203 000A   	lsbc a,[2691]
1473  05E9  3B8A        	snz sc
1473  05EA  2800     R  	jmp _L23
1475  05EB              #line 1475 "c:\users\longshuangmin\desktop\worke_space\g-501\g-501\OpMode_A.C"
1475  05EB  0F09        	mov a,9
1475  05EC  0080     E  	mov _M_TaskBuf0[0],a
1476  05ED              #line 1476 "c:\users\longshuangmin\desktop\worke_space\g-501\g-501\OpMode_A.C"
1476  05ED  1F00     E  	clr _M_TaskBuf1[0]
1478  05EE              #line 1478 "c:\users\longshuangmin\desktop\worke_space\g-501\g-501\OpMode_A.C"
1478  05EE  1F00     E  	clr _M_RTC_display[0]
1478  05EF  1F00     E  	clr _M_RTC_display[1]
1484  05F0              #line 1484 "c:\users\longshuangmin\desktop\worke_space\g-501\g-501\OpMode_A.C"
1484  05F0              	fcall _fun_ADCStop
1485  05F7              #line 1485 "c:\users\longshuangmin\desktop\worke_space\g-501\g-501\OpMode_A.C"
1485  05F7  1F78        	clr [120]
1486  05F8              #line 1486 "c:\users\longshuangmin\desktop\worke_space\g-501\g-501\OpMode_A.C"
1486  05F8  347F        	clr [127].0
1487  05F9              #line 1487 "c:\users\longshuangmin\desktop\worke_space\g-501\g-501\OpMode_A.C"
1487  05F9  34FF        	clr [127].1
1488  05FA              #line 1488 "c:\users\longshuangmin\desktop\worke_space\g-501\g-501\OpMode_A.C"
1488  05FA  367F        	clr [127].4
1489  05FB              #line 1489 "c:\users\longshuangmin\desktop\worke_space\g-501\g-501\OpMode_A.C"
1489  05FB  35FF        	clr [127].3
1491  05FC              #line 1491 "c:\users\longshuangmin\desktop\worke_space\g-501\g-501\OpMode_A.C"
文件：OpMode_A.C   编译器版本 HGASM 0202 页次77

1491  05FC  37FB        	clr [123].7
1491  05FD  36FC        	clr [124].5
1492  05FE              #line 1492 "c:\users\longshuangmin\desktop\worke_space\g-501\g-501\OpMode_A.C"
1492  05FE              	fcall _fun_StripModuleAllOpen
1493  0605              #line 1493 "c:\users\longshuangmin\desktop\worke_space\g-501\g-501\OpMode_A.C"
1493  0605  34F1        	clr [113].1
1493  0606  3471        	clr [113].0
1494  0607              #line 1494 "c:\users\longshuangmin\desktop\worke_space\g-501\g-501\OpMode_A.C"
1494  0607  35F1        	clr [113].3
1494  0608  3571        	clr [113].2
1495  0609              #line 1495 "c:\users\longshuangmin\desktop\worke_space\g-501\g-501\OpMode_A.C"
1495  0609  3678        	clr [120].4
1496  060A              #line 1496 "c:\users\longshuangmin\desktop\worke_space\g-501\g-501\OpMode_A.C"
1496  060A  35FF        	clr [127].3
1497  060B              #line 1497 "c:\users\longshuangmin\desktop\worke_space\g-501\g-501\OpMode_A.C"
1497  060B  357F        	clr [127].2
1499  060C              #line 1499 "c:\users\longshuangmin\desktop\worke_space\g-501\g-501\OpMode_A.C"
1499  060C  3595        	clr [21].3
1500  060D              #line 1500 "c:\users\longshuangmin\desktop\worke_space\g-501\g-501\OpMode_A.C"
1500  060D  3594        	clr [20].3
1511  060E              #line 1511 "c:\users\longshuangmin\desktop\worke_space\g-501\g-501\OpMode_A.C"
1511  060E  3170        	set [112].2
1511  060F  34F0        	clr [112].1
1511  0610  3470        	clr [112].0
1512  0611              #line 1512 "c:\users\longshuangmin\desktop\worke_space\g-501\g-501\OpMode_A.C"
1512  0611  32F0        	set [112].5
1512  0612  3670        	clr [112].4
1512  0613  35F0        	clr [112].3
1512  0614  2800     R  	jmp _L240
1512  0615              _L35:
1532  0615              #line 1532 "c:\users\longshuangmin\desktop\worke_space\g-501\g-501\OpMode_A.C"
1532  0615  0F58        	mov a,88
1532  0616  C202 000A   	lsub a,[2690]
1532  0618  0080     E  	mov rd,a
1532  0619  0F02        	mov a,2
1532  061A  D203 000A   	lsbc a,[2691]
1532  061C  0080     E  	mov re,a
1532  061D  0700     E  	mov a,rd
1532  061E  0080     E  	mov _builtin_holtek_udivmodhi4_2[0],a
1532  061F  0700     E  	mov a,re
1532  0620  0080     E  	mov _builtin_holtek_udivmodhi4_2[1],a
1532  0621  0F64        	mov a,100
1532  0622  0080     E  	mov _builtin_holtek_udivmodhi4_2[2],a
1532  0623  0F00        	mov a,0
1532  0624  0080     E  	mov _builtin_holtek_udivmodhi4_2[3],a
1532  0625              	fcall _builtin_holtek_divmodhi4
1532  062C  0700     E  	mov a,_builtin_holtek_udivmodhi4_2[4]
1532  062D  0080     E  	mov rb,a
1532  062E  0700     E  	mov a,_builtin_holtek_udivmodhi4_2[5]
1532  062F  0080     E  	mov rc,a
1532  0630  0700     E  	mov a,rb
1532  0631  0500     E  	or a,rc
1532  0632  390A        	snz z
1532  0633  2800     R  	jmp _L91
1532  0634  C702 000A   	lmov a,[2690]
1532  0636  0A58        	sub a,88
1532  0637  C703 000A   	lmov a,[2691]
1532  0639  0802        	sbc a,2
1532  063A  3F0A        	sz cz
1532  063B  2800     R  	jmp _L91
文件：OpMode_A.C   编译器版本 HGASM 0202 页次78

1537  063C              #line 1537 "c:\users\longshuangmin\desktop\worke_space\g-501\g-501\OpMode_A.C"
1537  063C  0F58        	mov a,88
1537  063D  C202 000A   	lsub a,[2690]
1537  063F  0080     E  	mov rd,a
1537  0640  0F02        	mov a,2
1537  0641  D203 000A   	lsbc a,[2691]
1537  0643  0080     E  	mov re,a
1537  0644  0700     E  	mov a,rd
1537  0645  0080     E  	mov _builtin_holtek_udivmodhi4_2[0],a
1537  0646  0700     E  	mov a,re
1537  0647  0080     E  	mov _builtin_holtek_udivmodhi4_2[1],a
1537  0648  0F64        	mov a,100
1537  0649  0080     E  	mov _builtin_holtek_udivmodhi4_2[2],a
1537  064A  0F00        	mov a,0
1537  064B  0080     E  	mov _builtin_holtek_udivmodhi4_2[3],a
1537  064C              	fcall _builtin_holtek_divmodhi4
1537  0653  0700     E  	mov a,_builtin_holtek_udivmodhi4_2[0]
1537  0654  0080     E  	mov rb,a
1537  0655  0700     E  	mov a,_builtin_holtek_udivmodhi4_2[1]
1537  0656  0080     E  	mov rc,a
1537  0657  1500     E  	deca rb
1537  0658  0080     R  	mov _dis[0],a
1539  0659              #line 1539 "c:\users\longshuangmin\desktop\worke_space\g-501\g-501\OpMode_A.C"
1539  0659  0700     R  	mov a,_dis[0]
1539  065A  0080     E  	mov ra,a
1539  065B  0700     E  	mov a,ra
1539  065C              	fcall _dis_nub2
1539  0663              _L91:
1545  0663              #line 1545 "c:\users\longshuangmin\desktop\worke_space\g-501\g-501\OpMode_A.C"
1545  0663  3A14        	snz [20].4
1545  0664  2800     R  	jmp _L92
1545  0665              _L96:
1547  0665              #line 1547 "c:\users\longshuangmin\desktop\worke_space\g-501\g-501\OpMode_A.C"
1547  0665  0F09        	mov a,9
1547  0666  2800     R  	jmp _L236
1547  0667              _L92:
1552  0667              #line 1552 "c:\users\longshuangmin\desktop\worke_space\g-501\g-501\OpMode_A.C"
1552  0667  0F5D        	mov a,93
1552  0668  C202 000A   	lsub a,[2690]
1552  066A  0F01        	mov a,1
1552  066B  D203 000A   	lsbc a,[2691]
1552  066D  3B8A        	snz sc
1552  066E  2800     R  	jmp _L23
1554  066F              #line 1554 "c:\users\longshuangmin\desktop\worke_space\g-501\g-501\OpMode_A.C"
1554  066F              	fcall _InitADC_Op1n1_Op1s1
1558  0676              #line 1558 "c:\users\longshuangmin\desktop\worke_space\g-501\g-501\OpMode_A.C"
1558  0676  3170        	set [112].2
1558  0677  34F0        	clr [112].1
1558  0678  3470        	clr [112].0
1559  0679              #line 1559 "c:\users\longshuangmin\desktop\worke_space\g-501\g-501\OpMode_A.C"
1559  0679  3216        	set [22].4
1561  067A              #line 1561 "c:\users\longshuangmin\desktop\worke_space\g-501\g-501\OpMode_A.C"
1561  067A              	fcall _fun_ADCStart
1563  0681              #line 1563 "c:\users\longshuangmin\desktop\worke_space\g-501\g-501\OpMode_A.C"
1563  0681  3170        	set [112].2
1563  0682  34F0        	clr [112].1
1563  0683  3470        	clr [112].0
1564  0684              #line 1564 "c:\users\longshuangmin\desktop\worke_space\g-501\g-501\OpMode_A.C"
1564  0684  32F0        	set [112].5
1564  0685  3670        	clr [112].4
文件：OpMode_A.C   编译器版本 HGASM 0202 页次79

1564  0686  35F0        	clr [112].3
1566  0687              #line 1566 "c:\users\longshuangmin\desktop\worke_space\g-501\g-501\OpMode_A.C"
1566  0687  0F0A        	mov a,10
1566  0688  0080     E  	mov _M_TaskBuf0[0],a
1567  0689              #line 1567 "c:\users\longshuangmin\desktop\worke_space\g-501\g-501\OpMode_A.C"
1567  0689  1F00     E  	clr _M_TaskBuf1[0]
1567  068A              _L240:
1569  068A              #line 1569 "c:\users\longshuangmin\desktop\worke_space\g-501\g-501\OpMode_A.C"
1569  068A  1F00     E  	clr _M_RTC_display[0]
1569  068B  1F00     E  	clr _M_RTC_display[1]
1569  068C  2800     R  	jmp _L23
1569  068D              _L36:
1579  068D              #line 1579 "c:\users\longshuangmin\desktop\worke_space\g-501\g-501\OpMode_A.C"
1579  068D  1F00     E  	clr _M_RTC_display[0]
1579  068E  1F00     E  	clr _M_RTC_display[1]
1580  068F              #line 1580 "c:\users\longshuangmin\desktop\worke_space\g-501\g-501\OpMode_A.C"
1580  068F  0F01        	mov a,1
1580  0690  C081 0012   	lmov [4737],a
1580  0692              _L103:
1581  0692              #line 1581 "c:\users\longshuangmin\desktop\worke_space\g-501\g-501\OpMode_A.C"
1581  0692  DE01 0012   	lsnz [4737]
1581  0694  2800     R  	jmp _L23
1584  0695              #line 1584 "c:\users\longshuangmin\desktop\worke_space\g-501\g-501\OpMode_A.C"
1584  0695  3800     E  	snz _Flag1[0].0
1584  0696  2800     R  	jmp _L94
1588  0697              #line 1588 "c:\users\longshuangmin\desktop\worke_space\g-501\g-501\OpMode_A.C"
1588  0697  3400     E  	clr _Flag1[0].0
1592  0698              #line 1592 "c:\users\longshuangmin\desktop\worke_space\g-501\g-501\OpMode_A.C"
1592  0698              ;# 1592 "c:\users\longshuangmin\desktop\worke_space\g-501\g-501\OpMode_A.C" 1
1592  0698  0001        	clr wdt
1596  0699              #line 1596 "c:\users\longshuangmin\desktop\worke_space\g-501\g-501\OpMode_A.C"
1596  0699  0F58        	mov a,88
1596  069A  C202 000A   	lsub a,[2690]
1596  069C  0080     E  	mov rd,a
1596  069D  0F02        	mov a,2
1596  069E  D203 000A   	lsbc a,[2691]
1596  06A0  0080     E  	mov re,a
1596  06A1  0700     E  	mov a,rd
1596  06A2  0080     E  	mov _builtin_holtek_udivmodhi4_2[0],a
1596  06A3  0700     E  	mov a,re
1596  06A4  0080     E  	mov _builtin_holtek_udivmodhi4_2[1],a
1596  06A5  0F64        	mov a,100
1596  06A6  0080     E  	mov _builtin_holtek_udivmodhi4_2[2],a
1596  06A7  0F00        	mov a,0
1596  06A8  0080     E  	mov _builtin_holtek_udivmodhi4_2[3],a
1596  06A9              	fcall _builtin_holtek_divmodhi4
1596  06B0  0700     E  	mov a,_builtin_holtek_udivmodhi4_2[4]
1596  06B1  0080     E  	mov rb,a
1596  06B2  0700     E  	mov a,_builtin_holtek_udivmodhi4_2[5]
1596  06B3  0080     E  	mov rc,a
1596  06B4  0700     E  	mov a,rb
1596  06B5  0500     E  	or a,rc
1596  06B6  390A        	snz z
1596  06B7  2800     R  	jmp _L95
1596  06B8  C702 000A   	lmov a,[2690]
1596  06BA  0A58        	sub a,88
1596  06BB  C703 000A   	lmov a,[2691]
1596  06BD  0802        	sbc a,2
1596  06BE  3F0A        	sz cz
1596  06BF  2800     R  	jmp _L95
文件：OpMode_A.C   编译器版本 HGASM 0202 页次80

1599  06C0              #line 1599 "c:\users\longshuangmin\desktop\worke_space\g-501\g-501\OpMode_A.C"
1599  06C0  0F58        	mov a,88
1599  06C1  C202 000A   	lsub a,[2690]
1599  06C3  0080     E  	mov rd,a
1599  06C4  0F02        	mov a,2
1599  06C5  D203 000A   	lsbc a,[2691]
1599  06C7  0080     E  	mov re,a
1599  06C8  0700     E  	mov a,rd
1599  06C9  0080     E  	mov _builtin_holtek_udivmodhi4_2[0],a
1599  06CA  0700     E  	mov a,re
1599  06CB  0080     E  	mov _builtin_holtek_udivmodhi4_2[1],a
1599  06CC  0F64        	mov a,100
1599  06CD  0080     E  	mov _builtin_holtek_udivmodhi4_2[2],a
1599  06CE  0F00        	mov a,0
1599  06CF  0080     E  	mov _builtin_holtek_udivmodhi4_2[3],a
1599  06D0              	fcall _builtin_holtek_divmodhi4
1599  06D7  0700     E  	mov a,_builtin_holtek_udivmodhi4_2[0]
1599  06D8  0080     E  	mov rb,a
1599  06D9  0700     E  	mov a,_builtin_holtek_udivmodhi4_2[1]
1599  06DA  0080     E  	mov rc,a
1599  06DB  1500     E  	deca rb
1599  06DC  0080     R  	mov _dis[0],a
1601  06DD              #line 1601 "c:\users\longshuangmin\desktop\worke_space\g-501\g-501\OpMode_A.C"
1601  06DD  0700     R  	mov a,_dis[0]
1601  06DE  0080     E  	mov ra,a
1601  06DF  0700     E  	mov a,ra
1601  06E0              	fcall _dis_nub2
1601  06E7              _L95:
1608  06E7              #line 1608 "c:\users\longshuangmin\desktop\worke_space\g-501\g-501\OpMode_A.C"
1608  06E7  3E14        	sz [20].4
1608  06E8  2800     R  	jmp _L96
1608  06E9              _L94:
1615  06E9              #line 1615 "c:\users\longshuangmin\desktop\worke_space\g-501\g-501\OpMode_A.C"
1615  06E9  3800     E  	snz _SDKADCSourceData[5].0
1615  06EA  2800     R  	jmp _L98
1618  06EB              #line 1618 "c:\users\longshuangmin\desktop\worke_space\g-501\g-501\OpMode_A.C"
1618  06EB  0700     E  	mov a,_SDKADCSourceData[0]
1618  06EC  0080     E  	mov rd,a
1618  06ED  0700     E  	mov a,_SDKADCSourceData[1]
1618  06EE  0080     E  	mov re,a
1618  06EF  0700     E  	mov a,_SDKADCSourceData[2]
1618  06F0  0080     E  	mov rf,a
1618  06F1  0700     E  	mov a,_SDKADCSourceData[3]
1618  06F2  0080     E  	mov rg,a
1618  06F3  0700     E  	mov a,rf
1618  06F4  0080     E  	mov rd,a
1618  06F5  0700     E  	mov a,rg
1618  06F6  0080     E  	mov re,a
1618  06F7  1F00     E  	clr rg
1618  06F8  3C00     E  	sz re.7
1618  06F9  1F80     E  	set rg
1618  06FA  1F00     E  	clr rf
1618  06FB  3C00     E  	sz re.7
1618  06FC  1F80     E  	set rf
1618  06FD  0700     E  	mov a,rd
1618  06FE  C080 000B   	lmov [2944],a
1618  0700  0700     E  	mov a,re
1618  0701  C081 000B   	lmov [2945],a
1619  0703              #line 1619 "c:\users\longshuangmin\desktop\worke_space\g-501\g-501\OpMode_A.C"
1619  0703  3400     E  	clr _SDKADCSourceData[5].0
文件：OpMode_A.C   编译器版本 HGASM 0202 页次81

1621  0704              #line 1621 "c:\users\longshuangmin\desktop\worke_space\g-501\g-501\OpMode_A.C"
1621  0704  C702 000A   	lmov a,[2690]
1621  0706  0080     E  	mov _builtin_holtek_udivmodhi4_2[0],a
1621  0707  C703 000A   	lmov a,[2691]
1621  0709  0080     E  	mov _builtin_holtek_udivmodhi4_2[1],a
1621  070A  0F0A        	mov a,10
1621  070B  0080     E  	mov _builtin_holtek_udivmodhi4_2[2],a
1621  070C  0F00        	mov a,0
1621  070D  0080     E  	mov _builtin_holtek_udivmodhi4_2[3],a
1621  070E              	fcall _builtin_holtek_divmodhi4
1621  0715  0700     E  	mov a,_builtin_holtek_udivmodhi4_2[4]
1621  0716  0080     E  	mov rb,a
1621  0717  0700     E  	mov a,_builtin_holtek_udivmodhi4_2[5]
1621  0718  0080     E  	mov rc,a
1621  0719  0700     E  	mov a,rb
1621  071A  0500     E  	or a,rc
1621  071B  390A        	snz z
1621  071C  2800     R  	jmp _L98
1621  071D  C706 000A   	lmov a,[2694]
1621  071F  C202 000A   	lsub a,[2690]
1621  0721  C707 000A   	lmov a,[2695]
1621  0723  D203 000A   	lsbc a,[2691]
1621  0725  3F0A        	sz cz
1621  0726  2800     R  	jmp _L98
1623  0727              #line 1623 "c:\users\longshuangmin\desktop\worke_space\g-501\g-501\OpMode_A.C"
1623  0727  C702 000A   	lmov a,[2690]
1623  0729  C086 000A   	lmov [2694],a
1623  072B  C703 000A   	lmov a,[2691]
1623  072D  C087 000A   	lmov [2695],a
1624  072F              #line 1624 "c:\users\longshuangmin\desktop\worke_space\g-501\g-501\OpMode_A.C"
1624  072F  C701 000B   	lmov a,[2945]
1624  0731  0080     E  	mov _builtin_holtek_mant1[1],a
1624  0732  C700 000B   	lmov a,[2944]
1624  0734  0080     E  	mov _builtin_holtek_mant1[0],a
1624  0735              	fcall _builtin_holtek_itod
1624  073C  0700     E  	mov a,_builtin_holtek_mant12p[0]
1624  073D  0080     R  	mov _proportion[3],a
1624  073E  0700     E  	mov a,_builtin_holtek_mant1[2]
1624  073F  0080     R  	mov _proportion[2],a
1624  0740  0700     E  	mov a,_builtin_holtek_mant1[1]
1624  0741  0080     R  	mov _proportion[1],a
1624  0742  0700     E  	mov a,_builtin_holtek_mant1[0]
1624  0743  0080     R  	mov _proportion[0],a
1626  0744              #line 1626 "c:\users\longshuangmin\desktop\worke_space\g-501\g-501\OpMode_A.C"
1626  0744  0700     R  	mov a,_proportion[3]
1626  0745  0080     E  	mov _builtin_holtek_mant12p[0],a
1626  0746  0700     R  	mov a,_proportion[2]
1626  0747  0080     E  	mov _builtin_holtek_mant1[2],a
1626  0748  0700     R  	mov a,_proportion[1]
1626  0749  0080     E  	mov _builtin_holtek_mant1[1],a
1626  074A  0700     R  	mov a,_proportion[0]
1626  074B  0080     E  	mov _builtin_holtek_mant1[0],a
1626  074C  C733 000E   	lmov a,[3763]
1626  074E  0080     E  	mov _builtin_holtek_mant12p[1],a
1626  074F  C732 000E   	lmov a,[3762]
1626  0751  0080     E  	mov _builtin_holtek_mant2[2],a
1626  0752  C731 000E   	lmov a,[3761]
1626  0754  0080     E  	mov _builtin_holtek_mant2[1],a
1626  0755  C730 000E   	lmov a,[3760]
1626  0757  0080     E  	mov _builtin_holtek_mant2[0],a
文件：OpMode_A.C   编译器版本 HGASM 0202 页次82

1626  0758              	fcall _builtin_holtek_dtdiv
1626  075F  0700     E  	mov a,_builtin_holtek_mant12p[0]
1626  0760  0080     R  	mov _proportion[3],a
1626  0761  0700     E  	mov a,_builtin_holtek_mant1[2]
1626  0762  0080     R  	mov _proportion[2],a
1626  0763  0700     E  	mov a,_builtin_holtek_mant1[1]
1626  0764  0080     R  	mov _proportion[1],a
1626  0765  0700     E  	mov a,_builtin_holtek_mant1[0]
1626  0766  0080     R  	mov _proportion[0],a
1628  0767              #line 1628 "c:\users\longshuangmin\desktop\worke_space\g-501\g-501\OpMode_A.C"
1628  0767  0700     R  	mov a,_proportion[0]
1628  0768  0080     E  	mov rd,a
1628  0769  0700     R  	mov a,_proportion[1]
1628  076A  0080     E  	mov re,a
1628  076B  0700     R  	mov a,_proportion[2]
1628  076C  0080     E  	mov rf,a
1628  076D  0700     R  	mov a,_proportion[3]
1628  076E  0080     E  	mov rg,a
1628  076F  0700     E  	mov a,rg
1628  0770  0080     E  	mov _builtin_holtek_mant12p[0],a
1628  0771  0700     E  	mov a,rf
1628  0772  0080     E  	mov _builtin_holtek_mant1[2],a
1628  0773  0700     E  	mov a,re
1628  0774  0080     E  	mov _builtin_holtek_mant1[1],a
1628  0775  0700     E  	mov a,rd
1628  0776  0080     E  	mov _builtin_holtek_mant1[0],a
1628  0777  0F4F        	mov a,79
1628  0778  0080     E  	mov _builtin_holtek_mant12p[1],a
1628  0779  0F00        	mov a,0
1628  077A  0080     E  	mov _builtin_holtek_mant2[2],a
1628  077B  0F00        	mov a,0
1628  077C  0080     E  	mov _builtin_holtek_mant2[1],a
1628  077D  0F00        	mov a,0
1628  077E  0080     E  	mov _builtin_holtek_mant2[0],a
1628  077F              	fcall _builtin_holtek_dtsub
1628  0786  3800     E  	snz _builtin_holtek_mant12p[0].7
1628  0787  2800     R  	jmp _L100
1628  0788  0700     E  	mov a,rg
1628  0789  0080     E  	mov _builtin_holtek_mant12p[0],a
1628  078A  0700     E  	mov a,rf
1628  078B  0080     E  	mov _builtin_holtek_mant1[2],a
1628  078C  0700     E  	mov a,re
1628  078D  0080     E  	mov _builtin_holtek_mant1[1],a
1628  078E  0700     E  	mov a,rd
1628  078F  0080     E  	mov _builtin_holtek_mant1[0],a
1628  0790              	fcall _builtin_holtek_dtol
1628  0797  0700     E  	mov a,_builtin_holtek_mant12p[0]
1628  0798  0080     E  	mov rg,a
1628  0799  0700     E  	mov a,_builtin_holtek_mant1[2]
1628  079A  0080     E  	mov rf,a
1628  079B  0700     E  	mov a,_builtin_holtek_mant1[1]
1628  079C  0080     E  	mov re,a
1628  079D  0700     E  	mov a,_builtin_holtek_mant1[0]
1628  079E  0080     E  	mov rd,a
1628  079F  2800     R  	jmp _L101
1628  07A0              _L100:
1628  07A0  0700     E  	mov a,rg
1628  07A1  0080     E  	mov _builtin_holtek_mant12p[0],a
1628  07A2  0700     E  	mov a,rf
1628  07A3  0080     E  	mov _builtin_holtek_mant1[2],a
文件：OpMode_A.C   编译器版本 HGASM 0202 页次83

1628  07A4  0700     E  	mov a,re
1628  07A5  0080     E  	mov _builtin_holtek_mant1[1],a
1628  07A6  0700     E  	mov a,rd
1628  07A7  0080     E  	mov _builtin_holtek_mant1[0],a
1628  07A8  0F4F        	mov a,79
1628  07A9  0080     E  	mov _builtin_holtek_mant12p[1],a
1628  07AA  0F00        	mov a,0
1628  07AB  0080     E  	mov _builtin_holtek_mant2[2],a
1628  07AC  0F00        	mov a,0
1628  07AD  0080     E  	mov _builtin_holtek_mant2[1],a
1628  07AE  0F00        	mov a,0
1628  07AF  0080     E  	mov _builtin_holtek_mant2[0],a
1628  07B0              	fcall _builtin_holtek_dtsub
1628  07B7  0700     E  	mov a,_builtin_holtek_mant12p[0]
1628  07B8  0080     E  	mov rg,a
1628  07B9  0700     E  	mov a,_builtin_holtek_mant1[2]
1628  07BA  0080     E  	mov rf,a
1628  07BB  0700     E  	mov a,_builtin_holtek_mant1[1]
1628  07BC  0080     E  	mov re,a
1628  07BD  0700     E  	mov a,_builtin_holtek_mant1[0]
1628  07BE  0080     E  	mov rd,a
1628  07BF  0700     E  	mov a,rg
1628  07C0  0080     E  	mov _builtin_holtek_mant12p[0],a
1628  07C1  0700     E  	mov a,rf
1628  07C2  0080     E  	mov _builtin_holtek_mant1[2],a
1628  07C3  0700     E  	mov a,re
1628  07C4  0080     E  	mov _builtin_holtek_mant1[1],a
1628  07C5  0700     E  	mov a,rd
1628  07C6  0080     E  	mov _builtin_holtek_mant1[0],a
1628  07C7              	fcall _builtin_holtek_dtol
1628  07CE  0700     E  	mov a,_builtin_holtek_mant12p[0]
1628  07CF  0080     E  	mov rg,a
1628  07D0  0700     E  	mov a,_builtin_holtek_mant1[2]
1628  07D1  0080     E  	mov rf,a
1628  07D2  0700     E  	mov a,_builtin_holtek_mant1[1]
1628  07D3  0080     E  	mov re,a
1628  07D4  0700     E  	mov a,_builtin_holtek_mant1[0]
1628  07D5  0080     E  	mov rd,a
1628  07D6  0F00        	mov a,0
1628  07D7  0380     E  	addm a,rd
1628  07D8  1380     E  	adcm a,re
1628  07D9  1380     E  	adcm a,rf
1628  07DA  0F80        	mov a,128
1628  07DB  1380     E  	adcm a,rg
1628  07DC              _L101:
1628  07DC  0700     E  	mov a,rd
1628  07DD  0080     E  	mov _M_Lbuf0[0],a
1628  07DE  0700     E  	mov a,re
1628  07DF  0080     E  	mov _M_Lbuf0[1],a
1628  07E0  0700     E  	mov a,rf
1628  07E1  0080     E  	mov _M_Lbuf0[2],a
1628  07E2  0700     E  	mov a,rg
1628  07E3  0080     E  	mov _M_Lbuf0[3],a
1631  07E4              #line 1631 "c:\users\longshuangmin\desktop\worke_space\g-501\g-501\OpMode_A.C"
1631  07E4  1F00     E  	clr _ADCtoCurrent_Convert_2[4]
1631  07E5  1F00     E  	clr _ADCtoCurrent_Convert_2[5]
1631  07E6  0F88        	mov a,-120
1631  07E7  0080     E  	mov _ADCtoCurrent_Convert_2[6],a
1631  07E8  0F42        	mov a,66
1631  07E9  0080     E  	mov _ADCtoCurrent_Convert_2[7],a
文件：OpMode_A.C   编译器版本 HGASM 0202 页次84

1631  07EA  0700     E  	mov a,rd
1631  07EB  0080     E  	mov _ADCtoCurrent_Convert_2[0],a
1631  07EC  0700     E  	mov a,re
1631  07ED  0080     E  	mov _ADCtoCurrent_Convert_2[1],a
1631  07EE  0700     E  	mov a,rf
1631  07EF  0080     E  	mov _ADCtoCurrent_Convert_2[2],a
1631  07F0  0700     E  	mov a,rg
1631  07F1  0080     E  	mov _ADCtoCurrent_Convert_2[3],a
1631  07F2              	fcall _ADCtoCurrent_Convert
1631  07F9  0700     E  	mov a,rd
1631  07FA  0080     E  	mov _builtin_holtek_mant12p[0],a
1631  07FB  0700     E  	mov a,rc
1631  07FC  0080     E  	mov _builtin_holtek_mant1[2],a
1631  07FD  0700     E  	mov a,rb
1631  07FE  0080     E  	mov _builtin_holtek_mant1[1],a
1631  07FF  0700     E  	mov a,ra
1631  0800  0080     E  	mov _builtin_holtek_mant1[0],a
1631  0801              	fcall _builtin_holtek_dtol
1631  0808  0700     E  	mov a,_builtin_holtek_mant12p[0]
1631  0809  0080     E  	mov rg,a
1631  080A  0700     E  	mov a,_builtin_holtek_mant1[2]
1631  080B  0080     E  	mov rf,a
1631  080C  0700     E  	mov a,_builtin_holtek_mant1[1]
1631  080D  0080     E  	mov re,a
1631  080E  0700     E  	mov a,_builtin_holtek_mant1[0]
1631  080F  0080     E  	mov rd,a
1631  0810  0700     E  	mov a,rd
1631  0811  0080     E  	mov _M_Current[0],a
1631  0812  0700     E  	mov a,re
1631  0813  0080     E  	mov _M_Current[1],a
1632  0814              #line 1632 "c:\users\longshuangmin\desktop\worke_space\g-501\g-501\OpMode_A.C"
1632  0814  0700     E  	mov a,re
1632  0815  0080     E  	mov _builtin_holtek_mant1[1],a
1632  0816  0700     E  	mov a,rd
1632  0817  0080     E  	mov _builtin_holtek_mant1[0],a
1632  0818  3400     E  	clr _builtin_holtek_signs.0
1632  0819              	fcall _builtin_holtek_uitod
1632  0820  0700     E  	mov a,_builtin_holtek_mant12p[0]
1632  0821  C0B0 000D   	lmov [3504],a
1632  0823  0700     E  	mov a,_builtin_holtek_mant1[2]
1632  0824  C0AF 000D   	lmov [3503],a
1632  0826  0700     E  	mov a,_builtin_holtek_mant1[1]
1632  0827  C0AE 000D   	lmov [3502],a
1632  0829  0700     E  	mov a,_builtin_holtek_mant1[0]
1632  082A  C0AD 000D   	lmov [3501],a
1633  082C              #line 1633 "c:\users\longshuangmin\desktop\worke_space\g-501\g-501\OpMode_A.C"
1633  082C  C730 000D   	lmov a,[3504]
1633  082E  0080     E  	mov _builtin_holtek_mant12p[0],a
1633  082F  C72F 000D   	lmov a,[3503]
1633  0831  0080     E  	mov _builtin_holtek_mant1[2],a
1633  0832  C72E 000D   	lmov a,[3502]
1633  0834  0080     E  	mov _builtin_holtek_mant1[1],a
1633  0835  C72D 000D   	lmov a,[3501]
1633  0837  0080     E  	mov _builtin_holtek_mant1[0],a
1633  0838  0F44        	mov a,68
1633  0839  0080     E  	mov _builtin_holtek_mant12p[1],a
1633  083A  0F7A        	mov a,122
1633  083B  0080     E  	mov _builtin_holtek_mant2[2],a
1633  083C  0F00        	mov a,0
1633  083D  0080     E  	mov _builtin_holtek_mant2[1],a
文件：OpMode_A.C   编译器版本 HGASM 0202 页次85

1633  083E  0F00        	mov a,0
1633  083F  0080     E  	mov _builtin_holtek_mant2[0],a
1633  0840              	fcall _builtin_holtek_dtdiv
1633  0847  0700     E  	mov a,_builtin_holtek_mant12p[0]
1633  0848  C0B0 000D   	lmov [3504],a
1633  084A  0700     E  	mov a,_builtin_holtek_mant1[2]
1633  084B  C0AF 000D   	lmov [3503],a
1633  084D  0700     E  	mov a,_builtin_holtek_mant1[1]
1633  084E  C0AE 000D   	lmov [3502],a
1633  0850  0700     E  	mov a,_builtin_holtek_mant1[0]
1633  0851  C0AD 000D   	lmov [3501],a
1633  0853              _L98:
1642  0853              #line 1642 "c:\users\longshuangmin\desktop\worke_space\g-501\g-501\OpMode_A.C"
1642  0853  0F57        	mov a,87
1642  0854  C202 000A   	lsub a,[2690]
1642  0856  0F02        	mov a,2
1642  0857  D203 000A   	lsbc a,[2691]
1642  0859  3B8A        	snz sc
1642  085A  2800     R  	jmp _L103
1644  085B              #line 1644 "c:\users\longshuangmin\desktop\worke_space\g-501\g-501\OpMode_A.C"
1644  085B  C701 000B   	lmov a,[2945]
1644  085D  0080     E  	mov _builtin_holtek_mant1[1],a
1644  085E  C700 000B   	lmov a,[2944]
1644  0860  0080     E  	mov _builtin_holtek_mant1[0],a
1644  0861              	fcall _builtin_holtek_itod
1644  0868  0700     E  	mov a,_builtin_holtek_mant12p[0]
1644  0869  0080     R  	mov _proportion[7],a
1644  086A  0700     E  	mov a,_builtin_holtek_mant1[2]
1644  086B  0080     R  	mov _proportion[6],a
1644  086C  0700     E  	mov a,_builtin_holtek_mant1[1]
1644  086D  0080     R  	mov _proportion[5],a
1644  086E  0700     E  	mov a,_builtin_holtek_mant1[0]
1644  086F  0080     R  	mov _proportion[4],a
1645  0870              #line 1645 "c:\users\longshuangmin\desktop\worke_space\g-501\g-501\OpMode_A.C"
1645  0870  0F0B        	mov a,11
1645  0871  0080     E  	mov _M_TaskBuf0[0],a
1646  0872              #line 1646 "c:\users\longshuangmin\desktop\worke_space\g-501\g-501\OpMode_A.C"
1646  0872              	fcall _fun_ADCStop
1648  0879              #line 1648 "c:\users\longshuangmin\desktop\worke_space\g-501\g-501\OpMode_A.C"
1648  0879  0F02        	mov a,2
1648  087A  0080     E  	mov _fun_DACnInit_2[0],a
1648  087B  1F00     E  	clr _fun_DACnInit_2[1]
1648  087C  0F01        	mov a,1
1648  087D              	fcall _fun_DACnInit
1651  0884              #line 1651 "c:\users\longshuangmin\desktop\worke_space\g-501\g-501\OpMode_A.C"
1651  0884  36ED        	clr [109].5
1652  0885              #line 1652 "c:\users\longshuangmin\desktop\worke_space\g-501\g-501\OpMode_A.C"
1652  0885  36EE        	clr [110].5
1653  0886              #line 1653 "c:\users\longshuangmin\desktop\worke_space\g-501\g-501\OpMode_A.C"
1653  0886  37FB        	clr [123].7
1653  0887  36FC        	clr [124].5
1654  0888              #line 1654 "c:\users\longshuangmin\desktop\worke_space\g-501\g-501\OpMode_A.C"
1654  0888  34F1        	clr [113].1
1654  0889  3471        	clr [113].0
1655  088A              #line 1655 "c:\users\longshuangmin\desktop\worke_space\g-501\g-501\OpMode_A.C"
1655  088A  35F1        	clr [113].3
1655  088B  3571        	clr [113].2
1656  088C              #line 1656 "c:\users\longshuangmin\desktop\worke_space\g-501\g-501\OpMode_A.C"
1656  088C  3678        	clr [120].4
1657  088D              #line 1657 "c:\users\longshuangmin\desktop\worke_space\g-501\g-501\OpMode_A.C"
文件：OpMode_A.C   编译器版本 HGASM 0202 页次86

1657  088D  DF01 0012   	lclr [4737]
1657  088F  2800     R  	jmp _L103
1657  0890              _L37:
1668  0890              #line 1668 "c:\users\longshuangmin\desktop\worke_space\g-501\g-501\OpMode_A.C"
1668  0890  0700     R  	mov a,_proportion[7]
1668  0891  0080     E  	mov _builtin_holtek_mant12p[0],a
1668  0892  0700     R  	mov a,_proportion[6]
1668  0893  0080     E  	mov _builtin_holtek_mant1[2],a
1668  0894  0700     R  	mov a,_proportion[5]
1668  0895  0080     E  	mov _builtin_holtek_mant1[1],a
1668  0896  0700     R  	mov a,_proportion[4]
1668  0897  0080     E  	mov _builtin_holtek_mant1[0],a
1668  0898  C733 000E   	lmov a,[3763]
1668  089A  0080     E  	mov _builtin_holtek_mant12p[1],a
1668  089B  C732 000E   	lmov a,[3762]
1668  089D  0080     E  	mov _builtin_holtek_mant2[2],a
1668  089E  C731 000E   	lmov a,[3761]
1668  08A0  0080     E  	mov _builtin_holtek_mant2[1],a
1668  08A1  C730 000E   	lmov a,[3760]
1668  08A3  0080     E  	mov _builtin_holtek_mant2[0],a
1668  08A4              	fcall _builtin_holtek_dtdiv
1668  08AB  0700     E  	mov a,_builtin_holtek_mant12p[0]
1668  08AC  0080     R  	mov _proportion[7],a
1668  08AD  0700     E  	mov a,_builtin_holtek_mant1[2]
1668  08AE  0080     R  	mov _proportion[6],a
1668  08AF  0700     E  	mov a,_builtin_holtek_mant1[1]
1668  08B0  0080     R  	mov _proportion[5],a
1668  08B1  0700     E  	mov a,_builtin_holtek_mant1[0]
1668  08B2  0080     R  	mov _proportion[4],a
1670  08B3              #line 1670 "c:\users\longshuangmin\desktop\worke_space\g-501\g-501\OpMode_A.C"
1670  08B3  0700     R  	mov a,_proportion[4]
1670  08B4  0080     E  	mov rd,a
1670  08B5  0700     R  	mov a,_proportion[5]
1670  08B6  0080     E  	mov re,a
1670  08B7  0700     R  	mov a,_proportion[6]
1670  08B8  0080     E  	mov rf,a
1670  08B9  0700     R  	mov a,_proportion[7]
1670  08BA  0080     E  	mov rg,a
1670  08BB  0700     E  	mov a,rg
1670  08BC  0080     E  	mov _builtin_holtek_mant12p[0],a
1670  08BD  0700     E  	mov a,rf
1670  08BE  0080     E  	mov _builtin_holtek_mant1[2],a
1670  08BF  0700     E  	mov a,re
1670  08C0  0080     E  	mov _builtin_holtek_mant1[1],a
1670  08C1  0700     E  	mov a,rd
1670  08C2  0080     E  	mov _builtin_holtek_mant1[0],a
1670  08C3  0F4F        	mov a,79
1670  08C4  0080     E  	mov _builtin_holtek_mant12p[1],a
1670  08C5  0F00        	mov a,0
1670  08C6  0080     E  	mov _builtin_holtek_mant2[2],a
1670  08C7  0F00        	mov a,0
1670  08C8  0080     E  	mov _builtin_holtek_mant2[1],a
1670  08C9  0F00        	mov a,0
1670  08CA  0080     E  	mov _builtin_holtek_mant2[0],a
1670  08CB              	fcall _builtin_holtek_dtsub
1670  08D2  3800     E  	snz _builtin_holtek_mant12p[0].7
1670  08D3  2800     R  	jmp _L105
1670  08D4  0700     E  	mov a,rg
1670  08D5  0080     E  	mov _builtin_holtek_mant12p[0],a
1670  08D6  0700     E  	mov a,rf
文件：OpMode_A.C   编译器版本 HGASM 0202 页次87

1670  08D7  0080     E  	mov _builtin_holtek_mant1[2],a
1670  08D8  0700     E  	mov a,re
1670  08D9  0080     E  	mov _builtin_holtek_mant1[1],a
1670  08DA  0700     E  	mov a,rd
1670  08DB  0080     E  	mov _builtin_holtek_mant1[0],a
1670  08DC              	fcall _builtin_holtek_dtol
1670  08E3  0700     E  	mov a,_builtin_holtek_mant12p[0]
1670  08E4  0080     E  	mov rg,a
1670  08E5  0700     E  	mov a,_builtin_holtek_mant1[2]
1670  08E6  0080     E  	mov rf,a
1670  08E7  0700     E  	mov a,_builtin_holtek_mant1[1]
1670  08E8  0080     E  	mov re,a
1670  08E9  0700     E  	mov a,_builtin_holtek_mant1[0]
1670  08EA  0080     E  	mov rd,a
1670  08EB  2800     R  	jmp _L106
1670  08EC              _L105:
1670  08EC  0700     E  	mov a,rg
1670  08ED  0080     E  	mov _builtin_holtek_mant12p[0],a
1670  08EE  0700     E  	mov a,rf
1670  08EF  0080     E  	mov _builtin_holtek_mant1[2],a
1670  08F0  0700     E  	mov a,re
1670  08F1  0080     E  	mov _builtin_holtek_mant1[1],a
1670  08F2  0700     E  	mov a,rd
1670  08F3  0080     E  	mov _builtin_holtek_mant1[0],a
1670  08F4  0F4F        	mov a,79
1670  08F5  0080     E  	mov _builtin_holtek_mant12p[1],a
1670  08F6  0F00        	mov a,0
1670  08F7  0080     E  	mov _builtin_holtek_mant2[2],a
1670  08F8  0F00        	mov a,0
1670  08F9  0080     E  	mov _builtin_holtek_mant2[1],a
1670  08FA  0F00        	mov a,0
1670  08FB  0080     E  	mov _builtin_holtek_mant2[0],a
1670  08FC              	fcall _builtin_holtek_dtsub
1670  0903  0700     E  	mov a,_builtin_holtek_mant12p[0]
1670  0904  0080     E  	mov rg,a
1670  0905  0700     E  	mov a,_builtin_holtek_mant1[2]
1670  0906  0080     E  	mov rf,a
1670  0907  0700     E  	mov a,_builtin_holtek_mant1[1]
1670  0908  0080     E  	mov re,a
1670  0909  0700     E  	mov a,_builtin_holtek_mant1[0]
1670  090A  0080     E  	mov rd,a
1670  090B  0700     E  	mov a,rg
1670  090C  0080     E  	mov _builtin_holtek_mant12p[0],a
1670  090D  0700     E  	mov a,rf
1670  090E  0080     E  	mov _builtin_holtek_mant1[2],a
1670  090F  0700     E  	mov a,re
1670  0910  0080     E  	mov _builtin_holtek_mant1[1],a
1670  0911  0700     E  	mov a,rd
1670  0912  0080     E  	mov _builtin_holtek_mant1[0],a
1670  0913              	fcall _builtin_holtek_dtol
1670  091A  0700     E  	mov a,_builtin_holtek_mant12p[0]
1670  091B  0080     E  	mov rg,a
1670  091C  0700     E  	mov a,_builtin_holtek_mant1[2]
1670  091D  0080     E  	mov rf,a
1670  091E  0700     E  	mov a,_builtin_holtek_mant1[1]
1670  091F  0080     E  	mov re,a
1670  0920  0700     E  	mov a,_builtin_holtek_mant1[0]
1670  0921  0080     E  	mov rd,a
1670  0922  0F00        	mov a,0
1670  0923  0380     E  	addm a,rd
文件：OpMode_A.C   编译器版本 HGASM 0202 页次88

1670  0924  1380     E  	adcm a,re
1670  0925  1380     E  	adcm a,rf
1670  0926  0F80        	mov a,128
1670  0927  1380     E  	adcm a,rg
1670  0928              _L106:
1670  0928  0700     E  	mov a,rd
1670  0929  0080     E  	mov _M_Lbuf0[0],a
1670  092A  0700     E  	mov a,re
1670  092B  0080     E  	mov _M_Lbuf0[1],a
1670  092C  0700     E  	mov a,rf
1670  092D  0080     E  	mov _M_Lbuf0[2],a
1670  092E  0700     E  	mov a,rg
1670  092F  0080     E  	mov _M_Lbuf0[3],a
1673  0930              #line 1673 "c:\users\longshuangmin\desktop\worke_space\g-501\g-501\OpMode_A.C"
1673  0930  1F00     E  	clr _ADCtoCurrent_Convert_2[4]
1673  0931  1F00     E  	clr _ADCtoCurrent_Convert_2[5]
1673  0932  0F88        	mov a,-120
1673  0933  0080     E  	mov _ADCtoCurrent_Convert_2[6],a
1673  0934  0F42        	mov a,66
1673  0935  0080     E  	mov _ADCtoCurrent_Convert_2[7],a
1673  0936  0700     E  	mov a,rd
1673  0937  0080     E  	mov _ADCtoCurrent_Convert_2[0],a
1673  0938  0700     E  	mov a,re
1673  0939  0080     E  	mov _ADCtoCurrent_Convert_2[1],a
1673  093A  0700     E  	mov a,rf
1673  093B  0080     E  	mov _ADCtoCurrent_Convert_2[2],a
1673  093C  0700     E  	mov a,rg
1673  093D  0080     E  	mov _ADCtoCurrent_Convert_2[3],a
1673  093E              	fcall _ADCtoCurrent_Convert
1673  0945  0700     E  	mov a,rd
1673  0946  0080     E  	mov _builtin_holtek_mant12p[0],a
1673  0947  0700     E  	mov a,rc
1673  0948  0080     E  	mov _builtin_holtek_mant1[2],a
1673  0949  0700     E  	mov a,rb
1673  094A  0080     E  	mov _builtin_holtek_mant1[1],a
1673  094B  0700     E  	mov a,ra
1673  094C  0080     E  	mov _builtin_holtek_mant1[0],a
1673  094D              	fcall _builtin_holtek_dtol
1673  0954  0700     E  	mov a,_builtin_holtek_mant12p[0]
1673  0955  0080     E  	mov rg,a
1673  0956  0700     E  	mov a,_builtin_holtek_mant1[2]
1673  0957  0080     E  	mov rf,a
1673  0958  0700     E  	mov a,_builtin_holtek_mant1[1]
1673  0959  0080     E  	mov re,a
1673  095A  0700     E  	mov a,_builtin_holtek_mant1[0]
1673  095B  0080     E  	mov rd,a
1673  095C  0700     E  	mov a,rd
1673  095D  0080     E  	mov _M_Current[0],a
1673  095E  0700     E  	mov a,re
1673  095F  0080     E  	mov _M_Current[1],a
1676  0960              #line 1676 "c:\users\longshuangmin\desktop\worke_space\g-501\g-501\OpMode_A.C"
1676  0960  3420        	clr [32].0
1678  0961              #line 1678 "c:\users\longshuangmin\desktop\worke_space\g-501\g-501\OpMode_A.C"
1678  0961              ;# 1678 "c:\users\longshuangmin\desktop\worke_space\g-501\g-501\OpMode_A.C" 1
1678  0961  0001        	clr wdt
1687  0962              #line 1687 "c:\users\longshuangmin\desktop\worke_space\g-501\g-501\OpMode_A.C"
1687  0962  C713 000E   	lmov a,[3731]
1687  0964  0BFC        	add a,252
1687  0965  0080     E  	mov rb,a
1686  0966              #line 1686 "c:\users\longshuangmin\desktop\worke_space\g-501\g-501\OpMode_A.C"
文件：OpMode_A.C   编译器版本 HGASM 0202 页次89

1686  0966  C713 000E   	lmov a,[3731]
1686  0968  0E03        	and a,3
1686  0969  0080     E  	mov ra,a
1687  096A              #line 1687 "c:\users\longshuangmin\desktop\worke_space\g-501\g-501\OpMode_A.C"
1687  096A  0700     E  	mov a,rb
1687  096B  0200     E  	sub a,ra
1687  096C  C093 000E   	lmov [3731],a
1688  096E              #line 1688 "c:\users\longshuangmin\desktop\worke_space\g-501\g-501\OpMode_A.C"
1688  096E  C713 000E   	lmov a,[3731]
1688  0970  0080     E  	mov rb,a
1688  0971  1F00     E  	clr rc
1688  0972  340A        	clr c
1688  0973  1A80     E  	rlc rb
1688  0974  1A80     E  	rlc rc
1688  0975  0F80        	mov a,low offset _M_Impedance_data
1688  0976  0300     E  	add a,rb
1688  0977  0080     E  	mov _Impedance_Compute_2[0],a
1688  0978  0F08        	mov a,high offset _M_Impedance_data
1688  0979  1300     E  	adc a,rc
1688  097A  0080     E  	mov _Impedance_Compute_2[1],a
1688  097B              	fcall _Impedance_Compute
1688  0982  0700     E  	mov a,ra
1688  0983  0080     E  	mov _M_Impedance[0],a
1688  0984  0700     E  	mov a,rb
1688  0985  0080     E  	mov _M_Impedance[1],a
1688  0986  0700     E  	mov a,rc
1688  0987  0080     E  	mov _M_Impedance[2],a
1688  0988  0700     E  	mov a,rd
1688  0989  0080     E  	mov _M_Impedance[3],a
1689  098A              #line 1689 "c:\users\longshuangmin\desktop\worke_space\g-501\g-501\OpMode_A.C"
1689  098A              ;# 1689 "c:\users\longshuangmin\desktop\worke_space\g-501\g-501\OpMode_A.C" 1
1689  098A  0001        	clr wdt
1690  098B              #line 1690 "c:\users\longshuangmin\desktop\worke_space\g-501\g-501\OpMode_A.C"
1690  098B              	fcall _load_autoCode_data
1691  0992              #line 1691 "c:\users\longshuangmin\desktop\worke_space\g-501\g-501\OpMode_A.C"
1691  0992  3020        	set [32].0
1692  0993              #line 1692 "c:\users\longshuangmin\desktop\worke_space\g-501\g-501\OpMode_A.C"
1692  0993  0700     E  	mov a,_M_Impedance[0]
1692  0994  0080     E  	mov rd,a
1692  0995  0700     E  	mov a,_M_Impedance[1]
1692  0996  0080     E  	mov re,a
1692  0997  0700     E  	mov a,_M_Impedance[2]
1692  0998  0080     E  	mov rf,a
1692  0999  0700     E  	mov a,_M_Impedance[3]
1692  099A  0080     E  	mov rg,a
1692  099B  0700     E  	mov a,rg
1692  099C  0080     E  	mov _builtin_holtek_mant12p[0],a
1692  099D  0700     E  	mov a,rf
1692  099E  0080     E  	mov _builtin_holtek_mant1[2],a
1692  099F  0700     E  	mov a,re
1692  09A0  0080     E  	mov _builtin_holtek_mant1[1],a
1692  09A1  0700     E  	mov a,rd
1692  09A2  0080     E  	mov _builtin_holtek_mant1[0],a
1692  09A3  C712 000D   	lmov a,[3474]
1692  09A5  0080     E  	mov _builtin_holtek_mant12p[1],a
1692  09A6  C711 000D   	lmov a,[3473]
1692  09A8  0080     E  	mov _builtin_holtek_mant2[2],a
1692  09A9  C710 000D   	lmov a,[3472]
1692  09AB  0080     E  	mov _builtin_holtek_mant2[1],a
1692  09AC  C70F 000D   	lmov a,[3471]
文件：OpMode_A.C   编译器版本 HGASM 0202 页次90

1692  09AE  0080     E  	mov _builtin_holtek_mant2[0],a
1692  09AF              	fcall _builtin_holtek_dtsub
1692  09B6  3C00     E  	sz _builtin_holtek_mant12p[0].7
1692  09B7  2800     R  	jmp _LI25
1692  09B8  0700     E  	mov a,_builtin_holtek_mant12p[0]
1692  09B9  0500     E  	or a,_builtin_holtek_mant1[2]
1692  09BA  0500     E  	or a,_builtin_holtek_mant1[1]
1692  09BB  0500     E  	or a,_builtin_holtek_mant1[0]
1692  09BC  390A        	snz z
1692  09BD  2800     R  	jmp _L165
1692  09BE              _LI25:
1692  09BE  2800     R  	jmp _L245
1692  09BF              _L165:
1694  09BF              #line 1694 "c:\users\longshuangmin\desktop\worke_space\g-501\g-501\OpMode_A.C"
1694  09BF  0F00        	mov a,0
1694  09C0              	fcall _LCD_Clear
1695  09C7              #line 1695 "c:\users\longshuangmin\desktop\worke_space\g-501\g-501\OpMode_A.C"
1695  09C7  0F0A        	mov a,10
1695  09C8  2800     R  	jmp _L236
1695  09C9              _L245:
1700  09C9              #line 1700 "c:\users\longshuangmin\desktop\worke_space\g-501\g-501\OpMode_A.C"
1700  09C9  0700     E  	mov a,_M_Temperature[1]
1700  09CA  0080     E  	mov _builtin_holtek_mant1[1],a
1700  09CB  0700     E  	mov a,_M_Temperature[0]
1700  09CC  0080     E  	mov _builtin_holtek_mant1[0],a
1700  09CD  3400     E  	clr _builtin_holtek_signs.0
1700  09CE              	fcall _builtin_holtek_uitod
1700  09D5  0700     E  	mov a,_builtin_holtek_mant12p[0]
1700  09D6  C0AC 000D   	lmov [3500],a
1700  09D8  0700     E  	mov a,_builtin_holtek_mant1[2]
1700  09D9  C0AB 000D   	lmov [3499],a
1700  09DB  0700     E  	mov a,_builtin_holtek_mant1[1]
1700  09DC  C0AA 000D   	lmov [3498],a
1700  09DE  0700     E  	mov a,_builtin_holtek_mant1[0]
1700  09DF  C0A9 000D   	lmov [3497],a
1701  09E1              #line 1701 "c:\users\longshuangmin\desktop\worke_space\g-501\g-501\OpMode_A.C"
1701  09E1  C72C 000D   	lmov a,[3500]
1701  09E3  0080     E  	mov _builtin_holtek_mant12p[0],a
1701  09E4  C72B 000D   	lmov a,[3499]
1701  09E6  0080     E  	mov _builtin_holtek_mant1[2],a
1701  09E7  C72A 000D   	lmov a,[3498]
1701  09E9  0080     E  	mov _builtin_holtek_mant1[1],a
1701  09EA  C729 000D   	lmov a,[3497]
1701  09EC  0080     E  	mov _builtin_holtek_mant1[0],a
1701  09ED  0F41        	mov a,65
1701  09EE  0080     E  	mov _builtin_holtek_mant12p[1],a
1701  09EF  0F20        	mov a,32
1701  09F0  0080     E  	mov _builtin_holtek_mant2[2],a
1701  09F1  0F00        	mov a,0
1701  09F2  0080     E  	mov _builtin_holtek_mant2[1],a
1701  09F3  0F00        	mov a,0
1701  09F4  0080     E  	mov _builtin_holtek_mant2[0],a
1701  09F5              	fcall _builtin_holtek_dtdiv
1701  09FC  0700     E  	mov a,_builtin_holtek_mant12p[0]
1701  09FD  C0AC 000D   	lmov [3500],a
1701  09FF  0700     E  	mov a,_builtin_holtek_mant1[2]
1701  0A00  C0AB 000D   	lmov [3499],a
1701  0A02  0700     E  	mov a,_builtin_holtek_mant1[1]
1701  0A03  C0AA 000D   	lmov [3498],a
1701  0A05  0700     E  	mov a,_builtin_holtek_mant1[0]
文件：OpMode_A.C   编译器版本 HGASM 0202 页次91

1701  0A06  C0A9 000D   	lmov [3497],a
1703  0A08              #line 1703 "c:\users\longshuangmin\desktop\worke_space\g-501\g-501\OpMode_A.C"
1703  0A08  0700     E  	mov a,_M_Current[1]
1703  0A09  0080     E  	mov _builtin_holtek_mant1[1],a
1703  0A0A  0700     E  	mov a,_M_Current[0]
1703  0A0B  0080     E  	mov _builtin_holtek_mant1[0],a
1703  0A0C  3400     E  	clr _builtin_holtek_signs.0
1703  0A0D              	fcall _builtin_holtek_uitod
1703  0A14  0700     E  	mov a,_builtin_holtek_mant12p[0]
1703  0A15  C0B0 000D   	lmov [3504],a
1703  0A17  0700     E  	mov a,_builtin_holtek_mant1[2]
1703  0A18  C0AF 000D   	lmov [3503],a
1703  0A1A  0700     E  	mov a,_builtin_holtek_mant1[1]
1703  0A1B  C0AE 000D   	lmov [3502],a
1703  0A1D  0700     E  	mov a,_builtin_holtek_mant1[0]
1703  0A1E  C0AD 000D   	lmov [3501],a
1704  0A20              #line 1704 "c:\users\longshuangmin\desktop\worke_space\g-501\g-501\OpMode_A.C"
1704  0A20  C730 000D   	lmov a,[3504]
1704  0A22  0080     E  	mov _builtin_holtek_mant12p[0],a
1704  0A23  C72F 000D   	lmov a,[3503]
1704  0A25  0080     E  	mov _builtin_holtek_mant1[2],a
1704  0A26  C72E 000D   	lmov a,[3502]
1704  0A28  0080     E  	mov _builtin_holtek_mant1[1],a
1704  0A29  C72D 000D   	lmov a,[3501]
1704  0A2B  0080     E  	mov _builtin_holtek_mant1[0],a
1704  0A2C  0F44        	mov a,68
1704  0A2D  0080     E  	mov _builtin_holtek_mant12p[1],a
1704  0A2E  0F7A        	mov a,122
1704  0A2F  0080     E  	mov _builtin_holtek_mant2[2],a
1704  0A30  0F00        	mov a,0
1704  0A31  0080     E  	mov _builtin_holtek_mant2[1],a
1704  0A32  0F00        	mov a,0
1704  0A33  0080     E  	mov _builtin_holtek_mant2[0],a
1704  0A34              	fcall _builtin_holtek_dtdiv
1704  0A3B  0700     E  	mov a,_builtin_holtek_mant12p[0]
1704  0A3C  C0B0 000D   	lmov [3504],a
1704  0A3E  0700     E  	mov a,_builtin_holtek_mant1[2]
1704  0A3F  C0AF 000D   	lmov [3503],a
1704  0A41  0700     E  	mov a,_builtin_holtek_mant1[1]
1704  0A42  C0AE 000D   	lmov [3502],a
1704  0A44  0700     E  	mov a,_builtin_holtek_mant1[0]
1704  0A45  C0AD 000D   	lmov [3501],a
1706  0A47              #line 1706 "c:\users\longshuangmin\desktop\worke_space\g-501\g-501\OpMode_A.C"
1706  0A47  0700     E  	mov a,rd
1706  0A48  C0B1 000D   	lmov [3505],a
1706  0A4A  0700     E  	mov a,re
1706  0A4B  C0B2 000D   	lmov [3506],a
1706  0A4D  0700     E  	mov a,rf
1706  0A4E  C0B3 000D   	lmov [3507],a
1706  0A50  0700     E  	mov a,rg
1706  0A51  C0B4 000D   	lmov [3508],a
1719  0A53              #line 1719 "c:\users\longshuangmin\desktop\worke_space\g-501\g-501\OpMode_A.C"
1719  0A53  0F01        	mov a,1
1718  0A54              #line 1718 "c:\users\longshuangmin\desktop\worke_space\g-501\g-501\OpMode_A.C"
1718  0A54  3800     E  	snz _Flag1[0].4
1718  0A55  2800     R  	jmp _L109
1719  0A56              #line 1719 "c:\users\longshuangmin\desktop\worke_space\g-501\g-501\OpMode_A.C"
1719  0A56              	fcall _get_glucose_ctr
1719  0A5D  2800     R  	jmp _L110
1719  0A5E              _L109:
文件：OpMode_A.C   编译器版本 HGASM 0202 页次92

1721  0A5E              #line 1721 "c:\users\longshuangmin\desktop\worke_space\g-501\g-501\OpMode_A.C"
1721  0A5E              	fcall _get_glucose
1721  0A65              _L110:
1724  0A65              #line 1724 "c:\users\longshuangmin\desktop\worke_space\g-501\g-501\OpMode_A.C"
1724  0A65  C768 000D   	lmov a,[3560]
1724  0A67  0080     E  	mov _builtin_holtek_mant12p[0],a
1724  0A68  C767 000D   	lmov a,[3559]
1724  0A6A  0080     E  	mov _builtin_holtek_mant1[2],a
1724  0A6B  C766 000D   	lmov a,[3558]
1724  0A6D  0080     E  	mov _builtin_holtek_mant1[1],a
1724  0A6E  C765 000D   	lmov a,[3557]
1724  0A70  0080     E  	mov _builtin_holtek_mant1[0],a
1724  0A71  0F00        	mov a,0
1724  0A72  0080     E  	mov _builtin_holtek_mant12p[1],a
1724  0A73  0F00        	mov a,0
1724  0A74  0080     E  	mov _builtin_holtek_mant2[2],a
1724  0A75  0F00        	mov a,0
1724  0A76  0080     E  	mov _builtin_holtek_mant2[1],a
1724  0A77  0F00        	mov a,0
1724  0A78  0080     E  	mov _builtin_holtek_mant2[0],a
1724  0A79              	fcall _builtin_holtek_dtsub
1724  0A80  3C00     E  	sz _builtin_holtek_mant12p[0].7
1724  0A81  2800     R  	jmp _L166
1724  0A82  2800     R  	jmp _L111
1724  0A83              _L166:
1725  0A83              #line 1725 "c:\users\longshuangmin\desktop\worke_space\g-501\g-501\OpMode_A.C"
1725  0A83  DF65 000D   	lclr [3557]
1725  0A85  DF66 000D   	lclr [3558]
1725  0A87  DF67 000D   	lclr [3559]
1725  0A89  DF68 000D   	lclr [3560]
1725  0A8B              _L111:
1726  0A8B              #line 1726 "c:\users\longshuangmin\desktop\worke_space\g-501\g-501\OpMode_A.C"
1726  0A8B  C768 000D   	lmov a,[3560]
1726  0A8D  0080     E  	mov _builtin_holtek_mant12p[0],a
1726  0A8E  C767 000D   	lmov a,[3559]
1726  0A90  0080     E  	mov _builtin_holtek_mant1[2],a
1726  0A91  C766 000D   	lmov a,[3558]
1726  0A93  0080     E  	mov _builtin_holtek_mant1[1],a
1726  0A94  C765 000D   	lmov a,[3557]
1726  0A96  0080     E  	mov _builtin_holtek_mant1[0],a
1726  0A97  0F44        	mov a,68
1726  0A98  0080     E  	mov _builtin_holtek_mant12p[1],a
1726  0A99  0F16        	mov a,22
1726  0A9A  0080     E  	mov _builtin_holtek_mant2[2],a
1726  0A9B  0F40        	mov a,64
1726  0A9C  0080     E  	mov _builtin_holtek_mant2[1],a
1726  0A9D  0F00        	mov a,0
1726  0A9E  0080     E  	mov _builtin_holtek_mant2[0],a
1726  0A9F              	fcall _builtin_holtek_dtsub
1726  0AA6  3C00     E  	sz _builtin_holtek_mant12p[0].7
1726  0AA7  2800     R  	jmp _LI26
1726  0AA8  0700     E  	mov a,_builtin_holtek_mant12p[0]
1726  0AA9  0500     E  	or a,_builtin_holtek_mant1[2]
1726  0AAA  0500     E  	or a,_builtin_holtek_mant1[1]
1726  0AAB  0500     E  	or a,_builtin_holtek_mant1[0]
1726  0AAC  390A        	snz z
1726  0AAD  2800     R  	jmp _L167
1726  0AAE              _LI26:
1726  0AAE  2800     R  	jmp _L113
1726  0AAF              _L167:
文件：OpMode_A.C   编译器版本 HGASM 0202 页次93

1727  0AAF              #line 1727 "c:\users\longshuangmin\desktop\worke_space\g-501\g-501\OpMode_A.C"
1727  0AAF  DF65 000D   	lclr [3557]
1727  0AB1  0F40        	mov a,64
1727  0AB2  C0E6 000D   	lmov [3558],a
1727  0AB4  0F16        	mov a,22
1727  0AB5  C0E7 000D   	lmov [3559],a
1727  0AB7  0F44        	mov a,68
1727  0AB8  C0E8 000D   	lmov [3560],a
1727  0ABA              _L113:
1729  0ABA              #line 1729 "c:\users\longshuangmin\desktop\worke_space\g-501\g-501\OpMode_A.C"
1729  0ABA  C764 000D   	lmov a,[3556]
1729  0ABC  0080     E  	mov _builtin_holtek_mant12p[0],a
1729  0ABD  C763 000D   	lmov a,[3555]
1729  0ABF  0080     E  	mov _builtin_holtek_mant1[2],a
1729  0AC0  C762 000D   	lmov a,[3554]
1729  0AC2  0080     E  	mov _builtin_holtek_mant1[1],a
1729  0AC3  C761 000D   	lmov a,[3553]
1729  0AC5  0080     E  	mov _builtin_holtek_mant1[0],a
1729  0AC6  0F00        	mov a,0
1729  0AC7  0080     E  	mov _builtin_holtek_mant12p[1],a
1729  0AC8  0F00        	mov a,0
1729  0AC9  0080     E  	mov _builtin_holtek_mant2[2],a
1729  0ACA  0F00        	mov a,0
1729  0ACB  0080     E  	mov _builtin_holtek_mant2[1],a
1729  0ACC  0F00        	mov a,0
1729  0ACD  0080     E  	mov _builtin_holtek_mant2[0],a
1729  0ACE              	fcall _builtin_holtek_dtsub
1729  0AD5  3C00     E  	sz _builtin_holtek_mant12p[0].7
1729  0AD6  2800     R  	jmp _L168
1729  0AD7  2800     R  	jmp _L115
1729  0AD8              _L168:
1730  0AD8              #line 1730 "c:\users\longshuangmin\desktop\worke_space\g-501\g-501\OpMode_A.C"
1730  0AD8  DF61 000D   	lclr [3553]
1730  0ADA  DF62 000D   	lclr [3554]
1730  0ADC  DF63 000D   	lclr [3555]
1730  0ADE  DF64 000D   	lclr [3556]
1730  0AE0              _L115:
1731  0AE0              #line 1731 "c:\users\longshuangmin\desktop\worke_space\g-501\g-501\OpMode_A.C"
1731  0AE0  C764 000D   	lmov a,[3556]
1731  0AE2  0080     E  	mov _builtin_holtek_mant12p[0],a
1731  0AE3  C763 000D   	lmov a,[3555]
1731  0AE5  0080     E  	mov _builtin_holtek_mant1[2],a
1731  0AE6  C762 000D   	lmov a,[3554]
1731  0AE8  0080     E  	mov _builtin_holtek_mant1[1],a
1731  0AE9  C761 000D   	lmov a,[3553]
1731  0AEB  0080     E  	mov _builtin_holtek_mant1[0],a
1731  0AEC  0F42        	mov a,66
1731  0AED  0080     E  	mov _builtin_holtek_mant12p[1],a
1731  0AEE  0F05        	mov a,5
1731  0AEF  0080     E  	mov _builtin_holtek_mant2[2],a
1731  0AF0  0F33        	mov a,51
1731  0AF1  0080     E  	mov _builtin_holtek_mant2[1],a
1731  0AF2  0F33        	mov a,51
1731  0AF3  0080     E  	mov _builtin_holtek_mant2[0],a
1731  0AF4              	fcall _builtin_holtek_dtsub
1731  0AFB  3C00     E  	sz _builtin_holtek_mant12p[0].7
1731  0AFC  2800     R  	jmp _LI27
1731  0AFD  0700     E  	mov a,_builtin_holtek_mant12p[0]
1731  0AFE  0500     E  	or a,_builtin_holtek_mant1[2]
1731  0AFF  0500     E  	or a,_builtin_holtek_mant1[1]
文件：OpMode_A.C   编译器版本 HGASM 0202 页次94

1731  0B00  0500     E  	or a,_builtin_holtek_mant1[0]
1731  0B01  390A        	snz z
1731  0B02  2800     R  	jmp _L169
1731  0B03              _LI27:
1731  0B03  2800     R  	jmp _L117
1731  0B04              _L169:
1732  0B04              #line 1732 "c:\users\longshuangmin\desktop\worke_space\g-501\g-501\OpMode_A.C"
1732  0B04  0F33        	mov a,51
1732  0B05  C0E1 000D   	lmov [3553],a
1732  0B07  0F33        	mov a,51
1732  0B08  C0E2 000D   	lmov [3554],a
1732  0B0A  0F05        	mov a,5
1732  0B0B  C0E3 000D   	lmov [3555],a
1732  0B0D  0F42        	mov a,66
1732  0B0E  C0E4 000D   	lmov [3556],a
1732  0B10              _L117:
1736  0B10              #line 1736 "c:\users\longshuangmin\desktop\worke_space\g-501\g-501\OpMode_A.C"
1736  0B10  C768 000D   	lmov a,[3560]
1736  0B12  0080     E  	mov _builtin_holtek_mant12p[0],a
1736  0B13  C767 000D   	lmov a,[3559]
1736  0B15  0080     E  	mov _builtin_holtek_mant1[2],a
1736  0B16  C766 000D   	lmov a,[3558]
1736  0B18  0080     E  	mov _builtin_holtek_mant1[1],a
1736  0B19  C765 000D   	lmov a,[3557]
1736  0B1B  0080     E  	mov _builtin_holtek_mant1[0],a
1736  0B1C  0F3F        	mov a,63
1736  0B1D  0080     E  	mov _builtin_holtek_mant12p[1],a
1736  0B1E  0F00        	mov a,0
1736  0B1F  0080     E  	mov _builtin_holtek_mant2[2],a
1736  0B20  0F00        	mov a,0
1736  0B21  0080     E  	mov _builtin_holtek_mant2[1],a
1736  0B22  0F00        	mov a,0
1736  0B23  0080     E  	mov _builtin_holtek_mant2[0],a
1736  0B24              	fcall _builtin_holtek_dtadd
1736  0B2B  0700     E  	mov a,_builtin_holtek_mant12p[0]
1736  0B2C  0080     E  	mov rg,a
1736  0B2D  0700     E  	mov a,_builtin_holtek_mant1[2]
1736  0B2E  0080     E  	mov rf,a
1736  0B2F  0700     E  	mov a,_builtin_holtek_mant1[1]
1736  0B30  0080     E  	mov re,a
1736  0B31  0700     E  	mov a,_builtin_holtek_mant1[0]
1736  0B32  0080     E  	mov rd,a
1736  0B33  0700     E  	mov a,rg
1736  0B34  0080     E  	mov _builtin_holtek_mant12p[0],a
1736  0B35  0700     E  	mov a,rf
1736  0B36  0080     E  	mov _builtin_holtek_mant1[2],a
1736  0B37  0700     E  	mov a,re
1736  0B38  0080     E  	mov _builtin_holtek_mant1[1],a
1736  0B39  0700     E  	mov a,rd
1736  0B3A  0080     E  	mov _builtin_holtek_mant1[0],a
1736  0B3B              	fcall _builtin_holtek_dtol
1736  0B42  0700     E  	mov a,_builtin_holtek_mant12p[0]
1736  0B43  0080     E  	mov rg,a
1736  0B44  0700     E  	mov a,_builtin_holtek_mant1[2]
1736  0B45  0080     E  	mov rf,a
1736  0B46  0700     E  	mov a,_builtin_holtek_mant1[1]
1736  0B47  0080     E  	mov re,a
1736  0B48  0700     E  	mov a,_builtin_holtek_mant1[0]
1736  0B49  0080     E  	mov rd,a
1736  0B4A  0700     E  	mov a,rd
文件：OpMode_A.C   编译器版本 HGASM 0202 页次95

1736  0B4B  0080     E  	mov _M_GM_data[0],a
1736  0B4C  0700     E  	mov a,re
1736  0B4D  0080     E  	mov _M_GM_data[1],a
1740  0B4E              #line 1740 "c:\users\longshuangmin\desktop\worke_space\g-501\g-501\OpMode_A.C"
1740  0B4E              ;# 1740 "c:\users\longshuangmin\desktop\worke_space\g-501\g-501\OpMode_A.C" 1
1740  0B4E  0001        	clr wdt
1741  0B4F              #line 1741 "c:\users\longshuangmin\desktop\worke_space\g-501\g-501\OpMode_A.C"
1741  0B4F  0700     E  	mov a,rd
1741  0B50  0080     E  	mov _Lcd_Glucose_2[0],a
1741  0B51  0700     E  	mov a,re
1741  0B52  0080     E  	mov _Lcd_Glucose_2[1],a
1741  0B53              	fcall _Lcd_Glucose
1742  0B5A              #line 1742 "c:\users\longshuangmin\desktop\worke_space\g-501\g-501\OpMode_A.C"
1742  0B5A  1F00     E  	clr _LCD_BitSetOut_2[2]
1742  0B5B  1F00     E  	clr _LCD_BitSetOut_2[0]
1742  0B5C  1F00     E  	clr _LCD_BitSetOut_2[1]
1742  0B5D              	fcall _LCD_BitSetOut
1743  0B64              #line 1743 "c:\users\longshuangmin\desktop\worke_space\g-501\g-501\OpMode_A.C"
1743  0B64  0F01        	mov a,1
1743  0B65  0080     E  	mov _LCD_BitSetOut_2[2],a
1743  0B66  0F06        	mov a,6
1743  0B67  0080     E  	mov _LCD_BitSetOut_2[0],a
1743  0B68  1F00     E  	clr _LCD_BitSetOut_2[1]
1743  0B69              	fcall _LCD_BitSetOut
1744  0B70              #line 1744 "c:\users\longshuangmin\desktop\worke_space\g-501\g-501\OpMode_A.C"
1744  0B70  0FF0        	mov a,240
1744  0B71  0200     E  	sub a,_M_GM_data[0]
1744  0B72  0F00        	mov a,0
1744  0B73  1200     E  	sbc a,_M_GM_data[1]
1744  0B74  3B8A        	snz sc
1744  0B75  2800     R  	jmp _L119
1746  0B76              #line 1746 "c:\users\longshuangmin\desktop\worke_space\g-501\g-501\OpMode_A.C"
1746  0B76  3000     E  	set _lcd[24].2
1746  0B77              _L119:
1748  0B77              #line 1748 "c:\users\longshuangmin\desktop\worke_space\g-501\g-501\OpMode_A.C"
1748  0B77  D73A 000F   	lsdza [4026]
1748  0B79  2800     R  	jmp _L120
1750  0B7A              #line 1750 "c:\users\longshuangmin\desktop\worke_space\g-501\g-501\OpMode_A.C"
1750  0B7A  3400     E  	clr _lcd[28].3
1751  0B7B              #line 1751 "c:\users\longshuangmin\desktop\worke_space\g-501\g-501\OpMode_A.C"
1751  0B7B  3000     E  	set _lcd[28].2
1751  0B7C  2800     R  	jmp _L121
1751  0B7D              _L120:
1753  0B7D              #line 1753 "c:\users\longshuangmin\desktop\worke_space\g-501\g-501\OpMode_A.C"
1753  0B7D  C73A 000F   	lmov a,[4026]
1753  0B7F  0A02        	sub a,2
1753  0B80  390A        	snz z
1753  0B81  2800     R  	jmp _L122
1755  0B82              #line 1755 "c:\users\longshuangmin\desktop\worke_space\g-501\g-501\OpMode_A.C"
1755  0B82  3000     E  	set _lcd[28].3
1755  0B83  2800     R  	jmp _L232
1755  0B84              _L122:
1760  0B84              #line 1760 "c:\users\longshuangmin\desktop\worke_space\g-501\g-501\OpMode_A.C"
1760  0B84  3400     E  	clr _lcd[28].3
1760  0B85              _L232:
1761  0B85              #line 1761 "c:\users\longshuangmin\desktop\worke_space\g-501\g-501\OpMode_A.C"
1761  0B85  3400     E  	clr _lcd[28].2
1761  0B86              _L121:
1764  0B86              #line 1764 "c:\users\longshuangmin\desktop\worke_space\g-501\g-501\OpMode_A.C"
1764  0B86  0700     E  	mov a,_M_Month[0]
文件：OpMode_A.C   编译器版本 HGASM 0202 页次96

1764  0B87  0080     E  	mov ra,a
1764  0B88  0700     E  	mov a,_M_Days[0]
1764  0B89  0080     E  	mov _Lcd_Month_Day_Process_2[0],a
1764  0B8A  0700     E  	mov a,ra
1764  0B8B              	fcall _Lcd_Month_Day_Process
1766  0B92              #line 1766 "c:\users\longshuangmin\desktop\worke_space\g-501\g-501\OpMode_A.C"
1766  0B92  0700     E  	mov a,_M_Hour[0]
1766  0B93  0080     E  	mov ra,a
1766  0B94  0700     E  	mov a,_M_Minutes[0]
1766  0B95  0080     E  	mov _Lcd_Clock_Process_2[0],a
1766  0B96  0700     E  	mov a,ra
1766  0B97              	fcall _Lcd_Clock_Process
1767  0B9E              #line 1767 "c:\users\longshuangmin\desktop\worke_space\g-501\g-501\OpMode_A.C"
1767  0B9E              	fcall _LCD_ScanOut
1862  0BA5              #line 1862 "c:\users\longshuangmin\desktop\worke_space\g-501\g-501\OpMode_A.C"
1862  0BA5  3C00     E  	sz _Flag1[0].4
1862  0BA6  2800     R  	jmp _L123
1865  0BA7              #line 1865 "c:\users\longshuangmin\desktop\worke_space\g-501\g-501\OpMode_A.C"
1865  0BA7              	fcall _Store_measurement_data
1866  0BAE              #line 1866 "c:\users\longshuangmin\desktop\worke_space\g-501\g-501\OpMode_A.C"
1866  0BAE              	fcall _Save_RtcTime
1866  0BB5              _L123:
1876  0BB5              #line 1876 "c:\users\longshuangmin\desktop\worke_space\g-501\g-501\OpMode_A.C"
1876  0BB5              	fcall _goto_next_case
1880  0BBC              #line 1880 "c:\users\longshuangmin\desktop\worke_space\g-501\g-501\OpMode_A.C"
1880  0BBC  32B1        	set [49].5
1880  0BBD  0F19        	mov a,25
1880  0BBE  00B3        	mov [51],a
1881  0BBF              #line 1881 "c:\users\longshuangmin\desktop\worke_space\g-501\g-501\OpMode_A.C"
1881  0BBF  3000     E  	set _Flag4[0].1
1882  0BC0              #line 1882 "c:\users\longshuangmin\desktop\worke_space\g-501\g-501\OpMode_A.C"
1882  0BC0  0F13        	mov a,19
1882  0BC1  0080     E  	mov _M_TaskBuf0[0],a
1885  0BC2              #line 1885 "c:\users\longshuangmin\desktop\worke_space\g-501\g-501\OpMode_A.C"
1885  0BC2  2800     R  	jmp _L23
1885  0BC3              _L38:
1909  0BC3              #line 1909 "c:\users\longshuangmin\desktop\worke_space\g-501\g-501\OpMode_A.C"
1909  0BC3  0F02        	mov a,2
1909  0BC4  0300     E  	add a,rd
1909  0BC5  0080     E  	mov rb,a
1909  0BC6  0F00        	mov a,0
1909  0BC7  1300     E  	adc a,re
1909  0BC8  0080     E  	mov rc,a
1909  0BC9  0700     E  	mov a,rb
1909  0BCA  0080     E  	mov _M_RTC_display[0],a
1909  0BCB  0700     E  	mov a,rc
1909  0BCC  0080     E  	mov _M_RTC_display[1],a
1914  0BCD              #line 1914 "c:\users\longshuangmin\desktop\worke_space\g-501\g-501\OpMode_A.C"
1914  0BCD  0F31        	mov a,49
1914  0BCE  0200     E  	sub a,rb
1914  0BCF  0F00        	mov a,0
1914  0BD0  1200     E  	sbc a,rc
1914  0BD1  3C0A        	sz c
1914  0BD2  2800     R  	jmp _L23
1916  0BD3              #line 1916 "c:\users\longshuangmin\desktop\worke_space\g-501\g-501\OpMode_A.C"
1916  0BD3  DF01 0012   	lclr [4737]
1917  0BD5              #line 1917 "c:\users\longshuangmin\desktop\worke_space\g-501\g-501\OpMode_A.C"
1917  0BD5              	fcall _starting_gsm
1917  0BDC  0080     E  	mov ra,a
1917  0BDD  1080     E  	sz ra
文件：OpMode_A.C   编译器版本 HGASM 0202 页次97

1917  0BDE  2800     R  	jmp _L241
1925  0BDF              #line 1925 "c:\users\longshuangmin\desktop\worke_space\g-501\g-501\OpMode_A.C"
1925  0BDF  C764 0010   	lmov a,[4324]
1925  0BE1  0080     E  	mov ra,a
1925  0BE2  0700     E  	mov a,ra
1925  0BE3  0300     E  	add a,ra
1925  0BE4  0080     E  	mov rb,a
1925  0BE5  0700     E  	mov a,rb
1925  0BE6  0380     E  	addm a,rb
1925  0BE7  0700     E  	mov a,rb
1925  0BE8  0380     E  	addm a,ra
1925  0BE9  0700     E  	mov a,ra
1925  0BEA  0300     E  	add a,ra
1925  0BEB  C0B9 000F   	lmov [4025],a
1926  0BED              #line 1926 "c:\users\longshuangmin\desktop\worke_space\g-501\g-501\OpMode_A.C"
1926  0BED  C765 0010   	lmov a,[4325]
1926  0BEF  C3B9 000F   	laddm a,[4025]
1927  0BF1              #line 1927 "c:\users\longshuangmin\desktop\worke_space\g-501\g-501\OpMode_A.C"
1927  0BF1  C765 0010   	lmov a,[4325]
1927  0BF3  C0B8 000F   	lmov [4024],a
1928  0BF5              #line 1928 "c:\users\longshuangmin\desktop\worke_space\g-501\g-501\OpMode_A.C"
1928  0BF5  DF36 000F   	lclr [4022]
1930  0BF7              #line 1930 "c:\users\longshuangmin\desktop\worke_space\g-501\g-501\OpMode_A.C"
1930  0BF7  1F00     E  	clr _M_UART_RxIndex[0]
1931  0BF8              #line 1931 "c:\users\longshuangmin\desktop\worke_space\g-501\g-501\OpMode_A.C"
1931  0BF8  DF20 000F   	lclr [4000]
1931  0BFA  DF21 000F   	lclr [4001]
1932  0BFC              #line 1932 "c:\users\longshuangmin\desktop\worke_space\g-501\g-501\OpMode_A.C"
1932  0BFC  0F80        	mov a,-128
1932  0BFD  0080     E  	mov _memset_2[4],a
1932  0BFE  1F00     E  	clr _memset_2[5]
1932  0BFF  1F00     E  	clr _memset_2[2]
1932  0C00  1F00     E  	clr _memset_2[3]
1932  0C01  0F80        	mov a,low offset _M_UART_RxFIFO
1932  0C02  0080     E  	mov _memset_2[0],a
1932  0C03  0F1E        	mov a,high offset _M_UART_RxFIFO
1932  0C04  0080     E  	mov _memset_2[1],a
1932  0C05              	fcall _memset
1933  0C0C              #line 1933 "c:\users\longshuangmin\desktop\worke_space\g-501\g-501\OpMode_A.C"
1933  0C0C  0F10        	mov a,16
1933  0C0D  0080     E  	mov _M_TaskBuf0[0],a
1933  0C0E  2800     R  	jmp _L23
1933  0C0F              _L39:
1942  0C0F              #line 1942 "c:\users\longshuangmin\desktop\worke_space\g-501\g-501\OpMode_A.C"
1942  0C0F  DF00 0012   	lclr [4736]
1942  0C11              _L125:
1942  0C11  C700 0012   	lmov a,[4736]
1942  0C13  C239 000F   	lsub a,[4025]
1942  0C15  3C0A        	sz c
1942  0C16  2800     R  	jmp _L129
1945  0C17              #line 1945 "c:\users\longshuangmin\desktop\worke_space\g-501\g-501\OpMode_A.C"
1945  0C17  DE38 000F   	lsnz [4024]
1945  0C19  2800     R  	jmp _L126
1946  0C1A              #line 1946 "c:\users\longshuangmin\desktop\worke_space\g-501\g-501\OpMode_A.C"
1946  0C1A  D5B8 000F   	ldec [4024]
1946  0C1C  2800     R  	jmp _L127
1946  0C1D              _L126:
1948  0C1D              #line 1948 "c:\users\longshuangmin\desktop\worke_space\g-501\g-501\OpMode_A.C"
1948  0C1D  0F09        	mov a,9
1948  0C1E  C0B8 000F   	lmov [4024],a
文件：OpMode_A.C   编译器版本 HGASM 0202 页次98

1948  0C20              _L127:
1949  0C20              #line 1949 "c:\users\longshuangmin\desktop\worke_space\g-501\g-501\OpMode_A.C"
1949  0C20  C738 000F   	lmov a,[4024]
1949  0C22  0080     E  	mov rb,a
1949  0C23  1F00     E  	clr rc
1949  0C24  340A        	clr c
1949  0C25  1A00     E  	rlca rb
1949  0C26  0080     E  	mov rd,a
1949  0C27  1A00     E  	rlca rc
1949  0C28  0080     E  	mov re,a
1949  0C29  340A        	clr c
1949  0C2A  1A80     E  	rlc rd
1949  0C2B  1A80     E  	rlc re
1949  0C2C  0700     E  	mov a,rd
1949  0C2D  0380     E  	addm a,rb
1949  0C2E  0700     E  	mov a,re
1949  0C2F  1380     E  	adcm a,rc
1949  0C30  340A        	clr c
1949  0C31  1A80     E  	rlc rb
1949  0C32  1A80     E  	rlc rc
1949  0C33  0F89        	mov a,low (offset _unsend_data+9)
1949  0C34  0300     E  	add a,rb
1949  0C35  0083        	mov mp,a
1949  0C36  0F10        	mov a,high (offset _unsend_data+9)
1949  0C37  1300     E  	adc a,rc
1949  0C38  0084        	mov sbp,a
1949  0C39              	fcall _Crom2Prom
1949  0C40  0080     E  	mov ra,a
1949  0C41  1E00     E  	snz ra
1949  0C42  2800     R  	jmp _L170
1951  0C43              #line 1951 "c:\users\longshuangmin\desktop\worke_space\g-501\g-501\OpMode_A.C"
1951  0C43  1F00     E  	clr _M_TaskBuf1[0]
1952  0C44              #line 1952 "c:\users\longshuangmin\desktop\worke_space\g-501\g-501\OpMode_A.C"
1952  0C44  1F00     E  	clr _M_RTC_display[0]
1952  0C45  1F00     E  	clr _M_RTC_display[1]
1953  0C46              #line 1953 "c:\users\longshuangmin\desktop\worke_space\g-501\g-501\OpMode_A.C"
1953  0C46              	fcall _send_gsm_data
1953  0C4D  0080     E  	mov ra,a
1953  0C4E  1E00     E  	snz ra
1953  0C4F  2800     R  	jmp _L170
1955  0C50              #line 1955 "c:\users\longshuangmin\desktop\worke_space\g-501\g-501\OpMode_A.C"
1955  0C50  1F00     E  	clr _M_RTC_display[0]
1955  0C51  1F00     E  	clr _M_RTC_display[1]
1956  0C52              #line 1956 "c:\users\longshuangmin\desktop\worke_space\g-501\g-501\OpMode_A.C"
1956  0C52  0F11        	mov a,17
1956  0C53  0080     E  	mov _M_TaskBuf0[0],a
1957  0C54              #line 1957 "c:\users\longshuangmin\desktop\worke_space\g-501\g-501\OpMode_A.C"
1957  0C54  0F01        	mov a,1
1957  0C55  C0B6 000F   	lmov [4022],a
1958  0C57              #line 1958 "c:\users\longshuangmin\desktop\worke_space\g-501\g-501\OpMode_A.C"
1958  0C57  2800     R  	jmp _L129
1958  0C58              _L170:
1942  0C58              #line 1942 "c:\users\longshuangmin\desktop\worke_space\g-501\g-501\OpMode_A.C"
1942  0C58  D480 0012   	linc [4736]
1942  0C5A  2800     R  	jmp _L125
1942  0C5B              _L129:
1965  0C5B              #line 1965 "c:\users\longshuangmin\desktop\worke_space\g-501\g-501\OpMode_A.C"
1965  0C5B  D0B6 000F   	lsz [4022]
1965  0C5D  2800     R  	jmp _L23
1965  0C5E              _L241:
文件：OpMode_A.C   编译器版本 HGASM 0202 页次99

1967  0C5E              #line 1967 "c:\users\longshuangmin\desktop\worke_space\g-501\g-501\OpMode_A.C"
1967  0C5E  1F00     E  	clr _M_RTC_display[0]
1967  0C5F  1F00     E  	clr _M_RTC_display[1]
1968  0C60              #line 1968 "c:\users\longshuangmin\desktop\worke_space\g-501\g-501\OpMode_A.C"
1968  0C60  0F11        	mov a,17
1968  0C61  0080     E  	mov _M_TaskBuf0[0],a
1968  0C62  2800     R  	jmp _L23
1968  0C63              _L40:
1979  0C63              #line 1979 "c:\users\longshuangmin\desktop\worke_space\g-501\g-501\OpMode_A.C"
1979  0C63  DE01 0012   	lsnz [4737]
1979  0C65  2800     R  	jmp _L131
1980  0C66              #line 1980 "c:\users\longshuangmin\desktop\worke_space\g-501\g-501\OpMode_A.C"
1980  0C66  3000     E  	set _lcd[30].4
1980  0C67  2800     R  	jmp _L132
1980  0C68              _L131:
1982  0C68              #line 1982 "c:\users\longshuangmin\desktop\worke_space\g-501\g-501\OpMode_A.C"
1982  0C68  3000     E  	set _lcd[30].5
1982  0C69              _L132:
1984  0C69              #line 1984 "c:\users\longshuangmin\desktop\worke_space\g-501\g-501\OpMode_A.C"
1984  0C69              	fcall _setRssi
1985  0C70              #line 1985 "c:\users\longshuangmin\desktop\worke_space\g-501\g-501\OpMode_A.C"
1985  0C70  3000     E  	set _lcd[32].0
1986  0C71              #line 1986 "c:\users\longshuangmin\desktop\worke_space\g-501\g-501\OpMode_A.C"
1986  0C71  0700     E  	mov a,_M_RTC_display[0]
1986  0C72  0080     E  	mov rb,a
1986  0C73  0700     E  	mov a,_M_RTC_display[1]
1986  0C74  0080     E  	mov rc,a
1986  0C75  0700     E  	mov a,rb
1986  0C76  0C01        	xor a,1
1986  0C77  0500     E  	or a,rc
1986  0C78  390A        	snz z
1986  0C79  2800     R  	jmp _L133
1989  0C7A              #line 1989 "c:\users\longshuangmin\desktop\worke_space\g-501\g-501\OpMode_A.C"
1989  0C7A  1F00     E  	clr _M_UART_RxIndex[0]
1990  0C7B              #line 1990 "c:\users\longshuangmin\desktop\worke_space\g-501\g-501\OpMode_A.C"
1990  0C7B  DF20 000F   	lclr [4000]
1990  0C7D  DF21 000F   	lclr [4001]
1991  0C7F              #line 1991 "c:\users\longshuangmin\desktop\worke_space\g-501\g-501\OpMode_A.C"
1991  0C7F  0F80        	mov a,-128
1991  0C80  0080     E  	mov _memset_2[4],a
1991  0C81  1F00     E  	clr _memset_2[5]
1991  0C82  1F00     E  	clr _memset_2[2]
1991  0C83  1F00     E  	clr _memset_2[3]
1991  0C84  0F80        	mov a,low offset _M_UART_RxFIFO
1991  0C85  0080     E  	mov _memset_2[0],a
1991  0C86  0F1E        	mov a,high offset _M_UART_RxFIFO
1991  0C87  0080     E  	mov _memset_2[1],a
1991  0C88              	fcall _memset
1992  0C8F              #line 1992 "c:\users\longshuangmin\desktop\worke_space\g-501\g-501\OpMode_A.C"
1992  0C8F  0F00     R  	mov a,low offset _LC0
1992  0C90  0080     E  	mov _print_str_2[0],a
1992  0C91  0F00     R  	mov a,high offset _LC0
1992  0C92  0080     E  	mov _print_str_2[1],a
1992  0C93              	fcall _print_str
1993  0C9A              #line 1993 "c:\users\longshuangmin\desktop\worke_space\g-501\g-501\OpMode_A.C"
1993  0C9A  3020        	set [32].0
1993  0C9B  2800     R  	jmp _L134
1993  0C9C              _L133:
1996  0C9C              #line 1996 "c:\users\longshuangmin\desktop\worke_space\g-501\g-501\OpMode_A.C"
1996  0C9C  0F64        	mov a,100
文件：OpMode_A.C   编译器版本 HGASM 0202 页次100

1996  0C9D  0200     E  	sub a,rb
1996  0C9E  0F00        	mov a,0
1996  0C9F  1200     E  	sbc a,rc
1996  0CA0  3C0A        	sz c
1996  0CA1  2800     R  	jmp _L135
1996  0CA2              _L136:
1998  0CA2              #line 1998 "c:\users\longshuangmin\desktop\worke_space\g-501\g-501\OpMode_A.C"
1998  0CA2  0F80        	mov a,-128
1998  0CA3  0080     E  	mov _memset_2[4],a
1998  0CA4  1F00     E  	clr _memset_2[5]
1998  0CA5  1F00     E  	clr _memset_2[2]
1998  0CA6  1F00     E  	clr _memset_2[3]
1998  0CA7  0F80        	mov a,low offset _M_UART_RxFIFO
1998  0CA8  0080     E  	mov _memset_2[0],a
1998  0CA9  0F1E        	mov a,high offset _M_UART_RxFIFO
1998  0CAA  0080     E  	mov _memset_2[1],a
1998  0CAB              	fcall _memset
1999  0CB2              #line 1999 "c:\users\longshuangmin\desktop\worke_space\g-501\g-501\OpMode_A.C"
1999  0CB2  0F00     R  	mov a,low offset _LC1
1999  0CB3  0080     E  	mov _print_str_2[0],a
1999  0CB4  0F00     R  	mov a,high offset _LC1
1999  0CB5  0080     E  	mov _print_str_2[1],a
1999  0CB6              	fcall _print_str
2000  0CBD              #line 2000 "c:\users\longshuangmin\desktop\worke_space\g-501\g-501\OpMode_A.C"
2000  0CBD  3020        	set [32].0
2001  0CBE              #line 2001 "c:\users\longshuangmin\desktop\worke_space\g-501\g-501\OpMode_A.C"
2001  0CBE              	fcall _goto_next_case
2002  0CC5              #line 2002 "c:\users\longshuangmin\desktop\worke_space\g-501\g-501\OpMode_A.C"
2002  0CC5  0F12        	mov a,18
2002  0CC6  0080     E  	mov _M_TaskBuf0[0],a
2004  0CC7              #line 2004 "c:\users\longshuangmin\desktop\worke_space\g-501\g-501\OpMode_A.C"
2004  0CC7  3000     E  	set _Flag4[0].1
2004  0CC8  2800     R  	jmp _L134
2004  0CC9              _L135:
1996  0CC9              #line 1996 "c:\users\longshuangmin\desktop\worke_space\g-501\g-501\OpMode_A.C"
1996  0CC9  0F00     R  	mov a,low offset _LC2
1996  0CCA  0080     E  	mov _strstr_2[2],a
1996  0CCB  0F00     R  	mov a,high offset _LC2
1996  0CCC  0080     E  	mov _strstr_2[3],a
1996  0CCD  0F80        	mov a,low offset _M_UART_RxFIFO
1996  0CCE  0080     E  	mov _strstr_2[0],a
1996  0CCF  0F1E        	mov a,high offset _M_UART_RxFIFO
1996  0CD0  0080     E  	mov _strstr_2[1],a
1996  0CD1              	fcall _strstr
1996  0CD8  0700     E  	mov a,ra
1996  0CD9  0500     E  	or a,rb
1996  0CDA  390A        	snz z
1996  0CDB  2800     R  	jmp _L136
1996  0CDC              _L134:
2021  0CDC              #line 2021 "c:\users\longshuangmin\desktop\worke_space\g-501\g-501\OpMode_A.C"
2021  0CDC  3800     E  	snz _Flag1[0].7
2021  0CDD  2800     R  	jmp _L23
2023  0CDE              #line 2023 "c:\users\longshuangmin\desktop\worke_space\g-501\g-501\OpMode_A.C"
2023  0CDE  3000     E  	set _Flag2[0].1
2024  0CDF              #line 2024 "c:\users\longshuangmin\desktop\worke_space\g-501\g-501\OpMode_A.C"
2024  0CDF  3400     E  	clr _Flag1[0].7
2024  0CE0  2800     R  	jmp _L23
2024  0CE1              _L41:
2038  0CE1              #line 2038 "c:\users\longshuangmin\desktop\worke_space\g-501\g-501\OpMode_A.C"
2038  0CE1  0F2C        	mov a,44
文件：OpMode_A.C   编译器版本 HGASM 0202 页次101

2038  0CE2  0200     E  	sub a,rb
2038  0CE3  0F01        	mov a,1
2038  0CE4  1200     E  	sbc a,rc
2038  0CE5  3C0A        	sz c
2038  0CE6  2800     R  	jmp _L137
2040  0CE7              #line 2040 "c:\users\longshuangmin\desktop\worke_space\g-501\g-501\OpMode_A.C"
2040  0CE7  3524        	clr [36].2
2041  0CE8              #line 2041 "c:\users\longshuangmin\desktop\worke_space\g-501\g-501\OpMode_A.C"
2041  0CE8  31A4        	set [36].3
2042  0CE9              #line 2042 "c:\users\longshuangmin\desktop\worke_space\g-501\g-501\OpMode_A.C"
2042  0CE9              	fcall _goto_next_case
2043  0CF0              #line 2043 "c:\users\longshuangmin\desktop\worke_space\g-501\g-501\OpMode_A.C"
2043  0CF0  0F13        	mov a,19
2043  0CF1  0080     E  	mov _M_TaskBuf0[0],a
2045  0CF2              #line 2045 "c:\users\longshuangmin\desktop\worke_space\g-501\g-501\OpMode_A.C"
2045  0CF2  1F00     E  	clr _M_TaskBuf1[0]
2046  0CF3              #line 2046 "c:\users\longshuangmin\desktop\worke_space\g-501\g-501\OpMode_A.C"
2046  0CF3  2800     R  	jmp _L23
2046  0CF4              _L137:
2050  0CF4              #line 2050 "c:\users\longshuangmin\desktop\worke_space\g-501\g-501\OpMode_A.C"
2050  0CF4  3800     E  	snz _Flag1[0].7
2050  0CF5  2800     R  	jmp _L138
2052  0CF6              #line 2052 "c:\users\longshuangmin\desktop\worke_space\g-501\g-501\OpMode_A.C"
2052  0CF6  3000     E  	set _Flag2[0].1
2055  0CF7              #line 2055 "c:\users\longshuangmin\desktop\worke_space\g-501\g-501\OpMode_A.C"
2055  0CF7  3800     E  	snz _lcd[24].4
2055  0CF8  2800     R  	jmp _L139
2056  0CF9              #line 2056 "c:\users\longshuangmin\desktop\worke_space\g-501\g-501\OpMode_A.C"
2056  0CF9  1F00     E  	clr _LCD_BitSetOut_2[2]
2056  0CFA  2800     R  	jmp _L233
2056  0CFB              _L139:
2058  0CFB              #line 2058 "c:\users\longshuangmin\desktop\worke_space\g-501\g-501\OpMode_A.C"
2058  0CFB  0F01        	mov a,1
2058  0CFC  0080     E  	mov _LCD_BitSetOut_2[2],a
2058  0CFD              _L233:
2058  0CFD  0F06        	mov a,6
2058  0CFE  0080     E  	mov _LCD_BitSetOut_2[0],a
2058  0CFF  1F00     E  	clr _LCD_BitSetOut_2[1]
2058  0D00              	fcall _LCD_BitSetOut
2060  0D07              #line 2060 "c:\users\longshuangmin\desktop\worke_space\g-501\g-501\OpMode_A.C"
2060  0D07  3400     E  	clr _Flag1[0].7
2060  0D08              _L138:
2069  0D08              #line 2069 "c:\users\longshuangmin\desktop\worke_space\g-501\g-501\OpMode_A.C"
2069  0D08  0700     E  	mov a,_M_Month[0]
2069  0D09  0080     E  	mov ra,a
2069  0D0A  0700     E  	mov a,_M_Days[0]
2069  0D0B  0080     E  	mov _Lcd_Month_Day_Process_2[0],a
2069  0D0C  0700     E  	mov a,ra
2069  0D0D              	fcall _Lcd_Month_Day_Process
2071  0D14              #line 2071 "c:\users\longshuangmin\desktop\worke_space\g-501\g-501\OpMode_A.C"
2071  0D14  0700     E  	mov a,_M_Hour[0]
2071  0D15  0080     E  	mov ra,a
2071  0D16  0700     E  	mov a,_M_Minutes[0]
2071  0D17  0080     E  	mov _Lcd_Clock_Process_2[0],a
2071  0D18  0700     E  	mov a,ra
2071  0D19              	fcall _Lcd_Clock_Process
2073  0D20              #line 2073 "c:\users\longshuangmin\desktop\worke_space\g-501\g-501\OpMode_A.C"
2073  0D20  3800     E  	snz _Flag1[0].7
2073  0D21  2800     R  	jmp _L23
2075  0D22              #line 2075 "c:\users\longshuangmin\desktop\worke_space\g-501\g-501\OpMode_A.C"
文件：OpMode_A.C   编译器版本 HGASM 0202 页次102

2075  0D22  3800     E  	snz _lcd[24].4
2075  0D23  2800     R  	jmp _L141
2076  0D24              #line 2076 "c:\users\longshuangmin\desktop\worke_space\g-501\g-501\OpMode_A.C"
2076  0D24  1F00     E  	clr _LCD_BitSetOut_2[2]
2076  0D25  2800     R  	jmp _L234
2076  0D26              _L141:
2078  0D26              #line 2078 "c:\users\longshuangmin\desktop\worke_space\g-501\g-501\OpMode_A.C"
2078  0D26  0F01        	mov a,1
2078  0D27  0080     E  	mov _LCD_BitSetOut_2[2],a
2078  0D28              _L234:
2078  0D28  0F06        	mov a,6
2078  0D29  0080     E  	mov _LCD_BitSetOut_2[0],a
2078  0D2A  1F00     E  	clr _LCD_BitSetOut_2[1]
2078  0D2B              	fcall _LCD_BitSetOut
2079  0D32              #line 2079 "c:\users\longshuangmin\desktop\worke_space\g-501\g-501\OpMode_A.C"
2079  0D32  3400     E  	clr _Flag1[0].7
2080  0D33              #line 2080 "c:\users\longshuangmin\desktop\worke_space\g-501\g-501\OpMode_A.C"
2080  0D33  3000     E  	set _Flag2[0].1
2080  0D34  2800     R  	jmp _L23
2080  0D35              _L42:
2095  0D35              #line 2095 "c:\users\longshuangmin\desktop\worke_space\g-501\g-501\OpMode_A.C"
2095  0D35  36ED        	clr [109].5
2096  0D36              #line 2096 "c:\users\longshuangmin\desktop\worke_space\g-501\g-501\OpMode_A.C"
2096  0D36  36EE        	clr [110].5
2097  0D37              #line 2097 "c:\users\longshuangmin\desktop\worke_space\g-501\g-501\OpMode_A.C"
2097  0D37  37FB        	clr [123].7
2097  0D38  36FC        	clr [124].5
2098  0D39              #line 2098 "c:\users\longshuangmin\desktop\worke_space\g-501\g-501\OpMode_A.C"
2098  0D39  34F1        	clr [113].1
2098  0D3A  3471        	clr [113].0
2099  0D3B              #line 2099 "c:\users\longshuangmin\desktop\worke_space\g-501\g-501\OpMode_A.C"
2099  0D3B  35F1        	clr [113].3
2099  0D3C  3571        	clr [113].2
2100  0D3D              #line 2100 "c:\users\longshuangmin\desktop\worke_space\g-501\g-501\OpMode_A.C"
2100  0D3D  3678        	clr [120].4
2101  0D3E              #line 2101 "c:\users\longshuangmin\desktop\worke_space\g-501\g-501\OpMode_A.C"
2101  0D3E              	fcall _fun_StripModuleAllOpen
2103  0D45              #line 2103 "c:\users\longshuangmin\desktop\worke_space\g-501\g-501\OpMode_A.C"
2103  0D45              	fcall _fun_ADCStop
2106  0D4C              #line 2106 "c:\users\longshuangmin\desktop\worke_space\g-501\g-501\OpMode_A.C"
2106  0D4C  1F00     E  	clr _fun_DACVREFInit_2[0]
2106  0D4D  1F00     E  	clr _fun_DACVREFInit_2[1]
2106  0D4E              	fcall _fun_DACVREFInit
2108  0D55              #line 2108 "c:\users\longshuangmin\desktop\worke_space\g-501\g-501\OpMode_A.C"
2108  0D55  0F02        	mov a,2
2108  0D56  0080     E  	mov _fun_DACnInit_2[0],a
2108  0D57  1F00     E  	clr _fun_DACnInit_2[1]
2108  0D58  0F01        	mov a,1
2108  0D59              	fcall _fun_DACnInit
2111  0D60              #line 2111 "c:\users\longshuangmin\desktop\worke_space\g-501\g-501\OpMode_A.C"
2111  0D60  37ED        	clr [109].7
2112  0D61              #line 2112 "c:\users\longshuangmin\desktop\worke_space\g-501\g-501\OpMode_A.C"
2112  0D61  376D        	clr [109].6
2115  0D62              #line 2115 "c:\users\longshuangmin\desktop\worke_space\g-501\g-501\OpMode_A.C"
2115  0D62  37EE        	clr [110].7
2116  0D63              #line 2116 "c:\users\longshuangmin\desktop\worke_space\g-501\g-501\OpMode_A.C"
2116  0D63  376E        	clr [110].6
2119  0D64              #line 2119 "c:\users\longshuangmin\desktop\worke_space\g-501\g-501\OpMode_A.C"
2119  0D64  0F14        	mov a,20
2119  0D65  0080     E  	mov _M_TaskBuf0[0],a
文件：OpMode_A.C   编译器版本 HGASM 0202 页次103

2120  0D66              #line 2120 "c:\users\longshuangmin\desktop\worke_space\g-501\g-501\OpMode_A.C"
2120  0D66  1F00     E  	clr _M_TaskBuf1[0]
2121  0D67              #line 2121 "c:\users\longshuangmin\desktop\worke_space\g-501\g-501\OpMode_A.C"
2121  0D67  1F00     E  	clr _M_Cbuf0[0]
2122  0D68              #line 2122 "c:\users\longshuangmin\desktop\worke_space\g-501\g-501\OpMode_A.C"
2122  0D68  1F00     E  	clr _M_Cbuf1[0]
2123  0D69              #line 2123 "c:\users\longshuangmin\desktop\worke_space\g-501\g-501\OpMode_A.C"
2123  0D69  1F00     E  	clr _M_RTC_display[0]
2123  0D6A  1F00     E  	clr _M_RTC_display[1]
2124  0D6B              #line 2124 "c:\users\longshuangmin\desktop\worke_space\g-501\g-501\OpMode_A.C"
2124  0D6B  1F00     E  	clr _M_No_Active_Cnt[0]
2124  0D6C  1F00     E  	clr _M_No_Active_Cnt[1]
2128  0D6D              #line 2128 "c:\users\longshuangmin\desktop\worke_space\g-501\g-501\OpMode_A.C"
2128  0D6D  3000     E  	set _Flag2[0].1
2133  0D6E              #line 2133 "c:\users\longshuangmin\desktop\worke_space\g-501\g-501\OpMode_A.C"
2133  0D6E  3170        	set [112].2
2133  0D6F  34F0        	clr [112].1
2133  0D70  3470        	clr [112].0
2134  0D71              #line 2134 "c:\users\longshuangmin\desktop\worke_space\g-501\g-501\OpMode_A.C"
2134  0D71  32F0        	set [112].5
2134  0D72  3670        	clr [112].4
2134  0D73  35F0        	clr [112].3
2135  0D74              #line 2135 "c:\users\longshuangmin\desktop\worke_space\g-501\g-501\OpMode_A.C"
2135  0D74  3400     E  	clr _Flag2[0].6
2139  0D75              #line 2139 "c:\users\longshuangmin\desktop\worke_space\g-501\g-501\OpMode_A.C"
2139  0D75  32F0        	set [112].5
2139  0D76  3670        	clr [112].4
2139  0D77  35F0        	clr [112].3
2141  0D78              #line 2141 "c:\users\longshuangmin\desktop\worke_space\g-501\g-501\OpMode_A.C"
2141  0D78  3594        	clr [20].3
2142  0D79              #line 2142 "c:\users\longshuangmin\desktop\worke_space\g-501\g-501\OpMode_A.C"
2142  0D79  3195        	set [21].3
2143  0D7A              #line 2143 "c:\users\longshuangmin\desktop\worke_space\g-501\g-501\OpMode_A.C"
2143  0D7A  3196        	set [22].3
2144  0D7B              #line 2144 "c:\users\longshuangmin\desktop\worke_space\g-501\g-501\OpMode_A.C"
2144  0D7B  3614        	clr [20].4
2146  0D7C              #line 2146 "c:\users\longshuangmin\desktop\worke_space\g-501\g-501\OpMode_A.C"
2146  0D7C  3215        	set [21].4
2147  0D7D              #line 2147 "c:\users\longshuangmin\desktop\worke_space\g-501\g-501\OpMode_A.C"
2147  0D7D  3216        	set [22].4
2150  0D7E              #line 2150 "c:\users\longshuangmin\desktop\worke_space\g-501\g-501\OpMode_A.C"
2150  0D7E  2800     R  	jmp _L23
2150  0D7F              _L43:
2158  0D7F              #line 2158 "c:\users\longshuangmin\desktop\worke_space\g-501\g-501\OpMode_A.C"
2158  0D7F              	fcall _BatteryCheckProcess
2159  0D86              #line 2159 "c:\users\longshuangmin\desktop\worke_space\g-501\g-501\OpMode_A.C"
2159  0D86  0700     E  	mov a,_M_GM_data[0]
2159  0D87  0080     E  	mov _Lcd_Glucose_2[0],a
2159  0D88  0700     E  	mov a,_M_GM_data[1]
2159  0D89  0080     E  	mov _Lcd_Glucose_2[1],a
2159  0D8A              	fcall _Lcd_Glucose
2170  0D91              #line 2170 "c:\users\longshuangmin\desktop\worke_space\g-501\g-501\OpMode_A.C"
2170  0D91  3800     E  	snz _Flag1[0].7
2170  0D92  2800     R  	jmp _L143
2176  0D93              #line 2176 "c:\users\longshuangmin\desktop\worke_space\g-501\g-501\OpMode_A.C"
2176  0D93  1400     E  	inca _FlashTimeCon[0]
2176  0D94  0080     E  	mov ra,a
2176  0D95  0700     E  	mov a,ra
2176  0D96  0080     E  	mov _FlashTimeCon[0],a
2177  0D97              #line 2177 "c:\users\longshuangmin\desktop\worke_space\g-501\g-501\OpMode_A.C"
文件：OpMode_A.C   编译器版本 HGASM 0202 页次104

2177  0D97  3800     E  	snz ra.0
2177  0D98  2800     R  	jmp _L144
2179  0D99              #line 2179 "c:\users\longshuangmin\desktop\worke_space\g-501\g-501\OpMode_A.C"
2179  0D99  1E00     E  	snz _FlashTimeFlag[0]
2179  0D9A  2800     R  	jmp _L145
2181  0D9B              #line 2181 "c:\users\longshuangmin\desktop\worke_space\g-501\g-501\OpMode_A.C"
2181  0D9B  1F00     E  	clr _FlashTimeFlag[0]
2182  0D9C              #line 2182 "c:\users\longshuangmin\desktop\worke_space\g-501\g-501\OpMode_A.C"
2182  0D9C  0700     E  	mov a,_M_Month[0]
2182  0D9D  0080     E  	mov ra,a
2182  0D9E  0700     E  	mov a,_M_Days[0]
2182  0D9F  0080     E  	mov _Lcd_Month_Day_Process_2[0],a
2182  0DA0  0700     E  	mov a,ra
2182  0DA1              	fcall _Lcd_Month_Day_Process
2183  0DA8              #line 2183 "c:\users\longshuangmin\desktop\worke_space\g-501\g-501\OpMode_A.C"
2183  0DA8  3400     E  	clr _lcd[24].5
2184  0DA9              #line 2184 "c:\users\longshuangmin\desktop\worke_space\g-501\g-501\OpMode_A.C"
2184  0DA9  3400     E  	clr _lcd[24].6
2185  0DAA              #line 2185 "c:\users\longshuangmin\desktop\worke_space\g-501\g-501\OpMode_A.C"
2185  0DAA  3400     E  	clr _lcd[24].4
2185  0DAB  2800     R  	jmp _L146
2185  0DAC              _L145:
2189  0DAC              #line 2189 "c:\users\longshuangmin\desktop\worke_space\g-501\g-501\OpMode_A.C"
2189  0DAC  0F01        	mov a,1
2189  0DAD  0080     E  	mov _FlashTimeFlag[0],a
2190  0DAE              #line 2190 "c:\users\longshuangmin\desktop\worke_space\g-501\g-501\OpMode_A.C"
2190  0DAE  0700     E  	mov a,_M_Hour[0]
2190  0DAF  0080     E  	mov ra,a
2190  0DB0  0700     E  	mov a,_M_Minutes[0]
2190  0DB1  0080     E  	mov _Lcd_Clock_Process_2[0],a
2190  0DB2  0700     E  	mov a,ra
2190  0DB3              	fcall _Lcd_Clock_Process
2191  0DBA              #line 2191 "c:\users\longshuangmin\desktop\worke_space\g-501\g-501\OpMode_A.C"
2191  0DBA  3000     E  	set _lcd[24].4
2192  0DBB              #line 2192 "c:\users\longshuangmin\desktop\worke_space\g-501\g-501\OpMode_A.C"
2192  0DBB  3400     E  	clr _lcd[24].3
2192  0DBC              _L146:
2194  0DBC              #line 2194 "c:\users\longshuangmin\desktop\worke_space\g-501\g-501\OpMode_A.C"
2194  0DBC  3000     E  	set _Flag2[0].1
2194  0DBD              _L144:
2196  0DBD              #line 2196 "c:\users\longshuangmin\desktop\worke_space\g-501\g-501\OpMode_A.C"
2196  0DBD  3400     E  	clr _Flag1[0].7
2196  0DBE              _L143:
2200  0DBE              #line 2200 "c:\users\longshuangmin\desktop\worke_space\g-501\g-501\OpMode_A.C"
2200  0DBE  3800     E  	snz _Flag1[0].4
2200  0DBF  2800     R  	jmp _L147
2201  0DC0              #line 2201 "c:\users\longshuangmin\desktop\worke_space\g-501\g-501\OpMode_A.C"
2201  0DC0  0F01        	mov a,1
2201  0DC1  0080     E  	mov _LCD_BitSetOut_2[2],a
2201  0DC2  2800     R  	jmp _L235
2201  0DC3              _L147:
2203  0DC3              #line 2203 "c:\users\longshuangmin\desktop\worke_space\g-501\g-501\OpMode_A.C"
2203  0DC3  1F00     E  	clr _LCD_BitSetOut_2[2]
2203  0DC4              _L235:
2203  0DC4  0F12        	mov a,18
2203  0DC5  0080     E  	mov _LCD_BitSetOut_2[0],a
2203  0DC6  1F00     E  	clr _LCD_BitSetOut_2[1]
2203  0DC7              	fcall _LCD_BitSetOut
2206  0DCE              #line 2206 "c:\users\longshuangmin\desktop\worke_space\g-501\g-501\OpMode_A.C"
2206  0DCE  3A14        	snz [20].4
文件：OpMode_A.C   编译器版本 HGASM 0202 页次105

2206  0DCF  2800     R  	jmp _L23
2212  0DD0              #line 2212 "c:\users\longshuangmin\desktop\worke_space\g-501\g-501\OpMode_A.C"
2212  0DD0  0F18        	mov a,24
2212  0DD1  0080     E  	mov _M_TaskBuf0[0],a
2213  0DD2              #line 2213 "c:\users\longshuangmin\desktop\worke_space\g-501\g-501\OpMode_A.C"
2213  0DD2  1F00     E  	clr _M_RTC_display[0]
2213  0DD3  1F00     E  	clr _M_RTC_display[1]
2214  0DD4              #line 2214 "c:\users\longshuangmin\desktop\worke_space\g-501\g-501\OpMode_A.C"
2214  0DD4  1F00     E  	clr _M_No_Active_Cnt[0]
2214  0DD5  1F00     E  	clr _M_No_Active_Cnt[1]
2214  0DD6  2800     R  	jmp _L23
2214  0DD7              _L44:
2361  0DD7              #line 2361 "c:\users\longshuangmin\desktop\worke_space\g-501\g-501\OpMode_A.C"
2361  0DD7              	fcall _BatteryCheckProcess
2363  0DDE              #line 2363 "c:\users\longshuangmin\desktop\worke_space\g-501\g-501\OpMode_A.C"
2363  0DDE  0F55        	mov a,85
2363  0DDF  C080 001F   	lmov [8064],a
2364  0DE1              #line 2364 "c:\users\longshuangmin\desktop\worke_space\g-501\g-501\OpMode_A.C"
2364  0DE1  0F02        	mov a,2
2364  0DE2  0080     R  	mov _Cbuf0[0],a
2364  0DE3  0F05        	mov a,5
2364  0DE4  C081 001F   	lmov [8065],a
2365  0DE6              #line 2365 "c:\users\longshuangmin\desktop\worke_space\g-501\g-501\OpMode_A.C"
2365  0DE6              	fcall _fun_UART0PowerOnInit
2386  0DED              #line 2386 "c:\users\longshuangmin\desktop\worke_space\g-501\g-501\OpMode_A.C"
2386  0DED  0700     E  	mov a,_M_Error_Task[0]
2386  0DEE  0A00        	sub a,0
2386  0DEF  3D0A        	sz z
2386  0DF0  2800     R  	jmp _L150
2386  0DF1  0A01        	sub a,(1)-(0)
2386  0DF2  3D0A        	sz z
2386  0DF3  2800     R  	jmp _L151
2386  0DF4  0700     E  	mov a,_M_Error_Task[0]
2386  0DF5  0A02        	sub a,2
2386  0DF6  3D0A        	sz z
2386  0DF7  2800     R  	jmp _L152
2386  0DF8  0A01        	sub a,(3)-(2)
2386  0DF9  3D0A        	sz z
2386  0DFA  2800     R  	jmp _L152
2386  0DFB  0700     E  	mov a,_M_Error_Task[0]
2386  0DFC  0A04        	sub a,4
2386  0DFD  3D0A        	sz z
2386  0DFE  2800     R  	jmp _L153
2386  0DFF  0A01        	sub a,(5)-(4)
2386  0E00  3D0A        	sz z
2386  0E01  2800     R  	jmp _L154
2386  0E02  0700     E  	mov a,_M_Error_Task[0]
2386  0E03  0A06        	sub a,6
2386  0E04  3D0A        	sz z
2386  0E05  2800     R  	jmp _L155
2386  0E06  0A01        	sub a,(7)-(6)
2386  0E07  3D0A        	sz z
2386  0E08  2800     R  	jmp _L156
2386  0E09  0700     E  	mov a,_M_Error_Task[0]
2386  0E0A  0A09        	sub a,9
2386  0E0B  3D0A        	sz z
2386  0E0C  2800     R  	jmp _L157
2386  0E0D  0A01        	sub a,(10)-(9)
2386  0E0E  3D0A        	sz z
2386  0E0F  2800     R  	jmp _L158
文件：OpMode_A.C   编译器版本 HGASM 0202 页次106

2386  0E10  0700     E  	mov a,_M_Error_Task[0]
2386  0E11  0A0E        	sub a,14
2386  0E12  390A        	snz z
2386  0E13  2800     R  	jmp _L229
2560  0E14              #line 2560 "c:\users\longshuangmin\desktop\worke_space\g-501\g-501\OpMode_A.C"
2560  0E14  0F24        	mov a,36
2560  0E15  0080     E  	mov _memset_2[4],a
2560  0E16  1F00     E  	clr _memset_2[5]
2560  0E17  1F00     E  	clr _memset_2[2]
2560  0E18  1F00     E  	clr _memset_2[3]
2560  0E19  0F00     E  	mov a,low offset _lcd
2560  0E1A  0080     E  	mov _memset_2[0],a
2560  0E1B  0F00     E  	mov a,high offset _lcd
2560  0E1C  0080     E  	mov _memset_2[1],a
2560  0E1D              	fcall _memset
2561  0E24              #line 2561 "c:\users\longshuangmin\desktop\worke_space\g-501\g-501\OpMode_A.C"
2561  0E24  0F00     E  	mov a,low (offset _charTab+138)
2561  0E25  0083        	mov mp,a
2561  0E26  0F00     E  	mov a,high (offset _charTab+138)
2561  0E27  0084        	mov sbp,a
2561  0E28              	fcall _Crom2Prom
2561  0E2F  0080     E  	mov rb,a
2561  0E30              	fcall _Crom2PromNext
2561  0E37  0080     E  	mov rc,a
2561  0E38  0700     E  	mov a,rb
2561  0E39  0080     E  	mov _lcd[16],a
2561  0E3A  0700     E  	mov a,rc
2561  0E3B  0080     E  	mov _lcd[17],a
2563  0E3C              #line 2563 "c:\users\longshuangmin\desktop\worke_space\g-501\g-501\OpMode_A.C"
2563  0E3C  0FCF        	mov a,207
2563  0E3D  0383        	addm a,mp
2563  0E3E  0FFF        	mov a,255
2563  0E3F  1384        	adcm a,sbp
2563  0E40              	fcall _Crom2Prom
2563  0E47  0080     E  	mov _lcd[18],a
2563  0E48              	fcall _Crom2PromNext
2563  0E4F  0080     E  	mov _lcd[19],a
2564  0E50              #line 2564 "c:\users\longshuangmin\desktop\worke_space\g-501\g-501\OpMode_A.C"
2564  0E50  0700     E  	mov a,rb
2564  0E51  0080     E  	mov _lcd[20],a
2564  0E52  0700     E  	mov a,rc
2564  0E53  0080     E  	mov _lcd[21],a
2565  0E54              #line 2565 "c:\users\longshuangmin\desktop\worke_space\g-501\g-501\OpMode_A.C"
2565  0E54  3000     E  	set _Flag2[0].1
2568  0E55              #line 2568 "c:\users\longshuangmin\desktop\worke_space\g-501\g-501\OpMode_A.C"
2568  0E55  0700     R  	mov a,_Cbuf0[0]
2568  0E56  0080     E  	mov ra,a
2568  0E57  0F80        	mov a,low offset _M_UART_TxFIFO
2568  0E58  0300     E  	add a,ra
2568  0E59  0083        	mov mp,a
2568  0E5A  0F1F        	mov a,high offset _M_UART_TxFIFO
2568  0E5B  1F04        	clr sbp
2568  0E5C  1384        	adcm a,sbp
2568  0E5D  0FEE        	mov a,238
2568  0E5E  0082        	mov ir,a
2568  0E5F  1400     E  	inca ra
2568  0E60  0080     E  	mov rb,a
2569  0E61              #line 2569 "c:\users\longshuangmin\desktop\worke_space\g-501\g-501\OpMode_A.C"
2569  0E61  0F80        	mov a,low offset _M_UART_TxFIFO
2569  0E62  0300     E  	add a,rb
文件：OpMode_A.C   编译器版本 HGASM 0202 页次107

2569  0E63  0083        	mov mp,a
2569  0E64  0F1F        	mov a,high offset _M_UART_TxFIFO
2569  0E65  1F04        	clr sbp
2569  0E66  1384        	adcm a,sbp
2569  0E67  0FE2        	mov a,226
2569  0E68  0082        	mov ir,a
2569  0E69  2800     R  	jmp _L242
2569  0E6A              _L150:
2390  0E6A              #line 2390 "c:\users\longshuangmin\desktop\worke_space\g-501\g-501\OpMode_A.C"
2390  0E6A  0F63        	mov a,99
2390  0E6B  0080     E  	mov _M_Error_Task[0],a
2391  0E6C              #line 2391 "c:\users\longshuangmin\desktop\worke_space\g-501\g-501\OpMode_A.C"
2391  0E6C  0FCB        	mov a,-53
2391  0E6D  0080     E  	mov _M_RTC_display[0],a
2391  0E6E  1F00     E  	clr _M_RTC_display[1]
2392  0E6F              #line 2392 "c:\users\longshuangmin\desktop\worke_space\g-501\g-501\OpMode_A.C"
2392  0E6F  2800     R  	jmp _L23
2392  0E70              _L153:
2398  0E70              #line 2398 "c:\users\longshuangmin\desktop\worke_space\g-501\g-501\OpMode_A.C"
2398  0E70  0F24        	mov a,36
2398  0E71  0080     E  	mov _memset_2[4],a
2398  0E72  1F00     E  	clr _memset_2[5]
2398  0E73  1F00     E  	clr _memset_2[2]
2398  0E74  1F00     E  	clr _memset_2[3]
2398  0E75  0F00     E  	mov a,low offset _lcd
2398  0E76  0080     E  	mov _memset_2[0],a
2398  0E77  0F00     E  	mov a,high offset _lcd
2398  0E78  0080     E  	mov _memset_2[1],a
2398  0E79              	fcall _memset
2399  0E80              #line 2399 "c:\users\longshuangmin\desktop\worke_space\g-501\g-501\OpMode_A.C"
2399  0E80  0F00     E  	mov a,low (offset _charTab+138)
2399  0E81  0083        	mov mp,a
2399  0E82  0F00     E  	mov a,high (offset _charTab+138)
2399  0E83  0084        	mov sbp,a
2399  0E84              	fcall _Crom2Prom
2399  0E8B  0080     E  	mov _lcd[16],a
2399  0E8C              	fcall _Crom2PromNext
2399  0E93  0080     E  	mov _lcd[17],a
2401  0E94              #line 2401 "c:\users\longshuangmin\desktop\worke_space\g-501\g-501\OpMode_A.C"
2401  0E94  0FCF        	mov a,207
2401  0E95  0383        	addm a,mp
2401  0E96  0FFF        	mov a,255
2401  0E97  1384        	adcm a,sbp
2401  0E98              	fcall _Crom2Prom
2401  0E9F  0080     E  	mov _lcd[18],a
2401  0EA0              	fcall _Crom2PromNext
2401  0EA7  0080     E  	mov _lcd[19],a
2402  0EA8              #line 2402 "c:\users\longshuangmin\desktop\worke_space\g-501\g-501\OpMode_A.C"
2402  0EA8  0F4F        	mov a,79
2402  0EA9  0383        	addm a,mp
2402  0EAA  0F00        	mov a,0
2402  0EAB  1384        	adcm a,sbp
2402  0EAC              	fcall _Crom2Prom
2402  0EB3  0080     E  	mov _lcd[20],a
2402  0EB4              	fcall _Crom2PromNext
2402  0EBB  0080     E  	mov _lcd[21],a
2403  0EBC              #line 2403 "c:\users\longshuangmin\desktop\worke_space\g-501\g-501\OpMode_A.C"
2403  0EBC  3000     E  	set _Flag2[0].1
2410  0EBD              #line 2410 "c:\users\longshuangmin\desktop\worke_space\g-501\g-501\OpMode_A.C"
2410  0EBD  0700     R  	mov a,_Cbuf0[0]
文件：OpMode_A.C   编译器版本 HGASM 0202 页次108

2410  0EBE  0080     E  	mov ra,a
2410  0EBF  0F80        	mov a,low offset _M_UART_TxFIFO
2410  0EC0  0300     E  	add a,ra
2410  0EC1  0083        	mov mp,a
2410  0EC2  0F1F        	mov a,high offset _M_UART_TxFIFO
2410  0EC3  1F04        	clr sbp
2410  0EC4  1384        	adcm a,sbp
2410  0EC5  0FEE        	mov a,238
2410  0EC6  0082        	mov ir,a
2410  0EC7  1400     E  	inca ra
2410  0EC8  0080     E  	mov rb,a
2411  0EC9              #line 2411 "c:\users\longshuangmin\desktop\worke_space\g-501\g-501\OpMode_A.C"
2411  0EC9  0F80        	mov a,low offset _M_UART_TxFIFO
2411  0ECA  0300     E  	add a,rb
2411  0ECB  0083        	mov mp,a
2411  0ECC  0F1F        	mov a,high offset _M_UART_TxFIFO
2411  0ECD  1F04        	clr sbp
2411  0ECE  1384        	adcm a,sbp
2411  0ECF  0FE3        	mov a,227
2411  0ED0  0082        	mov ir,a
2411  0ED1  2800     R  	jmp _L242
2411  0ED2              _L154:
2421  0ED2              #line 2421 "c:\users\longshuangmin\desktop\worke_space\g-501\g-501\OpMode_A.C"
2421  0ED2  0F24        	mov a,36
2421  0ED3  0080     E  	mov _memset_2[4],a
2421  0ED4  1F00     E  	clr _memset_2[5]
2421  0ED5  1F00     E  	clr _memset_2[2]
2421  0ED6  1F00     E  	clr _memset_2[3]
2421  0ED7  0F00     E  	mov a,low offset _lcd
2421  0ED8  0080     E  	mov _memset_2[0],a
2421  0ED9  0F00     E  	mov a,high offset _lcd
2421  0EDA  0080     E  	mov _memset_2[1],a
2421  0EDB              	fcall _memset
2422  0EE2              #line 2422 "c:\users\longshuangmin\desktop\worke_space\g-501\g-501\OpMode_A.C"
2422  0EE2  0F00     E  	mov a,low (offset _charTab+138)
2422  0EE3  0083        	mov mp,a
2422  0EE4  0F00     E  	mov a,high (offset _charTab+138)
2422  0EE5  0084        	mov sbp,a
2422  0EE6              	fcall _Crom2Prom
2422  0EED  0080     E  	mov _lcd[16],a
2422  0EEE              	fcall _Crom2PromNext
2422  0EF5  0080     E  	mov _lcd[17],a
2424  0EF6              #line 2424 "c:\users\longshuangmin\desktop\worke_space\g-501\g-501\OpMode_A.C"
2424  0EF6  0FCF        	mov a,207
2424  0EF7  0383        	addm a,mp
2424  0EF8  0FFF        	mov a,255
2424  0EF9  1384        	adcm a,sbp
2424  0EFA              	fcall _Crom2Prom
2424  0F01  0080     E  	mov _lcd[18],a
2424  0F02              	fcall _Crom2PromNext
2424  0F09  0080     E  	mov _lcd[19],a
2425  0F0A              #line 2425 "c:\users\longshuangmin\desktop\worke_space\g-501\g-501\OpMode_A.C"
2425  0F0A  0F8D        	mov a,141
2425  0F0B  0383        	addm a,mp
2425  0F0C  0F00        	mov a,0
2425  0F0D  1384        	adcm a,sbp
2425  0F0E              	fcall _Crom2Prom
2425  0F15  0080     E  	mov _lcd[20],a
2425  0F16              	fcall _Crom2PromNext
2425  0F1D  0080     E  	mov _lcd[21],a
文件：OpMode_A.C   编译器版本 HGASM 0202 页次109

2426  0F1E              #line 2426 "c:\users\longshuangmin\desktop\worke_space\g-501\g-501\OpMode_A.C"
2426  0F1E  3000     E  	set _Flag2[0].1
2431  0F1F              #line 2431 "c:\users\longshuangmin\desktop\worke_space\g-501\g-501\OpMode_A.C"
2431  0F1F  0700     R  	mov a,_Cbuf0[0]
2431  0F20  0080     E  	mov ra,a
2431  0F21  0F80        	mov a,low offset _M_UART_TxFIFO
2431  0F22  0300     E  	add a,ra
2431  0F23  0083        	mov mp,a
2431  0F24  0F1F        	mov a,high offset _M_UART_TxFIFO
2431  0F25  1F04        	clr sbp
2431  0F26  1384        	adcm a,sbp
2431  0F27  0FEE        	mov a,238
2431  0F28  0082        	mov ir,a
2431  0F29  1400     E  	inca ra
2431  0F2A  0080     E  	mov rb,a
2432  0F2B              #line 2432 "c:\users\longshuangmin\desktop\worke_space\g-501\g-501\OpMode_A.C"
2432  0F2B  0F80        	mov a,low offset _M_UART_TxFIFO
2432  0F2C  0300     E  	add a,rb
2432  0F2D  0083        	mov mp,a
2432  0F2E  0F1F        	mov a,high offset _M_UART_TxFIFO
2432  0F2F  1F04        	clr sbp
2432  0F30  1384        	adcm a,sbp
2432  0F31  0FE4        	mov a,228
2432  0F32  0082        	mov ir,a
2432  0F33  2800     R  	jmp _L242
2432  0F34              _L155:
2442  0F34              #line 2442 "c:\users\longshuangmin\desktop\worke_space\g-501\g-501\OpMode_A.C"
2442  0F34  0F24        	mov a,36
2442  0F35  0080     E  	mov _memset_2[4],a
2442  0F36  1F00     E  	clr _memset_2[5]
2442  0F37  1F00     E  	clr _memset_2[2]
2442  0F38  1F00     E  	clr _memset_2[3]
2442  0F39  0F00     E  	mov a,low offset _lcd
2442  0F3A  0080     E  	mov _memset_2[0],a
2442  0F3B  0F00     E  	mov a,high offset _lcd
2442  0F3C  0080     E  	mov _memset_2[1],a
2442  0F3D              	fcall _memset
2443  0F44              #line 2443 "c:\users\longshuangmin\desktop\worke_space\g-501\g-501\OpMode_A.C"
2443  0F44  0F00     E  	mov a,low (offset _charTab+138)
2443  0F45  0083        	mov mp,a
2443  0F46  0F00     E  	mov a,high (offset _charTab+138)
2443  0F47  0084        	mov sbp,a
2443  0F48              	fcall _Crom2Prom
2443  0F4F  0080     E  	mov _lcd[16],a
2443  0F50              	fcall _Crom2PromNext
2443  0F57  0080     E  	mov _lcd[17],a
2445  0F58              #line 2445 "c:\users\longshuangmin\desktop\worke_space\g-501\g-501\OpMode_A.C"
2445  0F58  0FCF        	mov a,207
2445  0F59  0383        	addm a,mp
2445  0F5A  0FFF        	mov a,255
2445  0F5B  1384        	adcm a,sbp
2445  0F5C              	fcall _Crom2Prom
2445  0F63  0080     E  	mov _lcd[18],a
2445  0F64              	fcall _Crom2PromNext
2445  0F6B  0080     E  	mov _lcd[19],a
2446  0F6C              #line 2446 "c:\users\longshuangmin\desktop\worke_space\g-501\g-501\OpMode_A.C"
2446  0F6C  0F69        	mov a,105
2446  0F6D  0383        	addm a,mp
2446  0F6E  0F00        	mov a,0
2446  0F6F  1384        	adcm a,sbp
文件：OpMode_A.C   编译器版本 HGASM 0202 页次110

2446  0F70              	fcall _Crom2Prom
2446  0F77  0080     E  	mov _lcd[20],a
2446  0F78              	fcall _Crom2PromNext
2446  0F7F  0080     E  	mov _lcd[21],a
2453  0F80              #line 2453 "c:\users\longshuangmin\desktop\worke_space\g-501\g-501\OpMode_A.C"
2453  0F80  3000     E  	set _Flag2[0].1
2453  0F81  2800     R  	jmp _L239
2453  0F82              _L156:
2463  0F82              #line 2463 "c:\users\longshuangmin\desktop\worke_space\g-501\g-501\OpMode_A.C"
2463  0F82  0F24        	mov a,36
2463  0F83  0080     E  	mov _memset_2[4],a
2463  0F84  1F00     E  	clr _memset_2[5]
2463  0F85  1F00     E  	clr _memset_2[2]
2463  0F86  1F00     E  	clr _memset_2[3]
2463  0F87  0F00     E  	mov a,low offset _lcd
2463  0F88  0080     E  	mov _memset_2[0],a
2463  0F89  0F00     E  	mov a,high offset _lcd
2463  0F8A  0080     E  	mov _memset_2[1],a
2463  0F8B              	fcall _memset
2464  0F92              #line 2464 "c:\users\longshuangmin\desktop\worke_space\g-501\g-501\OpMode_A.C"
2464  0F92  3A14        	snz [20].4
2464  0F93  2800     R  	jmp _L160
2464  0F94              _L161:
2466  0F94              #line 2466 "c:\users\longshuangmin\desktop\worke_space\g-501\g-501\OpMode_A.C"
2466  0F94  0F09        	mov a,9
2466  0F95  0080     E  	mov _M_Error_Task[0],a
2467  0F96              #line 2467 "c:\users\longshuangmin\desktop\worke_space\g-501\g-501\OpMode_A.C"
2467  0F96  2800     R  	jmp _L23
2467  0F97              _L160:
2474  0F97              #line 2474 "c:\users\longshuangmin\desktop\worke_space\g-501\g-501\OpMode_A.C"
2474  0F97  0F00     E  	mov a,low (offset _charTab+138)
2474  0F98  0083        	mov mp,a
2474  0F99  0F00     E  	mov a,high (offset _charTab+138)
2474  0F9A  0084        	mov sbp,a
2474  0F9B              	fcall _Crom2Prom
2474  0FA2  0080     E  	mov _lcd[16],a
2474  0FA3              	fcall _Crom2PromNext
2474  0FAA  0080     E  	mov _lcd[17],a
2476  0FAB              #line 2476 "c:\users\longshuangmin\desktop\worke_space\g-501\g-501\OpMode_A.C"
2476  0FAB  0FCF        	mov a,207
2476  0FAC  0383        	addm a,mp
2476  0FAD  0FFF        	mov a,255
2476  0FAE  1384        	adcm a,sbp
2476  0FAF              	fcall _Crom2Prom
2476  0FB6  0080     E  	mov _lcd[18],a
2476  0FB7              	fcall _Crom2PromNext
2476  0FBE  0080     E  	mov _lcd[19],a
2477  0FBF              #line 2477 "c:\users\longshuangmin\desktop\worke_space\g-501\g-501\OpMode_A.C"
2477  0FBF  0F30        	mov a,48
2477  0FC0  0300     E  	add a,_M_Error_Task[0]
2477  0FC1  0080     E  	mov rb,a
2477  0FC2  0F00        	mov a,0
2477  0FC3  1F00     E  	clr rc
2477  0FC4  1380     E  	adcm a,rc
2477  0FC5  340A        	clr c
2477  0FC6  1A80     E  	rlc rb
2477  0FC7  1A80     E  	rlc rc
2477  0FC8  0F00     E  	mov a,low offset _charTab
2477  0FC9  0300     E  	add a,rb
2477  0FCA  0083        	mov mp,a
文件：OpMode_A.C   编译器版本 HGASM 0202 页次111

2477  0FCB  0F00     E  	mov a,high offset _charTab
2477  0FCC  1300     E  	adc a,rc
2477  0FCD  0084        	mov sbp,a
2477  0FCE              	fcall _Crom2Prom
2477  0FD5  0080     E  	mov _lcd[20],a
2477  0FD6              	fcall _Crom2PromNext
2477  0FDD  0080     E  	mov _lcd[21],a
2478  0FDE              #line 2478 "c:\users\longshuangmin\desktop\worke_space\g-501\g-501\OpMode_A.C"
2478  0FDE  3000     E  	set _Flag2[0].1
2482  0FDF              #line 2482 "c:\users\longshuangmin\desktop\worke_space\g-501\g-501\OpMode_A.C"
2482  0FDF  0700     R  	mov a,_Cbuf0[0]
2482  0FE0  0080     E  	mov ra,a
2482  0FE1  0F80        	mov a,low offset _M_UART_TxFIFO
2482  0FE2  0300     E  	add a,ra
2482  0FE3  0083        	mov mp,a
2482  0FE4  0F1F        	mov a,high offset _M_UART_TxFIFO
2482  0FE5  1F04        	clr sbp
2482  0FE6  1384        	adcm a,sbp
2482  0FE7  0FEE        	mov a,238
2482  0FE8  0082        	mov ir,a
2482  0FE9  1400     E  	inca ra
2482  0FEA  0080     E  	mov rb,a
2483  0FEB              #line 2483 "c:\users\longshuangmin\desktop\worke_space\g-501\g-501\OpMode_A.C"
2483  0FEB  0F80        	mov a,low offset _M_UART_TxFIFO
2483  0FEC  0300     E  	add a,rb
2483  0FED  0083        	mov mp,a
2483  0FEE  0F1F        	mov a,high offset _M_UART_TxFIFO
2483  0FEF  1F04        	clr sbp
2483  0FF0  1384        	adcm a,sbp
2483  0FF1  0FE7        	mov a,231
2483  0FF2  0082        	mov ir,a
2483  0FF3  2800     R  	jmp _L242
2483  0FF4              _L158:
2505  0FF4              #line 2505 "c:\users\longshuangmin\desktop\worke_space\g-501\g-501\OpMode_A.C"
2505  0FF4  0F24        	mov a,36
2505  0FF5  0080     E  	mov _memset_2[4],a
2505  0FF6  1F00     E  	clr _memset_2[5]
2505  0FF7  1F00     E  	clr _memset_2[2]
2505  0FF8  1F00     E  	clr _memset_2[3]
2505  0FF9  0F00     E  	mov a,low offset _lcd
2505  0FFA  0080     E  	mov _memset_2[0],a
2505  0FFB  0F00     E  	mov a,high offset _lcd
2505  0FFC  0080     E  	mov _memset_2[1],a
2505  0FFD              	fcall _memset
2506  1004              #line 2506 "c:\users\longshuangmin\desktop\worke_space\g-501\g-501\OpMode_A.C"
2506  1004  3E14        	sz [20].4
2506  1005  2800     R  	jmp _L161
2516  1006              #line 2516 "c:\users\longshuangmin\desktop\worke_space\g-501\g-501\OpMode_A.C"
2516  1006  0F00     E  	mov a,low (offset _charTab+138)
2516  1007  0083        	mov mp,a
2516  1008  0F00     E  	mov a,high (offset _charTab+138)
2516  1009  0084        	mov sbp,a
2516  100A              	fcall _Crom2Prom
2516  1011  0080     E  	mov _lcd[16],a
2516  1012              	fcall _Crom2PromNext
2516  1019  0080     E  	mov _lcd[17],a
2518  101A              #line 2518 "c:\users\longshuangmin\desktop\worke_space\g-501\g-501\OpMode_A.C"
2518  101A  0FD7        	mov a,215
2518  101B  0383        	addm a,mp
2518  101C  0FFF        	mov a,255
文件：OpMode_A.C   编译器版本 HGASM 0202 页次112

2518  101D  1384        	adcm a,sbp
2518  101E              	fcall _Crom2Prom
2518  1025  0080     E  	mov _lcd[18],a
2518  1026              	fcall _Crom2PromNext
2518  102D  0080     E  	mov _lcd[19],a
2519  102E              #line 2519 "c:\users\longshuangmin\desktop\worke_space\g-501\g-501\OpMode_A.C"
2519  102E  0FFD        	mov a,253
2519  102F  0383        	addm a,mp
2519  1030  0FFF        	mov a,255
2519  1031  1384        	adcm a,sbp
2519  1032              	fcall _Crom2Prom
2519  1039  0080     E  	mov _lcd[20],a
2519  103A              	fcall _Crom2PromNext
2519  1041  0080     E  	mov _lcd[21],a
2520  1042              #line 2520 "c:\users\longshuangmin\desktop\worke_space\g-501\g-501\OpMode_A.C"
2520  1042  3000     E  	set _Flag2[0].1
2524  1043              #line 2524 "c:\users\longshuangmin\desktop\worke_space\g-501\g-501\OpMode_A.C"
2524  1043  0700     R  	mov a,_Cbuf0[0]
2524  1044  0080     E  	mov ra,a
2524  1045  0F80        	mov a,low offset _M_UART_TxFIFO
2524  1046  0300     E  	add a,ra
2524  1047  0083        	mov mp,a
2524  1048  0F1F        	mov a,high offset _M_UART_TxFIFO
2524  1049  1F04        	clr sbp
2524  104A  1384        	adcm a,sbp
2524  104B  0FEE        	mov a,238
2524  104C  0082        	mov ir,a
2524  104D  1400     E  	inca ra
2524  104E  0080     E  	mov rb,a
2525  104F              #line 2525 "c:\users\longshuangmin\desktop\worke_space\g-501\g-501\OpMode_A.C"
2525  104F  0F80        	mov a,low offset _M_UART_TxFIFO
2525  1050  0300     E  	add a,rb
2525  1051  0083        	mov mp,a
2525  1052  0F1F        	mov a,high offset _M_UART_TxFIFO
2525  1053  1F04        	clr sbp
2525  1054  1384        	adcm a,sbp
2525  1055  0FE8        	mov a,232
2525  1056  0082        	mov ir,a
2525  1057  2800     R  	jmp _L242
2525  1058              _L157:
2537  1058              #line 2537 "c:\users\longshuangmin\desktop\worke_space\g-501\g-501\OpMode_A.C"
2537  1058  0F24        	mov a,36
2537  1059  0080     E  	mov _memset_2[4],a
2537  105A  1F00     E  	clr _memset_2[5]
2537  105B  1F00     E  	clr _memset_2[2]
2537  105C  1F00     E  	clr _memset_2[3]
2537  105D  0F00     E  	mov a,low offset _lcd
2537  105E  0080     E  	mov _memset_2[0],a
2537  105F  0F00     E  	mov a,high offset _lcd
2537  1060  0080     E  	mov _memset_2[1],a
2537  1061              	fcall _memset
2538  1068              #line 2538 "c:\users\longshuangmin\desktop\worke_space\g-501\g-501\OpMode_A.C"
2538  1068  0F00     E  	mov a,low (offset _charTab+138)
2538  1069  0083        	mov mp,a
2538  106A  0F00     E  	mov a,high (offset _charTab+138)
2538  106B  0084        	mov sbp,a
2538  106C              	fcall _Crom2Prom
2538  1073  0080     E  	mov _lcd[16],a
2538  1074              	fcall _Crom2PromNext
2538  107B  0080     E  	mov _lcd[17],a
文件：OpMode_A.C   编译器版本 HGASM 0202 页次113

2540  107C              #line 2540 "c:\users\longshuangmin\desktop\worke_space\g-501\g-501\OpMode_A.C"
2540  107C  0FCF        	mov a,207
2540  107D  0383        	addm a,mp
2540  107E  0FFF        	mov a,255
2540  107F  1384        	adcm a,sbp
2540  1080              	fcall _Crom2Prom
2540  1087  0080     E  	mov _lcd[18],a
2540  1088              	fcall _Crom2PromNext
2540  108F  0080     E  	mov _lcd[19],a
2541  1090              #line 2541 "c:\users\longshuangmin\desktop\worke_space\g-501\g-501\OpMode_A.C"
2541  1090  0F31        	mov a,49
2541  1091  0383        	addm a,mp
2541  1092  0F00        	mov a,0
2541  1093  1384        	adcm a,sbp
2541  1094              	fcall _Crom2Prom
2541  109B  0080     E  	mov _lcd[20],a
2541  109C              	fcall _Crom2PromNext
2541  10A3  0080     E  	mov _lcd[21],a
2542  10A4              #line 2542 "c:\users\longshuangmin\desktop\worke_space\g-501\g-501\OpMode_A.C"
2542  10A4  3000     E  	set _Flag2[0].1
2545  10A5              #line 2545 "c:\users\longshuangmin\desktop\worke_space\g-501\g-501\OpMode_A.C"
2545  10A5  0700     R  	mov a,_Cbuf0[0]
2545  10A6  0080     E  	mov ra,a
2545  10A7  0F80        	mov a,low offset _M_UART_TxFIFO
2545  10A8  0300     E  	add a,ra
2545  10A9  0083        	mov mp,a
2545  10AA  0F1F        	mov a,high offset _M_UART_TxFIFO
2545  10AB  1F04        	clr sbp
2545  10AC  1384        	adcm a,sbp
2545  10AD  0FEE        	mov a,238
2545  10AE  0082        	mov ir,a
2545  10AF  1400     E  	inca ra
2545  10B0  0080     E  	mov rb,a
2546  10B1              #line 2546 "c:\users\longshuangmin\desktop\worke_space\g-501\g-501\OpMode_A.C"
2546  10B1  0F80        	mov a,low offset _M_UART_TxFIFO
2546  10B2  0300     E  	add a,rb
2546  10B3  0083        	mov mp,a
2546  10B4  0F1F        	mov a,high offset _M_UART_TxFIFO
2546  10B5  1F04        	clr sbp
2546  10B6  1384        	adcm a,sbp
2546  10B7  0FE1        	mov a,225
2546  10B8  0082        	mov ir,a
2546  10B9              _L242:
2570  10B9              #line 2570 "c:\users\longshuangmin\desktop\worke_space\g-501\g-501\OpMode_A.C"
2570  10B9  0700     E  	mov a,ra
2570  10BA  0B03        	add a,3
2570  10BB  0080     R  	mov _Cbuf0[0],a
2569  10BC              #line 2569 "c:\users\longshuangmin\desktop\worke_space\g-501\g-501\OpMode_A.C"
2569  10BC  0F02        	mov a,2
2569  10BD  0380     E  	addm a,ra
2570  10BE              #line 2570 "c:\users\longshuangmin\desktop\worke_space\g-501\g-501\OpMode_A.C"
2570  10BE  0F80        	mov a,low offset _M_UART_TxFIFO
2570  10BF  0300     E  	add a,ra
2570  10C0  0083        	mov mp,a
2570  10C1  0F1F        	mov a,high offset _M_UART_TxFIFO
2570  10C2  1F04        	clr sbp
2570  10C3  1384        	adcm a,sbp
2570  10C4  0F02        	mov a,2
2570  10C5  0082        	mov ir,a
2570  10C6  2800     R  	jmp _L239
文件：OpMode_A.C   编译器版本 HGASM 0202 页次114

2570  10C7              _L151:
2582  10C7              #line 2582 "c:\users\longshuangmin\desktop\worke_space\g-501\g-501\OpMode_A.C"
2582  10C7  0F24        	mov a,36
2582  10C8  0080     E  	mov _memset_2[4],a
2582  10C9  1F00     E  	clr _memset_2[5]
2582  10CA  1F00     E  	clr _memset_2[2]
2582  10CB  1F00     E  	clr _memset_2[3]
2582  10CC  0F00     E  	mov a,low offset _lcd
2582  10CD  0080     E  	mov _memset_2[0],a
2582  10CE  0F00     E  	mov a,high offset _lcd
2582  10CF  0080     E  	mov _memset_2[1],a
2582  10D0              	fcall _memset
2583  10D7              #line 2583 "c:\users\longshuangmin\desktop\worke_space\g-501\g-501\OpMode_A.C"
2583  10D7  0F00     E  	mov a,low (offset _charTab+138)
2583  10D8  0083        	mov mp,a
2583  10D9  0F00     E  	mov a,high (offset _charTab+138)
2583  10DA  0084        	mov sbp,a
2583  10DB              	fcall _Crom2Prom
2583  10E2  0080     E  	mov _lcd[16],a
2583  10E3              	fcall _Crom2PromNext
2583  10EA  0080     E  	mov _lcd[17],a
2585  10EB              #line 2585 "c:\users\longshuangmin\desktop\worke_space\g-501\g-501\OpMode_A.C"
2585  10EB  0FCF        	mov a,207
2585  10EC  0383        	addm a,mp
2585  10ED  0FFF        	mov a,255
2585  10EE  1384        	adcm a,sbp
2585  10EF              	fcall _Crom2Prom
2585  10F6  0080     E  	mov _lcd[18],a
2585  10F7              	fcall _Crom2PromNext
2585  10FE  0080     E  	mov _lcd[19],a
2586  10FF              #line 2586 "c:\users\longshuangmin\desktop\worke_space\g-501\g-501\OpMode_A.C"
2586  10FF  0F30        	mov a,48
2586  1100  0300     E  	add a,_M_Error_Task[0]
2586  1101  0080     E  	mov rb,a
2586  1102  0F00        	mov a,0
2586  1103  1F00     E  	clr rc
2586  1104  1380     E  	adcm a,rc
2586  1105  340A        	clr c
2586  1106  1A80     E  	rlc rb
2586  1107  1A80     E  	rlc rc
2586  1108  0F00     E  	mov a,low offset _charTab
2586  1109  0300     E  	add a,rb
2586  110A  0083        	mov mp,a
2586  110B  0F00     E  	mov a,high offset _charTab
2586  110C  1300     E  	adc a,rc
2586  110D  0084        	mov sbp,a
2586  110E              	fcall _Crom2Prom
2586  1115  0080     E  	mov _lcd[20],a
2586  1116              	fcall _Crom2PromNext
2586  111D  0080     E  	mov _lcd[21],a
2587  111E              #line 2587 "c:\users\longshuangmin\desktop\worke_space\g-501\g-501\OpMode_A.C"
2587  111E  3000     E  	set _Flag2[0].1
2591  111F              #line 2591 "c:\users\longshuangmin\desktop\worke_space\g-501\g-501\OpMode_A.C"
2591  111F  1F00     E  	clr _M_No_Active_Cnt[0]
2591  1120  1F00     E  	clr _M_No_Active_Cnt[1]
2591  1121  2800     R  	jmp _L238
2591  1122              _L152:
2600  1122              #line 2600 "c:\users\longshuangmin\desktop\worke_space\g-501\g-501\OpMode_A.C"
2600  1122  0F24        	mov a,36
2600  1123  0080     E  	mov _memset_2[4],a
文件：OpMode_A.C   编译器版本 HGASM 0202 页次115

2600  1124  1F00     E  	clr _memset_2[5]
2600  1125  1F00     E  	clr _memset_2[2]
2600  1126  1F00     E  	clr _memset_2[3]
2600  1127  0F00     E  	mov a,low offset _lcd
2600  1128  0080     E  	mov _memset_2[0],a
2600  1129  0F00     E  	mov a,high offset _lcd
2600  112A  0080     E  	mov _memset_2[1],a
2600  112B              	fcall _memset
2601  1132              #line 2601 "c:\users\longshuangmin\desktop\worke_space\g-501\g-501\OpMode_A.C"
2601  1132  0F00     E  	mov a,low (offset _charTab+138)
2601  1133  0083        	mov mp,a
2601  1134  0F00     E  	mov a,high (offset _charTab+138)
2601  1135  0084        	mov sbp,a
2601  1136              	fcall _Crom2Prom
2601  113D  0080     E  	mov _lcd[16],a
2601  113E              	fcall _Crom2PromNext
2601  1145  0080     E  	mov _lcd[17],a
2603  1146              #line 2603 "c:\users\longshuangmin\desktop\worke_space\g-501\g-501\OpMode_A.C"
2603  1146  0FCF        	mov a,207
2603  1147  0383        	addm a,mp
2603  1148  0FFF        	mov a,255
2603  1149  1384        	adcm a,sbp
2603  114A              	fcall _Crom2Prom
2603  1151  0080     E  	mov _lcd[18],a
2603  1152              	fcall _Crom2PromNext
2603  1159  0080     E  	mov _lcd[19],a
2604  115A              #line 2604 "c:\users\longshuangmin\desktop\worke_space\g-501\g-501\OpMode_A.C"
2604  115A  0700     E  	mov a,_M_Error_Task[0]
2604  115B  0080     E  	mov ra,a
2604  115C  0F30        	mov a,48
2604  115D  0300     E  	add a,ra
2604  115E  0080     E  	mov rb,a
2604  115F  0F00        	mov a,0
2604  1160  1F00     E  	clr rc
2604  1161  1380     E  	adcm a,rc
2604  1162  340A        	clr c
2604  1163  1A80     E  	rlc rb
2604  1164  1A80     E  	rlc rc
2604  1165  0F00     E  	mov a,low offset _charTab
2604  1166  0300     E  	add a,rb
2604  1167  0083        	mov mp,a
2604  1168  0F00     E  	mov a,high offset _charTab
2604  1169  1300     E  	adc a,rc
2604  116A  0084        	mov sbp,a
2604  116B              	fcall _Crom2Prom
2604  1172  0080     E  	mov _lcd[20],a
2604  1173              	fcall _Crom2PromNext
2604  117A  0080     E  	mov _lcd[21],a
2605  117B              #line 2605 "c:\users\longshuangmin\desktop\worke_space\g-501\g-501\OpMode_A.C"
2605  117B  3000     E  	set _Flag2[0].1
2610  117C              #line 2610 "c:\users\longshuangmin\desktop\worke_space\g-501\g-501\OpMode_A.C"
2610  117C  0F55        	mov a,85
2610  117D  C080 001F   	lmov [8064],a
2611  117F              #line 2611 "c:\users\longshuangmin\desktop\worke_space\g-501\g-501\OpMode_A.C"
2611  117F  0F05        	mov a,5
2611  1180  C081 001F   	lmov [8065],a
2612  1182              #line 2612 "c:\users\longshuangmin\desktop\worke_space\g-501\g-501\OpMode_A.C"
2612  1182  0FEE        	mov a,238
2612  1183  C082 001F   	lmov [8066],a
2613  1185              #line 2613 "c:\users\longshuangmin\desktop\worke_space\g-501\g-501\OpMode_A.C"
文件：OpMode_A.C   编译器版本 HGASM 0202 页次116

2613  1185  0700     E  	mov a,ra
2613  1186  C083 001F   	lmov [8067],a
2614  1188              #line 2614 "c:\users\longshuangmin\desktop\worke_space\g-501\g-501\OpMode_A.C"
2614  1188  0F05        	mov a,5
2614  1189  0080     R  	mov _Cbuf0[0],a
2614  118A  0F02        	mov a,2
2614  118B  C084 001F   	lmov [8068],a
2614  118D              _L239:
2617  118D              #line 2617 "c:\users\longshuangmin\desktop\worke_space\g-501\g-501\OpMode_A.C"
2617  118D  1F00     E  	clr _M_RTC_display[0]
2617  118E  1F00     E  	clr _M_RTC_display[1]
2617  118F              _L238:
2618  118F              #line 2618 "c:\users\longshuangmin\desktop\worke_space\g-501\g-501\OpMode_A.C"
2618  118F  0F63        	mov a,99
2618  1190  0080     E  	mov _M_Error_Task[0],a
2620  1191              #line 2620 "c:\users\longshuangmin\desktop\worke_space\g-501\g-501\OpMode_A.C"
2620  1191  2800     R  	jmp _L23
2620  1192              _L229:
2632  1192              #line 2632 "c:\users\longshuangmin\desktop\worke_space\g-501\g-501\OpMode_A.C"
2632  1192  0FC8        	mov a,200
2632  1193  0200     E  	sub a,_M_RTC_display[0]
2632  1194  0F00        	mov a,0
2632  1195  1200     E  	sbc a,_M_RTC_display[1]
2632  1196  3C0A        	sz c
2632  1197  2800     R  	jmp _L23
2635  1198              #line 2635 "c:\users\longshuangmin\desktop\worke_space\g-501\g-501\OpMode_A.C"
2635  1198  0F24        	mov a,36
2635  1199  0080     E  	mov _memset_2[4],a
2635  119A  1F00     E  	clr _memset_2[5]
2635  119B  1F00     E  	clr _memset_2[2]
2635  119C  1F00     E  	clr _memset_2[3]
2635  119D  0F00     E  	mov a,low offset _lcd
2635  119E  0080     E  	mov _memset_2[0],a
2635  119F  0F00     E  	mov a,high offset _lcd
2635  11A0  0080     E  	mov _memset_2[1],a
2635  11A1              	fcall _memset
2636  11A8              #line 2636 "c:\users\longshuangmin\desktop\worke_space\g-501\g-501\OpMode_A.C"
2636  11A8  0F18        	mov a,24
2636  11A9  0080     E  	mov _M_TaskBuf0[0],a
2637  11AA              #line 2637 "c:\users\longshuangmin\desktop\worke_space\g-501\g-501\OpMode_A.C"
2637  11AA  1F00     E  	clr _M_RTC_display[0]
2637  11AB  1F00     E  	clr _M_RTC_display[1]
2638  11AC              #line 2638 "c:\users\longshuangmin\desktop\worke_space\g-501\g-501\OpMode_A.C"
2638  11AC  1F00     E  	clr _M_Error_Task[0]
2641  11AD              #line 2641 "c:\users\longshuangmin\desktop\worke_space\g-501\g-501\OpMode_A.C"
2641  11AD  3020        	set [32].0
2641  11AE  2800     R  	jmp _L23
2641  11AF              _L225:
2687  11AF              #line 2687 "c:\users\longshuangmin\desktop\worke_space\g-501\g-501\OpMode_A.C"
2687  11AF  1F00     E  	clr _M_RTC_display[0]
2687  11B0  1F00     E  	clr _M_RTC_display[1]
2688  11B1              #line 2688 "c:\users\longshuangmin\desktop\worke_space\g-501\g-501\OpMode_A.C"
2688  11B1  1F00     E  	clr _M_No_Active_Cnt[0]
2688  11B2  1F00     E  	clr _M_No_Active_Cnt[1]
2689  11B3              #line 2689 "c:\users\longshuangmin\desktop\worke_space\g-501\g-501\OpMode_A.C"
2689  11B3  3400     E  	clr _Flag1[0].4
2690  11B4              #line 2690 "c:\users\longshuangmin\desktop\worke_space\g-501\g-501\OpMode_A.C"
2690  11B4  0F03        	mov a,3
2690  11B5  0080     E  	mov _M_Task[0],a
2691  11B6              #line 2691 "c:\users\longshuangmin\desktop\worke_space\g-501\g-501\OpMode_A.C"
文件：OpMode_A.C   编译器版本 HGASM 0202 页次117

2691  11B6  1F00     E  	clr _M_TaskBuf0[0]
2692  11B7              #line 2692 "c:\users\longshuangmin\desktop\worke_space\g-501\g-501\OpMode_A.C"
2692  11B7  1F00     E  	clr _M_TaskBuf1[0]
2694  11B8              #line 2694 "c:\users\longshuangmin\desktop\worke_space\g-501\g-501\OpMode_A.C"
2694  11B8  1F00     E  	clr _M_Error_Task[0]
2696  11B9              #line 2696 "c:\users\longshuangmin\desktop\worke_space\g-501\g-501\OpMode_A.C"
2696  11B9  0F00        	mov a,0
2696  11BA              	fcall _LCD_Clear
2702  11C1              #line 2702 "c:\users\longshuangmin\desktop\worke_space\g-501\g-501\OpMode_A.C"
2702  11C1  36ED        	clr [109].5
2703  11C2              #line 2703 "c:\users\longshuangmin\desktop\worke_space\g-501\g-501\OpMode_A.C"
2703  11C2  36EE        	clr [110].5
2704  11C3              #line 2704 "c:\users\longshuangmin\desktop\worke_space\g-501\g-501\OpMode_A.C"
2704  11C3  37FB        	clr [123].7
2704  11C4  36FC        	clr [124].5
2705  11C5              #line 2705 "c:\users\longshuangmin\desktop\worke_space\g-501\g-501\OpMode_A.C"
2705  11C5  34F1        	clr [113].1
2705  11C6  3471        	clr [113].0
2706  11C7              #line 2706 "c:\users\longshuangmin\desktop\worke_space\g-501\g-501\OpMode_A.C"
2706  11C7  35F1        	clr [113].3
2706  11C8  3571        	clr [113].2
2707  11C9              #line 2707 "c:\users\longshuangmin\desktop\worke_space\g-501\g-501\OpMode_A.C"
2707  11C9  3678        	clr [120].4
2708  11CA              #line 2708 "c:\users\longshuangmin\desktop\worke_space\g-501\g-501\OpMode_A.C"
2708  11CA              	fcall _fun_StripModuleAllOpen
2709  11D1              #line 2709 "c:\users\longshuangmin\desktop\worke_space\g-501\g-501\OpMode_A.C"
2709  11D1  32F0        	set [112].5
2709  11D2  3670        	clr [112].4
2709  11D3  35F0        	clr [112].3
2710  11D4              #line 2710 "c:\users\longshuangmin\desktop\worke_space\g-501\g-501\OpMode_A.C"
2710  11D4  3170        	set [112].2
2710  11D5  34F0        	clr [112].1
2710  11D6  3470        	clr [112].0
2712  11D7              #line 2712 "c:\users\longshuangmin\desktop\worke_space\g-501\g-501\OpMode_A.C"
2712  11D7              	fcall _fun_ADCStop
2715  11DE              #line 2715 "c:\users\longshuangmin\desktop\worke_space\g-501\g-501\OpMode_A.C"
2715  11DE  1F00     E  	clr _fun_DACVREFInit_2[0]
2715  11DF  1F00     E  	clr _fun_DACVREFInit_2[1]
2715  11E0              	fcall _fun_DACVREFInit
2717  11E7              #line 2717 "c:\users\longshuangmin\desktop\worke_space\g-501\g-501\OpMode_A.C"
2717  11E7  0F02        	mov a,2
2717  11E8  0080     E  	mov _fun_DACnInit_2[0],a
2717  11E9  1F00     E  	clr _fun_DACnInit_2[1]
2717  11EA  0F01        	mov a,1
2717  11EB              	fcall _fun_DACnInit
2720  11F2              #line 2720 "c:\users\longshuangmin\desktop\worke_space\g-501\g-501\OpMode_A.C"
2720  11F2  37ED        	clr [109].7
2721  11F3              #line 2721 "c:\users\longshuangmin\desktop\worke_space\g-501\g-501\OpMode_A.C"
2721  11F3  376D        	clr [109].6
2724  11F4              #line 2724 "c:\users\longshuangmin\desktop\worke_space\g-501\g-501\OpMode_A.C"
2724  11F4  37EE        	clr [110].7
2725  11F5              #line 2725 "c:\users\longshuangmin\desktop\worke_space\g-501\g-501\OpMode_A.C"
2725  11F5  376E        	clr [110].6
2729  11F6              #line 2729 "c:\users\longshuangmin\desktop\worke_space\g-501\g-501\OpMode_A.C"
2729  11F6  32A8        	set [40].5
2730  11F7              #line 2730 "c:\users\longshuangmin\desktop\worke_space\g-501\g-501\OpMode_A.C"
2730  11F7  32A9        	set [41].5
2733  11F8              #line 2733 "c:\users\longshuangmin\desktop\worke_space\g-501\g-501\OpMode_A.C"
2733  11F8  3095        	set [21].1
2734  11F9              #line 2734 "c:\users\longshuangmin\desktop\worke_space\g-501\g-501\OpMode_A.C"
文件：OpMode_A.C   编译器版本 HGASM 0202 页次118

2734  11F9  3096        	set [22].1
2734  11FA              _L23:
2734  11FA  0003        	ret
2734  11FB              _Normal_Measurement_Mode endp
2734  11FB              #line 2734 "c:\users\longshuangmin\desktop\worke_space\g-501\g-501\OpMode_A.C"
2734  11FB              #pragma debug scope 1 1
 201  11FB              #line 201 "c:\users\longshuangmin\desktop\worke_space\g-501\g-501\OpMode_A.C"
 201  11FB              public _proportion
 201  0000              @HCCINIT0_proportion .section 'data'
 201  0000  0008[       _proportion	db 8 dup(0)
            00
            ]
 201  0008              #pragma debug array 42 29 2 1
 201  0008              #pragma debug array 42 29 2 1
 201  0008              #pragma debug variable 42 1 _proportion "proportion"
 201  0008              
 201  0000              @HCCINIT .section 'data'
 200  0000              #line 200 "c:\users\longshuangmin\desktop\worke_space\g-501\g-501\OpMode_A.C"
 200  0000              public _Project_Sequence
 200  0000              @HCCINIT0_Project_Sequence .section 'data'
 200  0000  0004[       _Project_Sequence	db 4 dup(0)
            00
            ]
 200  0004              #pragma debug variable 14 1 _Project_Sequence "Project_Sequence"
 200  0004              
 200  0000              @HCCINIT .section 'data'
 200  0000              public _dis
 200  0000              @HCCINIT	.section 'data'
 199  0000              #line 199 "c:\users\longshuangmin\desktop\worke_space\g-501\g-501\OpMode_A.C"
 199  0000              @HCCINIT_dis .section 'data'
 199  0000              _dis label byte
 199  0000              #pragma debug variable 7 1 _dis "dis"
 199  0000              	db 0
 199  0000              @ROMDATA_BASE .section inpage 'code'
 199  0000              	db 0
 199  0001              @HCCINIT_dis .section 'data'
 198  0001              #line 198 "c:\users\longshuangmin\desktop\worke_space\g-501\g-501\OpMode_A.C"
 198  0001              public _buf
 198  0000              @HCCINIT0_buf .section 'data'
 198  0000  0008[       _buf	db 8 dup(0)
            00
            ]
 198  0008              #pragma debug array 43 8 8 1
 198  0008              #pragma debug array 43 8 8 1
 198  0008              #pragma debug variable 43 1 _buf "buf"
 198  0008              
 198  0000              @HCCINIT .section 'data'
 198  0000              #line 198 "c:\users\longshuangmin\desktop\worke_space\g-501\g-501\OpMode_A.C"
 198  0000              public _temp
 198  0000              @HCCINIT0_temp .section 'data'
 198  0000              _temp	db 0
 198  0001              #pragma debug variable 8 1 _temp "temp"
 198  0001              
 198  0000              @HCCINIT .section 'data'
 197  0000              #line 197 "c:\users\longshuangmin\desktop\worke_space\g-501\g-501\OpMode_A.C"
 197  0000              public _count
 197  0000              @HCCINIT0_count .section 'data'
 197  0000              _count	db 0
 197  0001              #pragma debug variable 8 1 _count "count"
 197  0001              
文件：OpMode_A.C   编译器版本 HGASM 0202 页次119

 197  0000              @HCCINIT .section 'data'
 197  0000              #line 197 "c:\users\longshuangmin\desktop\worke_space\g-501\g-501\OpMode_A.C"
 197  0000              public _Cbuf0
 197  0000              @HCCINIT0_Cbuf0 .section 'data'
 197  0000              _Cbuf0	db 0
 197  0001              #pragma debug variable 8 1 _Cbuf0 "Cbuf0"
 197  0001              
 197  0000              @HCCINIT .section 'data'
 196  0000              #line 196 "c:\users\longshuangmin\desktop\worke_space\g-501\g-501\OpMode_A.C"
 196  0000              public _Address
 196  0000              @HCCINIT0_Address .section 'data'
 196  0000  0002[       _Address	db 2 dup(0)
            00
            ]
 196  0002              #pragma debug variable 12 1 _Address "Address"
 196  0002              
 196  0000              @HCCINIT .section 'data'
 195  0000              #line 195 "c:\users\longshuangmin\desktop\worke_space\g-501\g-501\OpMode_A.C"
 195  0000              public _Ibuf1
 195  0000              @HCCINIT0_Ibuf1 .section 'data'
 195  0000  0002[       _Ibuf1	db 2 dup(0)
            00
            ]
 195  0002              #pragma debug variable 11 1 _Ibuf1 "Ibuf1"
 195  0002              
 195  0000              @HCCINIT .section 'data'
 195  0000              #line 195 "c:\users\longshuangmin\desktop\worke_space\g-501\g-501\OpMode_A.C"
 195  0000              public _Ibuf0
 195  0000              @HCCINIT0_Ibuf0 .section 'data'
 195  0000  0002[       _Ibuf0	db 2 dup(0)
            00
            ]
 195  0002              #pragma debug variable 11 1 _Ibuf0 "Ibuf0"
 195  0002              
 195  0000              @HCCINIT .section 'data'
 194  0000              #line 194 "c:\users\longshuangmin\desktop\worke_space\g-501\g-501\OpMode_A.C"
 194  0000              public _Lbuf1
 194  0000              @HCCINIT0_Lbuf1 .section 'data'
 194  0000  0004[       _Lbuf1	db 4 dup(0)
            00
            ]
 194  0004              #pragma debug variable 14 1 _Lbuf1 "Lbuf1"
 194  0004              
 194  0000              @HCCINIT .section 'data'
 194  0000              #pragma debug struct_end
 194  0000              #pragma debug struct_end
 194  0000              #pragma debug union_end
 194  0000              #pragma debug union_end
 194  0000              #pragma debug variable 45 1 ___pa "__pa" 1
 194  0000              #pragma debug struct_end
 194  0000              #pragma debug struct_end
 194  0000              #pragma debug union_end
 194  0000              #pragma debug union_end
 194  0000              #pragma debug variable 47 1 ___pac "__pac" 1
 194  0000              #pragma debug struct_end
 194  0000              #pragma debug struct_end
 194  0000              #pragma debug union_end
 194  0000              #pragma debug union_end
 194  0000              #pragma debug variable 49 1 ___papu "__papu" 1
 194  0000              #pragma debug struct_end
文件：OpMode_A.C   编译器版本 HGASM 0202 页次120

 194  0000              #pragma debug struct_end
 194  0000              #pragma debug union_end
 194  0000              #pragma debug union_end
 194  0000              #pragma debug variable 51 1 ___intc0 "__intc0" 1
 194  0000              #pragma debug struct_end
 194  0000              #pragma debug struct_end
 194  0000              #pragma debug union_end
 194  0000              #pragma debug union_end
 194  0000              #pragma debug variable 53 1 ___pb "__pb" 1
 194  0000              #pragma debug struct_end
 194  0000              #pragma debug struct_end
 194  0000              #pragma debug union_end
 194  0000              #pragma debug union_end
 194  0000              #pragma debug variable 55 1 ___pcc "__pcc" 1
 194  0000              #pragma debug struct_end
 194  0000              #pragma debug struct_end
 194  0000              #pragma debug union_end
 194  0000              #pragma debug union_end
 194  0000              #pragma debug variable 57 1 ___pcpu "__pcpu" 1
 194  0000              #pragma debug struct_end
 194  0000              #pragma debug struct_end
 194  0000              #pragma debug union_end
 194  0000              #pragma debug union_end
 194  0000              #pragma debug variable 59 1 ___u0cr2 "__u0cr2" 1
 194  0000              #pragma debug struct_end
 194  0000              #pragma debug struct_end
 194  0000              #pragma debug union_end
 194  0000              #pragma debug union_end
 194  0000              #pragma debug variable 61 1 ___brg0 "__brg0" 1
 194  0000              #pragma debug struct_end
 194  0000              #pragma debug struct_end
 194  0000              #pragma debug union_end
 194  0000              #pragma debug union_end
 194  0000              #pragma debug variable 63 1 ___ptm0c0 "__ptm0c0" 1
 194  0000              #pragma debug variable 8 1 ___ptm0al "__ptm0al" 1
 194  0000              #pragma debug variable 8 1 ___ptm0ah "__ptm0ah" 1
 194  0000              #pragma debug struct_end
 194  0000              #pragma debug struct_end
 194  0000              #pragma debug union_end
 194  0000              #pragma debug union_end
 194  0000              #pragma debug variable 65 1 ___opa1c "__opa1c" 1
 194  0000              #pragma debug struct_end
 194  0000              #pragma debug struct_end
 194  0000              #pragma debug union_end
 194  0000              #pragma debug union_end
 194  0000              #pragma debug variable 67 1 ___opa2c "__opa2c" 1
 194  0000              #pragma debug struct_end
 194  0000              #pragma debug struct_end
 194  0000              #pragma debug union_end
 194  0000              #pragma debug union_end
 194  0000              #pragma debug variable 69 1 ___gsc1 "__gsc1" 1
 194  0000              #pragma debug struct_end
 194  0000              #pragma debug struct_end
 194  0000              #pragma debug union_end
 194  0000              #pragma debug union_end
 194  0000              #pragma debug variable 71 1 ___gsc2 "__gsc2" 1
 194  0000              #pragma debug struct_end
 194  0000              #pragma debug struct_end
 194  0000              #pragma debug union_end
 194  0000              #pragma debug union_end
文件：OpMode_A.C   编译器版本 HGASM 0202 页次121

 194  0000              #pragma debug variable 73 1 ___gsc3 "__gsc3" 1
 194  0000              #pragma debug struct_end
 194  0000              #pragma debug struct_end
 194  0000              #pragma debug union_end
 194  0000              #pragma debug union_end
 194  0000              #pragma debug variable 75 1 ___sgc "__sgc" 1
 194  0000              #pragma debug struct_end
 194  0000              #pragma debug struct_end
 194  0000              #pragma debug union_end
 194  0000              #pragma debug union_end
 194  0000              #pragma debug variable 77 1 ___bopac0 "__bopac0" 1
 194  0000              #pragma debug struct_end
 194  0000              #pragma debug struct_end
 194  0000              #pragma debug union_end
 194  0000              #pragma debug union_end
 194  0000              #pragma debug variable 79 1 ___bopac1 "__bopac1" 1
 194  0000              #pragma debug struct_end
 194  0000              #pragma debug struct_end
 194  0000              #pragma debug union_end
 194  0000              #pragma debug union_end
 194  0000              #pragma debug variable 81 1 ___bswc2 "__bswc2" 1
 194  0000              #pragma debug array 82 8 128 1
 194  0000              #pragma debug array 82 8 128 1
 194  0000              #pragma debug variable 82 1 _M_UART_RxFIFO "M_UART_RxFIFO" 128
 194  0000              #pragma debug variable 82 1 _M_UART_TxFIFO "M_UART_TxFIFO" 128
 194  0000              #pragma debug array 83 11 40 1
 194  0000              #pragma debug array 83 11 40 1
 194  0000              #pragma debug variable 83 1 _M_Impedance_data "M_Impedance_data" 80
 194  0000              #pragma debug variable 8 1 _mi "mi" 1
 194  0000              #pragma debug variable 11 1 _work_time "work_time" 2
 194  0000              #pragma debug variable 11 1 _old_work_time "old_work_time" 2
 194  0000              #pragma debug array 84 11 10 1
 194  0000              #pragma debug array 84 11 10 1
 194  0000              #pragma debug variable 84 1 _work_time_buf "work_time_buf" 20
 194  0000              #pragma debug array 85 11 64 1
 194  0000              #pragma debug array 85 11 64 1
 194  0000              #pragma debug variable 85 1 _DC_data_buf "DC_data_buf" 128
 194  0000              #pragma debug struct_end
 194  0000              #pragma debug struct_end
 194  0000              #pragma debug variable 86 1 _sys_data "sys_data" 105
 194  0000              #pragma debug variable 8 1 _memkey "memkey" 1
 194  0000              #pragma debug variable 8 1 _imp "imp" 1
 194  0000              #pragma debug variable 11 1 _avg_ad2 "avg_ad2" 2
 194  0000              #pragma debug struct_end
 194  0000              #pragma debug struct_end
 194  0000              #pragma debug union_end
 194  0000              #pragma debug union_end
 194  0000              #pragma debug variable 88 1 _Calibration "Calibration" 24
 194  0000              #pragma debug variable 11 1 _gsm_loop "gsm_loop" 2
 194  0000              #pragma debug variable 8 1 _k "k" 1
 194  0000              #pragma debug variable 8 1 _index "index" 1
 194  0000              #pragma debug variable 8 1 _mymax "mymax" 1
 194  0000              #pragma debug variable 8 1 _meals "meals" 1
 194  0000              #pragma debug struct_end
 194  0000              #pragma debug struct_end
 194  0000              #pragma debug array 90 89 11 1
 194  0000              #pragma debug array 90 89 11 1
 194  0000              #pragma debug variable 90 1 _unsend_data "unsend_data" 110
 194  0000              #pragma debug variable 8 1 _m "m" 1
 194  0000              #pragma debug variable 8 1 _send_ok "send_ok" 1
文件：OpMode_A.C   编译器版本 HGASM 0202 页次122

 194  0000              #pragma debug variable 12 1 _lcd_scan_index "lcd_scan_index" 2
 194  0000              #pragma debug variable 8 1 _Start_Detection_flag "Start_Detection_flag" 1
 194  0000              #pragma debug variable 12 1 _auto_code "auto_code" 2
 194  0000              #pragma debug variable 7 1 _set_temp_25 "set_temp_25" 1
 194  0000              #pragma debug struct_end
 194  0000              #pragma debug struct_end
 194  0000              #pragma debug variable 91 1 _alg_para "alg_para" 72
 194  0000              
 194  0000              ; output external variables
 194  0000              extern _M_Task:byte
 194  0000              extern _charTab:near
 194  0000              extern _M_Cbuf1:byte
 194  0000              extern _M_UART_RxIndex:byte
 194  0000              extern _M_GM_data:byte
 194  0000              extern _M_Impedance:byte
 194  0000              extern _M_Main_Cal_Cnt:byte
 194  0000              extern _M_Main_cnt:byte
 194  0000              extern _M_Minutes:byte
 194  0000              extern _M_Hour:byte
 194  0000              extern _M_Days:byte
 194  0000              extern _M_Month:byte
 194  0000              extern _FlashTimeFlag:byte
 194  0000              extern _FlashTimeCon:byte
 194  0000              extern _Flag2:byte
 194  0000              extern _M_Temperature:byte
 194  0000              extern _M_Current:byte
 194  0000              extern _SDKADCSourceData:byte
 194  0000              extern _M_Excitation_Offset:byte
 194  0000              extern _M_Lbuf0:byte
 194  0000              extern _M_Avg_16bit_result:byte
 194  0000              extern _lcd:byte
 194  0000              extern _Flag7:byte
 194  0000              extern _M_Cbuf0:byte
 194  0000              extern _Flag4:byte
 194  0000              extern _M_No_Active_Cnt:byte
 194  0000              extern _Flag1:byte
 194  0000              extern _M_Strip_Type:byte
 194  0000              extern _glucose_auto_code:near
 194  0000              extern _M_SinGain:byte
 194  0000              extern _M_RTC_display:byte
 194  0000              extern _M_ErrorCount:byte
 194  0000              extern _M_Error_Task:byte
 194  0000              extern _M_TaskBuf1:byte
 194  0000              extern _M_TaskBuf0:byte
 194  0000              extern _LCD_Clear:near
 194  0000              extern _fun_StripModuleAllOpen:near
 194  0000              extern _fun_SineWaveInit:near
 194  0000              extern _builtin_holtek_mant1:byte
 194  0000              extern _builtin_holtek_mant12p:byte
 194  0000              extern _builtin_holtek_dtol:near
 194  0000              extern _builtin_holtek_mant2:byte
 194  0000              extern _builtin_holtek_dtmul:near
 194  0000              extern _builtin_holtek_dtadd:near
 194  0000              extern _builtin_holtek_dtdiv:near
 194  0000              extern _builtin_holtek_dtsub:near
 194  0000              extern _memset_2:byte
 194  0000              extern _memset:near
 194  0000              extern _Load_VrefDaco_Vaule:near
 194  0000              extern _fun_UART0PowerOnInit:near
 194  0000              extern _fun_DACVREFInit_2:byte
文件：OpMode_A.C   编译器版本 HGASM 0202 页次123

 194  0000              extern _fun_DACVREFInit:near
 194  0000              extern _fun_DACnInit_2:byte
 194  0000              extern _fun_DACnInit:near
 194  0000              extern _fun_CalOPA1Offset:near
 194  0000              extern _fun_CalOPA2Offset:near
 194  0000              extern _fun_CalOPA3Offset:near
 194  0000              extern _Measurement_Daco:near
 194  0000              extern _Measurement_Op1n1_Op1s1:near
 194  0000              extern _fun_ADCStart:near
 194  0000              extern _ADCtoCurrent_Convert_2:byte
 194  0000              extern _ADCtoCurrent_Convert:near
 194  0000              extern _builtin_holtek_signs:byte
 194  0000              extern _builtin_holtek_uitod:near
 194  0000              extern _fun_StripModuleAllOpen2:near
 194  0000              extern _Measurement_Temp:near
 194  0000              extern _LCD_Clear_Buff:near
 194  0000              extern _ShowDec_BigNum_2:byte
 194  0000              extern _ShowDec_BigNum:near
 194  0000              extern _LCD_Clear1:near
 194  0000              extern _dis_beat:near
 194  0000              extern _delay:near
 194  0000              extern _Lcd_Unit:near
 194  0000              extern _LCD_BitSetOut_2:byte
 194  0000              extern _LCD_BitSetOut:near
 194  0000              extern _Lcd_Month_Day_Process_2:byte
 194  0000              extern _Lcd_Month_Day_Process:near
 194  0000              extern _Lcd_Clock_Process_2:byte
 194  0000              extern _Lcd_Clock_Process:near
 194  0000              extern _Set_HCT_Adc_Channel:near
 194  0000              extern _dis_nub2:near
 194  0000              extern _builtin_holtek_divmodhi4:near
 194  0000              extern _builtin_holtek_udivmodhi4_2:byte
 194  0000              extern _builtin_holtek_udivmodhi4:near
 194  0000              extern _fun_ADCStop:near
 194  0000              extern _InitADC_Op1n1_Op1s1:near
 194  0000              extern _builtin_holtek_itod:near
 194  0000              extern _Impedance_Compute_2:byte
 194  0000              extern _Impedance_Compute:near
 194  0000              extern _Lcd_Glucose_2:byte
 194  0000              extern _Lcd_Glucose:near
 194  0000              extern _LCD_ScanOut:near
 194  0000              extern _Store_measurement_data:near
 194  0000              extern _Save_RtcTime:near
 194  0000              extern _goto_next_case:near
 194  0000              extern _starting_gsm:near
 194  0000              extern _send_gsm_data:near
 194  0000              extern _setRssi:near
 194  0000              extern _print_str_2:byte
 194  0000              extern _print_str:near
 194  0000              extern _strstr_2:byte
 194  0000              extern _strstr:near
 194  0000              extern _BatteryCheckProcess:near
 194  0000              
 194  0000              ; 
 194  0000              ; Generated by holtek-gcc v3.19, Fri May 23 10:39:45 2025
 194  0000              ; Rebuild 718
 194  0000              ; end of file


        0 Errors, 0