文件：OpMode_M.C   编译器版本 HGASM 0202 页次1


   1  0000              ; Generated by holtek-gcc v3.19, Fri May 23 10:39:46 2025
   2  0000              ; 
   3  0000              ; Configuration:
   4  0000              ;       with long instruction
   5  0000              ;       Multi-ROM, Multi-RAM
   6  0000              ;       bits_per_rom_unit:16
   7  0000              ;       with mp1
   8  0000              ;       with tbhp, address(0x9)
   9  0000              ;          Use tabrd-const
  10  0000              ;       
  11  0000              ; SFR address of long-instruction arch:
  12  0000              ;    mp0 = -1,1,0
  13  0000              ;    mp1 = 4,3,2
  14  0000              ;    mp2 = 14,13,12
  15  0000              ;    tbp = 9,7,8
  16  0000              ;    acc = 5
  17  0000              ;    pcl = 6
  18  0000              ;    status = 10
  19  0000              ;    bp = 11
  20  0000              ;    intc = 32
  21  0000              ;       
  22  0000              ;       
  23  0000              ; use 'tabrdc' instead of 'tabrd'
  24  0000              ;       
  25  0000              
  26  0000              #pragma translator "holtek-gcc 4.6.4" "3.19" "build 20130711"
  27  0000              ; Rebuild 718
  28  0000              
  29  0000              ir equ [2]
  30  0000              mp equ [3]
  31  0000              sbp equ [4]
  32  0000              acc equ [5]
  33  0000              bp equ [11]
  34  0000              tblp equ [7]
  35  0000              tbhp equ [9]
  36  0000              status equ [10]
  37  0000              c equ [10].0
  38  0000              ac equ [10].1
  39  0000              z equ [10].2
  40  0000              ov equ [10].3
  41  0000              cz equ [10].6
  42  0000              sc equ [10].7
  43  0000              intc equ [32]
  44  0000              mduwr0 equ [59h]
  45  0000              mduwr1 equ [5ah]
  46  0000              mduwr2 equ [5bh]
  47  0000              mduwr3 equ [5ch]
  48  0000              mduwr4 equ [5dh]
  49  0000              mduwr5 equ [5eh]
  50  0000              mduwrctrl equ [5fh]
  51  0000              
  52  0000              extern ra:byte
  53  0000              extern rb:byte
  54  0000              extern rc:byte
  55  0000              extern rd:byte
  56  0000              extern re:byte
  57  0000              extern rf:byte
  58  0000              extern rg:byte
  59  0000              extern rh:byte
文件：OpMode_M.ASM 编译器版本 HGASM 0202 页次2

  60  0000              extern _Crom2Prom:near
  61  0000              extern _Crom2PromNext:near
  62  0000              
  63  0000              RAMBANK 0 @BITDATASEC, @BITDATASEC1
  64  0000              @HCCINIT	.section 'data'
  65  0000              @HCCINIT0	.section 'data'
  66  0000              @BITDATASEC	 .section 'data'
  67  0000              @BITDATASEC1	 .section 'data'
  68  0000              
  69  0000              #pragma debug scope 1 1
  70  0000              	extern __DELAY3:near
  71  0000              	extern __DELAYX3:near
  72  0000              	extern __DELAYX6:near
  73  0000              	extern __DELAYY5:near
  74  0000              	extern __DELAYY3:near
  75  0000              	extern _builtin_holtek_delay_2:byte
  76  0000              _memkey equ [3712]
  77  0000              _work_time equ [2690]
  78  0000              _setkey equ [3715]
  79  0000              _meals equ [4026]
  80  0000              _batlevel equ [3721]
  81  0000              ___pa equ [20]
  82  0000              _key_lock equ [4023]
  83  0000              _setkeydown equ [5252]
  84  0000              @crom	.section 'crom'
  85  0000              _LC0:
  86  0000              	db 02dh,02dh,02dh,00h
  87  0002              @crom	.section 'crom'
  88  0002              _LC1:
  89  0002              	db 044h,045h,04ch,00h
  90  0004              _set_temp_25 equ [5257]
  91  0004              public _MemoryMode
  92  0004              #pragma debug scope 2 1

  19  0004              #line 19 "c:\users\longshuangmin\desktop\worke_space\g-501\g-501\OpMode_M.C"
  19  0000              _MemoryMode .section 'code'
  19  0000              _MemoryMode proc
  19  0000  0013[           local _MemoryMode_2 db 19 dup(?)	; 0,19
            00
            ]
  19  0013              #pragma debug array 42 8 6 2
  19  0013              #pragma debug array 42 8 6 2
  19  0013              #pragma debug variable 42 2 _MemoryMode_2+0 "buf"
  19  0013              #pragma debug variable 12 2 _MemoryMode_2+16 "Ibuf0"
  19  0013              #pragma debug variable 12 2 _MemoryMode_2+14 "Ibuf1"
  19  0013              #pragma debug variable 14 2 _MemoryMode_2+10 "Lbuf0"
  19  0013              #pragma debug variable 14 2 _MemoryMode_2+6 "Lbuf1"
  26  0013              #line 26 "c:\users\longshuangmin\desktop\worke_space\g-501\g-501\OpMode_M.C"
  26  0000  0700     E  	mov a,_M_TaskBuf0[0]
  26  0001  0A00        	sub a,0
  26  0002  3D0A        	sz z
  26  0003  2800     R  	jmp _L3
  26  0004  0A01        	sub a,(1)-(0)
  26  0005  3D0A        	sz z
  26  0006  2800     R  	jmp _L4
  26  0007              #line 26 "c:\users\longshuangmin\desktop\worke_space\g-501\g-501\OpMode_M.C"
  26  0007  0700     E  	mov a,_M_TaskBuf0[0]
  26  0008  0A02        	sub a,2
  26  0009  3D0A        	sz z
  26  000A  2800     R  	jmp _L5
文件：OpMode_M.C   编译器版本 HGASM 0202 页次3

  26  000B  0A01        	sub a,(3)-(2)
  26  000C  3D0A        	sz z
  26  000D  2800     R  	jmp _L6
  26  000E  0700     E  	mov a,_M_TaskBuf0[0]
  26  000F  0A04        	sub a,4
  26  0010  3D0A        	sz z
  26  0011  2800     R  	jmp _L7
  26  0012  0A01        	sub a,(5)-(4)
  26  0013  3D0A        	sz z
  26  0014  2800     R  	jmp _L8
  26  0015  0700     E  	mov a,_M_TaskBuf0[0]
  26  0016  0A06        	sub a,6
  26  0017  3D0A        	sz z
  26  0018  2800     R  	jmp _L9
  26  0019  0700     E  	mov a,_M_TaskBuf0[0]
  26  001A  0A07        	sub a,7
  26  001B  390A        	snz z
  26  001C  2800     R  	jmp _L143
  26  001D  2800     R  	jmp _L155
  26  001E              _L3:
  32  001E              #line 32 "c:\users\longshuangmin\desktop\worke_space\g-501\g-501\OpMode_M.C"
  32  001E  0F01        	mov a,1
  32  001F  0300     E  	add a,_M_RTC_display[0]
  32  0020  0080     E  	mov rb,a
  32  0021  0F00        	mov a,0
  32  0022  1300     E  	adc a,_M_RTC_display[1]
  32  0023  0080     E  	mov rc,a
  32  0024  0700     E  	mov a,rb
  32  0025  0080     E  	mov _M_RTC_display[0],a
  32  0026  0700     E  	mov a,rc
  32  0027  0080     E  	mov _M_RTC_display[1],a
  33  0028              #line 33 "c:\users\longshuangmin\desktop\worke_space\g-501\g-501\OpMode_M.C"
  33  0028  0700     E  	mov a,rb
  33  0029  0C01        	xor a,1
  33  002A  0500     E  	or a,rc
  33  002B  390A        	snz z
  33  002C  2800     R  	jmp _L11
  36  002D              #line 36 "c:\users\longshuangmin\desktop\worke_space\g-501\g-501\OpMode_M.C"
  36  002D  0F01        	mov a,1
  36  002E              	fcall _LCD_Clear
  46  0035              #line 46 "c:\users\longshuangmin\desktop\worke_space\g-501\g-501\OpMode_M.C"
  46  0035  1F00     E  	clr _M_7days_datasum[0]
  46  0036  1F00     E  	clr _M_7days_datasum[1]
  46  0037  1F00     E  	clr _M_7days_datasum[2]
  46  0038  1F00     E  	clr _M_7days_datasum[3]
  47  0039              #line 47 "c:\users\longshuangmin\desktop\worke_space\g-501\g-501\OpMode_M.C"
  47  0039  1F00     E  	clr _M_14days_datasum[0]
  47  003A  1F00     E  	clr _M_14days_datasum[1]
  47  003B  1F00     E  	clr _M_14days_datasum[2]
  47  003C  1F00     E  	clr _M_14days_datasum[3]
  48  003D              #line 48 "c:\users\longshuangmin\desktop\worke_space\g-501\g-501\OpMode_M.C"
  48  003D  1F00     E  	clr _M_28days_datasum[0]
  48  003E  1F00     E  	clr _M_28days_datasum[1]
  48  003F  1F00     E  	clr _M_28days_datasum[2]
  48  0040  1F00     E  	clr _M_28days_datasum[3]
  50  0041              #line 50 "c:\users\longshuangmin\desktop\worke_space\g-501\g-501\OpMode_M.C"
  50  0041  1F00     E  	clr _M_7daysNumber[0]
  50  0042  1F00     E  	clr _M_7daysNumber[1]
  51  0043              #line 51 "c:\users\longshuangmin\desktop\worke_space\g-501\g-501\OpMode_M.C"
  51  0043  1F00     E  	clr _M_14daysNumber[0]
文件：OpMode_M.C   编译器版本 HGASM 0202 页次4

  51  0044  1F00     E  	clr _M_14daysNumber[1]
  52  0045              #line 52 "c:\users\longshuangmin\desktop\worke_space\g-501\g-501\OpMode_M.C"
  52  0045  1F00     E  	clr _M_28daysNumber[0]
  52  0046  1F00     E  	clr _M_28daysNumber[1]
  54  0047              #line 54 "c:\users\longshuangmin\desktop\worke_space\g-501\g-501\OpMode_M.C"
  54  0047  1F00     E  	clr _M_30days_datasum[0]
  54  0048  1F00     E  	clr _M_30days_datasum[1]
  54  0049  1F00     E  	clr _M_30days_datasum[2]
  54  004A  1F00     E  	clr _M_30days_datasum[3]
  55  004B              #line 55 "c:\users\longshuangmin\desktop\worke_space\g-501\g-501\OpMode_M.C"
  55  004B  1F00     E  	clr _M_30daysNumber[0]
  55  004C  1F00     E  	clr _M_30daysNumber[1]
  56  004D              #line 56 "c:\users\longshuangmin\desktop\worke_space\g-501\g-501\OpMode_M.C"
  56  004D  1F00     E  	clr _M_60days_datasum[0]
  56  004E  1F00     E  	clr _M_60days_datasum[1]
  56  004F  1F00     E  	clr _M_60days_datasum[2]
  56  0050  1F00     E  	clr _M_60days_datasum[3]
  57  0051              #line 57 "c:\users\longshuangmin\desktop\worke_space\g-501\g-501\OpMode_M.C"
  57  0051  1F00     E  	clr _M_60daysNumber[0]
  57  0052  1F00     E  	clr _M_60daysNumber[1]
  58  0053              #line 58 "c:\users\longshuangmin\desktop\worke_space\g-501\g-501\OpMode_M.C"
  58  0053  1F00     E  	clr _M_90days_datasum[0]
  58  0054  1F00     E  	clr _M_90days_datasum[1]
  58  0055  1F00     E  	clr _M_90days_datasum[2]
  58  0056  1F00     E  	clr _M_90days_datasum[3]
  59  0057              #line 59 "c:\users\longshuangmin\desktop\worke_space\g-501\g-501\OpMode_M.C"
  59  0057  1F00     E  	clr _M_90daysNumber[0]
  59  0058  1F00     E  	clr _M_90daysNumber[1]
  61  0059              #line 61 "c:\users\longshuangmin\desktop\worke_space\g-501\g-501\OpMode_M.C"
  61  0059  0700     E  	mov a,_M_Year[0]
  61  005A  0080     R  	mov _MemoryMode_2[5],a
  62  005B              #line 62 "c:\users\longshuangmin\desktop\worke_space\g-501\g-501\OpMode_M.C"
  62  005B  0700     E  	mov a,_M_Month[0]
  62  005C  0080     R  	mov _MemoryMode_2[4],a
  63  005D              #line 63 "c:\users\longshuangmin\desktop\worke_space\g-501\g-501\OpMode_M.C"
  63  005D  0700     E  	mov a,_M_Days[0]
  63  005E  0080     R  	mov _MemoryMode_2[3],a
  64  005F              #line 64 "c:\users\longshuangmin\desktop\worke_space\g-501\g-501\OpMode_M.C"
  64  005F  0700     E  	mov a,_M_Hour[0]
  64  0060  0080     R  	mov _MemoryMode_2[2],a
  65  0061              #line 65 "c:\users\longshuangmin\desktop\worke_space\g-501\g-501\OpMode_M.C"
  65  0061  0700     E  	mov a,_M_Minutes[0]
  65  0062  0080     R  	mov _MemoryMode_2[1],a
  66  0063              #line 66 "c:\users\longshuangmin\desktop\worke_space\g-501\g-501\OpMode_M.C"
  66  0063  0700     E  	mov a,_M_Second[0]
  66  0064  0080     R  	mov _MemoryMode_2[0],a
  67  0065              #line 67 "c:\users\longshuangmin\desktop\worke_space\g-501\g-501\OpMode_M.C"
  67  0065  0F00     R  	mov a,low offset _MemoryMode_2
  67  0066  0080     E  	mov _DateToSecond_2[0],a
  67  0067  0F00     R  	mov a,high offset _MemoryMode_2
  67  0068  0080     E  	mov _DateToSecond_2[1],a
  67  0069              	fcall _DateToSecond
  67  0070  0700     E  	mov a,ra
  67  0071  0080     E  	mov _M_Lbuf0[0],a
  67  0072  0700     E  	mov a,rb
  67  0073  0080     E  	mov _M_Lbuf0[1],a
  67  0074  0700     E  	mov a,rc
  67  0075  0080     E  	mov _M_Lbuf0[2],a
  67  0076  0700     E  	mov a,rd
  67  0077  0080     E  	mov _M_Lbuf0[3],a
文件：OpMode_M.C   编译器版本 HGASM 0202 页次5

  76  0078              #line 76 "c:\users\longshuangmin\desktop\worke_space\g-501\g-501\OpMode_M.C"
  76  0078  0F01        	mov a,1
  76  0079  0080     E  	mov _M_GM_data_Record_buf[0],a
  76  007A  1F00     E  	clr _M_GM_data_Record_buf[1]
  76  007B              _L12:
  76  007B  0700     E  	mov a,_M_GM_data_Record[0]
  76  007C  0200     E  	sub a,_M_GM_data_Record_buf[0]
  76  007D  0700     E  	mov a,_M_GM_data_Record[1]
  76  007E  1200     E  	sbc a,_M_GM_data_Record_buf[1]
  76  007F  380A        	snz c
  76  0080  2800     R  	jmp _L23
  78  0081              #line 78 "c:\users\longshuangmin\desktop\worke_space\g-501\g-501\OpMode_M.C"
  78  0081              ;# 78 "c:\users\longshuangmin\desktop\worke_space\g-501\g-501\OpMode_M.C" 1
  78  0081  0001        	clr wdt
  82  0082              #line 82 "c:\users\longshuangmin\desktop\worke_space\g-501\g-501\OpMode_M.C"
  82  0082  3800     E  	snz _Flag1[0].0
  82  0083  2800     R  	jmp _L13
  84  0084              #line 84 "c:\users\longshuangmin\desktop\worke_space\g-501\g-501\OpMode_M.C"
  84  0084  3400     E  	clr _Flag1[0].0
  85  0085              #line 85 "c:\users\longshuangmin\desktop\worke_space\g-501\g-501\OpMode_M.C"
  85  0085  1480     E  	inc _M_RTC_display[0]
  85  0086  3D0A        	sz z
  85  0087  1480     E  	inc _M_RTC_display[1]
  85  0088              _L13:
  88  0088              #line 88 "c:\users\longshuangmin\desktop\worke_space\g-501\g-501\OpMode_M.C"
  88  0088  0FFF        	mov a,255
  88  0089  0300     E  	add a,_M_GM_data_Record_buf[0]
  88  008A  0080     E  	mov rb,a
  88  008B  0F3F        	mov a,63
  88  008C  1300     E  	adc a,_M_GM_data_Record_buf[1]
  88  008D  0080     E  	mov rc,a
  88  008E  340A        	clr c
  88  008F  1A00     E  	rlca rb
  88  0090  0080     R  	mov _MemoryMode_2[14],a
  88  0091  1A00     E  	rlca rc
  88  0092  0080     R  	mov _MemoryMode_2[15],a
  88  0093  340A        	clr c
  88  0094  1A80     R  	rlc _MemoryMode_2[14]
  88  0095  1A80     R  	rlc _MemoryMode_2[15]
  89  0096              #line 89 "c:\users\longshuangmin\desktop\worke_space\g-501\g-501\OpMode_M.C"
  89  0096  0F00        	mov a,0
  89  0097  0380     R  	addm a,_MemoryMode_2[14]
  89  0098  0FB4        	mov a,180
  89  0099  1380     R  	adcm a,_MemoryMode_2[15]
  93  009A              #line 93 "c:\users\longshuangmin\desktop\worke_space\g-501\g-501\OpMode_M.C"
  93  009A  0F03        	mov a,3
  93  009B  0300     R  	add a,_MemoryMode_2[14]
  93  009C  0080     E  	mov _Flash_Store_Read_Process_2[0],a
  93  009D  0F00        	mov a,0
  93  009E  1300     R  	adc a,_MemoryMode_2[15]
  93  009F  0080     E  	mov _Flash_Store_Read_Process_2[1],a
  93  00A0              	fcall _Flash_Store_Read_Process
  93  00A7  0700     E  	mov a,ra
  93  00A8  0080     R  	mov _MemoryMode_2[16],a
  93  00A9  0700     E  	mov a,rb
  93  00AA  0080     R  	mov _MemoryMode_2[17],a
  94  00AB              #line 94 "c:\users\longshuangmin\desktop\worke_space\g-501\g-501\OpMode_M.C"
  94  00AB  0700     R  	mov a,_MemoryMode_2[16]
  94  00AC  0600     R  	and a,_MemoryMode_2[17]
  94  00AD  0B01        	add a,1
文件：OpMode_M.C   编译器版本 HGASM 0202 页次6

  94  00AE  3C0A        	sz c
  94  00AF  2800     R  	jmp _L15
  97  00B0              #line 97 "c:\users\longshuangmin\desktop\worke_space\g-501\g-501\OpMode_M.C"
  97  00B0  0700     R  	mov a,_MemoryMode_2[14]
  97  00B1  0080     E  	mov _Flash_Store_Read_Process_2[0],a
  97  00B2  0700     R  	mov a,_MemoryMode_2[15]
  97  00B3  0080     E  	mov _Flash_Store_Read_Process_2[1],a
  97  00B4              	fcall _Flash_Store_Read_Process
  97  00BB  0700     E  	mov a,ra
  97  00BC  0080     R  	mov _MemoryMode_2[16],a
  97  00BD  0700     E  	mov a,rb
  97  00BE  0080     R  	mov _MemoryMode_2[17],a
  98  00BF              #line 98 "c:\users\longshuangmin\desktop\worke_space\g-501\g-501\OpMode_M.C"
  98  00BF  0700     R  	mov a,_MemoryMode_2[16]
  98  00C0  0080     R  	mov _MemoryMode_2[10],a
  98  00C1  0700     R  	mov a,_MemoryMode_2[17]
  98  00C2  0080     R  	mov _MemoryMode_2[11],a
  98  00C3  1F00     R  	clr _MemoryMode_2[12]
  98  00C4  1F00     R  	clr _MemoryMode_2[13]
  99  00C5              #line 99 "c:\users\longshuangmin\desktop\worke_space\g-501\g-501\OpMode_M.C"
  99  00C5  0700     R  	mov a,_MemoryMode_2[11]
  99  00C6  0080     R  	mov _MemoryMode_2[13],a
  99  00C7  0700     R  	mov a,_MemoryMode_2[10]
  99  00C8  0080     R  	mov _MemoryMode_2[12],a
  99  00C9  1F00     R  	clr _MemoryMode_2[11]
  99  00CA  1F00     R  	clr _MemoryMode_2[10]
 102  00CB              #line 102 "c:\users\longshuangmin\desktop\worke_space\g-501\g-501\OpMode_M.C"
 102  00CB  1480     R  	inc _MemoryMode_2[14]
 102  00CC  3D0A        	sz z
 102  00CD  1480     R  	inc _MemoryMode_2[15]
 103  00CE              #line 103 "c:\users\longshuangmin\desktop\worke_space\g-501\g-501\OpMode_M.C"
 103  00CE  0700     R  	mov a,_MemoryMode_2[14]
 103  00CF  0080     E  	mov _Flash_Store_Read_Process_2[0],a
 103  00D0  0700     R  	mov a,_MemoryMode_2[15]
 103  00D1  0080     E  	mov _Flash_Store_Read_Process_2[1],a
 103  00D2              	fcall _Flash_Store_Read_Process
 103  00D9  0700     E  	mov a,ra
 103  00DA  0080     R  	mov _MemoryMode_2[16],a
 103  00DB  0700     E  	mov a,rb
 103  00DC  0080     R  	mov _MemoryMode_2[17],a
 104  00DD              #line 104 "c:\users\longshuangmin\desktop\worke_space\g-501\g-501\OpMode_M.C"
 104  00DD  0700     R  	mov a,_MemoryMode_2[16]
 104  00DE  0380     R  	addm a,_MemoryMode_2[10]
 104  00DF  0700     R  	mov a,_MemoryMode_2[17]
 104  00E0  1380     R  	adcm a,_MemoryMode_2[11]
 104  00E1  1F05        	clr acc
 104  00E2  1380     R  	adcm a,_MemoryMode_2[12]
 104  00E3  1380     R  	adcm a,_MemoryMode_2[13]
 106  00E4              #line 106 "c:\users\longshuangmin\desktop\worke_space\g-501\g-501\OpMode_M.C"
 106  00E4  1480     R  	inc _MemoryMode_2[14]
 106  00E5  3D0A        	sz z
 106  00E6  1480     R  	inc _MemoryMode_2[15]
 107  00E7              #line 107 "c:\users\longshuangmin\desktop\worke_space\g-501\g-501\OpMode_M.C"
 107  00E7  0700     R  	mov a,_MemoryMode_2[14]
 107  00E8  0080     E  	mov _Flash_Store_Read_Process_2[0],a
 107  00E9  0700     R  	mov a,_MemoryMode_2[15]
 107  00EA  0080     E  	mov _Flash_Store_Read_Process_2[1],a
 107  00EB              	fcall _Flash_Store_Read_Process
 107  00F2  0700     E  	mov a,rb
 107  00F3  0080     E  	mov rc,a
文件：OpMode_M.C   编译器版本 HGASM 0202 页次7

 107  00F4  0700     E  	mov a,ra
 107  00F5  0080     E  	mov rb,a
 107  00F6  0700     E  	mov a,rb
 107  00F7  0080     E  	mov _M_GM_data[0],a
 107  00F8  0700     E  	mov a,rc
 107  00F9  0080     E  	mov _M_GM_data[1],a
 115  00FA              #line 115 "c:\users\longshuangmin\desktop\worke_space\g-501\g-501\OpMode_M.C"
 115  00FA  0700     E  	mov a,_M_Lbuf0[0]
 115  00FB  0080     E  	mov rd,a
 115  00FC  0700     E  	mov a,_M_Lbuf0[1]
 115  00FD  0080     E  	mov re,a
 115  00FE  0700     E  	mov a,_M_Lbuf0[2]
 115  00FF  0080     E  	mov rf,a
 115  0100  0700     E  	mov a,_M_Lbuf0[3]
 115  0101  0080     E  	mov rg,a
 115  0102  0F80        	mov a,128
 115  0103  0300     E  	add a,rd
 115  0104  0080     R  	mov _MemoryMode_2[6],a
 115  0105  0FC5        	mov a,197
 115  0106  1300     E  	adc a,re
 115  0107  0080     R  	mov _MemoryMode_2[7],a
 115  0108  0FF6        	mov a,246
 115  0109  1300     E  	adc a,rf
 115  010A  0080     R  	mov _MemoryMode_2[8],a
 115  010B  0FFF        	mov a,255
 115  010C  1300     E  	adc a,rg
 115  010D  0080     R  	mov _MemoryMode_2[9],a
 116  010E              #line 116 "c:\users\longshuangmin\desktop\worke_space\g-501\g-501\OpMode_M.C"
 116  010E  0700     R  	mov a,_MemoryMode_2[10]
 116  010F  0200     R  	sub a,_MemoryMode_2[6]
 116  0110  0700     R  	mov a,_MemoryMode_2[11]
 116  0111  1200     R  	sbc a,_MemoryMode_2[7]
 116  0112  0700     R  	mov a,_MemoryMode_2[12]
 116  0113  1200     R  	sbc a,_MemoryMode_2[8]
 116  0114  0700     R  	mov a,_MemoryMode_2[13]
 116  0115  1200     R  	sbc a,_MemoryMode_2[9]
 116  0116  380A        	snz c
 116  0117  2800     R  	jmp _L16
 116  0118  0700     E  	mov a,rd
 116  0119  0200     R  	sub a,_MemoryMode_2[10]
 116  011A  0700     E  	mov a,re
 116  011B  1200     R  	sbc a,_MemoryMode_2[11]
 116  011C  0700     E  	mov a,rf
 116  011D  1200     R  	sbc a,_MemoryMode_2[12]
 116  011E  0700     E  	mov a,rg
 116  011F  1200     R  	sbc a,_MemoryMode_2[13]
 116  0120  380A        	snz c
 116  0121  2800     R  	jmp _L16
 119  0122              #line 119 "c:\users\longshuangmin\desktop\worke_space\g-501\g-501\OpMode_M.C"
 119  0122  0700     E  	mov a,rb
 119  0123  0380     E  	addm a,_M_7days_datasum[0]
 119  0124  0700     E  	mov a,rc
 119  0125  1380     E  	adcm a,_M_7days_datasum[1]
 119  0126  1F05        	clr acc
 119  0127  3C00     E  	sz rc.7
 119  0128  1F85        	set acc
 119  0129  1380     E  	adcm a,_M_7days_datasum[2]
 119  012A  1380     E  	adcm a,_M_7days_datasum[3]
 120  012B              #line 120 "c:\users\longshuangmin\desktop\worke_space\g-501\g-501\OpMode_M.C"
 120  012B  1480     E  	inc _M_7daysNumber[0]
文件：OpMode_M.C   编译器版本 HGASM 0202 页次8

 120  012C  3D0A        	sz z
 120  012D  1480     E  	inc _M_7daysNumber[1]
 120  012E              _L16:
 124  012E              #line 124 "c:\users\longshuangmin\desktop\worke_space\g-501\g-501\OpMode_M.C"
 124  012E  0F00        	mov a,0
 124  012F  0300     E  	add a,rd
 124  0130  0080     R  	mov _MemoryMode_2[6],a
 124  0131  0F8B        	mov a,139
 124  0132  1300     E  	adc a,re
 124  0133  0080     R  	mov _MemoryMode_2[7],a
 124  0134  0FED        	mov a,237
 124  0135  1300     E  	adc a,rf
 124  0136  0080     R  	mov _MemoryMode_2[8],a
 124  0137  0FFF        	mov a,255
 124  0138  1300     E  	adc a,rg
 124  0139  0080     R  	mov _MemoryMode_2[9],a
 125  013A              #line 125 "c:\users\longshuangmin\desktop\worke_space\g-501\g-501\OpMode_M.C"
 125  013A  0700     R  	mov a,_MemoryMode_2[10]
 125  013B  0200     R  	sub a,_MemoryMode_2[6]
 125  013C  0700     R  	mov a,_MemoryMode_2[11]
 125  013D  1200     R  	sbc a,_MemoryMode_2[7]
 125  013E  0700     R  	mov a,_MemoryMode_2[12]
 125  013F  1200     R  	sbc a,_MemoryMode_2[8]
 125  0140  0700     R  	mov a,_MemoryMode_2[13]
 125  0141  1200     R  	sbc a,_MemoryMode_2[9]
 125  0142  380A        	snz c
 125  0143  2800     R  	jmp _L17
 125  0144  0700     E  	mov a,rd
 125  0145  0200     R  	sub a,_MemoryMode_2[10]
 125  0146  0700     E  	mov a,re
 125  0147  1200     R  	sbc a,_MemoryMode_2[11]
 125  0148  0700     E  	mov a,rf
 125  0149  1200     R  	sbc a,_MemoryMode_2[12]
 125  014A  0700     E  	mov a,rg
 125  014B  1200     R  	sbc a,_MemoryMode_2[13]
 125  014C  380A        	snz c
 125  014D  2800     R  	jmp _L17
 128  014E              #line 128 "c:\users\longshuangmin\desktop\worke_space\g-501\g-501\OpMode_M.C"
 128  014E  0700     E  	mov a,rb
 128  014F  0380     E  	addm a,_M_14days_datasum[0]
 128  0150  0700     E  	mov a,rc
 128  0151  1380     E  	adcm a,_M_14days_datasum[1]
 128  0152  1F05        	clr acc
 128  0153  3C00     E  	sz rc.7
 128  0154  1F85        	set acc
 128  0155  1380     E  	adcm a,_M_14days_datasum[2]
 128  0156  1380     E  	adcm a,_M_14days_datasum[3]
 129  0157              #line 129 "c:\users\longshuangmin\desktop\worke_space\g-501\g-501\OpMode_M.C"
 129  0157  1480     E  	inc _M_14daysNumber[0]
 129  0158  3D0A        	sz z
 129  0159  1480     E  	inc _M_14daysNumber[1]
 129  015A              _L17:
 133  015A              #line 133 "c:\users\longshuangmin\desktop\worke_space\g-501\g-501\OpMode_M.C"
 133  015A  0F00        	mov a,0
 133  015B  0300     E  	add a,rd
 133  015C  0080     R  	mov _MemoryMode_2[6],a
 133  015D  0F16        	mov a,22
 133  015E  1300     E  	adc a,re
 133  015F  0080     R  	mov _MemoryMode_2[7],a
 133  0160  0FDB        	mov a,219
文件：OpMode_M.C   编译器版本 HGASM 0202 页次9

 133  0161  1300     E  	adc a,rf
 133  0162  0080     R  	mov _MemoryMode_2[8],a
 133  0163  0FFF        	mov a,255
 133  0164  1300     E  	adc a,rg
 133  0165  0080     R  	mov _MemoryMode_2[9],a
 134  0166              #line 134 "c:\users\longshuangmin\desktop\worke_space\g-501\g-501\OpMode_M.C"
 134  0166  0700     R  	mov a,_MemoryMode_2[10]
 134  0167  0200     R  	sub a,_MemoryMode_2[6]
 134  0168  0700     R  	mov a,_MemoryMode_2[11]
 134  0169  1200     R  	sbc a,_MemoryMode_2[7]
 134  016A  0700     R  	mov a,_MemoryMode_2[12]
 134  016B  1200     R  	sbc a,_MemoryMode_2[8]
 134  016C  0700     R  	mov a,_MemoryMode_2[13]
 134  016D  1200     R  	sbc a,_MemoryMode_2[9]
 134  016E  380A        	snz c
 134  016F  2800     R  	jmp _L18
 134  0170  0700     E  	mov a,rd
 134  0171  0200     R  	sub a,_MemoryMode_2[10]
 134  0172  0700     E  	mov a,re
 134  0173  1200     R  	sbc a,_MemoryMode_2[11]
 134  0174  0700     E  	mov a,rf
 134  0175  1200     R  	sbc a,_MemoryMode_2[12]
 134  0176  0700     E  	mov a,rg
 134  0177  1200     R  	sbc a,_MemoryMode_2[13]
 134  0178  380A        	snz c
 134  0179  2800     R  	jmp _L18
 137  017A              #line 137 "c:\users\longshuangmin\desktop\worke_space\g-501\g-501\OpMode_M.C"
 137  017A  0700     E  	mov a,rb
 137  017B  0380     E  	addm a,_M_28days_datasum[0]
 137  017C  0700     E  	mov a,rc
 137  017D  1380     E  	adcm a,_M_28days_datasum[1]
 137  017E  1F05        	clr acc
 137  017F  3C00     E  	sz rc.7
 137  0180  1F85        	set acc
 137  0181  1380     E  	adcm a,_M_28days_datasum[2]
 137  0182  1380     E  	adcm a,_M_28days_datasum[3]
 138  0183              #line 138 "c:\users\longshuangmin\desktop\worke_space\g-501\g-501\OpMode_M.C"
 138  0183  1480     E  	inc _M_28daysNumber[0]
 138  0184  3D0A        	sz z
 138  0185  1480     E  	inc _M_28daysNumber[1]
 138  0186              _L18:
 142  0186              #line 142 "c:\users\longshuangmin\desktop\worke_space\g-501\g-501\OpMode_M.C"
 142  0186  0F00        	mov a,0
 142  0187  0300     E  	add a,rd
 142  0188  0080     R  	mov _MemoryMode_2[6],a
 142  0189  0F73        	mov a,115
 142  018A  1300     E  	adc a,re
 142  018B  0080     R  	mov _MemoryMode_2[7],a
 142  018C  0FD8        	mov a,216
 142  018D  1300     E  	adc a,rf
 142  018E  0080     R  	mov _MemoryMode_2[8],a
 142  018F  0FFF        	mov a,255
 142  0190  1300     E  	adc a,rg
 142  0191  0080     R  	mov _MemoryMode_2[9],a
 143  0192              #line 143 "c:\users\longshuangmin\desktop\worke_space\g-501\g-501\OpMode_M.C"
 143  0192  0700     R  	mov a,_MemoryMode_2[10]
 143  0193  0200     R  	sub a,_MemoryMode_2[6]
 143  0194  0700     R  	mov a,_MemoryMode_2[11]
 143  0195  1200     R  	sbc a,_MemoryMode_2[7]
 143  0196  0700     R  	mov a,_MemoryMode_2[12]
文件：OpMode_M.C   编译器版本 HGASM 0202 页次10

 143  0197  1200     R  	sbc a,_MemoryMode_2[8]
 143  0198  0700     R  	mov a,_MemoryMode_2[13]
 143  0199  1200     R  	sbc a,_MemoryMode_2[9]
 143  019A  380A        	snz c
 143  019B  2800     R  	jmp _L19
 143  019C  0700     E  	mov a,rd
 143  019D  0200     R  	sub a,_MemoryMode_2[10]
 143  019E  0700     E  	mov a,re
 143  019F  1200     R  	sbc a,_MemoryMode_2[11]
 143  01A0  0700     E  	mov a,rf
 143  01A1  1200     R  	sbc a,_MemoryMode_2[12]
 143  01A2  0700     E  	mov a,rg
 143  01A3  1200     R  	sbc a,_MemoryMode_2[13]
 143  01A4  380A        	snz c
 143  01A5  2800     R  	jmp _L19
 145  01A6              #line 145 "c:\users\longshuangmin\desktop\worke_space\g-501\g-501\OpMode_M.C"
 145  01A6  0700     E  	mov a,rb
 145  01A7  0380     E  	addm a,_M_30days_datasum[0]
 145  01A8  0700     E  	mov a,rc
 145  01A9  1380     E  	adcm a,_M_30days_datasum[1]
 145  01AA  1F05        	clr acc
 145  01AB  3C00     E  	sz rc.7
 145  01AC  1F85        	set acc
 145  01AD  1380     E  	adcm a,_M_30days_datasum[2]
 145  01AE  1380     E  	adcm a,_M_30days_datasum[3]
 146  01AF              #line 146 "c:\users\longshuangmin\desktop\worke_space\g-501\g-501\OpMode_M.C"
 146  01AF  1480     E  	inc _M_30daysNumber[0]
 146  01B0  3D0A        	sz z
 146  01B1  1480     E  	inc _M_30daysNumber[1]
 146  01B2              _L19:
 149  01B2              #line 149 "c:\users\longshuangmin\desktop\worke_space\g-501\g-501\OpMode_M.C"
 149  01B2  0F00        	mov a,0
 149  01B3  0300     E  	add a,rd
 149  01B4  0080     R  	mov _MemoryMode_2[6],a
 149  01B5  0FE6        	mov a,230
 149  01B6  1300     E  	adc a,re
 149  01B7  0080     R  	mov _MemoryMode_2[7],a
 149  01B8  0FB0        	mov a,176
 149  01B9  1300     E  	adc a,rf
 149  01BA  0080     R  	mov _MemoryMode_2[8],a
 149  01BB  0FFF        	mov a,255
 149  01BC  1300     E  	adc a,rg
 149  01BD  0080     R  	mov _MemoryMode_2[9],a
 150  01BE              #line 150 "c:\users\longshuangmin\desktop\worke_space\g-501\g-501\OpMode_M.C"
 150  01BE  0700     R  	mov a,_MemoryMode_2[10]
 150  01BF  0200     R  	sub a,_MemoryMode_2[6]
 150  01C0  0700     R  	mov a,_MemoryMode_2[11]
 150  01C1  1200     R  	sbc a,_MemoryMode_2[7]
 150  01C2  0700     R  	mov a,_MemoryMode_2[12]
 150  01C3  1200     R  	sbc a,_MemoryMode_2[8]
 150  01C4  0700     R  	mov a,_MemoryMode_2[13]
 150  01C5  1200     R  	sbc a,_MemoryMode_2[9]
 150  01C6  380A        	snz c
 150  01C7  2800     R  	jmp _L20
 150  01C8  0700     E  	mov a,rd
 150  01C9  0200     R  	sub a,_MemoryMode_2[10]
 150  01CA  0700     E  	mov a,re
 150  01CB  1200     R  	sbc a,_MemoryMode_2[11]
 150  01CC  0700     E  	mov a,rf
 150  01CD  1200     R  	sbc a,_MemoryMode_2[12]
文件：OpMode_M.C   编译器版本 HGASM 0202 页次11

 150  01CE  0700     E  	mov a,rg
 150  01CF  1200     R  	sbc a,_MemoryMode_2[13]
 150  01D0  380A        	snz c
 150  01D1  2800     R  	jmp _L20
 152  01D2              #line 152 "c:\users\longshuangmin\desktop\worke_space\g-501\g-501\OpMode_M.C"
 152  01D2  0700     E  	mov a,rb
 152  01D3  0380     E  	addm a,_M_60days_datasum[0]
 152  01D4  0700     E  	mov a,rc
 152  01D5  1380     E  	adcm a,_M_60days_datasum[1]
 152  01D6  1F05        	clr acc
 152  01D7  3C00     E  	sz rc.7
 152  01D8  1F85        	set acc
 152  01D9  1380     E  	adcm a,_M_60days_datasum[2]
 152  01DA  1380     E  	adcm a,_M_60days_datasum[3]
 153  01DB              #line 153 "c:\users\longshuangmin\desktop\worke_space\g-501\g-501\OpMode_M.C"
 153  01DB  1480     E  	inc _M_60daysNumber[0]
 153  01DC  3D0A        	sz z
 153  01DD  1480     E  	inc _M_60daysNumber[1]
 153  01DE              _L20:
 157  01DE              #line 157 "c:\users\longshuangmin\desktop\worke_space\g-501\g-501\OpMode_M.C"
 157  01DE  0F00        	mov a,0
 157  01DF  0300     E  	add a,rd
 157  01E0  0080     R  	mov _MemoryMode_2[6],a
 157  01E1  0F59        	mov a,89
 157  01E2  1300     E  	adc a,re
 157  01E3  0080     R  	mov _MemoryMode_2[7],a
 157  01E4  0F89        	mov a,137
 157  01E5  1300     E  	adc a,rf
 157  01E6  0080     R  	mov _MemoryMode_2[8],a
 157  01E7  0FFF        	mov a,255
 157  01E8  1300     E  	adc a,rg
 157  01E9  0080     R  	mov _MemoryMode_2[9],a
 158  01EA              #line 158 "c:\users\longshuangmin\desktop\worke_space\g-501\g-501\OpMode_M.C"
 158  01EA  0700     R  	mov a,_MemoryMode_2[10]
 158  01EB  0200     R  	sub a,_MemoryMode_2[6]
 158  01EC  0700     R  	mov a,_MemoryMode_2[11]
 158  01ED  1200     R  	sbc a,_MemoryMode_2[7]
 158  01EE  0700     R  	mov a,_MemoryMode_2[12]
 158  01EF  1200     R  	sbc a,_MemoryMode_2[8]
 158  01F0  0700     R  	mov a,_MemoryMode_2[13]
 158  01F1  1200     R  	sbc a,_MemoryMode_2[9]
 158  01F2  380A        	snz c
 158  01F3  2800     R  	jmp _L15
 158  01F4  0700     E  	mov a,rd
 158  01F5  0200     R  	sub a,_MemoryMode_2[10]
 158  01F6  0700     E  	mov a,re
 158  01F7  1200     R  	sbc a,_MemoryMode_2[11]
 158  01F8  0700     E  	mov a,rf
 158  01F9  1200     R  	sbc a,_MemoryMode_2[12]
 158  01FA  0700     E  	mov a,rg
 158  01FB  1200     R  	sbc a,_MemoryMode_2[13]
 158  01FC  380A        	snz c
 158  01FD  2800     R  	jmp _L15
 160  01FE              #line 160 "c:\users\longshuangmin\desktop\worke_space\g-501\g-501\OpMode_M.C"
 160  01FE  0700     E  	mov a,rb
 160  01FF  0380     E  	addm a,_M_90days_datasum[0]
 160  0200  0700     E  	mov a,rc
 160  0201  1380     E  	adcm a,_M_90days_datasum[1]
 160  0202  1F05        	clr acc
 160  0203  3C00     E  	sz rc.7
文件：OpMode_M.C   编译器版本 HGASM 0202 页次12

 160  0204  1F85        	set acc
 160  0205  1380     E  	adcm a,_M_90days_datasum[2]
 160  0206  1380     E  	adcm a,_M_90days_datasum[3]
 161  0207              #line 161 "c:\users\longshuangmin\desktop\worke_space\g-501\g-501\OpMode_M.C"
 161  0207  1480     E  	inc _M_90daysNumber[0]
 161  0208  3D0A        	sz z
 161  0209  1480     E  	inc _M_90daysNumber[1]
 161  020A              _L15:
  76  020A              #line 76 "c:\users\longshuangmin\desktop\worke_space\g-501\g-501\OpMode_M.C"
  76  020A  1480     E  	inc _M_GM_data_Record_buf[0]
  76  020B  3D0A        	sz z
  76  020C  1480     E  	inc _M_GM_data_Record_buf[1]
  76  020D  2800     R  	jmp _L12
  76  020E              _L11:
 169  020E              #line 169 "c:\users\longshuangmin\desktop\worke_space\g-501\g-501\OpMode_M.C"
 169  020E  0F63        	mov a,99
 169  020F  0200     E  	sub a,rb
 169  0210  0F00        	mov a,0
 169  0211  1200     E  	sbc a,rc
 169  0212  3C0A        	sz c
 169  0213  2800     R  	jmp _L23
 172  0214              #line 172 "c:\users\longshuangmin\desktop\worke_space\g-501\g-501\OpMode_M.C"
 172  0214  3800     E  	snz _Flag1[0].5
 172  0215  2800     R  	jmp _L25
 173  0216              #line 173 "c:\users\longshuangmin\desktop\worke_space\g-501\g-501\OpMode_M.C"
 173  0216  0F06        	mov a,6
 173  0217  0080     E  	mov _M_Error_Task[0],a
 173  0218              _L25:
 174  0218              #line 174 "c:\users\longshuangmin\desktop\worke_space\g-501\g-501\OpMode_M.C"
 174  0218  1080     E  	sz _M_Error_Task[0]
 174  0219  2800     R  	jmp _L26
 176  021A              #line 176 "c:\users\longshuangmin\desktop\worke_space\g-501\g-501\OpMode_M.C"
 176  021A  1F00     E  	clr _M_RTC_display[0]
 176  021B  1F00     E  	clr _M_RTC_display[1]
 177  021C              #line 177 "c:\users\longshuangmin\desktop\worke_space\g-501\g-501\OpMode_M.C"
 177  021C  D700 000E   	lsdza [3712]
 177  021E  2800     R  	jmp _L27
 178  021F              #line 178 "c:\users\longshuangmin\desktop\worke_space\g-501\g-501\OpMode_M.C"
 178  021F  0F01        	mov a,1
 178  0220  0080     E  	mov _M_TaskBuf0[0],a
 178  0221  2800     R  	jmp _L28
 178  0222              _L27:
 180  0222              #line 180 "c:\users\longshuangmin\desktop\worke_space\g-501\g-501\OpMode_M.C"
 180  0222  0F04        	mov a,4
 180  0223  0080     E  	mov _M_TaskBuf0[0],a
 180  0224              _L28:
 181  0224              #line 181 "c:\users\longshuangmin\desktop\worke_space\g-501\g-501\OpMode_M.C"
 181  0224  DF00 000E   	lclr [3712]
 184  0226              #line 184 "c:\users\longshuangmin\desktop\worke_space\g-501\g-501\OpMode_M.C"
 184  0226  1F00     E  	clr _M_TaskBuf1[0]
 185  0227              #line 185 "c:\users\longshuangmin\desktop\worke_space\g-501\g-501\OpMode_M.C"
 185  0227  1F00     E  	clr _M_Cbuf0[0]
 186  0228              #line 186 "c:\users\longshuangmin\desktop\worke_space\g-501\g-501\OpMode_M.C"
 186  0228  3400     E  	clr _Flag1[0].4
 187  0229              #line 187 "c:\users\longshuangmin\desktop\worke_space\g-501\g-501\OpMode_M.C"
 187  0229  1F00     E  	clr _M_No_Active_Cnt[0]
 187  022A  1F00     E  	clr _M_No_Active_Cnt[1]
 191  022B              #line 191 "c:\users\longshuangmin\desktop\worke_space\g-501\g-501\OpMode_M.C"
 191  022B  3000     E  	set _Flag4[0].1
 191  022C  2800     R  	jmp _L151
文件：OpMode_M.C   编译器版本 HGASM 0202 页次13

 191  022D              _L26:
 203  022D              #line 203 "c:\users\longshuangmin\desktop\worke_space\g-501\g-501\OpMode_M.C"
 203  022D  1F00     E  	clr _M_RTC_display[0]
 203  022E  1F00     E  	clr _M_RTC_display[1]
 204  022F              #line 204 "c:\users\longshuangmin\desktop\worke_space\g-501\g-501\OpMode_M.C"
 204  022F  0F07        	mov a,7
 204  0230  0080     E  	mov _M_TaskBuf0[0],a
 205  0231              #line 205 "c:\users\longshuangmin\desktop\worke_space\g-501\g-501\OpMode_M.C"
 205  0231  1F00     E  	clr _M_TaskBuf1[0]
 206  0232              #line 206 "c:\users\longshuangmin\desktop\worke_space\g-501\g-501\OpMode_M.C"
 206  0232  1F00     E  	clr _M_No_Active_Cnt[0]
 206  0233  1F00     E  	clr _M_No_Active_Cnt[1]
 208  0234              #line 208 "c:\users\longshuangmin\desktop\worke_space\g-501\g-501\OpMode_M.C"
 208  0234  3000     E  	set _Flag4[0].2
 208  0235              _L151:
 210  0235              #line 210 "c:\users\longshuangmin\desktop\worke_space\g-501\g-501\OpMode_M.C"
 210  0235  0F00        	mov a,0
 210  0236              	fcall _LCD_Clear
 213  023D              #line 213 "c:\users\longshuangmin\desktop\worke_space\g-501\g-501\OpMode_M.C"
 213  023D  3400     E  	clr _Flag2[0].6
 214  023E              #line 214 "c:\users\longshuangmin\desktop\worke_space\g-501\g-501\OpMode_M.C"
 214  023E  3400     E  	clr _Flag2[0].1
 214  023F  2800     R  	jmp _L23
 214  0240              _L4:
 226  0240              #line 226 "c:\users\longshuangmin\desktop\worke_space\g-501\g-501\OpMode_M.C"
 226  0240  0F01        	mov a,1
 226  0241  0300     E  	add a,_M_RTC_display[0]
 226  0242  0080     E  	mov rb,a
 226  0243  0F00        	mov a,0
 226  0244  1300     E  	adc a,_M_RTC_display[1]
 226  0245  0080     E  	mov rc,a
 228  0246              #line 228 "c:\users\longshuangmin\desktop\worke_space\g-501\g-501\OpMode_M.C"
 228  0246  0FC7        	mov a,199
 228  0247  0200     E  	sub a,rb
 228  0248  0F00        	mov a,0
 228  0249  1200     E  	sbc a,rc
 228  024A  380A        	snz c
 228  024B  2800     R  	jmp _L29
 226  024C              #line 226 "c:\users\longshuangmin\desktop\worke_space\g-501\g-501\OpMode_M.C"
 226  024C  0700     E  	mov a,rb
 226  024D  0080     E  	mov _M_RTC_display[0],a
 226  024E  0700     E  	mov a,rc
 226  024F  0080     E  	mov _M_RTC_display[1],a
 226  0250  2800     R  	jmp _L30
 226  0251              _L29:
 229  0251              #line 229 "c:\users\longshuangmin\desktop\worke_space\g-501\g-501\OpMode_M.C"
 229  0251  1F00     E  	clr _M_RTC_display[0]
 229  0252  1F00     E  	clr _M_RTC_display[1]
 229  0253              _L30:
 231  0253              #line 231 "c:\users\longshuangmin\desktop\worke_space\g-501\g-501\OpMode_M.C"
 231  0253  0700     E  	mov a,_M_RTC_display[0]
 231  0254  0080     E  	mov rb,a
 231  0255  0700     E  	mov a,_M_RTC_display[1]
 231  0256  0080     E  	mov rc,a
 231  0257  0700     E  	mov a,rb
 231  0258  0C01        	xor a,1
 231  0259  0500     E  	or a,rc
 231  025A  390A        	snz z
 231  025B  2800     R  	jmp _L31
 233  025C              #line 233 "c:\users\longshuangmin\desktop\worke_space\g-501\g-501\OpMode_M.C"
文件：OpMode_M.C   编译器版本 HGASM 0202 页次14

 233  025C  0700     E  	mov a,_M_Hour[0]
 233  025D  0080     E  	mov ra,a
 233  025E  0700     E  	mov a,_M_Minutes[0]
 233  025F  0080     E  	mov _Lcd_Clock_Process_2[0],a
 233  0260  0700     E  	mov a,ra
 233  0261              	fcall _Lcd_Clock_Process
 234  0268              #line 234 "c:\users\longshuangmin\desktop\worke_space\g-501\g-501\OpMode_M.C"
 234  0268  3000     E  	set _lcd[24].4
 236  0269              #line 236 "c:\users\longshuangmin\desktop\worke_space\g-501\g-501\OpMode_M.C"
 236  0269  3000     E  	set _lcd[26].2
 236  026A  2800     R  	jmp _L144
 236  026B              _L31:
 242  026B              #line 242 "c:\users\longshuangmin\desktop\worke_space\g-501\g-501\OpMode_M.C"
 242  026B  0700     E  	mov a,rb
 242  026C  0C64        	xor a,100
 242  026D  0500     E  	or a,rc
 242  026E  390A        	snz z
 242  026F  2800     R  	jmp _L32
 245  0270              #line 245 "c:\users\longshuangmin\desktop\worke_space\g-501\g-501\OpMode_M.C"
 245  0270  3400     E  	clr _lcd[26].2
 246  0271              #line 246 "c:\users\longshuangmin\desktop\worke_space\g-501\g-501\OpMode_M.C"
 246  0271  3400     E  	clr _lcd[24].4
 247  0272              #line 247 "c:\users\longshuangmin\desktop\worke_space\g-501\g-501\OpMode_M.C"
 247  0272  3400     E  	clr _lcd[24].5
 248  0273              #line 248 "c:\users\longshuangmin\desktop\worke_space\g-501\g-501\OpMode_M.C"
 248  0273  3400     E  	clr _lcd[24].6
 250  0274              #line 250 "c:\users\longshuangmin\desktop\worke_space\g-501\g-501\OpMode_M.C"
 250  0274  0700     E  	mov a,_M_Month[0]
 250  0275  0080     E  	mov ra,a
 250  0276  0700     E  	mov a,_M_Days[0]
 250  0277  0080     E  	mov _Lcd_Month_Day_Process_2[0],a
 250  0278  0700     E  	mov a,ra
 250  0279              	fcall _Lcd_Month_Day_Process
 250  0280              _L144:
 253  0280              #line 253 "c:\users\longshuangmin\desktop\worke_space\g-501\g-501\OpMode_M.C"
 253  0280  3000     E  	set _Flag2[0].1
 253  0281              _L32:
 270  0281              #line 270 "c:\users\longshuangmin\desktop\worke_space\g-501\g-501\OpMode_M.C"
 270  0281  D700 000E   	lsdza [3712]
 270  0283  2800     R  	jmp _L33
 272  0284              #line 272 "c:\users\longshuangmin\desktop\worke_space\g-501\g-501\OpMode_M.C"
 272  0284  DF00 000E   	lclr [3712]
 274  0286              #line 274 "c:\users\longshuangmin\desktop\worke_space\g-501\g-501\OpMode_M.C"
 274  0286  0700     E  	mov a,_M_GM_data_Record[0]
 274  0287  0500     E  	or a,_M_GM_data_Record[1]
 274  0288  390A        	snz z
 274  0289  2800     R  	jmp _L34
 277  028A              #line 277 "c:\users\longshuangmin\desktop\worke_space\g-501\g-501\OpMode_M.C"
 277  028A  1F00     E  	clr _M_RTC_display[0]
 277  028B  1F00     E  	clr _M_RTC_display[1]
 278  028C              #line 278 "c:\users\longshuangmin\desktop\worke_space\g-501\g-501\OpMode_M.C"
 278  028C  0F02        	mov a,2
 278  028D  0080     E  	mov _M_TaskBuf0[0],a
 279  028E              #line 279 "c:\users\longshuangmin\desktop\worke_space\g-501\g-501\OpMode_M.C"
 279  028E  1F00     E  	clr _M_TaskBuf1[0]
 280  028F              #line 280 "c:\users\longshuangmin\desktop\worke_space\g-501\g-501\OpMode_M.C"
 280  028F  DF02 000A   	lclr [2690]
 280  0291  DF03 000A   	lclr [2691]
 280  0293  2800     R  	jmp _L33
 280  0294              _L34:
文件：OpMode_M.C   编译器版本 HGASM 0202 页次15

 285  0294              #line 285 "c:\users\longshuangmin\desktop\worke_space\g-501\g-501\OpMode_M.C"
 285  0294  0F03        	mov a,3
 285  0295  0080     E  	mov _M_TaskBuf0[0],a
 288  0296              #line 288 "c:\users\longshuangmin\desktop\worke_space\g-501\g-501\OpMode_M.C"
 288  0296  1F00     E  	clr _M_TaskBuf1[0]
 289  0297              #line 289 "c:\users\longshuangmin\desktop\worke_space\g-501\g-501\OpMode_M.C"
 289  0297  1F00     E  	clr _M_Error_Task[0]
 290  0298              #line 290 "c:\users\longshuangmin\desktop\worke_space\g-501\g-501\OpMode_M.C"
 290  0298  1F00     E  	clr _M_RTC_display[0]
 290  0299  1F00     E  	clr _M_RTC_display[1]
 291  029A              #line 291 "c:\users\longshuangmin\desktop\worke_space\g-501\g-501\OpMode_M.C"
 291  029A  1F00     E  	clr _M_No_Active_Cnt[0]
 291  029B  1F00     E  	clr _M_No_Active_Cnt[1]
 294  029C              #line 294 "c:\users\longshuangmin\desktop\worke_space\g-501\g-501\OpMode_M.C"
 294  029C  0F00        	mov a,0
 294  029D              	fcall _LCD_Clear
 296  02A4              #line 296 "c:\users\longshuangmin\desktop\worke_space\g-501\g-501\OpMode_M.C"
 296  02A4  3000     E  	set _Flag4[0].1
 298  02A5              #line 298 "c:\users\longshuangmin\desktop\worke_space\g-501\g-501\OpMode_M.C"
 298  02A5  3000     E  	set _Flag2[0].3
 299  02A6              #line 299 "c:\users\longshuangmin\desktop\worke_space\g-501\g-501\OpMode_M.C"
 299  02A6  0700     E  	mov a,_M_GM_Record_current[0]
 299  02A7  0080     E  	mov _M_GM_data_Record_buf[0],a
 299  02A8  0700     E  	mov a,_M_GM_Record_current[1]
 299  02A9  0080     E  	mov _M_GM_data_Record_buf[1],a
 300  02AA              #line 300 "c:\users\longshuangmin\desktop\worke_space\g-501\g-501\OpMode_M.C"
 300  02AA  0F01        	mov a,1
 300  02AB  0080     E  	mov _M_Ibuf0[0],a
 300  02AC  1F00     E  	clr _M_Ibuf0[1]
 300  02AD              _L33:
 305  02AD              #line 305 "c:\users\longshuangmin\desktop\worke_space\g-501\g-501\OpMode_M.C"
 305  02AD  C700 000E   	lmov a,[3712]
 305  02AF  0A02        	sub a,2
 305  02B0  390A        	snz z
 305  02B1  2800     R  	jmp _L23
 307  02B2              #line 307 "c:\users\longshuangmin\desktop\worke_space\g-501\g-501\OpMode_M.C"
 307  02B2  DF03 000E   	lclr [3715]
 307  02B4  2800     R  	jmp _L149
 307  02B5              _L6:
 329  02B5              #line 329 "c:\users\longshuangmin\desktop\worke_space\g-501\g-501\OpMode_M.C"
 329  02B5  3000     E  	set _lcd[26].2
 330  02B6              #line 330 "c:\users\longshuangmin\desktop\worke_space\g-501\g-501\OpMode_M.C"
 330  02B6  0700     E  	mov a,_M_RTC_display[0]
 330  02B7  0080     E  	mov rb,a
 330  02B8  0700     E  	mov a,_M_RTC_display[1]
 330  02B9  0080     E  	mov rc,a
 330  02BA  0F64        	mov a,100
 330  02BB  0200     E  	sub a,rb
 330  02BC  0F00        	mov a,0
 330  02BD  1200     E  	sbc a,rc
 330  02BE  380A        	snz c
 330  02BF  2800     R  	jmp _L35
 331  02C0              #line 331 "c:\users\longshuangmin\desktop\worke_space\g-501\g-501\OpMode_M.C"
 331  02C0  0F01        	mov a,1
 331  02C1  0300     E  	add a,rb
 331  02C2  0080     E  	mov _M_RTC_display[0],a
 331  02C3  0F00        	mov a,0
 331  02C4  1300     E  	adc a,rc
 331  02C5  0080     E  	mov _M_RTC_display[1],a
 331  02C6              _L35:
文件：OpMode_M.C   编译器版本 HGASM 0202 页次16

 333  02C6              #line 333 "c:\users\longshuangmin\desktop\worke_space\g-501\g-501\OpMode_M.C"
 333  02C6  0700     E  	mov a,_M_RTC_display[0]
 333  02C7  0080     E  	mov rb,a
 333  02C8  0700     E  	mov a,_M_RTC_display[1]
 333  02C9  0080     E  	mov rc,a
 333  02CA  0700     E  	mov a,rb
 333  02CB  0C01        	xor a,1
 333  02CC  0500     E  	or a,rc
 333  02CD  390A        	snz z
 333  02CE  2800     R  	jmp _L36
 333  02CF              _L39:
 341  02CF              #line 341 "c:\users\longshuangmin\desktop\worke_space\g-501\g-501\OpMode_M.C"
 341  02CF  3800     E  	snz _Flag2[0].3
 341  02D0  2800     R  	jmp _L44
 343  02D1              #line 343 "c:\users\longshuangmin\desktop\worke_space\g-501\g-501\OpMode_M.C"
 343  02D1              ;# 343 "c:\users\longshuangmin\desktop\worke_space\g-501\g-501\OpMode_M.C" 1
 343  02D1  0001        	clr wdt
 345  02D2              #line 345 "c:\users\longshuangmin\desktop\worke_space\g-501\g-501\OpMode_M.C"
 345  02D2  0FFF        	mov a,255
 345  02D3  0300     E  	add a,_M_GM_data_Record_buf[0]
 345  02D4  0080     E  	mov rb,a
 345  02D5  0F3F        	mov a,63
 345  02D6  1300     E  	adc a,_M_GM_data_Record_buf[1]
 345  02D7  0080     E  	mov rc,a
 345  02D8  340A        	clr c
 345  02D9  1A00     E  	rlca rb
 345  02DA  0080     R  	mov _MemoryMode_2[14],a
 345  02DB  1A00     E  	rlca rc
 345  02DC  0080     R  	mov _MemoryMode_2[15],a
 345  02DD  340A        	clr c
 345  02DE  1A80     R  	rlc _MemoryMode_2[14]
 345  02DF  1A80     R  	rlc _MemoryMode_2[15]
 346  02E0              #line 346 "c:\users\longshuangmin\desktop\worke_space\g-501\g-501\OpMode_M.C"
 346  02E0  0F00        	mov a,0
 346  02E1  0380     R  	addm a,_MemoryMode_2[14]
 346  02E2  0FB4        	mov a,180
 346  02E3  1380     R  	adcm a,_MemoryMode_2[15]
 348  02E4              #line 348 "c:\users\longshuangmin\desktop\worke_space\g-501\g-501\OpMode_M.C"
 348  02E4  0F03        	mov a,3
 348  02E5  0300     R  	add a,_MemoryMode_2[14]
 348  02E6  0080     E  	mov _Flash_Store_Read_Process_2[0],a
 348  02E7  0F00        	mov a,0
 348  02E8  1300     R  	adc a,_MemoryMode_2[15]
 348  02E9  0080     E  	mov _Flash_Store_Read_Process_2[1],a
 348  02EA              	fcall _Flash_Store_Read_Process
 348  02F1  0700     E  	mov a,ra
 348  02F2  0080     R  	mov _MemoryMode_2[16],a
 348  02F3  0700     E  	mov a,rb
 348  02F4  0080     R  	mov _MemoryMode_2[17],a
 349  02F5              #line 349 "c:\users\longshuangmin\desktop\worke_space\g-501\g-501\OpMode_M.C"
 349  02F5  0700     R  	mov a,_MemoryMode_2[16]
 349  02F6  0600     R  	and a,_MemoryMode_2[17]
 349  02F7  0B01        	add a,1
 349  02F8  3C0A        	sz c
 349  02F9  2800     R  	jmp _L39
 352  02FA              #line 352 "c:\users\longshuangmin\desktop\worke_space\g-501\g-501\OpMode_M.C"
 352  02FA  0700     R  	mov a,_MemoryMode_2[14]
 352  02FB  0080     E  	mov _Flash_Store_Read_Process_2[0],a
 352  02FC  0700     R  	mov a,_MemoryMode_2[15]
 352  02FD  0080     E  	mov _Flash_Store_Read_Process_2[1],a
文件：OpMode_M.C   编译器版本 HGASM 0202 页次17

 352  02FE              	fcall _Flash_Store_Read_Process
 352  0305  0700     E  	mov a,ra
 352  0306  0080     R  	mov _MemoryMode_2[16],a
 352  0307  0700     E  	mov a,rb
 352  0308  0080     R  	mov _MemoryMode_2[17],a
 353  0309              #line 353 "c:\users\longshuangmin\desktop\worke_space\g-501\g-501\OpMode_M.C"
 353  0309  0700     R  	mov a,_MemoryMode_2[16]
 353  030A  0080     R  	mov _MemoryMode_2[10],a
 353  030B  0700     R  	mov a,_MemoryMode_2[17]
 353  030C  0080     R  	mov _MemoryMode_2[11],a
 353  030D  1F00     R  	clr _MemoryMode_2[12]
 353  030E  1F00     R  	clr _MemoryMode_2[13]
 354  030F              #line 354 "c:\users\longshuangmin\desktop\worke_space\g-501\g-501\OpMode_M.C"
 354  030F  0700     R  	mov a,_MemoryMode_2[11]
 354  0310  0080     R  	mov _MemoryMode_2[13],a
 354  0311  0700     R  	mov a,_MemoryMode_2[10]
 354  0312  0080     R  	mov _MemoryMode_2[12],a
 354  0313  1F00     R  	clr _MemoryMode_2[11]
 354  0314  1F00     R  	clr _MemoryMode_2[10]
 357  0315              #line 357 "c:\users\longshuangmin\desktop\worke_space\g-501\g-501\OpMode_M.C"
 357  0315  1480     R  	inc _MemoryMode_2[14]
 357  0316  3D0A        	sz z
 357  0317  1480     R  	inc _MemoryMode_2[15]
 358  0318              #line 358 "c:\users\longshuangmin\desktop\worke_space\g-501\g-501\OpMode_M.C"
 358  0318  0700     R  	mov a,_MemoryMode_2[14]
 358  0319  0080     E  	mov _Flash_Store_Read_Process_2[0],a
 358  031A  0700     R  	mov a,_MemoryMode_2[15]
 358  031B  0080     E  	mov _Flash_Store_Read_Process_2[1],a
 358  031C              	fcall _Flash_Store_Read_Process
 358  0323  0700     E  	mov a,ra
 358  0324  0080     R  	mov _MemoryMode_2[16],a
 358  0325  0700     E  	mov a,rb
 358  0326  0080     R  	mov _MemoryMode_2[17],a
 359  0327              #line 359 "c:\users\longshuangmin\desktop\worke_space\g-501\g-501\OpMode_M.C"
 359  0327  0700     R  	mov a,_MemoryMode_2[16]
 359  0328  0380     R  	addm a,_MemoryMode_2[10]
 359  0329  0700     R  	mov a,_MemoryMode_2[17]
 359  032A  1380     R  	adcm a,_MemoryMode_2[11]
 359  032B  1F05        	clr acc
 359  032C  1380     R  	adcm a,_MemoryMode_2[12]
 359  032D  1380     R  	adcm a,_MemoryMode_2[13]
 361  032E              #line 361 "c:\users\longshuangmin\desktop\worke_space\g-501\g-501\OpMode_M.C"
 361  032E  1480     R  	inc _MemoryMode_2[14]
 361  032F  3D0A        	sz z
 361  0330  1480     R  	inc _MemoryMode_2[15]
 362  0331              #line 362 "c:\users\longshuangmin\desktop\worke_space\g-501\g-501\OpMode_M.C"
 362  0331  0700     R  	mov a,_MemoryMode_2[14]
 362  0332  0080     E  	mov _Flash_Store_Read_Process_2[0],a
 362  0333  0700     R  	mov a,_MemoryMode_2[15]
 362  0334  0080     E  	mov _Flash_Store_Read_Process_2[1],a
 362  0335              	fcall _Flash_Store_Read_Process
 362  033C  0700     E  	mov a,ra
 362  033D  0080     E  	mov _M_GM_data[0],a
 362  033E  0700     E  	mov a,rb
 362  033F  0080     E  	mov _M_GM_data[1],a
 364  0340              #line 364 "c:\users\longshuangmin\desktop\worke_space\g-501\g-501\OpMode_M.C"
 364  0340  1480     R  	inc _MemoryMode_2[14]
 364  0341  3D0A        	sz z
 364  0342  1480     R  	inc _MemoryMode_2[15]
 365  0343              #line 365 "c:\users\longshuangmin\desktop\worke_space\g-501\g-501\OpMode_M.C"
文件：OpMode_M.C   编译器版本 HGASM 0202 页次18

 365  0343  0700     R  	mov a,_MemoryMode_2[14]
 365  0344  0080     E  	mov _Flash_Store_Read_Process_2[0],a
 365  0345  0700     R  	mov a,_MemoryMode_2[15]
 365  0346  0080     E  	mov _Flash_Store_Read_Process_2[1],a
 365  0347              	fcall _Flash_Store_Read_Process
 365  034E  0700     E  	mov a,ra
 365  034F  C0BA 000F   	lmov [4026],a
 370  0351              #line 370 "c:\users\longshuangmin\desktop\worke_space\g-501\g-501\OpMode_M.C"
 370  0351  0F00        	mov a,0
 370  0352              	fcall _LCD_Clear_Buff
 373  0359              #line 373 "c:\users\longshuangmin\desktop\worke_space\g-501\g-501\OpMode_M.C"
 373  0359  3000     E  	set _lcd[26].2
 376  035A              #line 376 "c:\users\longshuangmin\desktop\worke_space\g-501\g-501\OpMode_M.C"
 376  035A  0700     E  	mov a,_M_Ibuf0[0]
 376  035B  0080     R  	mov _MemoryMode_2[16],a
 376  035C  0700     E  	mov a,_M_Ibuf0[1]
 376  035D  0080     R  	mov _MemoryMode_2[17],a
 377  035E              #line 377 "c:\users\longshuangmin\desktop\worke_space\g-501\g-501\OpMode_M.C"
 377  035E  0700     R  	mov a,_MemoryMode_2[16]
 377  035F  0080     E  	mov _Lcd_ShowAvgNum_2[0],a
 377  0360  0700     R  	mov a,_MemoryMode_2[17]
 377  0361  0080     E  	mov _Lcd_ShowAvgNum_2[1],a
 377  0362              	fcall _Lcd_ShowAvgNum
 379  0369              #line 379 "c:\users\longshuangmin\desktop\worke_space\g-501\g-501\OpMode_M.C"
 379  0369  0700     E  	mov a,_M_GM_data[0]
 379  036A  0080     E  	mov _Lcd_Glucose_2[0],a
 379  036B  0700     E  	mov a,_M_GM_data[1]
 379  036C  0080     E  	mov _Lcd_Glucose_2[1],a
 379  036D              	fcall _Lcd_Glucose
 381  0374              #line 381 "c:\users\longshuangmin\desktop\worke_space\g-501\g-501\OpMode_M.C"
 381  0374  3400     E  	clr _lcd[28].3
 382  0375              #line 382 "c:\users\longshuangmin\desktop\worke_space\g-501\g-501\OpMode_M.C"
 382  0375  3400     E  	clr _lcd[28].2
 383  0376              #line 383 "c:\users\longshuangmin\desktop\worke_space\g-501\g-501\OpMode_M.C"
 383  0376  3400     E  	clr _lcd[28].5
 384  0377              #line 384 "c:\users\longshuangmin\desktop\worke_space\g-501\g-501\OpMode_M.C"
 384  0377  0FF0        	mov a,240
 384  0378  0200     E  	sub a,_M_GM_data[0]
 384  0379  0F00        	mov a,0
 384  037A  1200     E  	sbc a,_M_GM_data[1]
 384  037B  3B8A        	snz sc
 384  037C  2800     R  	jmp _L40
 386  037D              #line 386 "c:\users\longshuangmin\desktop\worke_space\g-501\g-501\OpMode_M.C"
 386  037D  3000     E  	set _lcd[24].2
 386  037E              _L40:
 388  037E              #line 388 "c:\users\longshuangmin\desktop\worke_space\g-501\g-501\OpMode_M.C"
 388  037E  D73A 000F   	lsdza [4026]
 388  0380  2800     R  	jmp _L41
 391  0381              #line 391 "c:\users\longshuangmin\desktop\worke_space\g-501\g-501\OpMode_M.C"
 391  0381  3000     E  	set _lcd[28].2
 391  0382  2800     R  	jmp _L42
 391  0383              _L41:
 393  0383              #line 393 "c:\users\longshuangmin\desktop\worke_space\g-501\g-501\OpMode_M.C"
 393  0383  C73A 000F   	lmov a,[4026]
 393  0385  0A02        	sub a,2
 393  0386  390A        	snz z
 393  0387  2800     R  	jmp _L42
 395  0388              #line 395 "c:\users\longshuangmin\desktop\worke_space\g-501\g-501\OpMode_M.C"
 395  0388  3000     E  	set _lcd[28].3
 395  0389              _L42:
文件：OpMode_M.C   编译器版本 HGASM 0202 页次19

 404  0389              #line 404 "c:\users\longshuangmin\desktop\worke_space\g-501\g-501\OpMode_M.C"
 404  0389  3400     E  	clr _Flag2[0].3
 407  038A              #line 407 "c:\users\longshuangmin\desktop\worke_space\g-501\g-501\OpMode_M.C"
 407  038A  3000     E  	set _Flag2[0].1
 407  038B  2800     R  	jmp _L39
 407  038C              _L36:
 411  038C              #line 411 "c:\users\longshuangmin\desktop\worke_space\g-501\g-501\OpMode_M.C"
 411  038C  0700     E  	mov a,rb
 411  038D  0C64        	xor a,100
 411  038E  0500     E  	or a,rc
 411  038F  390A        	snz z
 411  0390  2800     R  	jmp _L44
 415  0391              #line 415 "c:\users\longshuangmin\desktop\worke_space\g-501\g-501\OpMode_M.C"
 415  0391  0700     R  	mov a,_MemoryMode_2[10]
 415  0392  0080     E  	mov _SecondToDate_2[0],a
 415  0393  0700     R  	mov a,_MemoryMode_2[11]
 415  0394  0080     E  	mov _SecondToDate_2[1],a
 415  0395  0700     R  	mov a,_MemoryMode_2[12]
 415  0396  0080     E  	mov _SecondToDate_2[2],a
 415  0397  0700     R  	mov a,_MemoryMode_2[13]
 415  0398  0080     E  	mov _SecondToDate_2[3],a
 415  0399  0F00     R  	mov a,low offset _MemoryMode_2
 415  039A  0080     E  	mov _SecondToDate_2[4],a
 415  039B  0F00     R  	mov a,high offset _MemoryMode_2
 415  039C  0080     E  	mov _SecondToDate_2[5],a
 415  039D              	fcall _SecondToDate
 416  03A4              #line 416 "c:\users\longshuangmin\desktop\worke_space\g-501\g-501\OpMode_M.C"
 416  03A4  0F02        	mov a,2
 416  03A5  0080     E  	mov _M_RTC_display[0],a
 416  03A6  1F00     E  	clr _M_RTC_display[1]
 417  03A7              #line 417 "c:\users\longshuangmin\desktop\worke_space\g-501\g-501\OpMode_M.C"
 417  03A7  1E00     E  	snz _FlashTimeFlag[0]
 417  03A8  2800     R  	jmp _L46
 419  03A9              #line 419 "c:\users\longshuangmin\desktop\worke_space\g-501\g-501\OpMode_M.C"
 419  03A9  1F00     E  	clr _FlashTimeFlag[0]
 421  03AA              #line 421 "c:\users\longshuangmin\desktop\worke_space\g-501\g-501\OpMode_M.C"
 421  03AA  0700     R  	mov a,_MemoryMode_2[4]
 421  03AB  0080     E  	mov ra,a
 421  03AC  0700     R  	mov a,_MemoryMode_2[3]
 421  03AD  0080     E  	mov _Lcd_Month_Day_Process_2[0],a
 421  03AE  0700     E  	mov a,ra
 421  03AF              	fcall _Lcd_Month_Day_Process
 422  03B6              #line 422 "c:\users\longshuangmin\desktop\worke_space\g-501\g-501\OpMode_M.C"
 422  03B6  3400     E  	clr _lcd[24].4
 423  03B7              #line 423 "c:\users\longshuangmin\desktop\worke_space\g-501\g-501\OpMode_M.C"
 423  03B7  3400     E  	clr _lcd[24].5
 424  03B8              #line 424 "c:\users\longshuangmin\desktop\worke_space\g-501\g-501\OpMode_M.C"
 424  03B8  3400     E  	clr _lcd[24].6
 424  03B9  2800     R  	jmp _L47
 424  03BA              _L46:
 428  03BA              #line 428 "c:\users\longshuangmin\desktop\worke_space\g-501\g-501\OpMode_M.C"
 428  03BA  0F01        	mov a,1
 428  03BB  0080     E  	mov _FlashTimeFlag[0],a
 430  03BC              #line 430 "c:\users\longshuangmin\desktop\worke_space\g-501\g-501\OpMode_M.C"
 430  03BC  0700     R  	mov a,_MemoryMode_2[2]
 430  03BD  0080     E  	mov ra,a
 430  03BE  0700     R  	mov a,_MemoryMode_2[1]
 430  03BF  0080     E  	mov _Lcd_Clock_Process_2[0],a
 430  03C0  0700     E  	mov a,ra
 430  03C1              	fcall _Lcd_Clock_Process
文件：OpMode_M.C   编译器版本 HGASM 0202 页次20

 431  03C8              #line 431 "c:\users\longshuangmin\desktop\worke_space\g-501\g-501\OpMode_M.C"
 431  03C8  3400     E  	clr _lcd[24].3
 432  03C9              #line 432 "c:\users\longshuangmin\desktop\worke_space\g-501\g-501\OpMode_M.C"
 432  03C9  3000     E  	set _lcd[24].4
 432  03CA              _L47:
 435  03CA              #line 435 "c:\users\longshuangmin\desktop\worke_space\g-501\g-501\OpMode_M.C"
 435  03CA  C709 000E   	lmov a,[3721]
 435  03CC  0080     E  	mov ra,a
 435  03CD  0700     E  	mov a,ra
 435  03CE              	fcall _Lcd_Bat
 439  03D5              #line 439 "c:\users\longshuangmin\desktop\worke_space\g-501\g-501\OpMode_M.C"
 439  03D5  3000     E  	set _Flag2[0].1
 439  03D6              _L44:
 447  03D6              #line 447 "c:\users\longshuangmin\desktop\worke_space\g-501\g-501\OpMode_M.C"
 447  03D6  3B14        	snz [20].6
 447  03D7  2800     R  	jmp _L48
 447  03D8  D0B7 000F   	lsz [4023]
 447  03DA  2800     R  	jmp _L48
 449  03DB              #line 449 "c:\users\longshuangmin\desktop\worke_space\g-501\g-501\OpMode_M.C"
 449  03DB  0F01        	mov a,1
 449  03DC  C0B7 000F   	lmov [4023],a
 450  03DE              #line 450 "c:\users\longshuangmin\desktop\worke_space\g-501\g-501\OpMode_M.C"
 450  03DE              	fcall _keyinti
 450  03E5              _L48:
 453  03E5              #line 453 "c:\users\longshuangmin\desktop\worke_space\g-501\g-501\OpMode_M.C"
 453  03E5  D703 000E   	lsdza [3715]
 453  03E7  2800     R  	jmp _LI1
 453  03E8  2800     R  	jmp _L49
 453  03E9              _LI1:
 453  03E9  D700 000E   	lsdza [3712]
 453  03EB  2800     R  	jmp _L50
 453  03EC              _L49:
 453  03EC  DE37 000F   	lsnz [4023]
 453  03EE  2800     R  	jmp _L50
 455  03EF              #line 455 "c:\users\longshuangmin\desktop\worke_space\g-501\g-501\OpMode_M.C"
 455  03EF  DF03 000E   	lclr [3715]
 456  03F1              #line 456 "c:\users\longshuangmin\desktop\worke_space\g-501\g-501\OpMode_M.C"
 456  03F1  DF00 000E   	lclr [3712]
 457  03F3              #line 457 "c:\users\longshuangmin\desktop\worke_space\g-501\g-501\OpMode_M.C"
 457  03F3  1F00     E  	clr _M_No_Active_Cnt[0]
 457  03F4  1F00     E  	clr _M_No_Active_Cnt[1]
 461  03F5              #line 461 "c:\users\longshuangmin\desktop\worke_space\g-501\g-501\OpMode_M.C"
 461  03F5  3000     E  	set _Flag4[0].1
 463  03F6              #line 463 "c:\users\longshuangmin\desktop\worke_space\g-501\g-501\OpMode_M.C"
 463  03F6  3000     E  	set _Flag2[0].3
 464  03F7              #line 464 "c:\users\longshuangmin\desktop\worke_space\g-501\g-501\OpMode_M.C"
 464  03F7  0F01        	mov a,1
 464  03F8  0300     E  	add a,_M_Ibuf0[0]
 464  03F9  0080     E  	mov rb,a
 464  03FA  0F00        	mov a,0
 464  03FB  1300     E  	adc a,_M_Ibuf0[1]
 464  03FC  0080     E  	mov rc,a
 464  03FD  0700     E  	mov a,rb
 464  03FE  0080     E  	mov _M_Ibuf0[0],a
 464  03FF  0700     E  	mov a,rc
 464  0400  0080     E  	mov _M_Ibuf0[1],a
 466  0401              #line 466 "c:\users\longshuangmin\desktop\worke_space\g-501\g-501\OpMode_M.C"
 466  0401  0700     E  	mov a,_M_GM_data_Record[0]
 466  0402  0200     E  	sub a,rb
 466  0403  0700     E  	mov a,_M_GM_data_Record[1]
文件：OpMode_M.C   编译器版本 HGASM 0202 页次21

 466  0404  1200     E  	sbc a,rc
 466  0405  3C0A        	sz c
 466  0406  2800     R  	jmp _L51
 468  0407              #line 468 "c:\users\longshuangmin\desktop\worke_space\g-501\g-501\OpMode_M.C"
 468  0407  0F01        	mov a,1
 468  0408  0080     E  	mov _M_Ibuf0[0],a
 468  0409  1F00     E  	clr _M_Ibuf0[1]
 468  040A  2800     R  	jmp _L145
 468  040B              _L51:
 505  040B              #line 505 "c:\users\longshuangmin\desktop\worke_space\g-501\g-501\OpMode_M.C"
 505  040B  0700     E  	mov a,_M_GM_data_Record_buf[0]
 505  040C  0500     E  	or a,_M_GM_data_Record_buf[1]
 505  040D  3D0A        	sz z
 505  040E  2800     R  	jmp _L52
 506  040F              #line 506 "c:\users\longshuangmin\desktop\worke_space\g-501\g-501\OpMode_M.C"
 506  040F  0FFF        	mov a,255
 506  0410  0380     E  	addm a,_M_GM_data_Record_buf[0]
 506  0411  0FFF        	mov a,255
 506  0412  1380     E  	adcm a,_M_GM_data_Record_buf[1]
 506  0413              _L52:
 507  0413              #line 507 "c:\users\longshuangmin\desktop\worke_space\g-501\g-501\OpMode_M.C"
 507  0413  0700     E  	mov a,_M_GM_data_Record_buf[0]
 507  0414  0500     E  	or a,_M_GM_data_Record_buf[1]
 507  0415  390A        	snz z
 507  0416  2800     R  	jmp _L53
 507  0417              _L145:
 508  0417              #line 508 "c:\users\longshuangmin\desktop\worke_space\g-501\g-501\OpMode_M.C"
 508  0417  0700     E  	mov a,_M_GM_data_Record[0]
 508  0418  0080     E  	mov _M_GM_data_Record_buf[0],a
 508  0419  0700     E  	mov a,_M_GM_data_Record[1]
 508  041A  0080     E  	mov _M_GM_data_Record_buf[1],a
 508  041B              _L53:
 509  041B              #line 509 "c:\users\longshuangmin\desktop\worke_space\g-501\g-501\OpMode_M.C"
 509  041B  3400     E  	clr _Flag2[0].7
 510  041C              #line 510 "c:\users\longshuangmin\desktop\worke_space\g-501\g-501\OpMode_M.C"
 510  041C  1F00     E  	clr _M_RTC_display[0]
 510  041D  1F00     E  	clr _M_RTC_display[1]
 510  041E              _L50:
 517  041E              #line 517 "c:\users\longshuangmin\desktop\worke_space\g-501\g-501\OpMode_M.C"
 517  041E  D704 0014   	lsdza [5252]
 517  0420  2800     R  	jmp _L54
 519  0421              #line 519 "c:\users\longshuangmin\desktop\worke_space\g-501\g-501\OpMode_M.C"
 519  0421  DF04 0014   	lclr [5252]
 520  0423              #line 520 "c:\users\longshuangmin\desktop\worke_space\g-501\g-501\OpMode_M.C"
 520  0423  1F00     E  	clr _M_No_Active_Cnt[0]
 520  0424  1F00     E  	clr _M_No_Active_Cnt[1]
 523  0425              #line 523 "c:\users\longshuangmin\desktop\worke_space\g-501\g-501\OpMode_M.C"
 523  0425  3000     E  	set _Flag4[0].1
 525  0426              #line 525 "c:\users\longshuangmin\desktop\worke_space\g-501\g-501\OpMode_M.C"
 525  0426  3000     E  	set _Flag2[0].3
 526  0427              #line 526 "c:\users\longshuangmin\desktop\worke_space\g-501\g-501\OpMode_M.C"
 526  0427  0700     E  	mov a,_M_Ibuf0[0]
 526  0428  0080     E  	mov rb,a
 526  0429  0700     E  	mov a,_M_Ibuf0[1]
 526  042A  0080     E  	mov rc,a
 526  042B  0700     E  	mov a,rb
 526  042C  0C01        	xor a,1
 526  042D  0500     E  	or a,rc
 526  042E  390A        	snz z
 526  042F  2800     R  	jmp _L55
文件：OpMode_M.C   编译器版本 HGASM 0202 页次22

 528  0430              #line 528 "c:\users\longshuangmin\desktop\worke_space\g-501\g-501\OpMode_M.C"
 528  0430  0F01        	mov a,1
 528  0431  0080     E  	mov _M_GM_data_Record_buf[0],a
 528  0432  1F00     E  	clr _M_GM_data_Record_buf[1]
 529  0433              #line 529 "c:\users\longshuangmin\desktop\worke_space\g-501\g-501\OpMode_M.C"
 529  0433  0700     E  	mov a,_M_GM_data_Record[0]
 529  0434  0080     E  	mov _M_Ibuf0[0],a
 529  0435  0700     E  	mov a,_M_GM_data_Record[1]
 529  0436  0080     E  	mov _M_Ibuf0[1],a
 529  0437  2800     R  	jmp _L56
 529  0438              _L55:
 533  0438              #line 533 "c:\users\longshuangmin\desktop\worke_space\g-501\g-501\OpMode_M.C"
 533  0438  0FFF        	mov a,255
 533  0439  0300     E  	add a,rb
 533  043A  0080     E  	mov _M_Ibuf0[0],a
 533  043B  0FFF        	mov a,255
 533  043C  1300     E  	adc a,rc
 533  043D  0080     E  	mov _M_Ibuf0[1],a
 534  043E              #line 534 "c:\users\longshuangmin\desktop\worke_space\g-501\g-501\OpMode_M.C"
 534  043E  1480     E  	inc _M_GM_data_Record_buf[0]
 534  043F  3D0A        	sz z
 534  0440  1480     E  	inc _M_GM_data_Record_buf[1]
 534  0441              _L56:
 537  0441              #line 537 "c:\users\longshuangmin\desktop\worke_space\g-501\g-501\OpMode_M.C"
 537  0441  3400     E  	clr _Flag2[0].7
 538  0442              #line 538 "c:\users\longshuangmin\desktop\worke_space\g-501\g-501\OpMode_M.C"
 538  0442  1F00     E  	clr _M_RTC_display[0]
 538  0443  1F00     E  	clr _M_RTC_display[1]
 538  0444  2800     R  	jmp _L78
 538  0445              _L54:
 540  0445              #line 540 "c:\users\longshuangmin\desktop\worke_space\g-501\g-501\OpMode_M.C"
 540  0445  C703 000E   	lmov a,[3715]
 540  0447  0A02        	sub a,2
 540  0448  390A        	snz z
 540  0449  2800     R  	jmp _L78
 542  044A              #line 542 "c:\users\longshuangmin\desktop\worke_space\g-501\g-501\OpMode_M.C"
 542  044A  DF03 000E   	lclr [3715]
 543  044C              #line 543 "c:\users\longshuangmin\desktop\worke_space\g-501\g-501\OpMode_M.C"
 543  044C  0F06        	mov a,6
 543  044D  0080     E  	mov _M_TaskBuf0[0],a
 544  044E              #line 544 "c:\users\longshuangmin\desktop\worke_space\g-501\g-501\OpMode_M.C"
 544  044E  1F00     E  	clr _M_TaskBuf1[0]
 545  044F              #line 545 "c:\users\longshuangmin\desktop\worke_space\g-501\g-501\OpMode_M.C"
 545  044F  1F00     E  	clr _M_RTC_display[0]
 545  0450  1F00     E  	clr _M_RTC_display[1]
 546  0451              #line 546 "c:\users\longshuangmin\desktop\worke_space\g-501\g-501\OpMode_M.C"
 546  0451  1F00     E  	clr _M_No_Active_Cnt[0]
 546  0452  1F00     E  	clr _M_No_Active_Cnt[1]
 548  0453              #line 548 "c:\users\longshuangmin\desktop\worke_space\g-501\g-501\OpMode_M.C"
 548  0453  0F00        	mov a,0
 548  0454              	fcall _LCD_Clear
 548  045B  2800     R  	jmp _L78
 548  045C              _L5:
 583  045C              #line 583 "c:\users\longshuangmin\desktop\worke_space\g-501\g-501\OpMode_M.C"
 583  045C  0F01        	mov a,1
 583  045D  0300     E  	add a,_M_RTC_display[0]
 583  045E  0080     E  	mov rb,a
 583  045F  0F00        	mov a,0
 583  0460  1300     E  	adc a,_M_RTC_display[1]
 583  0461  0080     E  	mov rc,a
文件：OpMode_M.C   编译器版本 HGASM 0202 页次23

 583  0462  0700     E  	mov a,rb
 583  0463  0080     E  	mov _M_RTC_display[0],a
 583  0464  0700     E  	mov a,rc
 583  0465  0080     E  	mov _M_RTC_display[1],a
 584  0466              #line 584 "c:\users\longshuangmin\desktop\worke_space\g-501\g-501\OpMode_M.C"
 584  0466  0700     E  	mov a,rb
 584  0467  0C01        	xor a,1
 584  0468  0500     E  	or a,rc
 584  0469  390A        	snz z
 584  046A  2800     R  	jmp _L58
 586  046B              #line 586 "c:\users\longshuangmin\desktop\worke_space\g-501\g-501\OpMode_M.C"
 586  046B  0F00        	mov a,0
 586  046C              	fcall _LCD_Clear
 588  0473              #line 588 "c:\users\longshuangmin\desktop\worke_space\g-501\g-501\OpMode_M.C"
 588  0473  3000     E  	set _lcd[26].2
 590  0474              #line 590 "c:\users\longshuangmin\desktop\worke_space\g-501\g-501\OpMode_M.C"
 590  0474  C709 000E   	lmov a,[3721]
 590  0476  0080     E  	mov ra,a
 590  0477  0700     E  	mov a,ra
 590  0478              	fcall _Lcd_Bat
 592  047F              #line 592 "c:\users\longshuangmin\desktop\worke_space\g-501\g-501\OpMode_M.C"
 592  047F  0F00     R  	mov a,low offset _LC0
 592  0480  0080     E  	mov _Show_BigString_2[0],a
 592  0481  0F00     R  	mov a,high offset _LC0
 592  0482  0080     E  	mov _Show_BigString_2[1],a
 592  0483              	fcall _Show_BigString
 593  048A              #line 593 "c:\users\longshuangmin\desktop\worke_space\g-501\g-501\OpMode_M.C"
 593  048A  3000     E  	set _Flag2[0].1
 593  048B              _L58:
 595  048B              #line 595 "c:\users\longshuangmin\desktop\worke_space\g-501\g-501\OpMode_M.C"
 595  048B  0700     E  	mov a,_M_RTC_display[0]
 595  048C  0080     E  	mov rb,a
 595  048D  0700     E  	mov a,_M_RTC_display[1]
 595  048E  0080     E  	mov rc,a
 595  048F  0700     E  	mov a,rb
 595  0490  0C02        	xor a,2
 595  0491  0500     E  	or a,rc
 595  0492  3D0A        	sz z
 595  0493  2800     R  	jmp _L23
 601  0494              #line 601 "c:\users\longshuangmin\desktop\worke_space\g-501\g-501\OpMode_M.C"
 601  0494  0FB7        	mov a,183
 601  0495  0200     E  	sub a,rb
 601  0496  0F0B        	mov a,11
 601  0497  1200     E  	sbc a,rc
 601  0498  380A        	snz c
 601  0499  2800     R  	jmp _L149
 601  049A  0F01        	mov a,1
 601  049B  0200     E  	sub a,rb
 601  049C  0F00        	mov a,0
 601  049D  1200     E  	sbc a,rc
 601  049E  3C0A        	sz c
 601  049F  2800     R  	jmp _L23
 601  04A0  DE00 000E   	lsnz [3712]
 601  04A2  2800     R  	jmp _L23
 601  04A3  2800     R  	jmp _L149
 601  04A4              _L7:
 622  04A4              #line 622 "c:\users\longshuangmin\desktop\worke_space\g-501\g-501\OpMode_M.C"
 622  04A4  0F01        	mov a,1
 622  04A5  0300     E  	add a,_M_RTC_display[0]
 622  04A6  0080     E  	mov rb,a
文件：OpMode_M.C   编译器版本 HGASM 0202 页次24

 622  04A7  0F00        	mov a,0
 622  04A8  1300     E  	adc a,_M_RTC_display[1]
 622  04A9  0080     E  	mov rc,a
 624  04AA              #line 624 "c:\users\longshuangmin\desktop\worke_space\g-501\g-501\OpMode_M.C"
 624  04AA  0F27        	mov a,39
 624  04AB  0200     E  	sub a,rb
 624  04AC  0F00        	mov a,0
 624  04AD  1200     E  	sbc a,rc
 624  04AE  380A        	snz c
 624  04AF  2800     R  	jmp _L60
 622  04B0              #line 622 "c:\users\longshuangmin\desktop\worke_space\g-501\g-501\OpMode_M.C"
 622  04B0  0700     E  	mov a,rb
 622  04B1  0080     E  	mov _M_RTC_display[0],a
 622  04B2  0700     E  	mov a,rc
 622  04B3  0080     E  	mov _M_RTC_display[1],a
 622  04B4  2800     R  	jmp _L61
 622  04B5              _L60:
 625  04B5              #line 625 "c:\users\longshuangmin\desktop\worke_space\g-501\g-501\OpMode_M.C"
 625  04B5  1F00     E  	clr _M_RTC_display[0]
 625  04B6  1F00     E  	clr _M_RTC_display[1]
 625  04B7              _L61:
 627  04B7              #line 627 "c:\users\longshuangmin\desktop\worke_space\g-501\g-501\OpMode_M.C"
 627  04B7  0700     E  	mov a,_M_RTC_display[0]
 627  04B8  0080     E  	mov rb,a
 627  04B9  0700     E  	mov a,_M_RTC_display[1]
 627  04BA  0080     E  	mov rc,a
 627  04BB  0700     E  	mov a,rb
 627  04BC  0C01        	xor a,1
 627  04BD  0500     E  	or a,rc
 627  04BE  390A        	snz z
 627  04BF  2800     R  	jmp _L62
 633  04C0              #line 633 "c:\users\longshuangmin\desktop\worke_space\g-501\g-501\OpMode_M.C"
 633  04C0  3000     E  	set _lcd[26].2
 635  04C1              #line 635 "c:\users\longshuangmin\desktop\worke_space\g-501\g-501\OpMode_M.C"
 635  04C1  3000     E  	set _lcd[26].1
 637  04C2              #line 637 "c:\users\longshuangmin\desktop\worke_space\g-501\g-501\OpMode_M.C"
 637  04C2  3000     E  	set _lcd[26].0
 637  04C3  2800     R  	jmp _L146
 637  04C4              _L62:
 641  04C4              #line 641 "c:\users\longshuangmin\desktop\worke_space\g-501\g-501\OpMode_M.C"
 641  04C4  0700     E  	mov a,rb
 641  04C5  0C14        	xor a,20
 641  04C6  0500     E  	or a,rc
 641  04C7  390A        	snz z
 641  04C8  2800     R  	jmp _L63
 645  04C9              #line 645 "c:\users\longshuangmin\desktop\worke_space\g-501\g-501\OpMode_M.C"
 645  04C9  3400     E  	clr _lcd[26].1
 646  04CA              #line 646 "c:\users\longshuangmin\desktop\worke_space\g-501\g-501\OpMode_M.C"
 646  04CA  3400     E  	clr _lcd[26].0
 646  04CB              _L146:
 647  04CB              #line 647 "c:\users\longshuangmin\desktop\worke_space\g-501\g-501\OpMode_M.C"
 647  04CB  3000     E  	set _Flag2[0].1
 647  04CC              _L63:
 651  04CC              #line 651 "c:\users\longshuangmin\desktop\worke_space\g-501\g-501\OpMode_M.C"
 651  04CC  3B14        	snz [20].6
 651  04CD  2800     R  	jmp _L23
 653  04CE              #line 653 "c:\users\longshuangmin\desktop\worke_space\g-501\g-501\OpMode_M.C"
 653  04CE  0700     E  	mov a,_M_GM_data_Record[0]
 653  04CF  0500     E  	or a,_M_GM_data_Record[1]
 653  04D0  390A        	snz z
文件：OpMode_M.C   编译器版本 HGASM 0202 页次25

 653  04D1  2800     R  	jmp _L64
 656  04D2              #line 656 "c:\users\longshuangmin\desktop\worke_space\g-501\g-501\OpMode_M.C"
 656  04D2  1F00     E  	clr _M_RTC_display[0]
 656  04D3  1F00     E  	clr _M_RTC_display[1]
 657  04D4              #line 657 "c:\users\longshuangmin\desktop\worke_space\g-501\g-501\OpMode_M.C"
 657  04D4  0F02        	mov a,2
 657  04D5  0080     E  	mov _M_TaskBuf0[0],a
 658  04D6              #line 658 "c:\users\longshuangmin\desktop\worke_space\g-501\g-501\OpMode_M.C"
 658  04D6  1F00     E  	clr _M_TaskBuf1[0]
 659  04D7              #line 659 "c:\users\longshuangmin\desktop\worke_space\g-501\g-501\OpMode_M.C"
 659  04D7  DF02 000A   	lclr [2690]
 659  04D9  DF03 000A   	lclr [2691]
 659  04DB  2800     R  	jmp _L65
 659  04DC              _L64:
 663  04DC              #line 663 "c:\users\longshuangmin\desktop\worke_space\g-501\g-501\OpMode_M.C"
 663  04DC  0F05        	mov a,5
 663  04DD  0080     E  	mov _M_TaskBuf0[0],a
 664  04DE              #line 664 "c:\users\longshuangmin\desktop\worke_space\g-501\g-501\OpMode_M.C"
 664  04DE  1F00     E  	clr _M_TaskBuf1[0]
 665  04DF              #line 665 "c:\users\longshuangmin\desktop\worke_space\g-501\g-501\OpMode_M.C"
 665  04DF  0F01        	mov a,1
 665  04E0  0080     E  	mov _M_Cbuf0[0],a
 666  04E1              #line 666 "c:\users\longshuangmin\desktop\worke_space\g-501\g-501\OpMode_M.C"
 666  04E1  1F00     E  	clr _M_RTC_display[0]
 666  04E2  1F00     E  	clr _M_RTC_display[1]
 667  04E3              #line 667 "c:\users\longshuangmin\desktop\worke_space\g-501\g-501\OpMode_M.C"
 667  04E3  1F00     E  	clr _M_No_Active_Cnt[0]
 667  04E4  1F00     E  	clr _M_No_Active_Cnt[1]
 667  04E5              _L65:
 669  04E5              #line 669 "c:\users\longshuangmin\desktop\worke_space\g-501\g-501\OpMode_M.C"
 669  04E5  3000     E  	set _Flag4[0].1
 673  04E6              #line 673 "c:\users\longshuangmin\desktop\worke_space\g-501\g-501\OpMode_M.C"
 673  04E6  0F00        	mov a,0
 673  04E7              	fcall _LCD_Clear
 675  04EE              #line 675 "c:\users\longshuangmin\desktop\worke_space\g-501\g-501\OpMode_M.C"
 675  04EE  3400     E  	clr _Flag2[0].6
 676  04EF              #line 676 "c:\users\longshuangmin\desktop\worke_space\g-501\g-501\OpMode_M.C"
 676  04EF  3400     E  	clr _Flag2[0].1
 679  04F0              #line 679 "c:\users\longshuangmin\desktop\worke_space\g-501\g-501\OpMode_M.C"
 679  04F0  3000     E  	set _Flag2[0].3
 679  04F1  2800     R  	jmp _L23
 679  04F2              _L8:
 697  04F2              #line 697 "c:\users\longshuangmin\desktop\worke_space\g-501\g-501\OpMode_M.C"
 697  04F2  3800     E  	snz _Flag2[0].3
 697  04F3  2800     R  	jmp _L66
 701  04F4              #line 701 "c:\users\longshuangmin\desktop\worke_space\g-501\g-501\OpMode_M.C"
 701  04F4              	fcall _Clr_BigString
 708  04FB              #line 708 "c:\users\longshuangmin\desktop\worke_space\g-501\g-501\OpMode_M.C"
 708  04FB  3000     E  	set _lcd[26].2
 710  04FC              #line 710 "c:\users\longshuangmin\desktop\worke_space\g-501\g-501\OpMode_M.C"
 710  04FC  3000     E  	set _lcd[26].1
 712  04FD              #line 712 "c:\users\longshuangmin\desktop\worke_space\g-501\g-501\OpMode_M.C"
 712  04FD  3000     E  	set _lcd[26].0
 714  04FE              #line 714 "c:\users\longshuangmin\desktop\worke_space\g-501\g-501\OpMode_M.C"
 714  04FE  3400     E  	clr _Flag2[0].3
 716  04FF              #line 716 "c:\users\longshuangmin\desktop\worke_space\g-501\g-501\OpMode_M.C"
 716  04FF  0700     E  	mov a,_M_Cbuf0[0]
 716  0500  0080     R  	mov _MemoryMode_2[18],a
 716  0501  1700     R  	sdza _MemoryMode_2[18]
 716  0502  2800     R  	jmp _L67
文件：OpMode_M.C   编译器版本 HGASM 0202 页次26

 719  0503              #line 719 "c:\users\longshuangmin\desktop\worke_space\g-501\g-501\OpMode_M.C"
 719  0503  0700     E  	mov a,_M_7days_datasum[0]
 719  0504  0080     R  	mov _MemoryMode_2[10],a
 719  0505  0700     E  	mov a,_M_7days_datasum[1]
 719  0506  0080     R  	mov _MemoryMode_2[11],a
 719  0507  0700     E  	mov a,_M_7days_datasum[2]
 719  0508  0080     R  	mov _MemoryMode_2[12],a
 719  0509  0700     E  	mov a,_M_7days_datasum[3]
 719  050A  0080     R  	mov _MemoryMode_2[13],a
 720  050B              #line 720 "c:\users\longshuangmin\desktop\worke_space\g-501\g-501\OpMode_M.C"
 720  050B  0700     E  	mov a,_M_7daysNumber[0]
 720  050C  0080     R  	mov _MemoryMode_2[6],a
 720  050D  0700     E  	mov a,_M_7daysNumber[1]
 720  050E  0080     R  	mov _MemoryMode_2[7],a
 720  050F  1F00     R  	clr _MemoryMode_2[8]
 720  0510  1F00     R  	clr _MemoryMode_2[9]
 721  0511              #line 721 "c:\users\longshuangmin\desktop\worke_space\g-501\g-501\OpMode_M.C"
 721  0511  0F07        	mov a,7
 721  0512  0080     E  	mov ra,a
 721  0513  2800     R  	jmp _L68
 721  0514              _L67:
 723  0514              #line 723 "c:\users\longshuangmin\desktop\worke_space\g-501\g-501\OpMode_M.C"
 723  0514  0700     R  	mov a,_MemoryMode_2[18]
 723  0515  0A02        	sub a,2
 723  0516  390A        	snz z
 723  0517  2800     R  	jmp _L69
 726  0518              #line 726 "c:\users\longshuangmin\desktop\worke_space\g-501\g-501\OpMode_M.C"
 726  0518  0700     E  	mov a,_M_14days_datasum[0]
 726  0519  0080     R  	mov _MemoryMode_2[10],a
 726  051A  0700     E  	mov a,_M_14days_datasum[1]
 726  051B  0080     R  	mov _MemoryMode_2[11],a
 726  051C  0700     E  	mov a,_M_14days_datasum[2]
 726  051D  0080     R  	mov _MemoryMode_2[12],a
 726  051E  0700     E  	mov a,_M_14days_datasum[3]
 726  051F  0080     R  	mov _MemoryMode_2[13],a
 727  0520              #line 727 "c:\users\longshuangmin\desktop\worke_space\g-501\g-501\OpMode_M.C"
 727  0520  0700     E  	mov a,_M_14daysNumber[0]
 727  0521  0080     R  	mov _MemoryMode_2[6],a
 727  0522  0700     E  	mov a,_M_14daysNumber[1]
 727  0523  0080     R  	mov _MemoryMode_2[7],a
 727  0524  1F00     R  	clr _MemoryMode_2[8]
 727  0525  1F00     R  	clr _MemoryMode_2[9]
 728  0526              #line 728 "c:\users\longshuangmin\desktop\worke_space\g-501\g-501\OpMode_M.C"
 728  0526  0F0E        	mov a,14
 728  0527  0080     E  	mov ra,a
 728  0528  2800     R  	jmp _L68
 728  0529              _L69:
 730  0529              #line 730 "c:\users\longshuangmin\desktop\worke_space\g-501\g-501\OpMode_M.C"
 730  0529  0700     R  	mov a,_MemoryMode_2[18]
 730  052A  0A03        	sub a,3
 730  052B  390A        	snz z
 730  052C  2800     R  	jmp _L70
 733  052D              #line 733 "c:\users\longshuangmin\desktop\worke_space\g-501\g-501\OpMode_M.C"
 733  052D  0700     E  	mov a,_M_30days_datasum[0]
 733  052E  0080     R  	mov _MemoryMode_2[10],a
 733  052F  0700     E  	mov a,_M_30days_datasum[1]
 733  0530  0080     R  	mov _MemoryMode_2[11],a
 733  0531  0700     E  	mov a,_M_30days_datasum[2]
 733  0532  0080     R  	mov _MemoryMode_2[12],a
 733  0533  0700     E  	mov a,_M_30days_datasum[3]
文件：OpMode_M.C   编译器版本 HGASM 0202 页次27

 733  0534  0080     R  	mov _MemoryMode_2[13],a
 734  0535              #line 734 "c:\users\longshuangmin\desktop\worke_space\g-501\g-501\OpMode_M.C"
 734  0535  0700     E  	mov a,_M_30daysNumber[0]
 734  0536  0080     R  	mov _MemoryMode_2[6],a
 734  0537  0700     E  	mov a,_M_30daysNumber[1]
 734  0538  0080     R  	mov _MemoryMode_2[7],a
 734  0539  1F00     R  	clr _MemoryMode_2[8]
 734  053A  1F00     R  	clr _MemoryMode_2[9]
 735  053B              #line 735 "c:\users\longshuangmin\desktop\worke_space\g-501\g-501\OpMode_M.C"
 735  053B  0F1E        	mov a,30
 735  053C  0080     E  	mov ra,a
 735  053D  2800     R  	jmp _L68
 735  053E              _L70:
 737  053E              #line 737 "c:\users\longshuangmin\desktop\worke_space\g-501\g-501\OpMode_M.C"
 737  053E  0700     R  	mov a,_MemoryMode_2[18]
 737  053F  0A04        	sub a,4
 737  0540  390A        	snz z
 737  0541  2800     R  	jmp _L71
 740  0542              #line 740 "c:\users\longshuangmin\desktop\worke_space\g-501\g-501\OpMode_M.C"
 740  0542  0700     E  	mov a,_M_60days_datasum[0]
 740  0543  0080     R  	mov _MemoryMode_2[10],a
 740  0544  0700     E  	mov a,_M_60days_datasum[1]
 740  0545  0080     R  	mov _MemoryMode_2[11],a
 740  0546  0700     E  	mov a,_M_60days_datasum[2]
 740  0547  0080     R  	mov _MemoryMode_2[12],a
 740  0548  0700     E  	mov a,_M_60days_datasum[3]
 740  0549  0080     R  	mov _MemoryMode_2[13],a
 741  054A              #line 741 "c:\users\longshuangmin\desktop\worke_space\g-501\g-501\OpMode_M.C"
 741  054A  0700     E  	mov a,_M_60daysNumber[0]
 741  054B  0080     R  	mov _MemoryMode_2[6],a
 741  054C  0700     E  	mov a,_M_60daysNumber[1]
 741  054D  0080     R  	mov _MemoryMode_2[7],a
 741  054E  1F00     R  	clr _MemoryMode_2[8]
 741  054F  1F00     R  	clr _MemoryMode_2[9]
 742  0550              #line 742 "c:\users\longshuangmin\desktop\worke_space\g-501\g-501\OpMode_M.C"
 742  0550  0F3C        	mov a,60
 742  0551  0080     E  	mov ra,a
 742  0552  2800     R  	jmp _L68
 742  0553              _L71:
 744  0553              #line 744 "c:\users\longshuangmin\desktop\worke_space\g-501\g-501\OpMode_M.C"
 744  0553  0700     R  	mov a,_MemoryMode_2[18]
 744  0554  0A05        	sub a,5
 744  0555  390A        	snz z
 744  0556  2800     R  	jmp _L94
 747  0557              #line 747 "c:\users\longshuangmin\desktop\worke_space\g-501\g-501\OpMode_M.C"
 747  0557  0700     E  	mov a,_M_90days_datasum[0]
 747  0558  0080     R  	mov _MemoryMode_2[10],a
 747  0559  0700     E  	mov a,_M_90days_datasum[1]
 747  055A  0080     R  	mov _MemoryMode_2[11],a
 747  055B  0700     E  	mov a,_M_90days_datasum[2]
 747  055C  0080     R  	mov _MemoryMode_2[12],a
 747  055D  0700     E  	mov a,_M_90days_datasum[3]
 747  055E  0080     R  	mov _MemoryMode_2[13],a
 748  055F              #line 748 "c:\users\longshuangmin\desktop\worke_space\g-501\g-501\OpMode_M.C"
 748  055F  0700     E  	mov a,_M_90daysNumber[0]
 748  0560  0080     R  	mov _MemoryMode_2[6],a
 748  0561  0700     E  	mov a,_M_90daysNumber[1]
 748  0562  0080     R  	mov _MemoryMode_2[7],a
 748  0563  1F00     R  	clr _MemoryMode_2[8]
 748  0564  1F00     R  	clr _MemoryMode_2[9]
文件：OpMode_M.C   编译器版本 HGASM 0202 页次28

 749  0565              #line 749 "c:\users\longshuangmin\desktop\worke_space\g-501\g-501\OpMode_M.C"
 749  0565  0F5A        	mov a,90
 749  0566  0080     E  	mov ra,a
 749  0567  2800     R  	jmp _L68
 749  0568              _L94:
  21  0568              #line 21 "c:\users\longshuangmin\desktop\worke_space\g-501\g-501\OpMode_M.C"
  21  0568  1F00     E  	clr ra
  21  0569              _L68:
 753  0569              #line 753 "c:\users\longshuangmin\desktop\worke_space\g-501\g-501\OpMode_M.C"
 753  0569  0700     R  	mov a,_MemoryMode_2[6]
 753  056A  0080     E  	mov rd,a
 753  056B  0700     R  	mov a,_MemoryMode_2[7]
 753  056C  0080     E  	mov re,a
 753  056D  0700     R  	mov a,_MemoryMode_2[8]
 753  056E  0080     E  	mov rf,a
 753  056F  0700     R  	mov a,_MemoryMode_2[9]
 753  0570  0080     E  	mov rg,a
 753  0571  0700     E  	mov a,rd
 753  0572  0080     R  	mov _MemoryMode_2[16],a
 753  0573  0700     E  	mov a,re
 753  0574  0080     R  	mov _MemoryMode_2[17],a
 758  0575              #line 758 "c:\users\longshuangmin\desktop\worke_space\g-501\g-501\OpMode_M.C"
 758  0575  0700     E  	mov a,ra
 758  0576  0080     R  	mov _MemoryMode_2[16],a
 758  0577  1F00     R  	clr _MemoryMode_2[17]
 759  0578              #line 759 "c:\users\longshuangmin\desktop\worke_space\g-501\g-501\OpMode_M.C"
 759  0578  0700     R  	mov a,_MemoryMode_2[16]
 759  0579  0080     E  	mov _Lcd_ShowAvgNum_2[0],a
 759  057A  0700     R  	mov a,_MemoryMode_2[17]
 759  057B  0080     E  	mov _Lcd_ShowAvgNum_2[1],a
 759  057C              	fcall _Lcd_ShowAvgNum
 760  0583              #line 760 "c:\users\longshuangmin\desktop\worke_space\g-501\g-501\OpMode_M.C"
 760  0583              	fcall _LCD_ScanOut
 763  058A              #line 763 "c:\users\longshuangmin\desktop\worke_space\g-501\g-501\OpMode_M.C"
 763  058A  0700     R  	mov a,_MemoryMode_2[10]
 763  058B  0500     R  	or a,_MemoryMode_2[11]
 763  058C  0500     R  	or a,_MemoryMode_2[12]
 763  058D  0500     R  	or a,_MemoryMode_2[13]
 763  058E  3D0A        	sz z
 763  058F  2800     R  	jmp _L72
 765  0590              #line 765 "c:\users\longshuangmin\desktop\worke_space\g-501\g-501\OpMode_M.C"
 765  0590  0700     R  	mov a,_MemoryMode_2[10]
 765  0591  0080     E  	mov _builtin_holtek_mulsi3_2[0],a
 765  0592  0700     R  	mov a,_MemoryMode_2[11]
 765  0593  0080     E  	mov _builtin_holtek_mulsi3_2[1],a
 765  0594  0700     R  	mov a,_MemoryMode_2[12]
 765  0595  0080     E  	mov _builtin_holtek_mulsi3_2[2],a
 765  0596  0700     R  	mov a,_MemoryMode_2[13]
 765  0597  0080     E  	mov _builtin_holtek_mulsi3_2[3],a
 765  0598  0F0A        	mov a,10
 765  0599  0080     E  	mov _builtin_holtek_mulsi3_2[4],a
 765  059A  0F00        	mov a,0
 765  059B  0080     E  	mov _builtin_holtek_mulsi3_2[5],a
 765  059C  0F00        	mov a,0
 765  059D  0080     E  	mov _builtin_holtek_mulsi3_2[6],a
 765  059E  0F00        	mov a,0
 765  059F  0080     E  	mov _builtin_holtek_mulsi3_2[7],a
 765  05A0              	fcall _builtin_holtek_mulsi3
 765  05A7  0700     E  	mov a,_builtin_holtek_mulsi3_2[8]
 765  05A8  0080     E  	mov rd,a
文件：OpMode_M.C   编译器版本 HGASM 0202 页次29

 765  05A9  0700     E  	mov a,_builtin_holtek_mulsi3_2[9]
 765  05AA  0080     E  	mov re,a
 765  05AB  0700     E  	mov a,_builtin_holtek_mulsi3_2[10]
 765  05AC  0080     E  	mov rf,a
 765  05AD  0700     E  	mov a,_builtin_holtek_mulsi3_2[11]
 765  05AE  0080     E  	mov rg,a
 765  05AF  1F00     E  	clr _builtin_holtek_udivmodsi4_2[12]
 765  05B0  0700     E  	mov a,rd  
 765  05B1  0080     E  	mov _builtin_holtek_udivmodsi4_2[0],a  
 765  05B2  0700     E  	mov a,re  
 765  05B3  0080     E  	mov _builtin_holtek_udivmodsi4_2[1],a
 765  05B4  0700     E  	mov a,rf  
 765  05B5  0080     E  	mov _builtin_holtek_udivmodsi4_2[2],a  
 765  05B6  0700     E  	mov a,rg  
 765  05B7  0080     E  	mov _builtin_holtek_udivmodsi4_2[3],a
 765  05B8  0700     R  	mov a,_MemoryMode_2[6]  
 765  05B9  0080     E  	mov _builtin_holtek_udivmodsi4_2[4],a  
 765  05BA  0700     R  	mov a,_MemoryMode_2[7]  
 765  05BB  0080     E  	mov _builtin_holtek_udivmodsi4_2[5],a
 765  05BC  0700     R  	mov a,_MemoryMode_2[8]  
 765  05BD  0080     E  	mov _builtin_holtek_udivmodsi4_2[6],a  
 765  05BE  0700     R  	mov a,_MemoryMode_2[9]  
 765  05BF  0080     E  	mov _builtin_holtek_udivmodsi4_2[7],a
 765  05C0              	fcall _builtin_holtek_udivmodsi4
 765  05C7  0700     E  	mov a,_builtin_holtek_udivmodsi4_2[0]  
 765  05C8  0080     E  	mov rd,a  
 765  05C9  0700     E  	mov a,_builtin_holtek_udivmodsi4_2[1]  
 765  05CA  0080     E  	mov re,a
 765  05CB  0700     E  	mov a,_builtin_holtek_udivmodsi4_2[2]  
 765  05CC  0080     E  	mov rf,a  
 765  05CD  0700     E  	mov a,_builtin_holtek_udivmodsi4_2[3]  
 765  05CE  0080     E  	mov rg,a
 765  05CF  0700     E  	mov a,rd
 765  05D0  0080     R  	mov _MemoryMode_2[14],a
 765  05D1  0700     E  	mov a,re
 765  05D2  0080     R  	mov _MemoryMode_2[15],a
 766  05D3              #line 766 "c:\users\longshuangmin\desktop\worke_space\g-501\g-501\OpMode_M.C"
 766  05D3  1B20        	rrca intc
 766  05D4  3420        	clr intc.0
 766  05D5  0700     R  	mov a,_MemoryMode_2[14]
 766  05D6  00D9        	mov mduwr0,a
 766  05D7  0700     R  	mov a,_MemoryMode_2[15]
 766  05D8  00DA        	mov mduwr1,a
 766  05D9  0F0A        	mov a,10
 766  05DA  00DD        	mov mduwr4,a
 766  05DB  0F00        	mov a,0
 766  05DC  00DE        	mov mduwr5,a
 766  05DD  0F06        	mov a,6
 766  05DE              _LI2:
 766  05DE  1785        	sdz acc
 766  05DF  2800     R  	jmp _LI2
 766  05E0  0759        	mov a,mduwr0
 766  05E1  0080     R  	mov _MemoryMode_2[16],a
 766  05E2  075A        	mov a,mduwr1
 766  05E3  0080     R  	mov _MemoryMode_2[17],a
 766  05E4  3C0A        	sz c
 766  05E5  3020        	set intc.0
 768  05E6              #line 768 "c:\users\longshuangmin\desktop\worke_space\g-501\g-501\OpMode_M.C"
 768  05E6  1B20        	rrca intc
 768  05E7  3420        	clr intc.0
文件：OpMode_M.C   编译器版本 HGASM 0202 页次30

 768  05E8  0700     R  	mov a,_MemoryMode_2[14]
 768  05E9  00D9        	mov mduwr0,a
 768  05EA  0700     R  	mov a,_MemoryMode_2[15]
 768  05EB  00DA        	mov mduwr1,a
 768  05EC  0F64        	mov a,100
 768  05ED  00DD        	mov mduwr4,a
 768  05EE  0F00        	mov a,0
 768  05EF  00DE        	mov mduwr5,a
 768  05F0  0F06        	mov a,6
 768  05F1              _LI3:
 768  05F1  1785        	sdz acc
 768  05F2  2800     R  	jmp _LI3
 768  05F3  075D        	mov a,mduwr4
 768  05F4  0080     R  	mov _MemoryMode_2[14],a
 768  05F5  075E        	mov a,mduwr5
 768  05F6  0080     R  	mov _MemoryMode_2[15],a
 768  05F7  3C0A        	sz c
 768  05F8  3020        	set intc.0
 769  05F9              #line 769 "c:\users\longshuangmin\desktop\worke_space\g-501\g-501\OpMode_M.C"
 769  05F9  1B20        	rrca intc
 769  05FA  3420        	clr intc.0
 769  05FB  0700     R  	mov a,_MemoryMode_2[14]
 769  05FC  00D9        	mov mduwr0,a
 769  05FD  0700     R  	mov a,_MemoryMode_2[15]
 769  05FE  00DA        	mov mduwr1,a
 769  05FF  0F0A        	mov a,10
 769  0600  00DD        	mov mduwr4,a
 769  0601  0F00        	mov a,0
 769  0602  00DE        	mov mduwr5,a
 769  0603  0F06        	mov a,6
 769  0604              _LI4:
 769  0604  1785        	sdz acc
 769  0605  2800     R  	jmp _LI4
 769  0606  075D        	mov a,mduwr4
 769  0607  0080     R  	mov _MemoryMode_2[14],a
 769  0608  075E        	mov a,mduwr5
 769  0609  0080     R  	mov _MemoryMode_2[15],a
 769  060A  3C0A        	sz c
 769  060B  3020        	set intc.0
 770  060C              #line 770 "c:\users\longshuangmin\desktop\worke_space\g-501\g-501\OpMode_M.C"
 770  060C  0F04        	mov a,4
 770  060D  0200     R  	sub a,_MemoryMode_2[14]
 770  060E  0F00        	mov a,0
 770  060F  1200     R  	sbc a,_MemoryMode_2[15]
 770  0610  3C0A        	sz c
 770  0611  2800     R  	jmp _L73
 771  0612              #line 771 "c:\users\longshuangmin\desktop\worke_space\g-501\g-501\OpMode_M.C"
 771  0612  1480     R  	inc _MemoryMode_2[16]
 771  0613  3D0A        	sz z
 771  0614  1480     R  	inc _MemoryMode_2[17]
 771  0615  2800     R  	jmp _L73
 771  0616              _L72:
 774  0616              #line 774 "c:\users\longshuangmin\desktop\worke_space\g-501\g-501\OpMode_M.C"
 774  0616  1F00     R  	clr _MemoryMode_2[16]
 774  0617  1F00     R  	clr _MemoryMode_2[17]
 774  0618              _L73:
 776  0618              #line 776 "c:\users\longshuangmin\desktop\worke_space\g-501\g-501\OpMode_M.C"
 776  0618  0700     R  	mov a,_MemoryMode_2[16]
 776  0619  0080     E  	mov rb,a
 776  061A  0700     R  	mov a,_MemoryMode_2[17]
文件：OpMode_M.C   编译器版本 HGASM 0202 页次31

 776  061B  0080     E  	mov rc,a
 776  061C  0700     E  	mov a,rb
 776  061D  0080     E  	mov _M_GM_data[0],a
 776  061E  0700     E  	mov a,rc
 776  061F  0080     E  	mov _M_GM_data[1],a
 781  0620              #line 781 "c:\users\longshuangmin\desktop\worke_space\g-501\g-501\OpMode_M.C"
 781  0620  0FF0        	mov a,240
 781  0621  0200     E  	sub a,rb
 781  0622  0F00        	mov a,0
 781  0623  1200     E  	sbc a,rc
 781  0624  3B8A        	snz sc
 781  0625  2800     R  	jmp _L74
 782  0626              #line 782 "c:\users\longshuangmin\desktop\worke_space\g-501\g-501\OpMode_M.C"
 782  0626  0F01        	mov a,1
 782  0627  0080     E  	mov _LCD_BitSetOut_2[2],a
 782  0628  2800     R  	jmp _L147
 782  0629              _L74:
 784  0629              #line 784 "c:\users\longshuangmin\desktop\worke_space\g-501\g-501\OpMode_M.C"
 784  0629  1F00     E  	clr _LCD_BitSetOut_2[2]
 784  062A              _L147:
 784  062A  0F04        	mov a,4
 784  062B  0080     E  	mov _LCD_BitSetOut_2[0],a
 784  062C  1F00     E  	clr _LCD_BitSetOut_2[1]
 784  062D              	fcall _LCD_BitSetOut
 813  0634              #line 813 "c:\users\longshuangmin\desktop\worke_space\g-501\g-501\OpMode_M.C"
 813  0634  0700     R  	mov a,_MemoryMode_2[10]
 813  0635  0500     R  	or a,_MemoryMode_2[11]
 813  0636  0500     R  	or a,_MemoryMode_2[12]
 813  0637  0500     R  	or a,_MemoryMode_2[13]
 813  0638  3D0A        	sz z
 813  0639  2800     R  	jmp _L76
 813  063A  0700     E  	mov a,_M_GM_data[0]
 813  063B  0080     E  	mov rb,a
 813  063C  0700     E  	mov a,_M_GM_data[1]
 813  063D  0080     E  	mov rc,a
 813  063E  0700     E  	mov a,rb
 813  063F  0500     E  	or a,rc
 813  0640  3D0A        	sz z
 813  0641  2800     R  	jmp _L76
 814  0642              #line 814 "c:\users\longshuangmin\desktop\worke_space\g-501\g-501\OpMode_M.C"
 814  0642  0700     E  	mov a,rb
 814  0643  0080     E  	mov _Lcd_Glucose_2[0],a
 814  0644  0700     E  	mov a,rc
 814  0645  0080     E  	mov _Lcd_Glucose_2[1],a
 814  0646              	fcall _Lcd_Glucose
 814  064D  2800     R  	jmp _L77
 814  064E              _L76:
 816  064E              #line 816 "c:\users\longshuangmin\desktop\worke_space\g-501\g-501\OpMode_M.C"
 816  064E  0F00     R  	mov a,low offset _LC0
 816  064F  0080     E  	mov _Show_BigString_2[0],a
 816  0650  0F00     R  	mov a,high offset _LC0
 816  0651  0080     E  	mov _Show_BigString_2[1],a
 816  0652              	fcall _Show_BigString
 816  0659              _L77:
 817  0659              #line 817 "c:\users\longshuangmin\desktop\worke_space\g-501\g-501\OpMode_M.C"
 817  0659              	fcall _LCD_ScanOut
 843  0660              #line 843 "c:\users\longshuangmin\desktop\worke_space\g-501\g-501\OpMode_M.C"
 843  0660  3000     E  	set _Flag2[0].1
 843  0661              _L66:
 854  0661              #line 854 "c:\users\longshuangmin\desktop\worke_space\g-501\g-501\OpMode_M.C"
文件：OpMode_M.C   编译器版本 HGASM 0202 页次32

 854  0661  D700 000E   	lsdza [3712]
 854  0663  2800     R  	jmp _L78
 858  0664              #line 858 "c:\users\longshuangmin\desktop\worke_space\g-501\g-501\OpMode_M.C"
 858  0664  DF00 000E   	lclr [3712]
 859  0666              #line 859 "c:\users\longshuangmin\desktop\worke_space\g-501\g-501\OpMode_M.C"
 859  0666  1F00     E  	clr _M_No_Active_Cnt[0]
 859  0667  1F00     E  	clr _M_No_Active_Cnt[1]
 861  0668              #line 861 "c:\users\longshuangmin\desktop\worke_space\g-501\g-501\OpMode_M.C"
 861  0668  3000     E  	set _Flag2[0].3
 862  0669              #line 862 "c:\users\longshuangmin\desktop\worke_space\g-501\g-501\OpMode_M.C"
 862  0669  1400     E  	inca _M_Cbuf0[0]
 862  066A  0080     E  	mov ra,a
 862  066B  0700     E  	mov a,ra
 862  066C  0080     E  	mov _M_Cbuf0[0],a
 864  066D              #line 864 "c:\users\longshuangmin\desktop\worke_space\g-501\g-501\OpMode_M.C"
 864  066D  0F05        	mov a,5
 864  066E  0200     E  	sub a,ra
 864  066F  3C0A        	sz c
 864  0670  2800     R  	jmp _L79
 881  0671              #line 881 "c:\users\longshuangmin\desktop\worke_space\g-501\g-501\OpMode_M.C"
 881  0671  DF03 000E   	lclr [3715]
 882  0673              #line 882 "c:\users\longshuangmin\desktop\worke_space\g-501\g-501\OpMode_M.C"
 882  0673  1F00     E  	clr _M_RTC_display[0]
 882  0674  1F00     E  	clr _M_RTC_display[1]
 883  0675              #line 883 "c:\users\longshuangmin\desktop\worke_space\g-501\g-501\OpMode_M.C"
 883  0675  1F00     E  	clr _M_No_Active_Cnt[0]
 883  0676  1F00     E  	clr _M_No_Active_Cnt[1]
 884  0677              #line 884 "c:\users\longshuangmin\desktop\worke_space\g-501\g-501\OpMode_M.C"
 884  0677  0F03        	mov a,3
 884  0678  0080     E  	mov _M_Task[0],a
 885  0679              #line 885 "c:\users\longshuangmin\desktop\worke_space\g-501\g-501\OpMode_M.C"
 885  0679  1F00     E  	clr _M_TaskBuf0[0]
 886  067A              #line 886 "c:\users\longshuangmin\desktop\worke_space\g-501\g-501\OpMode_M.C"
 886  067A  1F00     E  	clr _M_TaskBuf1[0]
 887  067B              #line 887 "c:\users\longshuangmin\desktop\worke_space\g-501\g-501\OpMode_M.C"
 887  067B  1F00     E  	clr _M_Error_Task[0]
 888  067C              #line 888 "c:\users\longshuangmin\desktop\worke_space\g-501\g-501\OpMode_M.C"
 888  067C  3000     E  	set _Flag4[0].1
 891  067D              #line 891 "c:\users\longshuangmin\desktop\worke_space\g-501\g-501\OpMode_M.C"
 891  067D  0F00        	mov a,0
 891  067E              	fcall _LCD_Clear
 891  0685              _L79:
 894  0685              #line 894 "c:\users\longshuangmin\desktop\worke_space\g-501\g-501\OpMode_M.C"
 894  0685  3000     E  	set _Flag4[0].1
 894  0686              _L78:
 901  0686              #line 901 "c:\users\longshuangmin\desktop\worke_space\g-501\g-501\OpMode_M.C"
 901  0686  C700 000E   	lmov a,[3712]
 901  0688  0A02        	sub a,2
 901  0689  390A        	snz z
 901  068A  2800     R  	jmp _L23
 903  068B              #line 903 "c:\users\longshuangmin\desktop\worke_space\g-501\g-501\OpMode_M.C"
 903  068B  DF00 000E   	lclr [3712]
 904  068D              #line 904 "c:\users\longshuangmin\desktop\worke_space\g-501\g-501\OpMode_M.C"
 904  068D  1F00     E  	clr _M_RTC_display[0]
 904  068E  1F00     E  	clr _M_RTC_display[1]
 905  068F              #line 905 "c:\users\longshuangmin\desktop\worke_space\g-501\g-501\OpMode_M.C"
 905  068F  1F00     E  	clr _M_No_Active_Cnt[0]
 905  0690  1F00     E  	clr _M_No_Active_Cnt[1]
 906  0691              #line 906 "c:\users\longshuangmin\desktop\worke_space\g-501\g-501\OpMode_M.C"
 906  0691  0F03        	mov a,3
文件：OpMode_M.C   编译器版本 HGASM 0202 页次33

 906  0692  0080     E  	mov _M_Task[0],a
 907  0693              #line 907 "c:\users\longshuangmin\desktop\worke_space\g-501\g-501\OpMode_M.C"
 907  0693  1F00     E  	clr _M_TaskBuf0[0]
 908  0694              #line 908 "c:\users\longshuangmin\desktop\worke_space\g-501\g-501\OpMode_M.C"
 908  0694  1F00     E  	clr _M_TaskBuf1[0]
 909  0695              #line 909 "c:\users\longshuangmin\desktop\worke_space\g-501\g-501\OpMode_M.C"
 909  0695  1F00     E  	clr _M_Error_Task[0]
 910  0696              #line 910 "c:\users\longshuangmin\desktop\worke_space\g-501\g-501\OpMode_M.C"
 910  0696  3000     E  	set _Flag4[0].1
 910  0697  2800     R  	jmp _L150
 910  0698              _L9:
 926  0698              #line 926 "c:\users\longshuangmin\desktop\worke_space\g-501\g-501\OpMode_M.C"
 926  0698  3E14        	sz [20].4
 926  0699  2800     R  	jmp _L80
 928  069A              #line 928 "c:\users\longshuangmin\desktop\worke_space\g-501\g-501\OpMode_M.C"
 928  069A  0F01        	mov a,1
 928  069B  0080     E  	mov _M_Strip_Type[0],a
 929  069C              #line 929 "c:\users\longshuangmin\desktop\worke_space\g-501\g-501\OpMode_M.C"
 929  069C  0F01        	mov a,1
 929  069D  0080     E  	mov _M_Task[0],a
 930  069E              #line 930 "c:\users\longshuangmin\desktop\worke_space\g-501\g-501\OpMode_M.C"
 930  069E  1F00     E  	clr _M_TaskBuf0[0]
 931  069F              #line 931 "c:\users\longshuangmin\desktop\worke_space\g-501\g-501\OpMode_M.C"
 931  069F  1F00     E  	clr _M_TaskBuf1[0]
 932  06A0              #line 932 "c:\users\longshuangmin\desktop\worke_space\g-501\g-501\OpMode_M.C"
 932  06A0  1F00     E  	clr _M_RTC_display[0]
 932  06A1  1F00     E  	clr _M_RTC_display[1]
 933  06A2              #line 933 "c:\users\longshuangmin\desktop\worke_space\g-501\g-501\OpMode_M.C"
 933  06A2  1F00     E  	clr _M_No_Active_Cnt[0]
 933  06A3  1F00     E  	clr _M_No_Active_Cnt[1]
 933  06A4  2800     R  	jmp _L150
 933  06A5              _L80:
 940  06A5              #line 940 "c:\users\longshuangmin\desktop\worke_space\g-501\g-501\OpMode_M.C"
 940  06A5  1E00     E  	snz _M_TaskBuf1[0]
 940  06A6  2800     R  	jmp _L81
 940  06A7  1700     E  	sdza _M_TaskBuf1[0]
 940  06A8  2800     R  	jmp _L23
 940  06A9  2800     R  	jmp _L156
 940  06AA              _L81:
 944  06AA              #line 944 "c:\users\longshuangmin\desktop\worke_space\g-501\g-501\OpMode_M.C"
 944  06AA  0F01        	mov a,1
 944  06AB  0300     E  	add a,_M_RTC_display[0]
 944  06AC  0080     E  	mov rb,a
 944  06AD  0F00        	mov a,0
 944  06AE  1300     E  	adc a,_M_RTC_display[1]
 944  06AF  0080     E  	mov rc,a
 944  06B0  0700     E  	mov a,rb
 944  06B1  0080     E  	mov _M_RTC_display[0],a
 944  06B2  0700     E  	mov a,rc
 944  06B3  0080     E  	mov _M_RTC_display[1],a
 945  06B4              #line 945 "c:\users\longshuangmin\desktop\worke_space\g-501\g-501\OpMode_M.C"
 945  06B4  1B20        	rrca intc
 945  06B5  3420        	clr intc.0
 945  06B6  0700     E  	mov a,rb
 945  06B7  00D9        	mov mduwr0,a
 945  06B8  0700     E  	mov a,rc
 945  06B9  00DA        	mov mduwr1,a
 945  06BA  0F64        	mov a,100
 945  06BB  00DD        	mov mduwr4,a
 945  06BC  0F00        	mov a,0
文件：OpMode_M.C   编译器版本 HGASM 0202 页次34

 945  06BD  00DE        	mov mduwr5,a
 945  06BE  0F06        	mov a,6
 945  06BF              _LI5:
 945  06BF  1785        	sdz acc
 945  06C0  2800     R  	jmp _LI5
 945  06C1  075D        	mov a,mduwr4
 945  06C2  0080     E  	mov rd,a
 945  06C3  075E        	mov a,mduwr5
 945  06C4  0080     E  	mov re,a
 945  06C5  3C0A        	sz c
 945  06C6  3020        	set intc.0
 945  06C7  0700     E  	mov a,rd
 945  06C8  0C01        	xor a,1
 945  06C9  0500     E  	or a,re
 945  06CA  390A        	snz z
 945  06CB  2800     R  	jmp _L83
 948  06CC              #line 948 "c:\users\longshuangmin\desktop\worke_space\g-501\g-501\OpMode_M.C"
 948  06CC  0F00     R  	mov a,low offset _LC1
 948  06CD  0080     E  	mov _Show_BigString_2[0],a
 948  06CE  0F00     R  	mov a,high offset _LC1
 948  06CF  0080     E  	mov _Show_BigString_2[1],a
 948  06D0              	fcall _Show_BigString
 951  06D7              #line 951 "c:\users\longshuangmin\desktop\worke_space\g-501\g-501\OpMode_M.C"
 951  06D7  3000     E  	set _lcd[26].2
 951  06D8  2800     R  	jmp _L148
 951  06D9              _L83:
 955  06D9              #line 955 "c:\users\longshuangmin\desktop\worke_space\g-501\g-501\OpMode_M.C"
 955  06D9  0700     E  	mov a,rd
 955  06DA  0C32        	xor a,50
 955  06DB  0500     E  	or a,re
 955  06DC  390A        	snz z
 955  06DD  2800     R  	jmp _L85
 958  06DE              #line 958 "c:\users\longshuangmin\desktop\worke_space\g-501\g-501\OpMode_M.C"
 958  06DE  3400     E  	clr _lcd[26].2
 958  06DF              _L148:
 960  06DF              #line 960 "c:\users\longshuangmin\desktop\worke_space\g-501\g-501\OpMode_M.C"
 960  06DF  3000     E  	set _Flag2[0].1
 960  06E0  2800     R  	jmp _L84
 960  06E1              _L85:
 962  06E1              #line 962 "c:\users\longshuangmin\desktop\worke_space\g-501\g-501\OpMode_M.C"
 962  06E1  0F2B        	mov a,43
 962  06E2  0200     E  	sub a,rb
 962  06E3  0F01        	mov a,1
 962  06E4  1200     E  	sbc a,rc
 962  06E5  3C0A        	sz c
 962  06E6  2800     R  	jmp _L84
 964  06E7              #line 964 "c:\users\longshuangmin\desktop\worke_space\g-501\g-501\OpMode_M.C"
 964  06E7  0F08        	mov a,8
 964  06E8  0080     E  	mov _M_TaskBuf0[0],a
 965  06E9              #line 965 "c:\users\longshuangmin\desktop\worke_space\g-501\g-501\OpMode_M.C"
 965  06E9  1F00     E  	clr _M_RTC_display[0]
 965  06EA  1F00     E  	clr _M_RTC_display[1]
 965  06EB              _L84:
 968  06EB              #line 968 "c:\users\longshuangmin\desktop\worke_space\g-501\g-501\OpMode_M.C"
 968  06EB  DE04 0014   	lsnz [5252]
 968  06ED  2800     R  	jmp _L23
 971  06EE              #line 971 "c:\users\longshuangmin\desktop\worke_space\g-501\g-501\OpMode_M.C"
 971  06EE  0F01        	mov a,1
 971  06EF  0080     E  	mov _M_TaskBuf1[0],a
 972  06F0              #line 972 "c:\users\longshuangmin\desktop\worke_space\g-501\g-501\OpMode_M.C"
文件：OpMode_M.C   编译器版本 HGASM 0202 页次35

 972  06F0  1F00     E  	clr _M_Error_Task[0]
 973  06F1              #line 973 "c:\users\longshuangmin\desktop\worke_space\g-501\g-501\OpMode_M.C"
 973  06F1  1F00     E  	clr _M_RTC_display[0]
 973  06F2  1F00     E  	clr _M_RTC_display[1]
 974  06F3              #line 974 "c:\users\longshuangmin\desktop\worke_space\g-501\g-501\OpMode_M.C"
 974  06F3  1F00     E  	clr _M_No_Active_Cnt[0]
 974  06F4  1F00     E  	clr _M_No_Active_Cnt[1]
 977  06F5              #line 977 "c:\users\longshuangmin\desktop\worke_space\g-501\g-501\OpMode_M.C"
 977  06F5  0F00        	mov a,0
 977  06F6              	fcall _LCD_Clear
 980  06FD              #line 980 "c:\users\longshuangmin\desktop\worke_space\g-501\g-501\OpMode_M.C"
 980  06FD  3400     E  	clr _Flag2[0].1
 981  06FE              #line 981 "c:\users\longshuangmin\desktop\worke_space\g-501\g-501\OpMode_M.C"
 981  06FE  3400     E  	clr _Flag1[0].7
 982  06FF              #line 982 "c:\users\longshuangmin\desktop\worke_space\g-501\g-501\OpMode_M.C"
 982  06FF  3000     E  	set _Flag4[0].1
 984  0700              #line 984 "c:\users\longshuangmin\desktop\worke_space\g-501\g-501\OpMode_M.C"
 984  0700  DF04 0014   	lclr [5252]
 984  0702  2800     R  	jmp _L23
 984  0703              _L156:
 992  0703              #line 992 "c:\users\longshuangmin\desktop\worke_space\g-501\g-501\OpMode_M.C"
 992  0703  3800     E  	snz _Flag1[0].7
 992  0704  2800     R  	jmp _L86
 994  0705              #line 994 "c:\users\longshuangmin\desktop\worke_space\g-501\g-501\OpMode_M.C"
 994  0705  0F00     R  	mov a,low offset _LC0
 994  0706  0080     E  	mov _Show_BigString_2[0],a
 994  0707  0F00     R  	mov a,high offset _LC0
 994  0708  0080     E  	mov _Show_BigString_2[1],a
 994  0709              	fcall _Show_BigString
 996  0710              #line 996 "c:\users\longshuangmin\desktop\worke_space\g-501\g-501\OpMode_M.C"
 996  0710  3800     E  	snz _lcd[26].2
 996  0711  2800     R  	jmp _L87
 998  0712              #line 998 "c:\users\longshuangmin\desktop\worke_space\g-501\g-501\OpMode_M.C"
 998  0712  3400     E  	clr _lcd[26].2
 998  0713  2800     R  	jmp _L88
 998  0714              _L87:
1001  0714              #line 1001 "c:\users\longshuangmin\desktop\worke_space\g-501\g-501\OpMode_M.C"
1001  0714  3000     E  	set _lcd[26].2
1001  0715              _L88:
1003  0715              #line 1003 "c:\users\longshuangmin\desktop\worke_space\g-501\g-501\OpMode_M.C"
1003  0715  3400     E  	clr _Flag1[0].7
1004  0716              #line 1004 "c:\users\longshuangmin\desktop\worke_space\g-501\g-501\OpMode_M.C"
1004  0716  3000     E  	set _Flag2[0].1
1004  0717              _L86:
1008  0717              #line 1008 "c:\users\longshuangmin\desktop\worke_space\g-501\g-501\OpMode_M.C"
1008  0717  0F01        	mov a,1
1008  0718  0300     E  	add a,_M_RTC_display[0]
1008  0719  0080     E  	mov rb,a
1008  071A  0F00        	mov a,0
1008  071B  1300     E  	adc a,_M_RTC_display[1]
1008  071C  0080     E  	mov rc,a
1008  071D  0700     E  	mov a,rb
1008  071E  0080     E  	mov _M_RTC_display[0],a
1008  071F  0700     E  	mov a,rc
1008  0720  0080     E  	mov _M_RTC_display[1],a
1010  0721              #line 1010 "c:\users\longshuangmin\desktop\worke_space\g-501\g-501\OpMode_M.C"
1010  0721  0700     E  	mov a,rb
1010  0722  0C01        	xor a,1
1010  0723  0500     E  	or a,rc
1010  0724  390A        	snz z
文件：OpMode_M.C   编译器版本 HGASM 0202 页次36

1010  0725  2800     R  	jmp _L89
1012  0726              #line 1012 "c:\users\longshuangmin\desktop\worke_space\g-501\g-501\OpMode_M.C"
1012  0726  1F00     E  	clr _M_GM_data_Record[0]
1012  0727  1F00     E  	clr _M_GM_data_Record[1]
1013  0728              #line 1013 "c:\users\longshuangmin\desktop\worke_space\g-501\g-501\OpMode_M.C"
1013  0728  1F00     E  	clr _M_GM_Record_current[0]
1013  0729  1F00     E  	clr _M_GM_Record_current[1]
1016  072A              #line 1016 "c:\users\longshuangmin\desktop\worke_space\g-501\g-501\OpMode_M.C"
1016  072A              	fcall _Store_SetVauletoFlash
1018  0731              #line 1018 "c:\users\longshuangmin\desktop\worke_space\g-501\g-501\OpMode_M.C"
1018  0731  DF09 0014   	lclr [5257]
1019  0733              #line 1019 "c:\users\longshuangmin\desktop\worke_space\g-501\g-501\OpMode_M.C"
1019  0733  0F01        	mov a,1
1019  0734  0080     E  	mov _Write_EEPROMBuf_2[2],a
1019  0735  0F89        	mov a,low offset _set_temp_25
1019  0736  0080     E  	mov _Write_EEPROMBuf_2[0],a
1019  0737  0F14        	mov a,high offset _set_temp_25
1019  0738  0080     E  	mov _Write_EEPROMBuf_2[1],a
1019  0739  0F7F        	mov a,127
1019  073A              	fcall _Write_EEPROMBuf
1019  0741  2800     R  	jmp _L23
1019  0742              _L89:
1021  0742              #line 1021 "c:\users\longshuangmin\desktop\worke_space\g-501\g-501\OpMode_M.C"
1021  0742  0F63        	mov a,99
1021  0743  0200     E  	sub a,rb
1021  0744  0F00        	mov a,0
1021  0745  1200     E  	sbc a,rc
1021  0746  3C0A        	sz c
1021  0747  2800     R  	jmp _L23
1023  0748              #line 1023 "c:\users\longshuangmin\desktop\worke_space\g-501\g-501\OpMode_M.C"
1023  0748  0F08        	mov a,8
1023  0749  0080     E  	mov _M_TaskBuf0[0],a
1024  074A              #line 1024 "c:\users\longshuangmin\desktop\worke_space\g-501\g-501\OpMode_M.C"
1024  074A  1F00     E  	clr _M_RTC_display[0]
1024  074B  1F00     E  	clr _M_RTC_display[1]
1024  074C  2800     R  	jmp _L23
1024  074D              _L155:
1050  074D              #line 1050 "c:\users\longshuangmin\desktop\worke_space\g-501\g-501\OpMode_M.C"
1050  074D  3800     E  	snz _Flag1[0].7
1050  074E  2800     R  	jmp _L90
1058  074F              #line 1058 "c:\users\longshuangmin\desktop\worke_space\g-501\g-501\OpMode_M.C"
1058  074F  3000     E  	set _Flag2[0].1
1058  0750              _L90:
1062  0750              #line 1062 "c:\users\longshuangmin\desktop\worke_space\g-501\g-501\OpMode_M.C"
1062  0750  0F01        	mov a,1
1062  0751  0300     E  	add a,_M_RTC_display[0]
1062  0752  0080     E  	mov rb,a
1062  0753  0F00        	mov a,0
1062  0754  1300     E  	adc a,_M_RTC_display[1]
1062  0755  0080     E  	mov rc,a
1062  0756  0700     E  	mov a,rb
1062  0757  0080     E  	mov _M_RTC_display[0],a
1062  0758  0700     E  	mov a,rc
1062  0759  0080     E  	mov _M_RTC_display[1],a
1063  075A              #line 1063 "c:\users\longshuangmin\desktop\worke_space\g-501\g-501\OpMode_M.C"
1063  075A  3C00     E  	sz _Flag1[0].5
1063  075B  2800     R  	jmp _L91
1063  075C  0F2C        	mov a,44
1063  075D  0200     E  	sub a,rb
1063  075E  0F01        	mov a,1
文件：OpMode_M.C   编译器版本 HGASM 0202 页次37

1063  075F  1200     E  	sbc a,rc
1063  0760  380A        	snz c
1063  0761  2800     R  	jmp _L92
1063  0762              _L91:
1063  0762  3800     E  	snz _Flag1[0].5
1063  0763  2800     R  	jmp _L23
1063  0764  0F32        	mov a,50
1063  0765  0200     E  	sub a,rb
1063  0766  0F00        	mov a,0
1063  0767  1200     E  	sbc a,rc
1063  0768  3C0A        	sz c
1063  0769  2800     R  	jmp _L23
1063  076A              _L92:
1077  076A              #line 1077 "c:\users\longshuangmin\desktop\worke_space\g-501\g-501\OpMode_M.C"
1077  076A  0F08        	mov a,8
1077  076B  0080     E  	mov _M_TaskBuf0[0],a
1077  076C  2800     R  	jmp _L23
1077  076D              _L143:
1086  076D              #line 1086 "c:\users\longshuangmin\desktop\worke_space\g-501\g-501\OpMode_M.C"
1086  076D  0F01        	mov a,1
1086  076E  0300     E  	add a,_M_RTC_display[0]
1086  076F  0080     E  	mov rb,a
1086  0770  0F00        	mov a,0
1086  0771  1300     E  	adc a,_M_RTC_display[1]
1086  0772  0080     E  	mov rc,a
1086  0773  0700     E  	mov a,rb
1086  0774  0080     E  	mov _M_RTC_display[0],a
1086  0775  0700     E  	mov a,rc
1086  0776  0080     E  	mov _M_RTC_display[1],a
1087  0777              #line 1087 "c:\users\longshuangmin\desktop\worke_space\g-501\g-501\OpMode_M.C"
1087  0777  0F07        	mov a,7
1087  0778  0200     E  	sub a,rb
1087  0779  0F00        	mov a,0
1087  077A  1200     E  	sbc a,rc
1087  077B  3C0A        	sz c
1087  077C  2800     R  	jmp _L23
1087  077D              _L149:
1089  077D              #line 1089 "c:\users\longshuangmin\desktop\worke_space\g-501\g-501\OpMode_M.C"
1089  077D  1F00     E  	clr _M_RTC_display[0]
1089  077E  1F00     E  	clr _M_RTC_display[1]
1090  077F              #line 1090 "c:\users\longshuangmin\desktop\worke_space\g-501\g-501\OpMode_M.C"
1090  077F  1F00     E  	clr _M_No_Active_Cnt[0]
1090  0780  1F00     E  	clr _M_No_Active_Cnt[1]
1091  0781              #line 1091 "c:\users\longshuangmin\desktop\worke_space\g-501\g-501\OpMode_M.C"
1091  0781  0F03        	mov a,3
1091  0782  0080     E  	mov _M_Task[0],a
1092  0783              #line 1092 "c:\users\longshuangmin\desktop\worke_space\g-501\g-501\OpMode_M.C"
1092  0783  1F00     E  	clr _M_TaskBuf0[0]
1093  0784              #line 1093 "c:\users\longshuangmin\desktop\worke_space\g-501\g-501\OpMode_M.C"
1093  0784  1F00     E  	clr _M_TaskBuf1[0]
1095  0785              #line 1095 "c:\users\longshuangmin\desktop\worke_space\g-501\g-501\OpMode_M.C"
1095  0785  1F00     E  	clr _M_Error_Task[0]
1095  0786              _L150:
1097  0786              #line 1097 "c:\users\longshuangmin\desktop\worke_space\g-501\g-501\OpMode_M.C"
1097  0786  0F00        	mov a,0
1097  0787              	fcall _LCD_Clear
1097  078E              _L23:
1117  078E              #line 1117 "c:\users\longshuangmin\desktop\worke_space\g-501\g-501\OpMode_M.C"
1117  078E  1480     E  	inc _M_No_Active_Cnt[0]
1117  078F  3D0A        	sz z
文件：OpMode_M.C   编译器版本 HGASM 0202 页次38

1117  0790  1480     E  	inc _M_No_Active_Cnt[1]
1118  0791              #line 1118 "c:\users\longshuangmin\desktop\worke_space\g-501\g-501\OpMode_M.C"
1118  0791  0F6F        	mov a,111
1118  0792  0200     E  	sub a,_M_No_Active_Cnt[0]
1118  0793  0F17        	mov a,23
1118  0794  1200     E  	sbc a,_M_No_Active_Cnt[1]
1118  0795  3C0A        	sz c
1118  0796  2800     R  	jmp _L1
1120  0797              #line 1120 "c:\users\longshuangmin\desktop\worke_space\g-501\g-501\OpMode_M.C"
1120  0797  1F00     E  	clr _M_No_Active_Cnt[0]
1120  0798  1F00     E  	clr _M_No_Active_Cnt[1]
1122  0799              #line 1122 "c:\users\longshuangmin\desktop\worke_space\g-501\g-501\OpMode_M.C"
1122  0799  0F03        	mov a,3
1122  079A  0080     E  	mov _M_Task[0],a
1123  079B              #line 1123 "c:\users\longshuangmin\desktop\worke_space\g-501\g-501\OpMode_M.C"
1123  079B  1F00     E  	clr _M_TaskBuf0[0]
1124  079C              #line 1124 "c:\users\longshuangmin\desktop\worke_space\g-501\g-501\OpMode_M.C"
1124  079C  1F00     E  	clr _M_TaskBuf1[0]
1125  079D              #line 1125 "c:\users\longshuangmin\desktop\worke_space\g-501\g-501\OpMode_M.C"
1125  079D  1F00     E  	clr _M_Error_Task[0]
1126  079E              #line 1126 "c:\users\longshuangmin\desktop\worke_space\g-501\g-501\OpMode_M.C"
1126  079E  1F00     E  	clr _M_RTC_display[0]
1126  079F  1F00     E  	clr _M_RTC_display[1]
1126  07A0              _L1:
1126  07A0  0003        	ret
1126  07A1              _MemoryMode endp
1126  07A1              #line 1126 "c:\users\longshuangmin\desktop\worke_space\g-501\g-501\OpMode_M.C"
1126  07A1              #pragma debug scope 1 1
  15  07A1              #line 15 "c:\users\longshuangmin\desktop\worke_space\g-501\g-501\OpMode_M.C"
  15  07A1              public _memmode
  15  0000              @HCCINIT0_memmode .section 'data'
  15  0000  0002[       _memmode	db 2 dup(0)
            00
            ]
  15  0002              #pragma debug variable 12 1 _memmode "memmode"
  15  0002              
  15  0000              @HCCINIT .section 'data'
  15  0000              #pragma debug struct_end
  15  0000              #pragma debug struct_end
  15  0000              #pragma debug union_end
  15  0000              #pragma debug union_end
  15  0000              #pragma debug variable 44 1 ___pa "__pa" 1
  15  0000              #pragma debug variable 11 1 _work_time "work_time" 2
  15  0000              #pragma debug variable 8 1 _memkey "memkey" 1
  15  0000              #pragma debug variable 8 1 _setkey "setkey" 1
  15  0000              #pragma debug variable 8 1 _batlevel "batlevel" 1
  15  0000              #pragma debug variable 8 1 _key_lock "key_lock" 1
  15  0000              #pragma debug variable 8 1 _meals "meals" 1
  15  0000              #pragma debug variable 8 1 _setkeydown "setkeydown" 1
  15  0000              #pragma debug variable 7 1 _set_temp_25 "set_temp_25" 1
  15  0000              
  15  0000              ; output external variables
  15  0000              extern _M_Strip_Type:byte
  15  0000              extern _M_Task:byte
  15  0000              extern _FlashTimeFlag:byte
  15  0000              extern _M_Ibuf0:byte
  15  0000              extern _M_GM_Record_current:byte
  15  0000              extern _lcd:byte
  15  0000              extern _Flag2:byte
  15  0000              extern _Flag4:byte
文件：OpMode_M.C   编译器版本 HGASM 0202 页次39

  15  0000              extern _M_No_Active_Cnt:byte
  15  0000              extern _M_Cbuf0:byte
  15  0000              extern _M_TaskBuf1:byte
  15  0000              extern _M_Error_Task:byte
  15  0000              extern _M_GM_data:byte
  15  0000              extern _Flag1:byte
  15  0000              extern _M_GM_data_Record:byte
  15  0000              extern _M_GM_data_Record_buf:byte
  15  0000              extern _M_Lbuf0:byte
  15  0000              extern _M_Second:byte
  15  0000              extern _M_Minutes:byte
  15  0000              extern _M_Hour:byte
  15  0000              extern _M_Days:byte
  15  0000              extern _M_Month:byte
  15  0000              extern _M_Year:byte
  15  0000              extern _M_90daysNumber:byte
  15  0000              extern _M_90days_datasum:byte
  15  0000              extern _M_60daysNumber:byte
  15  0000              extern _M_60days_datasum:byte
  15  0000              extern _M_30daysNumber:byte
  15  0000              extern _M_30days_datasum:byte
  15  0000              extern _M_28daysNumber:byte
  15  0000              extern _M_14daysNumber:byte
  15  0000              extern _M_7daysNumber:byte
  15  0000              extern _M_28days_datasum:byte
  15  0000              extern _M_14days_datasum:byte
  15  0000              extern _M_7days_datasum:byte
  15  0000              extern _M_RTC_display:byte
  15  0000              extern _M_TaskBuf0:byte
  15  0000              extern _LCD_Clear:near
  15  0000              extern _DateToSecond_2:byte
  15  0000              extern _DateToSecond:near
  15  0000              extern _Flash_Store_Read_Process_2:byte
  15  0000              extern _Flash_Store_Read_Process:near
  15  0000              extern _Lcd_Clock_Process_2:byte
  15  0000              extern _Lcd_Clock_Process:near
  15  0000              extern _Lcd_Month_Day_Process_2:byte
  15  0000              extern _Lcd_Month_Day_Process:near
  15  0000              extern _LCD_Clear_Buff:near
  15  0000              extern _Lcd_ShowAvgNum_2:byte
  15  0000              extern _Lcd_ShowAvgNum:near
  15  0000              extern _Lcd_Glucose_2:byte
  15  0000              extern _Lcd_Glucose:near
  15  0000              extern _SecondToDate_2:byte
  15  0000              extern _SecondToDate:near
  15  0000              extern _Lcd_Bat:near
  15  0000              extern _keyinti:near
  15  0000              extern _Show_BigString_2:byte
  15  0000              extern _Show_BigString:near
  15  0000              extern _Clr_BigString:near
  15  0000              extern _LCD_ScanOut:near
  15  0000              extern _builtin_holtek_mulsi3_2:byte
  15  0000              extern _builtin_holtek_mulsi3:near
  15  0000              extern _builtin_holtek_udivmodsi4_2:byte
  15  0000              extern _builtin_holtek_udivmodsi4:near
  15  0000              extern _LCD_BitSetOut_2:byte
  15  0000              extern _LCD_BitSetOut:near
  15  0000              extern _Store_SetVauletoFlash:near
  15  0000              extern _Write_EEPROMBuf_2:byte
  15  0000              extern _Write_EEPROMBuf:near
文件：OpMode_M.C   编译器版本 HGASM 0202 页次40

  15  0000              
  15  0000              ; 
  15  0000              ; Generated by holtek-gcc v3.19, Fri May 23 10:39:47 2025
  15  0000              ; Rebuild 718
  15  0000              ; end of file


        0 Errors, 0