文件：rtc.c        编译器版本 HGASM 0202 页次1


   1  0000              ; Generated by holtek-gcc v3.19, Fri May 23 10:39:48 2025
   2  0000              ; 
   3  0000              ; Configuration:
   4  0000              ;       with long instruction
   5  0000              ;       Multi-ROM, Multi-RAM
   6  0000              ;       bits_per_rom_unit:16
   7  0000              ;       with mp1
   8  0000              ;       with tbhp, address(0x9)
   9  0000              ;          Use tabrd-const
  10  0000              ;       
  11  0000              ; SFR address of long-instruction arch:
  12  0000              ;    mp0 = -1,1,0
  13  0000              ;    mp1 = 4,3,2
  14  0000              ;    mp2 = 14,13,12
  15  0000              ;    tbp = 9,7,8
  16  0000              ;    acc = 5
  17  0000              ;    pcl = 6
  18  0000              ;    status = 10
  19  0000              ;    bp = 11
  20  0000              ;    intc = 32
  21  0000              ;       
  22  0000              ;       
  23  0000              ; use 'tabrdc' instead of 'tabrd'
  24  0000              ;       
  25  0000              
  26  0000              #pragma translator "holtek-gcc 4.6.4" "3.19" "build 20130711"
  27  0000              ; Rebuild 718
  28  0000              
  29  0000              ir equ [2]
  30  0000              mp equ [3]
  31  0000              sbp equ [4]
  32  0000              acc equ [5]
  33  0000              bp equ [11]
  34  0000              tblp equ [7]
  35  0000              tbhp equ [9]
  36  0000              status equ [10]
  37  0000              c equ [10].0
  38  0000              ac equ [10].1
  39  0000              z equ [10].2
  40  0000              ov equ [10].3
  41  0000              cz equ [10].6
  42  0000              sc equ [10].7
  43  0000              intc equ [32]
  44  0000              mduwr0 equ [59h]
  45  0000              mduwr1 equ [5ah]
  46  0000              mduwr2 equ [5bh]
  47  0000              mduwr3 equ [5ch]
  48  0000              mduwr4 equ [5dh]
  49  0000              mduwr5 equ [5eh]
  50  0000              mduwrctrl equ [5fh]
  51  0000              
  52  0000              extern ra:byte
  53  0000              extern rb:byte
  54  0000              extern rc:byte
  55  0000              extern rd:byte
  56  0000              extern re:byte
  57  0000              extern rf:byte
  58  0000              extern rg:byte
  59  0000              extern rh:byte
文件：rtc.ASM      编译器版本 HGASM 0202 页次2

  60  0000              extern _Crom2Prom:near
  61  0000              extern _Crom2PromNext:near
  62  0000              
  63  0000              RAMBANK 0 @BITDATASEC, @BITDATASEC1
  64  0000              @HCCINIT	.section 'data'
  65  0000              @HCCINIT0	.section 'data'
  66  0000              @BITDATASEC	 .section 'data'
  67  0000              @BITDATASEC1	 .section 'data'
  68  0000              
  69  0000              #pragma debug scope 1 1
  70  0000              	extern __DELAY3:near
  71  0000              	extern __DELAYX3:near
  72  0000              	extern __DELAYX6:near
  73  0000              	extern __DELAYY5:near
  74  0000              	extern __DELAYY3:near
  75  0000              	extern _builtin_holtek_delay_2:byte
  76  0000              public _DateToSecond
  77  0000              #pragma debug scope 2 1

   9  0000              #line 9 "c:\users\longshuangmin\desktop\worke_space\g-501\g-501\rtc.c"
   9  0000              _DateToSecond .section 'code'
   9  0000              _DateToSecond proc
   9  0000              public _DateToSecond_2
   9  0000  000C[           local _DateToSecond_2 db 12 dup(?)	; 2,10
            00
            ]
   9  000C              #pragma debug pointer 42 8 2
   9  000C              #pragma debug pointer 42 8 2
   9  000C              #pragma debug variable 42 2 _DateToSecond_2+0 "buf"
  14  000C              #line 14 "c:\users\longshuangmin\desktop\worke_space\g-501\g-501\rtc.c"
  14  0000  0700     R  	mov a,_DateToSecond_2[0]
  14  0001  0080     R  	mov _DateToSecond_2[2],a
  14  0002  0700     R  	mov a,_DateToSecond_2[1]
  14  0003  0080     R  	mov _DateToSecond_2[3],a
  14  0004  0F05        	mov a,5
  14  0005  0300     R  	add a,_DateToSecond_2[2]
  14  0006  0083        	mov mp,a
  14  0007  0F00        	mov a,0
  14  0008  1300     R  	adc a,_DateToSecond_2[3]
  14  0009  0084        	mov sbp,a
  14  000A              	fcall _Crom2Prom
  14  0011  0080     E  	mov ra,a
  14  0012  0700     E  	mov a,ra
  14  0013  0080     E  	mov rd,a
  14  0014  1F00     E  	clr re
  14  0015  0FFF        	mov a,255
  14  0016  0300     E  	add a,rd
  14  0017  0080     E  	mov rb,a
  14  0018  0FFF        	mov a,255
  14  0019  1300     E  	adc a,re
  14  001A  0080     E  	mov rc,a
  14  001B  3800     E  	snz rc.7
  14  001C  2800     R  	jmp _L2
  14  001D              #line 14 "c:\users\longshuangmin\desktop\worke_space\g-501\g-501\rtc.c"
  14  001D  0F02        	mov a,2
  14  001E  0300     E  	add a,rd
  14  001F  0080     E  	mov rb,a
  14  0020  0F00        	mov a,0
  14  0021  1300     E  	adc a,re
  14  0022  0080     E  	mov rc,a
文件：rtc.c        编译器版本 HGASM 0202 页次3

  14  0023              _L2:
  14  0023  1A00     E  	rlca rc
  14  0024  1B80     E  	rrc rc
  14  0025  1B80     E  	rrc rb
  14  0026  1A00     E  	rlca rc
  14  0027  1B80     E  	rrc rc
  14  0028  1B80     E  	rrc rb
  14  0029  1480     E  	inc rb
  18  002A              #line 18 "c:\users\longshuangmin\desktop\worke_space\g-501\g-501\rtc.c"
  18  002A  0700     E  	mov a,ra
  18  002B  0080     E  	mov rd,a
  18  002C  1F00     E  	clr re
  18  002D  1F00     E  	clr rf
  18  002E  1F00     E  	clr rg
  19  002F              #line 19 "c:\users\longshuangmin\desktop\worke_space\g-501\g-501\rtc.c"
  19  002F  0700     E  	mov a,rd
  19  0030  0080     E  	mov _builtin_holtek_mulsi3_2[0],a
  19  0031  0700     E  	mov a,re
  19  0032  0080     E  	mov _builtin_holtek_mulsi3_2[1],a
  19  0033  0700     E  	mov a,rf
  19  0034  0080     E  	mov _builtin_holtek_mulsi3_2[2],a
  19  0035  0700     E  	mov a,rg
  19  0036  0080     E  	mov _builtin_holtek_mulsi3_2[3],a
  19  0037  0F6D        	mov a,109
  19  0038  0080     E  	mov _builtin_holtek_mulsi3_2[4],a
  19  0039  0F01        	mov a,1
  19  003A  0080     E  	mov _builtin_holtek_mulsi3_2[5],a
  19  003B  0F00        	mov a,0
  19  003C  0080     E  	mov _builtin_holtek_mulsi3_2[6],a
  19  003D  0F00        	mov a,0
  19  003E  0080     E  	mov _builtin_holtek_mulsi3_2[7],a
  19  003F              	fcall _builtin_holtek_mulsi3
  19  0046  0700     E  	mov a,_builtin_holtek_mulsi3_2[8]
  19  0047  0080     E  	mov rd,a
  19  0048  0700     E  	mov a,_builtin_holtek_mulsi3_2[9]
  19  0049  0080     E  	mov re,a
  19  004A  0700     E  	mov a,_builtin_holtek_mulsi3_2[10]
  19  004B  0080     E  	mov rf,a
  19  004C  0700     E  	mov a,_builtin_holtek_mulsi3_2[11]
  19  004D  0080     E  	mov rg,a
  19  004E  0700     E  	mov a,rb
  19  004F  0380     E  	addm a,rd
  19  0050  1F05        	clr acc
  19  0051  3C00     E  	sz rb.7
  19  0052  1F85        	set acc
  19  0053  1380     E  	adcm a,re
  19  0054  1380     E  	adcm a,rf
  19  0055  1380     E  	adcm a,rg
  22  0056              #line 22 "c:\users\longshuangmin\desktop\worke_space\g-501\g-501\rtc.c"
  22  0056  0700     E  	mov a,ra
  22  0057  0E03        	and a,3
  22  0058  0080     E  	mov rh,a
  25  0059              #line 25 "c:\users\longshuangmin\desktop\worke_space\g-501\g-501\rtc.c"
  25  0059  0F04        	mov a,4
  25  005A  0300     R  	add a,_DateToSecond_2[2]
  25  005B  0083        	mov mp,a
  25  005C  0F00        	mov a,0
  25  005D  1300     R  	adc a,_DateToSecond_2[3]
  25  005E  0084        	mov sbp,a
  25  005F              	fcall _Crom2Prom
文件：rtc.c        编译器版本 HGASM 0202 页次4

  25  0066  0080     E  	mov rc,a
  25  0067  0F01        	mov a,1
  25  0068  0080     E  	mov ra,a
  25  0069              _L3:
  25  0069  0700     E  	mov a,ra
  25  006A  0200     E  	sub a,rc
  25  006B  3C0A        	sz c
  25  006C  2800     R  	jmp _L9
  27  006D              #line 27 "c:\users\longshuangmin\desktop\worke_space\g-501\g-501\rtc.c"
  27  006D  1080     E  	sz rh
  27  006E  2800     R  	jmp _L4
  28  006F              #line 28 "c:\users\longshuangmin\desktop\worke_space\g-501\g-501\rtc.c"
  28  006F  0F00     E  	mov a,low (offset _Month_TABLE2-1)
  28  0070  0300     E  	add a,ra
  28  0071  0083        	mov mp,a
  28  0072  0F00     E  	mov a,high (offset _Month_TABLE2-1)
  28  0073  1F04        	clr sbp
  28  0074  1384        	adcm a,sbp
  28  0075  2800     R  	jmp _L7
  28  0076              _L4:
  30  0076              #line 30 "c:\users\longshuangmin\desktop\worke_space\g-501\g-501\rtc.c"
  30  0076  0F00     E  	mov a,low (offset _Month_TABLE1-1)
  30  0077  0300     E  	add a,ra
  30  0078  0083        	mov mp,a
  30  0079  0F00     E  	mov a,high (offset _Month_TABLE1-1)
  30  007A  1F04        	clr sbp
  30  007B  1384        	adcm a,sbp
  30  007C              _L7:
  30  007C              	fcall _Crom2Prom
  30  0083  0080     E  	mov rb,a
  30  0084  0700     E  	mov a,rb
  30  0085  0380     E  	addm a,rd
  30  0086  1F05        	clr acc
  30  0087  1380     E  	adcm a,re
  30  0088  1380     E  	adcm a,rf
  30  0089  1380     E  	adcm a,rg
  25  008A              #line 25 "c:\users\longshuangmin\desktop\worke_space\g-501\g-501\rtc.c"
  25  008A  1480     E  	inc ra
  25  008B  2800     R  	jmp _L3
  25  008C              _L9:
  34  008C              #line 34 "c:\users\longshuangmin\desktop\worke_space\g-501\g-501\rtc.c"
  34  008C  0F03        	mov a,3
  34  008D  0300     R  	add a,_DateToSecond_2[2]
  34  008E  0083        	mov mp,a
  34  008F  0F00        	mov a,0
  34  0090  1300     R  	adc a,_DateToSecond_2[3]
  34  0091  0084        	mov sbp,a
  34  0092              	fcall _Crom2Prom
  34  0099  0080     E  	mov rc,a
  34  009A  0FFF        	mov a,255
  34  009B  0300     E  	add a,rc
  34  009C  0080     R  	mov _DateToSecond_2[4],a
  34  009D  0FFF        	mov a,255
  34  009E  1F00     R  	clr _DateToSecond_2[5]
  34  009F  1380     R  	adcm a,_DateToSecond_2[5]
  34  00A0  0700     R  	mov a,_DateToSecond_2[4]
  34  00A1  0380     E  	addm a,rd
  34  00A2  0700     R  	mov a,_DateToSecond_2[5]
  34  00A3  1380     E  	adcm a,re
  34  00A4  1F05        	clr acc
文件：rtc.c        编译器版本 HGASM 0202 页次5

  34  00A5  3C00     R  	sz _DateToSecond_2[5].7
  34  00A6  1F85        	set acc
  34  00A7  1380     E  	adcm a,rf
  34  00A8  1380     E  	adcm a,rg
  37  00A9              #line 37 "c:\users\longshuangmin\desktop\worke_space\g-501\g-501\rtc.c"
  37  00A9  0700     E  	mov a,rd
  37  00AA  0080     E  	mov _builtin_holtek_mulsi3_2[0],a
  37  00AB  0700     E  	mov a,re
  37  00AC  0080     E  	mov _builtin_holtek_mulsi3_2[1],a
  37  00AD  0700     E  	mov a,rf
  37  00AE  0080     E  	mov _builtin_holtek_mulsi3_2[2],a
  37  00AF  0700     E  	mov a,rg
  37  00B0  0080     E  	mov _builtin_holtek_mulsi3_2[3],a
  37  00B1  0F80        	mov a,128
  37  00B2  0080     E  	mov _builtin_holtek_mulsi3_2[4],a
  37  00B3  0F51        	mov a,81
  37  00B4  0080     E  	mov _builtin_holtek_mulsi3_2[5],a
  37  00B5  0F01        	mov a,1
  37  00B6  0080     E  	mov _builtin_holtek_mulsi3_2[6],a
  37  00B7  0F00        	mov a,0
  37  00B8  0080     E  	mov _builtin_holtek_mulsi3_2[7],a
  37  00B9              	fcall _builtin_holtek_mulsi3
  37  00C0  0700     E  	mov a,_builtin_holtek_mulsi3_2[8]
  37  00C1  0080     R  	mov _DateToSecond_2[4],a
  37  00C2  0700     E  	mov a,_builtin_holtek_mulsi3_2[9]
  37  00C3  0080     R  	mov _DateToSecond_2[5],a
  37  00C4  0700     E  	mov a,_builtin_holtek_mulsi3_2[10]
  37  00C5  0080     R  	mov _DateToSecond_2[6],a
  37  00C6  0700     E  	mov a,_builtin_holtek_mulsi3_2[11]
  37  00C7  0080     R  	mov _DateToSecond_2[7],a
  40  00C8              #line 40 "c:\users\longshuangmin\desktop\worke_space\g-501\g-501\rtc.c"
  40  00C8  0F02        	mov a,2
  40  00C9  0300     R  	add a,_DateToSecond_2[2]
  40  00CA  0083        	mov mp,a
  40  00CB  0F00        	mov a,0
  40  00CC  1300     R  	adc a,_DateToSecond_2[3]
  40  00CD  0084        	mov sbp,a
  40  00CE              	fcall _Crom2Prom
  40  00D5  0080     E  	mov rd,a
  40  00D6  1F00     E  	clr re
  40  00D7  1F00     E  	clr rf
  40  00D8  1F00     E  	clr rg
  41  00D9              #line 41 "c:\users\longshuangmin\desktop\worke_space\g-501\g-501\rtc.c"
  41  00D9  0700     E  	mov a,rd
  41  00DA  0080     E  	mov _builtin_holtek_mulsi3_2[0],a
  41  00DB  0700     E  	mov a,re
  41  00DC  0080     E  	mov _builtin_holtek_mulsi3_2[1],a
  41  00DD  0700     E  	mov a,rf
  41  00DE  0080     E  	mov _builtin_holtek_mulsi3_2[2],a
  41  00DF  0700     E  	mov a,rg
  41  00E0  0080     E  	mov _builtin_holtek_mulsi3_2[3],a
  41  00E1  0F10        	mov a,16
  41  00E2  0080     E  	mov _builtin_holtek_mulsi3_2[4],a
  41  00E3  0F0E        	mov a,14
  41  00E4  0080     E  	mov _builtin_holtek_mulsi3_2[5],a
  41  00E5  0F00        	mov a,0
  41  00E6  0080     E  	mov _builtin_holtek_mulsi3_2[6],a
  41  00E7  0F00        	mov a,0
  41  00E8  0080     E  	mov _builtin_holtek_mulsi3_2[7],a
  41  00E9              	fcall _builtin_holtek_mulsi3
文件：rtc.c        编译器版本 HGASM 0202 页次6

  41  00F0  0700     E  	mov a,_builtin_holtek_mulsi3_2[8]
  41  00F1  0080     R  	mov _DateToSecond_2[8],a
  41  00F2  0700     E  	mov a,_builtin_holtek_mulsi3_2[9]
  41  00F3  0080     R  	mov _DateToSecond_2[9],a
  41  00F4  0700     E  	mov a,_builtin_holtek_mulsi3_2[10]
  41  00F5  0080     R  	mov _DateToSecond_2[10],a
  41  00F6  0700     E  	mov a,_builtin_holtek_mulsi3_2[11]
  41  00F7  0080     R  	mov _DateToSecond_2[11],a
  44  00F8              #line 44 "c:\users\longshuangmin\desktop\worke_space\g-501\g-501\rtc.c"
  44  00F8  0F01        	mov a,1
  44  00F9  0300     R  	add a,_DateToSecond_2[2]
  44  00FA  0083        	mov mp,a
  44  00FB  0F00        	mov a,0
  44  00FC  1300     R  	adc a,_DateToSecond_2[3]
  44  00FD  0084        	mov sbp,a
  44  00FE              	fcall _Crom2Prom
  44  0105  0080     E  	mov rd,a
  44  0106  1F00     E  	clr re
  44  0107  1F00     E  	clr rf
  44  0108  1F00     E  	clr rg
  45  0109              #line 45 "c:\users\longshuangmin\desktop\worke_space\g-501\g-501\rtc.c"
  45  0109  0700     E  	mov a,rd
  45  010A  0080     E  	mov _builtin_holtek_mulsi3_2[0],a
  45  010B  0700     E  	mov a,re
  45  010C  0080     E  	mov _builtin_holtek_mulsi3_2[1],a
  45  010D  0700     E  	mov a,rf
  45  010E  0080     E  	mov _builtin_holtek_mulsi3_2[2],a
  45  010F  0700     E  	mov a,rg
  45  0110  0080     E  	mov _builtin_holtek_mulsi3_2[3],a
  45  0111  0F3C        	mov a,60
  45  0112  0080     E  	mov _builtin_holtek_mulsi3_2[4],a
  45  0113  0F00        	mov a,0
  45  0114  0080     E  	mov _builtin_holtek_mulsi3_2[5],a
  45  0115  0F00        	mov a,0
  45  0116  0080     E  	mov _builtin_holtek_mulsi3_2[6],a
  45  0117  0F00        	mov a,0
  45  0118  0080     E  	mov _builtin_holtek_mulsi3_2[7],a
  45  0119              	fcall _builtin_holtek_mulsi3
  45  0120  0700     E  	mov a,_builtin_holtek_mulsi3_2[8]
  45  0121  0080     E  	mov rd,a
  45  0122  0700     E  	mov a,_builtin_holtek_mulsi3_2[9]
  45  0123  0080     E  	mov re,a
  45  0124  0700     E  	mov a,_builtin_holtek_mulsi3_2[10]
  45  0125  0080     E  	mov rf,a
  45  0126  0700     E  	mov a,_builtin_holtek_mulsi3_2[11]
  45  0127  0080     E  	mov rg,a
  41  0128              #line 41 "c:\users\longshuangmin\desktop\worke_space\g-501\g-501\rtc.c"
  41  0128  0700     R  	mov a,_DateToSecond_2[8]
  41  0129  0300     E  	add a,rd
  41  012A  0080     R  	mov _DateToSecond_2[8],a
  41  012B  0700     R  	mov a,_DateToSecond_2[9]
  41  012C  1300     E  	adc a,re
  41  012D  0080     R  	mov _DateToSecond_2[9],a
  41  012E  0700     R  	mov a,_DateToSecond_2[10]
  41  012F  1300     E  	adc a,rf
  41  0130  0080     R  	mov _DateToSecond_2[10],a
  41  0131  0700     R  	mov a,_DateToSecond_2[11]
  41  0132  1300     E  	adc a,rg
  41  0133  0080     R  	mov _DateToSecond_2[11],a
  48  0134              #line 48 "c:\users\longshuangmin\desktop\worke_space\g-501\g-501\rtc.c"
文件：rtc.c        编译器版本 HGASM 0202 页次7

  48  0134  0700     R  	mov a,_DateToSecond_2[2]
  48  0135  0083        	mov mp,a
  48  0136  0700     R  	mov a,_DateToSecond_2[3]
  48  0137  0084        	mov sbp,a
  48  0138              	fcall _Crom2Prom
  48  013F  0080     E  	mov ra,a
  45  0140              #line 45 "c:\users\longshuangmin\desktop\worke_space\g-501\g-501\rtc.c"
  45  0140  0700     E  	mov a,ra
  45  0141  0380     R  	addm a,_DateToSecond_2[8]
  45  0142  1F05        	clr acc
  45  0143  1380     R  	adcm a,_DateToSecond_2[9]
  45  0144  1380     R  	adcm a,_DateToSecond_2[10]
  45  0145  1380     R  	adcm a,_DateToSecond_2[11]
  52  0146              #line 52 "c:\users\longshuangmin\desktop\worke_space\g-501\g-501\rtc.c"
  52  0146  0700     R  	mov a,_DateToSecond_2[4]
  52  0147  0300     R  	add a,_DateToSecond_2[8]
  52  0148  0080     E  	mov ra,a
  52  0149  0700     R  	mov a,_DateToSecond_2[5]
  52  014A  1300     R  	adc a,_DateToSecond_2[9]
  52  014B  0080     E  	mov rb,a
  52  014C  0700     R  	mov a,_DateToSecond_2[6]
  52  014D  1300     R  	adc a,_DateToSecond_2[10]
  52  014E  0080     E  	mov rc,a
  52  014F  0700     R  	mov a,_DateToSecond_2[7]
  52  0150  1300     R  	adc a,_DateToSecond_2[11]
  52  0151  0080     E  	mov rd,a
  52  0152  0003        	ret
  52  0153              _DateToSecond endp
  52  0153              #line 52 "c:\users\longshuangmin\desktop\worke_space\g-501\g-501\rtc.c"
  52  0153              #pragma debug scope 1 1
  52  0153              public _SecondToDate
  52  0153              #pragma debug scope 3 1
  62  0153              #line 62 "c:\users\longshuangmin\desktop\worke_space\g-501\g-501\rtc.c"
  62  0000              _SecondToDate .section 'code'
  62  0000              _SecondToDate proc
  62  0000              public _SecondToDate_2
  62  0000  000C[           local _SecondToDate_2 db 12 dup(?)	; 6,6
            00
            ]
  62  000C              #pragma debug variable 14 3 _SecondToDate_2+0 "Second"
  62  000C              #pragma debug pointer 43 8 3
  62  000C              #pragma debug pointer 43 8 3
  62  000C              #pragma debug variable 43 3 _SecondToDate_2+4 "buf"
  62  000C              #pragma debug variable 8 3 _SecondToDate_2+11 "Cbuf1"
  67  000C              #line 67 "c:\users\longshuangmin\desktop\worke_space\g-501\g-501\rtc.c"
  67  0000  1B20        	rrca intc
  67  0001  3420        	clr intc.0
  67  0002  0700     R  	mov a,_SecondToDate_2[0]
  67  0003  00D9        	mov mduwr0,a
  67  0004  0700     R  	mov a,_SecondToDate_2[1]
  67  0005  00DA        	mov mduwr1,a
  67  0006  0700     R  	mov a,_SecondToDate_2[2]
  67  0007  00DB        	mov mduwr2,a
  67  0008  0700     R  	mov a,_SecondToDate_2[3]
  67  0009  00DC        	mov mduwr3,a
  67  000A  0F10        	mov a,16
  67  000B  00DD        	mov mduwr4,a
  67  000C  0F0E        	mov a,14
  67  000D  00DE        	mov mduwr5,a
  67  000E  0F06        	mov a,6
文件：rtc.c        编译器版本 HGASM 0202 页次8

  67  000F              _LI1:
  67  000F  1785        	sdz acc
  67  0010  2800     R  	jmp _LI1
  67  0011  075D        	mov a,mduwr4
  67  0012  0080     E  	mov rd,a
  67  0013  075E        	mov a,mduwr5
  67  0014  0080     E  	mov re,a
  67  0015  1F00     E  	clr rf
  67  0016  1F00     E  	clr rg
  67  0017  3C0A        	sz c
  67  0018  3020        	set intc.0
  69  0019              #line 69 "c:\users\longshuangmin\desktop\worke_space\g-501\g-501\rtc.c"
  69  0019  1B20        	rrca intc
  69  001A  3420        	clr intc.0
  69  001B  0700     E  	mov a,rd
  69  001C  00D9        	mov mduwr0,a
  69  001D  0700     E  	mov a,re
  69  001E  00DA        	mov mduwr1,a
  69  001F  0F3C        	mov a,60
  69  0020  00DD        	mov mduwr4,a
  69  0021  0F00        	mov a,0
  69  0022  00DE        	mov mduwr5,a
  69  0023  0F06        	mov a,6
  69  0024              _LI2:
  69  0024  1785        	sdz acc
  69  0025  2800     R  	jmp _LI2
  69  0026  075D        	mov a,mduwr4
  69  0027  0080     E  	mov rb,a
  69  0028  075E        	mov a,mduwr5
  69  0029  0080     E  	mov rc,a
  69  002A  3C0A        	sz c
  69  002B  3020        	set intc.0
  69  002C  0700     R  	mov a,_SecondToDate_2[4]
  69  002D  0083        	mov mp,a
  69  002E  0700     R  	mov a,_SecondToDate_2[5]
  69  002F  0084        	mov sbp,a
  69  0030  0700     E  	mov a,rb
  69  0031  0082        	mov ir,a
  70  0032              #line 70 "c:\users\longshuangmin\desktop\worke_space\g-501\g-501\rtc.c"
  70  0032  1B20        	rrca intc
  70  0033  3420        	clr intc.0
  70  0034  0700     E  	mov a,rd
  70  0035  00D9        	mov mduwr0,a
  70  0036  0700     E  	mov a,re
  70  0037  00DA        	mov mduwr1,a
  70  0038  0F3C        	mov a,60
  70  0039  00DD        	mov mduwr4,a
  70  003A  0F00        	mov a,0
  70  003B  00DE        	mov mduwr5,a
  70  003C  0F06        	mov a,6
  70  003D              _LI3:
  70  003D  1785        	sdz acc
  70  003E  2800     R  	jmp _LI3
  70  003F  0759        	mov a,mduwr0
  70  0040  0080     E  	mov rd,a
  70  0041  075A        	mov a,mduwr1
  70  0042  0080     E  	mov re,a
  70  0043  3C0A        	sz c
  70  0044  3020        	set intc.0
  70  0045  0F01        	mov a,1
文件：rtc.c        编译器版本 HGASM 0202 页次9

  70  0046  0300     R  	add a,_SecondToDate_2[4]
  70  0047  0083        	mov mp,a
  70  0048  0F00        	mov a,0
  70  0049  1300     R  	adc a,_SecondToDate_2[5]
  70  004A  0084        	mov sbp,a
  70  004B  0700     E  	mov a,rd
  70  004C  0082        	mov ir,a
  72  004D              #line 72 "c:\users\longshuangmin\desktop\worke_space\g-501\g-501\rtc.c"
  72  004D  1B20        	rrca intc
  72  004E  3420        	clr intc.0
  72  004F  0700     R  	mov a,_SecondToDate_2[0]
  72  0050  00D9        	mov mduwr0,a
  72  0051  0700     R  	mov a,_SecondToDate_2[1]
  72  0052  00DA        	mov mduwr1,a
  72  0053  0700     R  	mov a,_SecondToDate_2[2]
  72  0054  00DB        	mov mduwr2,a
  72  0055  0700     R  	mov a,_SecondToDate_2[3]
  72  0056  00DC        	mov mduwr3,a
  72  0057  0F10        	mov a,16
  72  0058  00DD        	mov mduwr4,a
  72  0059  0F0E        	mov a,14
  72  005A  00DE        	mov mduwr5,a
  72  005B  0F06        	mov a,6
  72  005C              _LI4:
  72  005C  1785        	sdz acc
  72  005D  2800     R  	jmp _LI4
  72  005E  0759        	mov a,mduwr0
  72  005F  0080     E  	mov rd,a
  72  0060  075A        	mov a,mduwr1
  72  0061  0080     E  	mov re,a
  72  0062  075B        	mov a,mduwr2
  72  0063  0080     E  	mov rf,a
  72  0064  075C        	mov a,mduwr3
  72  0065  0080     E  	mov rg,a
  72  0066  3C0A        	sz c
  72  0067  3020        	set intc.0
  73  0068              #line 73 "c:\users\longshuangmin\desktop\worke_space\g-501\g-501\rtc.c"
  73  0068  1B20        	rrca intc
  73  0069  3420        	clr intc.0
  73  006A  0700     E  	mov a,rd
  73  006B  00D9        	mov mduwr0,a
  73  006C  0700     E  	mov a,re
  73  006D  00DA        	mov mduwr1,a
  73  006E  0700     E  	mov a,rf
  73  006F  00DB        	mov mduwr2,a
  73  0070  0700     E  	mov a,rg
  73  0071  00DC        	mov mduwr3,a
  73  0072  0F18        	mov a,24
  73  0073  00DD        	mov mduwr4,a
  73  0074  0F00        	mov a,0
  73  0075  00DE        	mov mduwr5,a
  73  0076  0F06        	mov a,6
  73  0077              _LI5:
  73  0077  1785        	sdz acc
  73  0078  2800     R  	jmp _LI5
  73  0079  075D        	mov a,mduwr4
  73  007A  0080     R  	mov _SecondToDate_2[6],a
  73  007B  075E        	mov a,mduwr5
  73  007C  0080     R  	mov _SecondToDate_2[7],a
  73  007D  1F00     R  	clr _SecondToDate_2[8]
文件：rtc.c        编译器版本 HGASM 0202 页次10

  73  007E  1F00     R  	clr _SecondToDate_2[9]
  73  007F  3C0A        	sz c
  73  0080  3020        	set intc.0
  73  0081  0F02        	mov a,2
  73  0082  0300     R  	add a,_SecondToDate_2[4]
  73  0083  0083        	mov mp,a
  73  0084  0F00        	mov a,0
  73  0085  1300     R  	adc a,_SecondToDate_2[5]
  73  0086  0084        	mov sbp,a
  73  0087  0700     R  	mov a,_SecondToDate_2[6]
  73  0088  0082        	mov ir,a
  75  0089              #line 75 "c:\users\longshuangmin\desktop\worke_space\g-501\g-501\rtc.c"
  75  0089  1B20        	rrca intc
  75  008A  3420        	clr intc.0
  75  008B  0700     E  	mov a,rd
  75  008C  00D9        	mov mduwr0,a
  75  008D  0700     E  	mov a,re
  75  008E  00DA        	mov mduwr1,a
  75  008F  0700     E  	mov a,rf
  75  0090  00DB        	mov mduwr2,a
  75  0091  0700     E  	mov a,rg
  75  0092  00DC        	mov mduwr3,a
  75  0093  0F18        	mov a,24
  75  0094  00DD        	mov mduwr4,a
  75  0095  0F00        	mov a,0
  75  0096  00DE        	mov mduwr5,a
  75  0097  0F06        	mov a,6
  75  0098              _LI6:
  75  0098  1785        	sdz acc
  75  0099  2800     R  	jmp _LI6
  75  009A  0759        	mov a,mduwr0
  75  009B  0080     E  	mov rd,a
  75  009C  075A        	mov a,mduwr1
  75  009D  0080     E  	mov re,a
  75  009E  075B        	mov a,mduwr2
  75  009F  0080     E  	mov rf,a
  75  00A0  075C        	mov a,mduwr3
  75  00A1  0080     E  	mov rg,a
  75  00A2  3C0A        	sz c
  75  00A3  3020        	set intc.0
  77  00A4              #line 77 "c:\users\longshuangmin\desktop\worke_space\g-501\g-501\rtc.c"
  77  00A4  0F05        	mov a,5
  77  00A5  0300     R  	add a,_SecondToDate_2[4]
  77  00A6  0083        	mov mp,a
  77  00A7  0F00        	mov a,0
  77  00A8  1300     R  	adc a,_SecondToDate_2[5]
  77  00A9  0084        	mov sbp,a
  77  00AA  0F00        	mov a,0
  77  00AB  0082        	mov ir,a
  77  00AC              _L11:
  77  00AC  0700     R  	mov a,_SecondToDate_2[4]
  77  00AD  0080     R  	mov _SecondToDate_2[6],a
  77  00AE  0700     R  	mov a,_SecondToDate_2[5]
  77  00AF  0080     R  	mov _SecondToDate_2[7],a
  77  00B0              #line 77 "c:\users\longshuangmin\desktop\worke_space\g-501\g-501\rtc.c"
  77  00B0  0F6D        	mov a,109
  77  00B1  0200     E  	sub a,rd
  77  00B2  0F01        	mov a,1
  77  00B3  1200     E  	sbc a,re
  77  00B4  0F00        	mov a,0
文件：rtc.c        编译器版本 HGASM 0202 页次11

  77  00B5  1200     E  	sbc a,rf
  77  00B6  0F00        	mov a,0
  77  00B7  1200     E  	sbc a,rg
  77  00B8  3C0A        	sz c
  77  00B9  2800     R  	jmp _L23
  80  00BA              #line 80 "c:\users\longshuangmin\desktop\worke_space\g-501\g-501\rtc.c"
  80  00BA  0F05        	mov a,5
  80  00BB  0300     R  	add a,_SecondToDate_2[6]
  80  00BC  0083        	mov mp,a
  80  00BD  0F00        	mov a,0
  80  00BE  1300     R  	adc a,_SecondToDate_2[7]
  80  00BF  0084        	mov sbp,a
  80  00C0              	fcall _Crom2Prom
  80  00C7  0080     E  	mov ra,a
  80  00C8  0700     E  	mov a,ra
  80  00C9  0E03        	and a,3
  80  00CA  0080     E  	mov rb,a
  81  00CB              #line 81 "c:\users\longshuangmin\desktop\worke_space\g-501\g-501\rtc.c"
  81  00CB  1E00     E  	snz rb
  81  00CC  2800     R  	jmp _L12
  79  00CD              #line 79 "c:\users\longshuangmin\desktop\worke_space\g-501\g-501\rtc.c"
  79  00CD  0F93        	mov a,147
  79  00CE  0380     E  	addm a,rd
  79  00CF  0FFE        	mov a,254
  79  00D0  1380     E  	adcm a,re
  79  00D1  0FFF        	mov a,255
  79  00D2  1380     E  	adcm a,rf
  79  00D3  1380     E  	adcm a,rg
  79  00D4  2800     R  	jmp _L13
  79  00D5              _L12:
  82  00D5              #line 82 "c:\users\longshuangmin\desktop\worke_space\g-501\g-501\rtc.c"
  82  00D5  0F92        	mov a,146
  82  00D6  0380     E  	addm a,rd
  82  00D7  0FFE        	mov a,254
  82  00D8  1380     E  	adcm a,re
  82  00D9  0FFF        	mov a,255
  82  00DA  1380     E  	adcm a,rf
  82  00DB  1380     E  	adcm a,rg
  82  00DC              _L13:
  77  00DC              #line 77 "c:\users\longshuangmin\desktop\worke_space\g-501\g-501\rtc.c"
  77  00DC  1480     E  	inc ra
  77  00DD  0F05        	mov a,5
  77  00DE  0300     R  	add a,_SecondToDate_2[6]
  77  00DF  0083        	mov mp,a
  77  00E0  0F00        	mov a,0
  77  00E1  1300     R  	adc a,_SecondToDate_2[7]
  77  00E2  0084        	mov sbp,a
  77  00E3  0700     E  	mov a,ra
  77  00E4  0082        	mov ir,a
  77  00E5  2800     R  	jmp _L11
  77  00E6              _L23:
  85  00E6              #line 85 "c:\users\longshuangmin\desktop\worke_space\g-501\g-501\rtc.c"
  85  00E6  0700     E  	mov a,rd
  85  00E7  0080     E  	mov rb,a
  85  00E8  0700     E  	mov a,re
  85  00E9  0080     E  	mov rc,a
  87  00EA              #line 87 "c:\users\longshuangmin\desktop\worke_space\g-501\g-501\rtc.c"
  87  00EA  0F05        	mov a,5
  87  00EB  0300     R  	add a,_SecondToDate_2[6]
  87  00EC  0083        	mov mp,a
文件：rtc.c        编译器版本 HGASM 0202 页次12

  87  00ED  0F00        	mov a,0
  87  00EE  1300     R  	adc a,_SecondToDate_2[7]
  87  00EF  0084        	mov sbp,a
  87  00F0              	fcall _Crom2Prom
  87  00F7  0080     R  	mov _SecondToDate_2[10],a
  87  00F8  0700     R  	mov a,_SecondToDate_2[10]
  87  00F9  0E03        	and a,3
  87  00FA  0080     R  	mov _SecondToDate_2[11],a
  89  00FB              #line 89 "c:\users\longshuangmin\desktop\worke_space\g-501\g-501\rtc.c"
  89  00FB  0F04        	mov a,4
  89  00FC  0300     R  	add a,_SecondToDate_2[6]
  89  00FD  0083        	mov mp,a
  89  00FE  0F00        	mov a,0
  89  00FF  1300     R  	adc a,_SecondToDate_2[7]
  89  0100  0084        	mov sbp,a
  89  0101  0F01        	mov a,1
  89  0102  0082        	mov ir,a
  86  0103              #line 86 "c:\users\longshuangmin\desktop\worke_space\g-501\g-501\rtc.c"
  86  0103  0F01        	mov a,1
  86  0104  0080     E  	mov rh,a
  88  0105              #line 88 "c:\users\longshuangmin\desktop\worke_space\g-501\g-501\rtc.c"
  88  0105  0F1F        	mov a,31
  88  0106  0080     E  	mov ra,a
  88  0107              _L15:
  89  0107              #line 89 "c:\users\longshuangmin\desktop\worke_space\g-501\g-501\rtc.c"
  89  0107  0700     E  	mov a,ra
  89  0108  0080     E  	mov rf,a
  89  0109  1F00     E  	clr rg
  89  010A  0700     R  	mov a,_SecondToDate_2[4]
  89  010B  0080     E  	mov rd,a
  89  010C  0700     R  	mov a,_SecondToDate_2[5]
  89  010D  0080     E  	mov re,a
  89  010E  0700     E  	mov a,rf
  89  010F  0200     E  	sub a,rb
  89  0110  0700     E  	mov a,rg
  89  0111  1200     E  	sbc a,rc
  89  0112  3C0A        	sz c
  89  0113  2800     R  	jmp _L24
  93  0114              #line 93 "c:\users\longshuangmin\desktop\worke_space\g-501\g-501\rtc.c"
  93  0114  0F04        	mov a,4
  93  0115  0300     E  	add a,rd
  93  0116  0083        	mov mp,a
  93  0117  0F00        	mov a,0
  93  0118  1300     E  	adc a,re
  93  0119  0084        	mov sbp,a
  93  011A              	fcall _Crom2Prom
  93  0121  0080     E  	mov ra,a
  91  0122              #line 91 "c:\users\longshuangmin\desktop\worke_space\g-501\g-501\rtc.c"
  91  0122  1080     R  	sz _SecondToDate_2[11]
  91  0123  2800     R  	jmp _L16
  93  0124              #line 93 "c:\users\longshuangmin\desktop\worke_space\g-501\g-501\rtc.c"
  93  0124  0F00     E  	mov a,low (offset _Month_TABLE2-1)
  93  0125  0300     E  	add a,ra
  93  0126  0083        	mov mp,a
  93  0127  0F00     E  	mov a,high (offset _Month_TABLE2-1)
  93  0128  1F04        	clr sbp
  93  0129  1384        	adcm a,sbp
  93  012A              	fcall _Crom2Prom
  93  0131  0080     E  	mov ra,a
  93  0132  0700     E  	mov a,rb
文件：rtc.c        编译器版本 HGASM 0202 页次13

  93  0133  0200     E  	sub a,ra
  93  0134  0080     E  	mov rb,a
  93  0135  0700     E  	mov a,rc
  93  0136  1F00     E  	clr rc
  93  0137  1280     E  	sbcm a,rc
  94  0138              #line 94 "c:\users\longshuangmin\desktop\worke_space\g-501\g-501\rtc.c"
  94  0138  0F00     E  	mov a,low offset _Month_TABLE2
  94  0139  0300     E  	add a,rh
  94  013A  0083        	mov mp,a
  94  013B  0F00     E  	mov a,high offset _Month_TABLE2
  94  013C  1F04        	clr sbp
  94  013D  1384        	adcm a,sbp
  94  013E  2800     R  	jmp _L22
  94  013F              _L16:
  98  013F              #line 98 "c:\users\longshuangmin\desktop\worke_space\g-501\g-501\rtc.c"
  98  013F  0F00     E  	mov a,low (offset _Month_TABLE1-1)
  98  0140  0300     E  	add a,ra
  98  0141  0083        	mov mp,a
  98  0142  0F00     E  	mov a,high (offset _Month_TABLE1-1)
  98  0143  1F04        	clr sbp
  98  0144  1384        	adcm a,sbp
  98  0145              	fcall _Crom2Prom
  98  014C  0080     E  	mov ra,a
  98  014D  0700     E  	mov a,rb
  98  014E  0200     E  	sub a,ra
  98  014F  0080     E  	mov rb,a
  98  0150  0700     E  	mov a,rc
  98  0151  1F00     E  	clr rc
  98  0152  1280     E  	sbcm a,rc
  99  0153              #line 99 "c:\users\longshuangmin\desktop\worke_space\g-501\g-501\rtc.c"
  99  0153  0F00     E  	mov a,low offset _Month_TABLE1
  99  0154  0300     E  	add a,rh
  99  0155  0083        	mov mp,a
  99  0156  0F00     E  	mov a,high offset _Month_TABLE1
  99  0157  1F04        	clr sbp
  99  0158  1384        	adcm a,sbp
  99  0159              _L22:
  99  0159              	fcall _Crom2Prom
  99  0160  0080     E  	mov ra,a
 102  0161              #line 102 "c:\users\longshuangmin\desktop\worke_space\g-501\g-501\rtc.c"
 102  0161  1480     E  	inc rh
  89  0162              #line 89 "c:\users\longshuangmin\desktop\worke_space\g-501\g-501\rtc.c"
  89  0162  0F04        	mov a,4
  89  0163  0300     E  	add a,rd
  89  0164  0083        	mov mp,a
  89  0165  0F00        	mov a,0
  89  0166  1300     E  	adc a,re
  89  0167  0084        	mov sbp,a
  89  0168              	fcall _Crom2Prom
  89  016F  0080     R  	mov _SecondToDate_2[6],a
  89  0170  1400     R  	inca _SecondToDate_2[6]
  89  0171  0080     E  	mov rd,a
  89  0172  0700     E  	mov a,rd
  89  0173  0082        	mov ir,a
  89  0174  2800     R  	jmp _L15
  89  0175              _L24:
 106  0175              #line 106 "c:\users\longshuangmin\desktop\worke_space\g-501\g-501\rtc.c"
 106  0175  1480     E  	inc rb
 106  0176  0F03        	mov a,3
 106  0177  0300     E  	add a,rd
文件：rtc.c        编译器版本 HGASM 0202 页次14

 106  0178  0083        	mov mp,a
 106  0179  0F00        	mov a,0
 106  017A  1300     E  	adc a,re
 106  017B  0084        	mov sbp,a
 106  017C  0700     E  	mov a,rb
 106  017D  0082        	mov ir,a
 109  017E              #line 109 "c:\users\longshuangmin\desktop\worke_space\g-501\g-501\rtc.c"
 109  017E  0700     E  	mov a,ra
 109  017F  0200     E  	sub a,rb
 109  0180  3C0A        	sz c
 109  0181  2800     R  	jmp _L10
 111  0182              #line 111 "c:\users\longshuangmin\desktop\worke_space\g-501\g-501\rtc.c"
 111  0182  0F03        	mov a,3
 111  0183  0300     R  	add a,_SecondToDate_2[4]
 111  0184  0083        	mov mp,a
 111  0185  0F00        	mov a,0
 111  0186  1300     R  	adc a,_SecondToDate_2[5]
 111  0187  0084        	mov sbp,a
 111  0188  0F01        	mov a,1
 111  0189  0082        	mov ir,a
 112  018A              #line 112 "c:\users\longshuangmin\desktop\worke_space\g-501\g-501\rtc.c"
 112  018A  0F04        	mov a,4
 112  018B  0300     R  	add a,_SecondToDate_2[4]
 112  018C  0083        	mov mp,a
 112  018D  0F00        	mov a,0
 112  018E  1300     R  	adc a,_SecondToDate_2[5]
 112  018F  0084        	mov sbp,a
 112  0190              	fcall _Crom2Prom
 112  0197  0080     R  	mov _SecondToDate_2[6],a
 112  0198  1400     R  	inca _SecondToDate_2[6]
 112  0199  0080     E  	mov ra,a
 112  019A  0700     E  	mov a,ra
 112  019B  0082        	mov ir,a
 113  019C              #line 113 "c:\users\longshuangmin\desktop\worke_space\g-501\g-501\rtc.c"
 113  019C  0F0C        	mov a,12
 113  019D  0200     E  	sub a,ra
 113  019E  3C0A        	sz c
 113  019F  2800     R  	jmp _L10
 115  01A0              #line 115 "c:\users\longshuangmin\desktop\worke_space\g-501\g-501\rtc.c"
 115  01A0  1400     R  	inca _SecondToDate_2[10]
 115  01A1  0080     E  	mov ra,a
 115  01A2  0F05        	mov a,5
 115  01A3  0300     R  	add a,_SecondToDate_2[4]
 115  01A4  0083        	mov mp,a
 115  01A5  0F00        	mov a,0
 115  01A6  1300     R  	adc a,_SecondToDate_2[5]
 115  01A7  0084        	mov sbp,a
 115  01A8  0700     E  	mov a,ra
 115  01A9  0082        	mov ir,a
 116  01AA              #line 116 "c:\users\longshuangmin\desktop\worke_space\g-501\g-501\rtc.c"
 116  01AA  0F04        	mov a,4
 116  01AB  0300     R  	add a,_SecondToDate_2[4]
 116  01AC  0083        	mov mp,a
 116  01AD  0F00        	mov a,0
 116  01AE  1300     R  	adc a,_SecondToDate_2[5]
 116  01AF  0084        	mov sbp,a
 116  01B0  0F01        	mov a,1
 116  01B1  0082        	mov ir,a
 116  01B2              _L10:
 116  01B2  0003        	ret
文件：rtc.c        编译器版本 HGASM 0202 页次15

 116  01B3              _SecondToDate endp
 116  01B3              #line 116 "c:\users\longshuangmin\desktop\worke_space\g-501\g-501\rtc.c"
 116  01B3              #pragma debug scope 1 1
 116  01B3              
 116  01B3              ; output external variables
 116  01B3              extern _Month_TABLE1:near
 116  01B3              extern _Month_TABLE2:near
 116  01B3              extern _builtin_holtek_mulsi3_2:byte
 116  01B3              extern _builtin_holtek_mulsi3:near
 116  01B3              extern _builtin_holtek_udivmodsi4_2:byte
 116  01B3              extern _builtin_holtek_udivmodsi4:near
 116  01B3              
 116  01B3              ; 
 116  01B3              ; Generated by holtek-gcc v3.19, Fri May 23 10:39:49 2025
 116  01B3              ; Rebuild 718
 116  01B3              ; end of file


        0 Errors, 0