文件：scankey.c    编译器版本 HGASM 0202 页次1


   1  0000              ; Generated by holtek-gcc v3.19, Fri May 23 10:39:41 2025
   2  0000              ; 
   3  0000              ; Configuration:
   4  0000              ;       with long instruction
   5  0000              ;       Multi-ROM, Multi-RAM
   6  0000              ;       bits_per_rom_unit:16
   7  0000              ;       with mp1
   8  0000              ;       with tbhp, address(0x9)
   9  0000              ;          Use tabrd-const
  10  0000              ;       
  11  0000              ; SFR address of long-instruction arch:
  12  0000              ;    mp0 = -1,1,0
  13  0000              ;    mp1 = 4,3,2
  14  0000              ;    mp2 = 14,13,12
  15  0000              ;    tbp = 9,7,8
  16  0000              ;    acc = 5
  17  0000              ;    pcl = 6
  18  0000              ;    status = 10
  19  0000              ;    bp = 11
  20  0000              ;    intc = 32
  21  0000              ;       
  22  0000              ;       
  23  0000              ; use 'tabrdc' instead of 'tabrd'
  24  0000              ;       
  25  0000              
  26  0000              #pragma translator "holtek-gcc 4.6.4" "3.19" "build 20130711"
  27  0000              ; Rebuild 718
  28  0000              
  29  0000              ir equ [2]
  30  0000              mp equ [3]
  31  0000              sbp equ [4]
  32  0000              acc equ [5]
  33  0000              bp equ [11]
  34  0000              tblp equ [7]
  35  0000              tbhp equ [9]
  36  0000              status equ [10]
  37  0000              c equ [10].0
  38  0000              ac equ [10].1
  39  0000              z equ [10].2
  40  0000              ov equ [10].3
  41  0000              cz equ [10].6
  42  0000              sc equ [10].7
  43  0000              intc equ [32]
  44  0000              mduwr0 equ [59h]
  45  0000              mduwr1 equ [5ah]
  46  0000              mduwr2 equ [5bh]
  47  0000              mduwr3 equ [5ch]
  48  0000              mduwr4 equ [5dh]
  49  0000              mduwr5 equ [5eh]
  50  0000              mduwrctrl equ [5fh]
  51  0000              
  52  0000              extern ra:byte
  53  0000              extern rb:byte
  54  0000              extern rc:byte
  55  0000              extern rd:byte
  56  0000              extern re:byte
  57  0000              extern rf:byte
  58  0000              extern rg:byte
  59  0000              extern rh:byte
文件：scankey.ASM  编译器版本 HGASM 0202 页次2

  60  0000              extern _Crom2Prom:near
  61  0000              extern _Crom2PromNext:near
  62  0000              
  63  0000              RAMBANK 0 @BITDATASEC, @BITDATASEC1
  64  0000              @HCCINIT	.section 'data'
  65  0000              @HCCINIT0	.section 'data'
  66  0000              @BITDATASEC	 .section 'data'
  67  0000              @BITDATASEC1	 .section 'data'
  68  0000              
  69  0000              #pragma debug scope 1 1
  70  0000              	extern __DELAY3:near
  71  0000              	extern __DELAYX3:near
  72  0000              	extern __DELAYX6:near
  73  0000              	extern __DELAYY5:near
  74  0000              	extern __DELAYY3:near
  75  0000              	extern _builtin_holtek_delay_2:byte
  76  0000              ___pa equ [20]
  77  0000              _twokey_time equ [5260]
  78  0000              _twokey equ [5259]
  79  0000              _memkey_time equ [3713]
  80  0000              _memkey equ [3712]
  81  0000              _setkey_time equ [3716]
  82  0000              _setkey equ [3715]
  83  0000              ___pb equ [36]
  84  0000              _setkeydown_time equ [5253]
  85  0000              _setkeydown equ [5252]
  86  0000              public _ScanKey
  87  0000              #pragma debug scope 2 1

   6  0000              #line 6 "c:\users\longshuangmin\desktop\worke_space\g-501\g-501\scankey.c"
   6  0000              _ScanKey .section 'code'
   6  0000              _ScanKey proc
   7  0000              #line 7 "c:\users\longshuangmin\desktop\worke_space\g-501\g-501\scankey.c"
   7  0000  3E94        	sz [20].5
   7  0001  2800     R  	jmp _L2
   7  0002              #line 7 "c:\users\longshuangmin\desktop\worke_space\g-501\g-501\scankey.c"
   7  0002  3F14        	sz [20].6
   7  0003  2800     R  	jmp _L2
   9  0004              #line 9 "c:\users\longshuangmin\desktop\worke_space\g-501\g-501\scankey.c"
   9  0004  0F2B        	mov a,43
   9  0005  C20C 0014   	lsub a,[5260]
   9  0007  0F01        	mov a,1
   9  0008  D20D 0014   	lsbc a,[5261]
   9  000A  3F8A        	sz sc
   9  000B  2800     R  	jmp _L1
  11  000C              #line 11 "c:\users\longshuangmin\desktop\worke_space\g-501\g-501\scankey.c"
  11  000C  D48C 0014   	linc [5260]
  11  000E  3D0A        	sz z
  11  000F  D48D 0014   	linc [5261]
  12  0011              #line 12 "c:\users\longshuangmin\desktop\worke_space\g-501\g-501\scankey.c"
  12  0011  C70C 0014   	lmov a,[5260]
  12  0013  0C64        	xor a,100
  12  0014  C50D 0014   	lor a,[5261]
  12  0016  390A        	snz z
  12  0017  2800     R  	jmp _L1
  13  0018              #line 13 "c:\users\longshuangmin\desktop\worke_space\g-501\g-501\scankey.c"
  13  0018  0F02        	mov a,2
  13  0019  C08B 0014   	lmov [5259],a
  13  001B  2800     R  	jmp _L1
  13  001C              _L2:
文件：scankey.c    编译器版本 HGASM 0202 页次3

  19  001C              #line 19 "c:\users\longshuangmin\desktop\worke_space\g-501\g-501\scankey.c"
  19  001C  FF8D 0014   	lsz [5261].7
  19  001E  2800     R  	jmp _L6
  19  001F  C70C 0014   	lmov a,[5260]
  19  0021  C50D 0014   	lor a,[5261]
  19  0023  3D0A        	sz z
  19  0024  2800     R  	jmp _L6
  19  0025  0F63        	mov a,99
  19  0026  C20C 0014   	lsub a,[5260]
  19  0028  0F00        	mov a,0
  19  0029  D20D 0014   	lsbc a,[5261]
  19  002B  3F8A        	sz sc
  19  002C  2800     R  	jmp _L6
  21  002D              #line 21 "c:\users\longshuangmin\desktop\worke_space\g-501\g-501\scankey.c"
  21  002D  0F01        	mov a,1
  21  002E  C08B 0014   	lmov [5259],a
  22  0030              #line 22 "c:\users\longshuangmin\desktop\worke_space\g-501\g-501\scankey.c"
  22  0030  DF0C 0014   	lclr [5260]
  22  0032  DF0D 0014   	lclr [5261]
  23  0034              #line 23 "c:\users\longshuangmin\desktop\worke_space\g-501\g-501\scankey.c"
  23  0034  2800     R  	jmp _L1
  23  0035              _L6:
  25  0035              #line 25 "c:\users\longshuangmin\desktop\worke_space\g-501\g-501\scankey.c"
  25  0035  DF0C 0014   	lclr [5260]
  25  0037  DF0D 0014   	lclr [5261]
  28  0039              #line 28 "c:\users\longshuangmin\desktop\worke_space\g-501\g-501\scankey.c"
  28  0039  3F14        	sz [20].6
  28  003A  2800     R  	jmp _L7
  30  003B              #line 30 "c:\users\longshuangmin\desktop\worke_space\g-501\g-501\scankey.c"
  30  003B  0F2B        	mov a,43
  30  003C  C201 000E   	lsub a,[3713]
  30  003E  0F01        	mov a,1
  30  003F  D202 000E   	lsbc a,[3714]
  30  0041  380A        	snz c
  30  0042  2800     R  	jmp _L9
  32  0043              #line 32 "c:\users\longshuangmin\desktop\worke_space\g-501\g-501\scankey.c"
  32  0043  D481 000E   	linc [3713]
  32  0045  3D0A        	sz z
  32  0046  D482 000E   	linc [3714]
  34  0048              #line 34 "c:\users\longshuangmin\desktop\worke_space\g-501\g-501\scankey.c"
  34  0048  C701 000E   	lmov a,[3713]
  34  004A  0C64        	xor a,100
  34  004B  C502 000E   	lor a,[3714]
  34  004D  390A        	snz z
  34  004E  2800     R  	jmp _L10
  36  004F              #line 36 "c:\users\longshuangmin\desktop\worke_space\g-501\g-501\scankey.c"
  36  004F  0F02        	mov a,2
  36  0050  C080 000E   	lmov [3712],a
  36  0052  2800     R  	jmp _L9
  36  0053              _L10:
  38  0053              #line 38 "c:\users\longshuangmin\desktop\worke_space\g-501\g-501\scankey.c"
  38  0053  0F73        	mov a,115
  38  0054  C201 000E   	lsub a,[3713]
  38  0056  0F00        	mov a,0
  38  0057  D202 000E   	lsbc a,[3714]
  38  0059  3C0A        	sz c
  38  005A  2800     R  	jmp _L9
  40  005B              #line 40 "c:\users\longshuangmin\desktop\worke_space\g-501\g-501\scankey.c"
  40  005B  0F03        	mov a,3
  40  005C  C080 000E   	lmov [3712],a
文件：scankey.c    编译器版本 HGASM 0202 页次4

  41  005E              #line 41 "c:\users\longshuangmin\desktop\worke_space\g-501\g-501\scankey.c"
  41  005E  0F64        	mov a,100
  41  005F  C081 000E   	lmov [3713],a
  41  0061  DF02 000E   	lclr [3714]
  41  0063  2800     R  	jmp _L9
  41  0064              _L7:
  49  0064              #line 49 "c:\users\longshuangmin\desktop\worke_space\g-501\g-501\scankey.c"
  49  0064  C701 000E   	lmov a,[3713]
  49  0066  C502 000E   	lor a,[3714]
  49  0068  3D0A        	sz z
  49  0069  2800     R  	jmp _L12
  49  006A  0F63        	mov a,99
  49  006B  C201 000E   	lsub a,[3713]
  49  006D  0F00        	mov a,0
  49  006E  D202 000E   	lsbc a,[3714]
  49  0070  380A        	snz c
  49  0071  2800     R  	jmp _L12
  50  0072              #line 50 "c:\users\longshuangmin\desktop\worke_space\g-501\g-501\scankey.c"
  50  0072  0F01        	mov a,1
  50  0073  C080 000E   	lmov [3712],a
  50  0075              _L12:
  51  0075              #line 51 "c:\users\longshuangmin\desktop\worke_space\g-501\g-501\scankey.c"
  51  0075  DF01 000E   	lclr [3713]
  51  0077  DF02 000E   	lclr [3714]
  51  0079              _L9:
  55  0079              #line 55 "c:\users\longshuangmin\desktop\worke_space\g-501\g-501\scankey.c"
  55  0079  3E94        	sz [20].5
  55  007A  2800     R  	jmp _L13
  57  007B              #line 57 "c:\users\longshuangmin\desktop\worke_space\g-501\g-501\scankey.c"
  57  007B  0F2B        	mov a,43
  57  007C  C204 000E   	lsub a,[3716]
  57  007E  0F01        	mov a,1
  57  007F  D205 000E   	lsbc a,[3717]
  57  0081  380A        	snz c
  57  0082  2800     R  	jmp _L15
  59  0083              #line 59 "c:\users\longshuangmin\desktop\worke_space\g-501\g-501\scankey.c"
  59  0083  D484 000E   	linc [3716]
  59  0085  3D0A        	sz z
  59  0086  D485 000E   	linc [3717]
  60  0088              #line 60 "c:\users\longshuangmin\desktop\worke_space\g-501\g-501\scankey.c"
  60  0088  C704 000E   	lmov a,[3716]
  60  008A  0C64        	xor a,100
  60  008B  C505 000E   	lor a,[3717]
  60  008D  390A        	snz z
  60  008E  2800     R  	jmp _L15
  61  008F              #line 61 "c:\users\longshuangmin\desktop\worke_space\g-501\g-501\scankey.c"
  61  008F  0F02        	mov a,2
  61  0090  C083 000E   	lmov [3715],a
  61  0092  2800     R  	jmp _L15
  61  0093              _L13:
  67  0093              #line 67 "c:\users\longshuangmin\desktop\worke_space\g-501\g-501\scankey.c"
  67  0093  C704 000E   	lmov a,[3716]
  67  0095  C505 000E   	lor a,[3717]
  67  0097  3D0A        	sz z
  67  0098  2800     R  	jmp _L17
  67  0099  0F63        	mov a,99
  67  009A  C204 000E   	lsub a,[3716]
  67  009C  0F00        	mov a,0
  67  009D  D205 000E   	lsbc a,[3717]
  67  009F  380A        	snz c
文件：scankey.c    编译器版本 HGASM 0202 页次5

  67  00A0  2800     R  	jmp _L17
  68  00A1              #line 68 "c:\users\longshuangmin\desktop\worke_space\g-501\g-501\scankey.c"
  68  00A1  0F01        	mov a,1
  68  00A2  C083 000E   	lmov [3715],a
  68  00A4              _L17:
  69  00A4              #line 69 "c:\users\longshuangmin\desktop\worke_space\g-501\g-501\scankey.c"
  69  00A4  DF04 000E   	lclr [3716]
  69  00A6  DF05 000E   	lclr [3717]
  69  00A8              _L15:
  73  00A8              #line 73 "c:\users\longshuangmin\desktop\worke_space\g-501\g-501\scankey.c"
  73  00A8  3DA4        	sz [36].3
  73  00A9  2800     R  	jmp _L18
  75  00AA              #line 75 "c:\users\longshuangmin\desktop\worke_space\g-501\g-501\scankey.c"
  75  00AA  0F2B        	mov a,43
  75  00AB  C205 0014   	lsub a,[5253]
  75  00AD  0F01        	mov a,1
  75  00AE  D206 0014   	lsbc a,[5254]
  75  00B0  380A        	snz c
  75  00B1  2800     R  	jmp _L1
  77  00B2              #line 77 "c:\users\longshuangmin\desktop\worke_space\g-501\g-501\scankey.c"
  77  00B2  D485 0014   	linc [5253]
  77  00B4  3D0A        	sz z
  77  00B5  D486 0014   	linc [5254]
  78  00B7              #line 78 "c:\users\longshuangmin\desktop\worke_space\g-501\g-501\scankey.c"
  78  00B7  C705 0014   	lmov a,[5253]
  78  00B9  0C64        	xor a,100
  78  00BA  C506 0014   	lor a,[5254]
  78  00BC  390A        	snz z
  78  00BD  2800     R  	jmp _L1
  79  00BE              #line 79 "c:\users\longshuangmin\desktop\worke_space\g-501\g-501\scankey.c"
  79  00BE  0F02        	mov a,2
  79  00BF  C084 0014   	lmov [5252],a
  79  00C1  2800     R  	jmp _L1
  79  00C2              _L18:
  85  00C2              #line 85 "c:\users\longshuangmin\desktop\worke_space\g-501\g-501\scankey.c"
  85  00C2  C705 0014   	lmov a,[5253]
  85  00C4  C506 0014   	lor a,[5254]
  85  00C6  3D0A        	sz z
  85  00C7  2800     R  	jmp _L19
  85  00C8  0F63        	mov a,99
  85  00C9  C205 0014   	lsub a,[5253]
  85  00CB  0F00        	mov a,0
  85  00CC  D206 0014   	lsbc a,[5254]
  85  00CE  380A        	snz c
  85  00CF  2800     R  	jmp _L19
  86  00D0              #line 86 "c:\users\longshuangmin\desktop\worke_space\g-501\g-501\scankey.c"
  86  00D0  0F01        	mov a,1
  86  00D1  C084 0014   	lmov [5252],a
  86  00D3              _L19:
  87  00D3              #line 87 "c:\users\longshuangmin\desktop\worke_space\g-501\g-501\scankey.c"
  87  00D3  DF05 0014   	lclr [5253]
  87  00D5  DF06 0014   	lclr [5254]
  87  00D7              _L1:
  87  00D7  0003        	ret
  87  00D8              _ScanKey endp
  87  00D8              #line 87 "c:\users\longshuangmin\desktop\worke_space\g-501\g-501\scankey.c"
  87  00D8              #pragma debug scope 1 1
  87  00D8              #pragma debug struct_end
  87  00D8              #pragma debug struct_end
  87  00D8              #pragma debug union_end
文件：scankey.c    编译器版本 HGASM 0202 页次6

  87  00D8              #pragma debug union_end
  87  00D8              #pragma debug variable 43 1 ___pa "__pa" 1
  87  00D8              #pragma debug struct_end
  87  00D8              #pragma debug struct_end
  87  00D8              #pragma debug union_end
  87  00D8              #pragma debug union_end
  87  00D8              #pragma debug variable 45 1 ___pb "__pb" 1
  87  00D8              #pragma debug variable 8 1 _memkey "memkey" 1
  87  00D8              #pragma debug variable 12 1 _memkey_time "memkey_time" 2
  87  00D8              #pragma debug variable 8 1 _setkey "setkey" 1
  87  00D8              #pragma debug variable 12 1 _setkey_time "setkey_time" 2
  87  00D8              #pragma debug variable 8 1 _setkeydown "setkeydown" 1
  87  00D8              #pragma debug variable 12 1 _setkeydown_time "setkeydown_time" 2
  87  00D8              #pragma debug variable 7 1 _twokey "twokey" 1
  87  00D8              #pragma debug variable 11 1 _twokey_time "twokey_time" 2
  87  00D8              
  87  00D8              ; 
  87  00D8              ; Generated by holtek-gcc v3.19, Fri May 23 10:39:41 2025
  87  00D8              ; Rebuild 718
  87  00D8              ; end of file


        0 Errors, 0