文件：sin.c        编译器版本 HGASM 0202 页次1


   1  0000              ; Generated by holtek-gcc v3.19, Fri May 23 10:39:41 2025
   2  0000              ; 
   3  0000              ; Configuration:
   4  0000              ;       with long instruction
   5  0000              ;       Multi-ROM, Multi-RAM
   6  0000              ;       bits_per_rom_unit:16
   7  0000              ;       with mp1
   8  0000              ;       with tbhp, address(0x9)
   9  0000              ;          Use tabrd-const
  10  0000              ;       
  11  0000              ; SFR address of long-instruction arch:
  12  0000              ;    mp0 = -1,1,0
  13  0000              ;    mp1 = 4,3,2
  14  0000              ;    mp2 = 14,13,12
  15  0000              ;    tbp = 9,7,8
  16  0000              ;    acc = 5
  17  0000              ;    pcl = 6
  18  0000              ;    status = 10
  19  0000              ;    bp = 11
  20  0000              ;    intc = 32
  21  0000              ;       
  22  0000              ;       
  23  0000              ; use 'tabrdc' instead of 'tabrd'
  24  0000              ;       
  25  0000              
  26  0000              #pragma translator "holtek-gcc 4.6.4" "3.19" "build 20130711"
  27  0000              ; Rebuild 718
  28  0000              
  29  0000              ir equ [2]
  30  0000              mp equ [3]
  31  0000              sbp equ [4]
  32  0000              acc equ [5]
  33  0000              bp equ [11]
  34  0000              tblp equ [7]
  35  0000              tbhp equ [9]
  36  0000              status equ [10]
  37  0000              c equ [10].0
  38  0000              ac equ [10].1
  39  0000              z equ [10].2
  40  0000              ov equ [10].3
  41  0000              cz equ [10].6
  42  0000              sc equ [10].7
  43  0000              intc equ [32]
  44  0000              mduwr0 equ [59h]
  45  0000              mduwr1 equ [5ah]
  46  0000              mduwr2 equ [5bh]
  47  0000              mduwr3 equ [5ch]
  48  0000              mduwr4 equ [5dh]
  49  0000              mduwr5 equ [5eh]
  50  0000              mduwrctrl equ [5fh]
  51  0000              
  52  0000              extern ra:byte
  53  0000              extern rb:byte
  54  0000              extern rc:byte
  55  0000              extern rd:byte
  56  0000              extern re:byte
  57  0000              extern rf:byte
  58  0000              extern rg:byte
  59  0000              extern rh:byte
文件：sin.ASM      编译器版本 HGASM 0202 页次2

  60  0000              extern _Crom2Prom:near
  61  0000              extern _Crom2PromNext:near
  62  0000              
  63  0000              RAMBANK 0 @BITDATASEC, @BITDATASEC1
  64  0000              @HCCINIT	.section 'data'
  65  0000              @HCCINIT0	.section 'data'
  66  0000              @BITDATASEC	 .section 'data'
  67  0000              @BITDATASEC1	 .section 'data'
  68  0000              
  69  0000              #pragma debug scope 1 1
  70  0000              	extern __DELAY3:near
  71  0000              	extern __DELAYX3:near
  72  0000              	extern __DELAYX6:near
  73  0000              	extern __DELAYY5:near
  74  0000              	extern __DELAYY3:near
  75  0000              	extern _builtin_holtek_delay_2:byte
  76  0000              ___bopac0 equ [123]
  77  0000              ___bopac1 equ [124]
  78  0000              ___sgc equ [120]
  79  0000              ___gsc2 equ [112]
  80  0000              _SinDataRam equ [768]
  81  0000              ___sgn equ [121]
  82  0000              ___sgdnr equ [122]
  83  0000              public _fun_SineWaveInit
  84  0000              #pragma debug scope 2 1

  53  0000              #line 53 "c:\users\longshuangmin\desktop\worke_space\g-501\g-501\sin.c"
  53  0000              _fun_SineWaveInit .section 'code'
  53  0000              _fun_SineWaveInit proc
  53  0000  0005[           local _fun_SineWaveInit_2 db 5 dup(?)	; 0,5
            00
            ]
  53  0000  0080     R  	mov _fun_SineWaveInit_2[0],a
  53  0001              #pragma debug variable 8 2 _fun_SineWaveInit_2+0 "SinWaveFreq"
  54  0001              #line 54 "c:\users\longshuangmin\desktop\worke_space\g-501\g-501\sin.c"
  54  0001  33FB        	set [123].7
  54  0002  32FC        	set [124].5
  55  0003              #line 55 "c:\users\longshuangmin\desktop\worke_space\g-501\g-501\sin.c"
  55  0003  1F78        	clr [120]
  56  0004              #line 56 "c:\users\longshuangmin\desktop\worke_space\g-501\g-501\sin.c"
  56  0004  33FB        	set [123].7
  56  0005  32FC        	set [124].5
  57  0006              #line 57 "c:\users\longshuangmin\desktop\worke_space\g-501\g-501\sin.c"
  57  0006  1F78        	clr [120]
  58  0007              #line 58 "c:\users\longshuangmin\desktop\worke_space\g-501\g-501\sin.c"
  58  0007  3170        	set [112].2
  58  0008  34F0        	clr [112].1
  58  0009  3470        	clr [112].0
  61  000A              #line 61 "c:\users\longshuangmin\desktop\worke_space\g-501\g-501\sin.c"
  61  000A  0700     R  	mov a,_fun_SineWaveInit_2[0]
  61  000B  0A01        	sub a,1
  61  000C  3D0A        	sz z
  61  000D  2800     R  	jmp _L3
  61  000E  0A01        	sub a,(2)-(1)
  61  000F  3D0A        	sz z
  61  0010  2800     R  	jmp _L4
  61  0011              #line 61 "c:\users\longshuangmin\desktop\worke_space\g-501\g-501\sin.c"
  61  0011  0700     R  	mov a,_fun_SineWaveInit_2[0]
  61  0012  0A03        	sub a,3
  61  0013  3D0A        	sz z
文件：sin.c        编译器版本 HGASM 0202 页次3

  61  0014  2800     R  	jmp _L5
  61  0015  0A01        	sub a,(4)-(3)
  61  0016  3D0A        	sz z
  61  0017  2800     R  	jmp _L6
  61  0018  0700     R  	mov a,_fun_SineWaveInit_2[0]
  61  0019  0A05        	sub a,5
  61  001A  3D0A        	sz z
  61  001B  2800     R  	jmp _L7
  61  001C  0A01        	sub a,(6)-(5)
  61  001D  3D0A        	sz z
  61  001E  2800     R  	jmp _L8
  61  001F  0700     R  	mov a,_fun_SineWaveInit_2[0]
  61  0020  0A07        	sub a,7
  61  0021  3D0A        	sz z
  61  0022  2800     R  	jmp _L9
  61  0023  0A01        	sub a,(8)-(7)
  61  0024  3D0A        	sz z
  61  0025  2800     R  	jmp _L10
  61  0026  0700     R  	mov a,_fun_SineWaveInit_2[0]
  61  0027  0A09        	sub a,9
  61  0028  3D0A        	sz z
  61  0029  2800     R  	jmp _L11
  61  002A  0A01        	sub a,(10)-(9)
  61  002B  3D0A        	sz z
  61  002C  2800     R  	jmp _L12
  61  002D  0700     R  	mov a,_fun_SineWaveInit_2[0]
  61  002E  0A0C        	sub a,12
  61  002F  3D0A        	sz z
  61  0030  2800     R  	jmp _L13
  61  0031  0700     R  	mov a,_fun_SineWaveInit_2[0]
  61  0032  0A0D        	sub a,13
  61  0033  390A        	snz z
  61  0034  2800     R  	jmp _L41
  61  0035  0F20        	mov a,32
  61  0036  0080     E  	mov ra,a
  61  0037  1F00     E  	clr rh
  61  0038  2800     R  	jmp _L39
  61  0039              _L3:
  70  0039              #line 70 "c:\users\longshuangmin\desktop\worke_space\g-501\g-501\sin.c"
  70  0039  0700     E  	mov a,_M_SinGain[0]
  70  003A  0080     E  	mov rd,a
  70  003B  1F00     E  	clr re
  70  003C  0700     E  	mov a,re
  70  003D  0080     E  	mov _builtin_holtek_mant1[1],a
  70  003E  0700     E  	mov a,rd
  70  003F  0080     E  	mov _builtin_holtek_mant1[0],a
  70  0040  3400     E  	clr _builtin_holtek_signs.0
  70  0041              	fcall _builtin_holtek_uitof
  70  0048  0700     E  	mov a,_builtin_holtek_mant1[2]
  70  0049  0080     E  	mov re,a
  70  004A  0700     E  	mov a,_builtin_holtek_mant1[1]
  70  004B  0080     E  	mov rd,a
  70  004C  0700     E  	mov a,_builtin_holtek_mant1[0]
  70  004D  0080     E  	mov rc,a
  70  004E  0700     E  	mov a,re
  70  004F  0080     E  	mov rg,a
  70  0050  0700     E  	mov a,rd
  70  0051  0080     E  	mov rf,a
  70  0052  0700     E  	mov a,rc
  70  0053  0080     E  	mov re,a
文件：sin.c        编译器版本 HGASM 0202 页次4

  70  0054  1F00     E  	clr rd
  70  0055  0700     E  	mov a,rg
  70  0056  0080     E  	mov _builtin_holtek_mant12p[0],a
  70  0057  0700     E  	mov a,rf
  70  0058  0080     E  	mov _builtin_holtek_mant1[2],a
  70  0059  0700     E  	mov a,re
  70  005A  0080     E  	mov _builtin_holtek_mant1[1],a
  70  005B  0700     E  	mov a,rd
  70  005C  0080     E  	mov _builtin_holtek_mant1[0],a
  70  005D  0F3C        	mov a,60
  70  005E  0080     E  	mov _builtin_holtek_mant12p[1],a
  70  005F  0F23        	mov a,35
  70  0060  0080     E  	mov _builtin_holtek_mant2[2],a
  70  0061  0FD7        	mov a,215
  70  0062  0080     E  	mov _builtin_holtek_mant2[1],a
  70  0063  0F0A        	mov a,10
  70  0064  0080     E  	mov _builtin_holtek_mant2[0],a
  70  0065              	fcall _builtin_holtek_dtmul
  70  006C  0700     E  	mov a,_builtin_holtek_mant12p[0]
  70  006D  0080     R  	mov _fun_SineWaveInit_2[4],a
  70  006E  0700     E  	mov a,_builtin_holtek_mant1[2]
  70  006F  0080     R  	mov _fun_SineWaveInit_2[3],a
  70  0070  0700     E  	mov a,_builtin_holtek_mant1[1]
  70  0071  0080     R  	mov _fun_SineWaveInit_2[2],a
  70  0072  0700     E  	mov a,_builtin_holtek_mant1[0]
  70  0073  0080     R  	mov _fun_SineWaveInit_2[1],a
  70  0074  0F20        	mov a,32
  70  0075  0080     E  	mov rh,a
  70  0076  1F00     E  	clr ra
  70  0077              _L16:
  70  0077  0700     E  	mov a,ra
  70  0078  0080     E  	mov rb,a
  70  0079  1F00     E  	clr rc
  70  007A  340A        	clr c
  70  007B  1A80     E  	rlc rb
  70  007C  1A80     E  	rlc rc
  70  007D  0F00     R  	mov a,low offset _SinData_32
  70  007E  0300     E  	add a,rb
  70  007F  0083        	mov mp,a
  70  0080  0F00     R  	mov a,high offset _SinData_32
  70  0081  1300     E  	adc a,rc
  70  0082  0084        	mov sbp,a
  70  0083              	fcall _Crom2Prom
  70  008A  0080     E  	mov rd,a
  70  008B              	fcall _Crom2PromNext
  70  0092  0080     E  	mov re,a
  70  0093  0700     E  	mov a,re
  70  0094  0080     E  	mov _builtin_holtek_mant1[1],a
  70  0095  0700     E  	mov a,rd
  70  0096  0080     E  	mov _builtin_holtek_mant1[0],a
  70  0097  3400     E  	clr _builtin_holtek_signs.0
  70  0098              	fcall _builtin_holtek_uitod
  70  009F  0700     E  	mov a,_builtin_holtek_mant12p[0]
  70  00A0  0080     E  	mov rg,a
  70  00A1  0700     E  	mov a,_builtin_holtek_mant1[2]
  70  00A2  0080     E  	mov rf,a
  70  00A3  0700     E  	mov a,_builtin_holtek_mant1[1]
  70  00A4  0080     E  	mov re,a
  70  00A5  0700     E  	mov a,_builtin_holtek_mant1[0]
  70  00A6  0080     E  	mov rd,a
文件：sin.c        编译器版本 HGASM 0202 页次5

  70  00A7  0700     R  	mov a,_fun_SineWaveInit_2[4]
  70  00A8  0080     E  	mov _builtin_holtek_mant12p[0],a
  70  00A9  0700     R  	mov a,_fun_SineWaveInit_2[3]
  70  00AA  0080     E  	mov _builtin_holtek_mant1[2],a
  70  00AB  0700     R  	mov a,_fun_SineWaveInit_2[2]
  70  00AC  0080     E  	mov _builtin_holtek_mant1[1],a
  70  00AD  0700     R  	mov a,_fun_SineWaveInit_2[1]
  70  00AE  0080     E  	mov _builtin_holtek_mant1[0],a
  70  00AF  0700     E  	mov a,rg
  70  00B0  0080     E  	mov _builtin_holtek_mant12p[1],a
  70  00B1  0700     E  	mov a,rf
  70  00B2  0080     E  	mov _builtin_holtek_mant2[2],a
  70  00B3  0700     E  	mov a,re
  70  00B4  0080     E  	mov _builtin_holtek_mant2[1],a
  70  00B5  0700     E  	mov a,rd
  70  00B6  0080     E  	mov _builtin_holtek_mant2[0],a
  70  00B7              	fcall _builtin_holtek_dtmul
  70  00BE  0700     E  	mov a,_builtin_holtek_mant12p[0]
  70  00BF  0080     E  	mov rg,a
  70  00C0  0700     E  	mov a,_builtin_holtek_mant1[2]
  70  00C1  0080     E  	mov rf,a
  70  00C2  0700     E  	mov a,_builtin_holtek_mant1[1]
  70  00C3  0080     E  	mov re,a
  70  00C4  0700     E  	mov a,_builtin_holtek_mant1[0]
  70  00C5  0080     E  	mov rd,a
  70  00C6  0700     E  	mov a,rg
  70  00C7  0080     E  	mov _builtin_holtek_mant12p[0],a
  70  00C8  0700     E  	mov a,rf
  70  00C9  0080     E  	mov _builtin_holtek_mant1[2],a
  70  00CA  0700     E  	mov a,re
  70  00CB  0080     E  	mov _builtin_holtek_mant1[1],a
  70  00CC  0700     E  	mov a,rd
  70  00CD  0080     E  	mov _builtin_holtek_mant1[0],a
  70  00CE              	fcall _builtin_holtek_dtol
  70  00D5  0700     E  	mov a,_builtin_holtek_mant12p[0]
  70  00D6  0080     E  	mov rg,a
  70  00D7  0700     E  	mov a,_builtin_holtek_mant1[2]
  70  00D8  0080     E  	mov rf,a
  70  00D9  0700     E  	mov a,_builtin_holtek_mant1[1]
  70  00DA  0080     E  	mov re,a
  70  00DB  0700     E  	mov a,_builtin_holtek_mant1[0]
  70  00DC  0080     E  	mov rd,a
  70  00DD  0F00        	mov a,low offset _SinDataRam
  70  00DE  0300     E  	add a,rb
  70  00DF  0083        	mov mp,a
  70  00E0  0F03        	mov a,high offset _SinDataRam
  70  00E1  1300     E  	adc a,rc
  70  00E2  0084        	mov sbp,a
  70  00E3  0700     E  	mov a,rd
  70  00E4  0082        	mov ir,a
  70  00E5  1483        	inc mp
  70  00E6  0700     E  	mov a,re
  70  00E7  0082        	mov ir,a
  68  00E8              #line 68 "c:\users\longshuangmin\desktop\worke_space\g-501\g-501\sin.c"
  68  00E8  1480     E  	inc ra
  68  00E9  1780     E  	sdz rh
  68  00EA  2800     R  	jmp _L16
  72  00EB              #line 72 "c:\users\longshuangmin\desktop\worke_space\g-501\g-501\sin.c"
  72  00EB  0F3E        	mov a,62
  72  00EC  00F9        	mov [121],a
文件：sin.c        编译器版本 HGASM 0202 页次6

  72  00ED  2800     R  	jmp _L42
  72  00EE              _L4:
  77  00EE              #line 77 "c:\users\longshuangmin\desktop\worke_space\g-501\g-501\sin.c"
  77  00EE  0700     E  	mov a,_M_SinGain[0]
  77  00EF  0080     E  	mov rd,a
  77  00F0  1F00     E  	clr re
  77  00F1  0700     E  	mov a,re
  77  00F2  0080     E  	mov _builtin_holtek_mant1[1],a
  77  00F3  0700     E  	mov a,rd
  77  00F4  0080     E  	mov _builtin_holtek_mant1[0],a
  77  00F5  3400     E  	clr _builtin_holtek_signs.0
  77  00F6              	fcall _builtin_holtek_uitof
  77  00FD  0700     E  	mov a,_builtin_holtek_mant1[2]
  77  00FE  0080     E  	mov re,a
  77  00FF  0700     E  	mov a,_builtin_holtek_mant1[1]
  77  0100  0080     E  	mov rd,a
  77  0101  0700     E  	mov a,_builtin_holtek_mant1[0]
  77  0102  0080     E  	mov rc,a
  77  0103  0700     E  	mov a,re
  77  0104  0080     E  	mov rg,a
  77  0105  0700     E  	mov a,rd
  77  0106  0080     E  	mov rf,a
  77  0107  0700     E  	mov a,rc
  77  0108  0080     E  	mov re,a
  77  0109  1F00     E  	clr rd
  77  010A  0700     E  	mov a,rg
  77  010B  0080     E  	mov _builtin_holtek_mant12p[0],a
  77  010C  0700     E  	mov a,rf
  77  010D  0080     E  	mov _builtin_holtek_mant1[2],a
  77  010E  0700     E  	mov a,re
  77  010F  0080     E  	mov _builtin_holtek_mant1[1],a
  77  0110  0700     E  	mov a,rd
  77  0111  0080     E  	mov _builtin_holtek_mant1[0],a
  77  0112  0F3C        	mov a,60
  77  0113  0080     E  	mov _builtin_holtek_mant12p[1],a
  77  0114  0F23        	mov a,35
  77  0115  0080     E  	mov _builtin_holtek_mant2[2],a
  77  0116  0FD7        	mov a,215
  77  0117  0080     E  	mov _builtin_holtek_mant2[1],a
  77  0118  0F0A        	mov a,10
  77  0119  0080     E  	mov _builtin_holtek_mant2[0],a
  77  011A              	fcall _builtin_holtek_dtmul
  77  0121  0700     E  	mov a,_builtin_holtek_mant12p[0]
  77  0122  0080     R  	mov _fun_SineWaveInit_2[4],a
  77  0123  0700     E  	mov a,_builtin_holtek_mant1[2]
  77  0124  0080     R  	mov _fun_SineWaveInit_2[3],a
  77  0125  0700     E  	mov a,_builtin_holtek_mant1[1]
  77  0126  0080     R  	mov _fun_SineWaveInit_2[2],a
  77  0127  0700     E  	mov a,_builtin_holtek_mant1[0]
  77  0128  0080     R  	mov _fun_SineWaveInit_2[1],a
  77  0129  0F20        	mov a,32
  77  012A  0080     E  	mov rh,a
  77  012B  1F00     E  	clr ra
  77  012C              _L19:
  77  012C  0700     E  	mov a,ra
  77  012D  0080     E  	mov rb,a
  77  012E  1F00     E  	clr rc
  77  012F  340A        	clr c
  77  0130  1A80     E  	rlc rb
  77  0131  1A80     E  	rlc rc
文件：sin.c        编译器版本 HGASM 0202 页次7

  77  0132  0F00     R  	mov a,low offset _SinData_20
  77  0133  0300     E  	add a,rb
  77  0134  0083        	mov mp,a
  77  0135  0F00     R  	mov a,high offset _SinData_20
  77  0136  1300     E  	adc a,rc
  77  0137  0084        	mov sbp,a
  77  0138              	fcall _Crom2Prom
  77  013F  0080     E  	mov rd,a
  77  0140              	fcall _Crom2PromNext
  77  0147  0080     E  	mov re,a
  77  0148  0700     E  	mov a,re
  77  0149  0080     E  	mov _builtin_holtek_mant1[1],a
  77  014A  0700     E  	mov a,rd
  77  014B  0080     E  	mov _builtin_holtek_mant1[0],a
  77  014C  3400     E  	clr _builtin_holtek_signs.0
  77  014D              	fcall _builtin_holtek_uitod
  77  0154  0700     E  	mov a,_builtin_holtek_mant12p[0]
  77  0155  0080     E  	mov rg,a
  77  0156  0700     E  	mov a,_builtin_holtek_mant1[2]
  77  0157  0080     E  	mov rf,a
  77  0158  0700     E  	mov a,_builtin_holtek_mant1[1]
  77  0159  0080     E  	mov re,a
  77  015A  0700     E  	mov a,_builtin_holtek_mant1[0]
  77  015B  0080     E  	mov rd,a
  77  015C  0700     R  	mov a,_fun_SineWaveInit_2[4]
  77  015D  0080     E  	mov _builtin_holtek_mant12p[0],a
  77  015E  0700     R  	mov a,_fun_SineWaveInit_2[3]
  77  015F  0080     E  	mov _builtin_holtek_mant1[2],a
  77  0160  0700     R  	mov a,_fun_SineWaveInit_2[2]
  77  0161  0080     E  	mov _builtin_holtek_mant1[1],a
  77  0162  0700     R  	mov a,_fun_SineWaveInit_2[1]
  77  0163  0080     E  	mov _builtin_holtek_mant1[0],a
  77  0164  0700     E  	mov a,rg
  77  0165  0080     E  	mov _builtin_holtek_mant12p[1],a
  77  0166  0700     E  	mov a,rf
  77  0167  0080     E  	mov _builtin_holtek_mant2[2],a
  77  0168  0700     E  	mov a,re
  77  0169  0080     E  	mov _builtin_holtek_mant2[1],a
  77  016A  0700     E  	mov a,rd
  77  016B  0080     E  	mov _builtin_holtek_mant2[0],a
  77  016C              	fcall _builtin_holtek_dtmul
  77  0173  0700     E  	mov a,_builtin_holtek_mant12p[0]
  77  0174  0080     E  	mov rg,a
  77  0175  0700     E  	mov a,_builtin_holtek_mant1[2]
  77  0176  0080     E  	mov rf,a
  77  0177  0700     E  	mov a,_builtin_holtek_mant1[1]
  77  0178  0080     E  	mov re,a
  77  0179  0700     E  	mov a,_builtin_holtek_mant1[0]
  77  017A  0080     E  	mov rd,a
  77  017B  0700     E  	mov a,rg
  77  017C  0080     E  	mov _builtin_holtek_mant12p[0],a
  77  017D  0700     E  	mov a,rf
  77  017E  0080     E  	mov _builtin_holtek_mant1[2],a
  77  017F  0700     E  	mov a,re
  77  0180  0080     E  	mov _builtin_holtek_mant1[1],a
  77  0181  0700     E  	mov a,rd
  77  0182  0080     E  	mov _builtin_holtek_mant1[0],a
  77  0183              	fcall _builtin_holtek_dtol
  77  018A  0700     E  	mov a,_builtin_holtek_mant12p[0]
  77  018B  0080     E  	mov rg,a
文件：sin.c        编译器版本 HGASM 0202 页次8

  77  018C  0700     E  	mov a,_builtin_holtek_mant1[2]
  77  018D  0080     E  	mov rf,a
  77  018E  0700     E  	mov a,_builtin_holtek_mant1[1]
  77  018F  0080     E  	mov re,a
  77  0190  0700     E  	mov a,_builtin_holtek_mant1[0]
  77  0191  0080     E  	mov rd,a
  77  0192  0F00        	mov a,low offset _SinDataRam
  77  0193  0300     E  	add a,rb
  77  0194  0083        	mov mp,a
  77  0195  0F03        	mov a,high offset _SinDataRam
  77  0196  1300     E  	adc a,rc
  77  0197  0084        	mov sbp,a
  77  0198  0700     E  	mov a,rd
  77  0199  0082        	mov ir,a
  77  019A  1483        	inc mp
  77  019B  0700     E  	mov a,re
  77  019C  0082        	mov ir,a
  75  019D              #line 75 "c:\users\longshuangmin\desktop\worke_space\g-501\g-501\sin.c"
  75  019D  1480     E  	inc ra
  75  019E  1780     E  	sdz rh
  75  019F  2800     R  	jmp _L19
  79  01A0              #line 79 "c:\users\longshuangmin\desktop\worke_space\g-501\g-501\sin.c"
  79  01A0  0F31        	mov a,49
  79  01A1  00F9        	mov [121],a
  79  01A2  2800     R  	jmp _L43
  79  01A3              _L5:
  84  01A3              #line 84 "c:\users\longshuangmin\desktop\worke_space\g-501\g-501\sin.c"
  84  01A3  0700     E  	mov a,_M_SinGain[0]
  84  01A4  0080     E  	mov rd,a
  84  01A5  1F00     E  	clr re
  84  01A6  0700     E  	mov a,re
  84  01A7  0080     E  	mov _builtin_holtek_mant1[1],a
  84  01A8  0700     E  	mov a,rd
  84  01A9  0080     E  	mov _builtin_holtek_mant1[0],a
  84  01AA  3400     E  	clr _builtin_holtek_signs.0
  84  01AB              	fcall _builtin_holtek_uitof
  84  01B2  0700     E  	mov a,_builtin_holtek_mant1[2]
  84  01B3  0080     E  	mov re,a
  84  01B4  0700     E  	mov a,_builtin_holtek_mant1[1]
  84  01B5  0080     E  	mov rd,a
  84  01B6  0700     E  	mov a,_builtin_holtek_mant1[0]
  84  01B7  0080     E  	mov rc,a
  84  01B8  0700     E  	mov a,re
  84  01B9  0080     E  	mov rg,a
  84  01BA  0700     E  	mov a,rd
  84  01BB  0080     E  	mov rf,a
  84  01BC  0700     E  	mov a,rc
  84  01BD  0080     E  	mov re,a
  84  01BE  1F00     E  	clr rd
  84  01BF  0700     E  	mov a,rg
  84  01C0  0080     E  	mov _builtin_holtek_mant12p[0],a
  84  01C1  0700     E  	mov a,rf
  84  01C2  0080     E  	mov _builtin_holtek_mant1[2],a
  84  01C3  0700     E  	mov a,re
  84  01C4  0080     E  	mov _builtin_holtek_mant1[1],a
  84  01C5  0700     E  	mov a,rd
  84  01C6  0080     E  	mov _builtin_holtek_mant1[0],a
  84  01C7  0F3C        	mov a,60
  84  01C8  0080     E  	mov _builtin_holtek_mant12p[1],a
  84  01C9  0F23        	mov a,35
文件：sin.c        编译器版本 HGASM 0202 页次9

  84  01CA  0080     E  	mov _builtin_holtek_mant2[2],a
  84  01CB  0FD7        	mov a,215
  84  01CC  0080     E  	mov _builtin_holtek_mant2[1],a
  84  01CD  0F0A        	mov a,10
  84  01CE  0080     E  	mov _builtin_holtek_mant2[0],a
  84  01CF              	fcall _builtin_holtek_dtmul
  84  01D6  0700     E  	mov a,_builtin_holtek_mant12p[0]
  84  01D7  0080     R  	mov _fun_SineWaveInit_2[4],a
  84  01D8  0700     E  	mov a,_builtin_holtek_mant1[2]
  84  01D9  0080     R  	mov _fun_SineWaveInit_2[3],a
  84  01DA  0700     E  	mov a,_builtin_holtek_mant1[1]
  84  01DB  0080     R  	mov _fun_SineWaveInit_2[2],a
  84  01DC  0700     E  	mov a,_builtin_holtek_mant1[0]
  84  01DD  0080     R  	mov _fun_SineWaveInit_2[1],a
  84  01DE  0F20        	mov a,32
  84  01DF  0080     E  	mov rh,a
  84  01E0  1F00     E  	clr ra
  84  01E1              _L21:
  84  01E1  0700     E  	mov a,ra
  84  01E2  0080     E  	mov rb,a
  84  01E3  1F00     E  	clr rc
  84  01E4  340A        	clr c
  84  01E5  1A80     E  	rlc rb
  84  01E6  1A80     E  	rlc rc
  84  01E7  0F00     R  	mov a,low offset _SinData_20
  84  01E8  0300     E  	add a,rb
  84  01E9  0083        	mov mp,a
  84  01EA  0F00     R  	mov a,high offset _SinData_20
  84  01EB  1300     E  	adc a,rc
  84  01EC  0084        	mov sbp,a
  84  01ED              	fcall _Crom2Prom
  84  01F4  0080     E  	mov rd,a
  84  01F5              	fcall _Crom2PromNext
  84  01FC  0080     E  	mov re,a
  84  01FD  0700     E  	mov a,re
  84  01FE  0080     E  	mov _builtin_holtek_mant1[1],a
  84  01FF  0700     E  	mov a,rd
  84  0200  0080     E  	mov _builtin_holtek_mant1[0],a
  84  0201  3400     E  	clr _builtin_holtek_signs.0
  84  0202              	fcall _builtin_holtek_uitod
  84  0209  0700     E  	mov a,_builtin_holtek_mant12p[0]
  84  020A  0080     E  	mov rg,a
  84  020B  0700     E  	mov a,_builtin_holtek_mant1[2]
  84  020C  0080     E  	mov rf,a
  84  020D  0700     E  	mov a,_builtin_holtek_mant1[1]
  84  020E  0080     E  	mov re,a
  84  020F  0700     E  	mov a,_builtin_holtek_mant1[0]
  84  0210  0080     E  	mov rd,a
  84  0211  0700     R  	mov a,_fun_SineWaveInit_2[4]
  84  0212  0080     E  	mov _builtin_holtek_mant12p[0],a
  84  0213  0700     R  	mov a,_fun_SineWaveInit_2[3]
  84  0214  0080     E  	mov _builtin_holtek_mant1[2],a
  84  0215  0700     R  	mov a,_fun_SineWaveInit_2[2]
  84  0216  0080     E  	mov _builtin_holtek_mant1[1],a
  84  0217  0700     R  	mov a,_fun_SineWaveInit_2[1]
  84  0218  0080     E  	mov _builtin_holtek_mant1[0],a
  84  0219  0700     E  	mov a,rg
  84  021A  0080     E  	mov _builtin_holtek_mant12p[1],a
  84  021B  0700     E  	mov a,rf
  84  021C  0080     E  	mov _builtin_holtek_mant2[2],a
文件：sin.c        编译器版本 HGASM 0202 页次10

  84  021D  0700     E  	mov a,re
  84  021E  0080     E  	mov _builtin_holtek_mant2[1],a
  84  021F  0700     E  	mov a,rd
  84  0220  0080     E  	mov _builtin_holtek_mant2[0],a
  84  0221              	fcall _builtin_holtek_dtmul
  84  0228  0700     E  	mov a,_builtin_holtek_mant12p[0]
  84  0229  0080     E  	mov rg,a
  84  022A  0700     E  	mov a,_builtin_holtek_mant1[2]
  84  022B  0080     E  	mov rf,a
  84  022C  0700     E  	mov a,_builtin_holtek_mant1[1]
  84  022D  0080     E  	mov re,a
  84  022E  0700     E  	mov a,_builtin_holtek_mant1[0]
  84  022F  0080     E  	mov rd,a
  84  0230  0700     E  	mov a,rg
  84  0231  0080     E  	mov _builtin_holtek_mant12p[0],a
  84  0232  0700     E  	mov a,rf
  84  0233  0080     E  	mov _builtin_holtek_mant1[2],a
  84  0234  0700     E  	mov a,re
  84  0235  0080     E  	mov _builtin_holtek_mant1[1],a
  84  0236  0700     E  	mov a,rd
  84  0237  0080     E  	mov _builtin_holtek_mant1[0],a
  84  0238              	fcall _builtin_holtek_dtol
  84  023F  0700     E  	mov a,_builtin_holtek_mant12p[0]
  84  0240  0080     E  	mov rg,a
  84  0241  0700     E  	mov a,_builtin_holtek_mant1[2]
  84  0242  0080     E  	mov rf,a
  84  0243  0700     E  	mov a,_builtin_holtek_mant1[1]
  84  0244  0080     E  	mov re,a
  84  0245  0700     E  	mov a,_builtin_holtek_mant1[0]
  84  0246  0080     E  	mov rd,a
  84  0247  0F00        	mov a,low offset _SinDataRam
  84  0248  0300     E  	add a,rb
  84  0249  0083        	mov mp,a
  84  024A  0F03        	mov a,high offset _SinDataRam
  84  024B  1300     E  	adc a,rc
  84  024C  0084        	mov sbp,a
  84  024D  0700     E  	mov a,rd
  84  024E  0082        	mov ir,a
  84  024F  1483        	inc mp
  84  0250  0700     E  	mov a,re
  84  0251  0082        	mov ir,a
  82  0252              #line 82 "c:\users\longshuangmin\desktop\worke_space\g-501\g-501\sin.c"
  82  0252  1480     E  	inc ra
  82  0253  1780     E  	sdz rh
  82  0254  2800     R  	jmp _L21
  86  0255              #line 86 "c:\users\longshuangmin\desktop\worke_space\g-501\g-501\sin.c"
  86  0255  0F13        	mov a,19
  86  0256  00F9        	mov [121],a
  86  0257              _L43:
  86  0257  0F13        	mov a,19
  86  0258  00FA        	mov [122],a
  87  0259              #line 87 "c:\users\longshuangmin\desktop\worke_space\g-501\g-501\sin.c"
  87  0259  2800     R  	jmp _L17
  87  025A              _L6:
  91  025A              #line 91 "c:\users\longshuangmin\desktop\worke_space\g-501\g-501\sin.c"
  91  025A  0700     E  	mov a,_M_SinGain[0]
  91  025B  0080     E  	mov rd,a
  91  025C  1F00     E  	clr re
  91  025D  0700     E  	mov a,re
  91  025E  0080     E  	mov _builtin_holtek_mant1[1],a
文件：sin.c        编译器版本 HGASM 0202 页次11

  91  025F  0700     E  	mov a,rd
  91  0260  0080     E  	mov _builtin_holtek_mant1[0],a
  91  0261  3400     E  	clr _builtin_holtek_signs.0
  91  0262              	fcall _builtin_holtek_uitof
  91  0269  0700     E  	mov a,_builtin_holtek_mant1[2]
  91  026A  0080     E  	mov re,a
  91  026B  0700     E  	mov a,_builtin_holtek_mant1[1]
  91  026C  0080     E  	mov rd,a
  91  026D  0700     E  	mov a,_builtin_holtek_mant1[0]
  91  026E  0080     E  	mov rc,a
  91  026F  0700     E  	mov a,re
  91  0270  0080     E  	mov rg,a
  91  0271  0700     E  	mov a,rd
  91  0272  0080     E  	mov rf,a
  91  0273  0700     E  	mov a,rc
  91  0274  0080     E  	mov re,a
  91  0275  1F00     E  	clr rd
  91  0276  0700     E  	mov a,rg
  91  0277  0080     E  	mov _builtin_holtek_mant12p[0],a
  91  0278  0700     E  	mov a,rf
  91  0279  0080     E  	mov _builtin_holtek_mant1[2],a
  91  027A  0700     E  	mov a,re
  91  027B  0080     E  	mov _builtin_holtek_mant1[1],a
  91  027C  0700     E  	mov a,rd
  91  027D  0080     E  	mov _builtin_holtek_mant1[0],a
  91  027E  0F3C        	mov a,60
  91  027F  0080     E  	mov _builtin_holtek_mant12p[1],a
  91  0280  0F23        	mov a,35
  91  0281  0080     E  	mov _builtin_holtek_mant2[2],a
  91  0282  0FD7        	mov a,215
  91  0283  0080     E  	mov _builtin_holtek_mant2[1],a
  91  0284  0F0A        	mov a,10
  91  0285  0080     E  	mov _builtin_holtek_mant2[0],a
  91  0286              	fcall _builtin_holtek_dtmul
  91  028D  0700     E  	mov a,_builtin_holtek_mant12p[0]
  91  028E  0080     R  	mov _fun_SineWaveInit_2[4],a
  91  028F  0700     E  	mov a,_builtin_holtek_mant1[2]
  91  0290  0080     R  	mov _fun_SineWaveInit_2[3],a
  91  0291  0700     E  	mov a,_builtin_holtek_mant1[1]
  91  0292  0080     R  	mov _fun_SineWaveInit_2[2],a
  91  0293  0700     E  	mov a,_builtin_holtek_mant1[0]
  91  0294  0080     R  	mov _fun_SineWaveInit_2[1],a
  91  0295  0F20        	mov a,32
  91  0296  0080     E  	mov rh,a
  91  0297  1F00     E  	clr ra
  91  0298              _L23:
  91  0298  0700     E  	mov a,ra
  91  0299  0080     E  	mov rb,a
  91  029A  1F00     E  	clr rc
  91  029B  340A        	clr c
  91  029C  1A80     E  	rlc rb
  91  029D  1A80     E  	rlc rc
  91  029E  0F00     R  	mov a,low offset _SinData_20
  91  029F  0300     E  	add a,rb
  91  02A0  0083        	mov mp,a
  91  02A1  0F00     R  	mov a,high offset _SinData_20
  91  02A2  1300     E  	adc a,rc
  91  02A3  0084        	mov sbp,a
  91  02A4              	fcall _Crom2Prom
  91  02AB  0080     E  	mov rd,a
文件：sin.c        编译器版本 HGASM 0202 页次12

  91  02AC              	fcall _Crom2PromNext
  91  02B3  0080     E  	mov re,a
  91  02B4  0700     E  	mov a,re
  91  02B5  0080     E  	mov _builtin_holtek_mant1[1],a
  91  02B6  0700     E  	mov a,rd
  91  02B7  0080     E  	mov _builtin_holtek_mant1[0],a
  91  02B8  3400     E  	clr _builtin_holtek_signs.0
  91  02B9              	fcall _builtin_holtek_uitod
  91  02C0  0700     E  	mov a,_builtin_holtek_mant12p[0]
  91  02C1  0080     E  	mov rg,a
  91  02C2  0700     E  	mov a,_builtin_holtek_mant1[2]
  91  02C3  0080     E  	mov rf,a
  91  02C4  0700     E  	mov a,_builtin_holtek_mant1[1]
  91  02C5  0080     E  	mov re,a
  91  02C6  0700     E  	mov a,_builtin_holtek_mant1[0]
  91  02C7  0080     E  	mov rd,a
  91  02C8  0700     R  	mov a,_fun_SineWaveInit_2[4]
  91  02C9  0080     E  	mov _builtin_holtek_mant12p[0],a
  91  02CA  0700     R  	mov a,_fun_SineWaveInit_2[3]
  91  02CB  0080     E  	mov _builtin_holtek_mant1[2],a
  91  02CC  0700     R  	mov a,_fun_SineWaveInit_2[2]
  91  02CD  0080     E  	mov _builtin_holtek_mant1[1],a
  91  02CE  0700     R  	mov a,_fun_SineWaveInit_2[1]
  91  02CF  0080     E  	mov _builtin_holtek_mant1[0],a
  91  02D0  0700     E  	mov a,rg
  91  02D1  0080     E  	mov _builtin_holtek_mant12p[1],a
  91  02D2  0700     E  	mov a,rf
  91  02D3  0080     E  	mov _builtin_holtek_mant2[2],a
  91  02D4  0700     E  	mov a,re
  91  02D5  0080     E  	mov _builtin_holtek_mant2[1],a
  91  02D6  0700     E  	mov a,rd
  91  02D7  0080     E  	mov _builtin_holtek_mant2[0],a
  91  02D8              	fcall _builtin_holtek_dtmul
  91  02DF  0700     E  	mov a,_builtin_holtek_mant12p[0]
  91  02E0  0080     E  	mov rg,a
  91  02E1  0700     E  	mov a,_builtin_holtek_mant1[2]
  91  02E2  0080     E  	mov rf,a
  91  02E3  0700     E  	mov a,_builtin_holtek_mant1[1]
  91  02E4  0080     E  	mov re,a
  91  02E5  0700     E  	mov a,_builtin_holtek_mant1[0]
  91  02E6  0080     E  	mov rd,a
  91  02E7  0700     E  	mov a,rg
  91  02E8  0080     E  	mov _builtin_holtek_mant12p[0],a
  91  02E9  0700     E  	mov a,rf
  91  02EA  0080     E  	mov _builtin_holtek_mant1[2],a
  91  02EB  0700     E  	mov a,re
  91  02EC  0080     E  	mov _builtin_holtek_mant1[1],a
  91  02ED  0700     E  	mov a,rd
  91  02EE  0080     E  	mov _builtin_holtek_mant1[0],a
  91  02EF              	fcall _builtin_holtek_dtol
  91  02F6  0700     E  	mov a,_builtin_holtek_mant12p[0]
  91  02F7  0080     E  	mov rg,a
  91  02F8  0700     E  	mov a,_builtin_holtek_mant1[2]
  91  02F9  0080     E  	mov rf,a
  91  02FA  0700     E  	mov a,_builtin_holtek_mant1[1]
  91  02FB  0080     E  	mov re,a
  91  02FC  0700     E  	mov a,_builtin_holtek_mant1[0]
  91  02FD  0080     E  	mov rd,a
  91  02FE  0F00        	mov a,low offset _SinDataRam
  91  02FF  0300     E  	add a,rb
文件：sin.c        编译器版本 HGASM 0202 页次13

  91  0300  0083        	mov mp,a
  91  0301  0F03        	mov a,high offset _SinDataRam
  91  0302  1300     E  	adc a,rc
  91  0303  0084        	mov sbp,a
  91  0304  0700     E  	mov a,rd
  91  0305  0082        	mov ir,a
  91  0306  1483        	inc mp
  91  0307  0700     E  	mov a,re
  91  0308  0082        	mov ir,a
  89  0309              #line 89 "c:\users\longshuangmin\desktop\worke_space\g-501\g-501\sin.c"
  89  0309  1480     E  	inc ra
  89  030A  1780     E  	sdz rh
  89  030B  2800     R  	jmp _L23
  93  030C              #line 93 "c:\users\longshuangmin\desktop\worke_space\g-501\g-501\sin.c"
  93  030C  0F09        	mov a,9
  93  030D  00F9        	mov [121],a
  93  030E  2800     R  	jmp _L43
  93  030F              _L7:
  98  030F              #line 98 "c:\users\longshuangmin\desktop\worke_space\g-501\g-501\sin.c"
  98  030F  0700     E  	mov a,_M_SinGain[0]
  98  0310  0080     E  	mov rd,a
  98  0311  1F00     E  	clr re
  98  0312  0700     E  	mov a,re
  98  0313  0080     E  	mov _builtin_holtek_mant1[1],a
  98  0314  0700     E  	mov a,rd
  98  0315  0080     E  	mov _builtin_holtek_mant1[0],a
  98  0316  3400     E  	clr _builtin_holtek_signs.0
  98  0317              	fcall _builtin_holtek_uitof
  98  031E  0700     E  	mov a,_builtin_holtek_mant1[2]
  98  031F  0080     E  	mov re,a
  98  0320  0700     E  	mov a,_builtin_holtek_mant1[1]
  98  0321  0080     E  	mov rd,a
  98  0322  0700     E  	mov a,_builtin_holtek_mant1[0]
  98  0323  0080     E  	mov rc,a
  98  0324  0700     E  	mov a,re
  98  0325  0080     E  	mov rg,a
  98  0326  0700     E  	mov a,rd
  98  0327  0080     E  	mov rf,a
  98  0328  0700     E  	mov a,rc
  98  0329  0080     E  	mov re,a
  98  032A  1F00     E  	clr rd
  98  032B  0700     E  	mov a,rg
  98  032C  0080     E  	mov _builtin_holtek_mant12p[0],a
  98  032D  0700     E  	mov a,rf
  98  032E  0080     E  	mov _builtin_holtek_mant1[2],a
  98  032F  0700     E  	mov a,re
  98  0330  0080     E  	mov _builtin_holtek_mant1[1],a
  98  0331  0700     E  	mov a,rd
  98  0332  0080     E  	mov _builtin_holtek_mant1[0],a
  98  0333  0F3C        	mov a,60
  98  0334  0080     E  	mov _builtin_holtek_mant12p[1],a
  98  0335  0F23        	mov a,35
  98  0336  0080     E  	mov _builtin_holtek_mant2[2],a
  98  0337  0FD7        	mov a,215
  98  0338  0080     E  	mov _builtin_holtek_mant2[1],a
  98  0339  0F0A        	mov a,10
  98  033A  0080     E  	mov _builtin_holtek_mant2[0],a
  98  033B              	fcall _builtin_holtek_dtmul
  98  0342  0700     E  	mov a,_builtin_holtek_mant12p[0]
  98  0343  0080     R  	mov _fun_SineWaveInit_2[4],a
文件：sin.c        编译器版本 HGASM 0202 页次14

  98  0344  0700     E  	mov a,_builtin_holtek_mant1[2]
  98  0345  0080     R  	mov _fun_SineWaveInit_2[3],a
  98  0346  0700     E  	mov a,_builtin_holtek_mant1[1]
  98  0347  0080     R  	mov _fun_SineWaveInit_2[2],a
  98  0348  0700     E  	mov a,_builtin_holtek_mant1[0]
  98  0349  0080     R  	mov _fun_SineWaveInit_2[1],a
  98  034A  0F20        	mov a,32
  98  034B  0080     E  	mov rh,a
  98  034C  1F00     E  	clr ra
  98  034D              _L25:
  98  034D  0700     E  	mov a,ra
  98  034E  0080     E  	mov rb,a
  98  034F  1F00     E  	clr rc
  98  0350  340A        	clr c
  98  0351  1A80     E  	rlc rb
  98  0352  1A80     E  	rlc rc
  98  0353  0F00     R  	mov a,low offset _SinData_32
  98  0354  0300     E  	add a,rb
  98  0355  0083        	mov mp,a
  98  0356  0F00     R  	mov a,high offset _SinData_32
  98  0357  1300     E  	adc a,rc
  98  0358  0084        	mov sbp,a
  98  0359              	fcall _Crom2Prom
  98  0360  0080     E  	mov rd,a
  98  0361              	fcall _Crom2PromNext
  98  0368  0080     E  	mov re,a
  98  0369  0700     E  	mov a,re
  98  036A  0080     E  	mov _builtin_holtek_mant1[1],a
  98  036B  0700     E  	mov a,rd
  98  036C  0080     E  	mov _builtin_holtek_mant1[0],a
  98  036D  3400     E  	clr _builtin_holtek_signs.0
  98  036E              	fcall _builtin_holtek_uitod
  98  0375  0700     E  	mov a,_builtin_holtek_mant12p[0]
  98  0376  0080     E  	mov rg,a
  98  0377  0700     E  	mov a,_builtin_holtek_mant1[2]
  98  0378  0080     E  	mov rf,a
  98  0379  0700     E  	mov a,_builtin_holtek_mant1[1]
  98  037A  0080     E  	mov re,a
  98  037B  0700     E  	mov a,_builtin_holtek_mant1[0]
  98  037C  0080     E  	mov rd,a
  98  037D  0700     R  	mov a,_fun_SineWaveInit_2[4]
  98  037E  0080     E  	mov _builtin_holtek_mant12p[0],a
  98  037F  0700     R  	mov a,_fun_SineWaveInit_2[3]
  98  0380  0080     E  	mov _builtin_holtek_mant1[2],a
  98  0381  0700     R  	mov a,_fun_SineWaveInit_2[2]
  98  0382  0080     E  	mov _builtin_holtek_mant1[1],a
  98  0383  0700     R  	mov a,_fun_SineWaveInit_2[1]
  98  0384  0080     E  	mov _builtin_holtek_mant1[0],a
  98  0385  0700     E  	mov a,rg
  98  0386  0080     E  	mov _builtin_holtek_mant12p[1],a
  98  0387  0700     E  	mov a,rf
  98  0388  0080     E  	mov _builtin_holtek_mant2[2],a
  98  0389  0700     E  	mov a,re
  98  038A  0080     E  	mov _builtin_holtek_mant2[1],a
  98  038B  0700     E  	mov a,rd
  98  038C  0080     E  	mov _builtin_holtek_mant2[0],a
  98  038D              	fcall _builtin_holtek_dtmul
  98  0394  0700     E  	mov a,_builtin_holtek_mant12p[0]
  98  0395  0080     E  	mov rg,a
  98  0396  0700     E  	mov a,_builtin_holtek_mant1[2]
文件：sin.c        编译器版本 HGASM 0202 页次15

  98  0397  0080     E  	mov rf,a
  98  0398  0700     E  	mov a,_builtin_holtek_mant1[1]
  98  0399  0080     E  	mov re,a
  98  039A  0700     E  	mov a,_builtin_holtek_mant1[0]
  98  039B  0080     E  	mov rd,a
  98  039C  0700     E  	mov a,rg
  98  039D  0080     E  	mov _builtin_holtek_mant12p[0],a
  98  039E  0700     E  	mov a,rf
  98  039F  0080     E  	mov _builtin_holtek_mant1[2],a
  98  03A0  0700     E  	mov a,re
  98  03A1  0080     E  	mov _builtin_holtek_mant1[1],a
  98  03A2  0700     E  	mov a,rd
  98  03A3  0080     E  	mov _builtin_holtek_mant1[0],a
  98  03A4              	fcall _builtin_holtek_dtol
  98  03AB  0700     E  	mov a,_builtin_holtek_mant12p[0]
  98  03AC  0080     E  	mov rg,a
  98  03AD  0700     E  	mov a,_builtin_holtek_mant1[2]
  98  03AE  0080     E  	mov rf,a
  98  03AF  0700     E  	mov a,_builtin_holtek_mant1[1]
  98  03B0  0080     E  	mov re,a
  98  03B1  0700     E  	mov a,_builtin_holtek_mant1[0]
  98  03B2  0080     E  	mov rd,a
  98  03B3  0F00        	mov a,low offset _SinDataRam
  98  03B4  0300     E  	add a,rb
  98  03B5  0083        	mov mp,a
  98  03B6  0F03        	mov a,high offset _SinDataRam
  98  03B7  1300     E  	adc a,rc
  98  03B8  0084        	mov sbp,a
  98  03B9  0700     E  	mov a,rd
  98  03BA  0082        	mov ir,a
  98  03BB  1483        	inc mp
  98  03BC  0700     E  	mov a,re
  98  03BD  0082        	mov ir,a
  96  03BE              #line 96 "c:\users\longshuangmin\desktop\worke_space\g-501\g-501\sin.c"
  96  03BE  1480     E  	inc ra
  96  03BF  1780     E  	sdz rh
  96  03C0  2800     R  	jmp _L25
 100  03C1              #line 100 "c:\users\longshuangmin\desktop\worke_space\g-501\g-501\sin.c"
 100  03C1  0F03        	mov a,3
 100  03C2  00F9        	mov [121],a
 100  03C3              _L42:
 100  03C3  0F1F        	mov a,31
 100  03C4  00FA        	mov [122],a
 101  03C5              #line 101 "c:\users\longshuangmin\desktop\worke_space\g-501\g-501\sin.c"
 101  03C5  2800     R  	jmp _L17
 101  03C6              _L8:
 106  03C6              #line 106 "c:\users\longshuangmin\desktop\worke_space\g-501\g-501\sin.c"
 106  03C6  0700     E  	mov a,_M_SinGain[0]
 106  03C7  0080     E  	mov rd,a
 106  03C8  1F00     E  	clr re
 106  03C9  0700     E  	mov a,re
 106  03CA  0080     E  	mov _builtin_holtek_mant1[1],a
 106  03CB  0700     E  	mov a,rd
 106  03CC  0080     E  	mov _builtin_holtek_mant1[0],a
 106  03CD  3400     E  	clr _builtin_holtek_signs.0
 106  03CE              	fcall _builtin_holtek_uitof
 106  03D5  0700     E  	mov a,_builtin_holtek_mant1[2]
 106  03D6  0080     E  	mov re,a
 106  03D7  0700     E  	mov a,_builtin_holtek_mant1[1]
 106  03D8  0080     E  	mov rd,a
文件：sin.c        编译器版本 HGASM 0202 页次16

 106  03D9  0700     E  	mov a,_builtin_holtek_mant1[0]
 106  03DA  0080     E  	mov rc,a
 106  03DB  0700     E  	mov a,re
 106  03DC  0080     E  	mov rg,a
 106  03DD  0700     E  	mov a,rd
 106  03DE  0080     E  	mov rf,a
 106  03DF  0700     E  	mov a,rc
 106  03E0  0080     E  	mov re,a
 106  03E1  1F00     E  	clr rd
 106  03E2  0700     E  	mov a,rg
 106  03E3  0080     E  	mov _builtin_holtek_mant12p[0],a
 106  03E4  0700     E  	mov a,rf
 106  03E5  0080     E  	mov _builtin_holtek_mant1[2],a
 106  03E6  0700     E  	mov a,re
 106  03E7  0080     E  	mov _builtin_holtek_mant1[1],a
 106  03E8  0700     E  	mov a,rd
 106  03E9  0080     E  	mov _builtin_holtek_mant1[0],a
 106  03EA  0F3C        	mov a,60
 106  03EB  0080     E  	mov _builtin_holtek_mant12p[1],a
 106  03EC  0F23        	mov a,35
 106  03ED  0080     E  	mov _builtin_holtek_mant2[2],a
 106  03EE  0FD7        	mov a,215
 106  03EF  0080     E  	mov _builtin_holtek_mant2[1],a
 106  03F0  0F0A        	mov a,10
 106  03F1  0080     E  	mov _builtin_holtek_mant2[0],a
 106  03F2              	fcall _builtin_holtek_dtmul
 106  03F9  0700     E  	mov a,_builtin_holtek_mant12p[0]
 106  03FA  0080     R  	mov _fun_SineWaveInit_2[4],a
 106  03FB  0700     E  	mov a,_builtin_holtek_mant1[2]
 106  03FC  0080     R  	mov _fun_SineWaveInit_2[3],a
 106  03FD  0700     E  	mov a,_builtin_holtek_mant1[1]
 106  03FE  0080     R  	mov _fun_SineWaveInit_2[2],a
 106  03FF  0700     E  	mov a,_builtin_holtek_mant1[0]
 106  0400  0080     R  	mov _fun_SineWaveInit_2[1],a
 106  0401  0F20        	mov a,32
 106  0402  0080     E  	mov rh,a
 106  0403  1F00     E  	clr ra
 106  0404              _L27:
 106  0404  0700     E  	mov a,ra
 106  0405  0080     E  	mov rb,a
 106  0406  1F00     E  	clr rc
 106  0407  340A        	clr c
 106  0408  1A80     E  	rlc rb
 106  0409  1A80     E  	rlc rc
 106  040A  0F00     R  	mov a,low offset _SinData_20
 106  040B  0300     E  	add a,rb
 106  040C  0083        	mov mp,a
 106  040D  0F00     R  	mov a,high offset _SinData_20
 106  040E  1300     E  	adc a,rc
 106  040F  0084        	mov sbp,a
 106  0410              	fcall _Crom2Prom
 106  0417  0080     E  	mov rd,a
 106  0418              	fcall _Crom2PromNext
 106  041F  0080     E  	mov re,a
 106  0420  0700     E  	mov a,re
 106  0421  0080     E  	mov _builtin_holtek_mant1[1],a
 106  0422  0700     E  	mov a,rd
 106  0423  0080     E  	mov _builtin_holtek_mant1[0],a
 106  0424  3400     E  	clr _builtin_holtek_signs.0
 106  0425              	fcall _builtin_holtek_uitod
文件：sin.c        编译器版本 HGASM 0202 页次17

 106  042C  0700     E  	mov a,_builtin_holtek_mant12p[0]
 106  042D  0080     E  	mov rg,a
 106  042E  0700     E  	mov a,_builtin_holtek_mant1[2]
 106  042F  0080     E  	mov rf,a
 106  0430  0700     E  	mov a,_builtin_holtek_mant1[1]
 106  0431  0080     E  	mov re,a
 106  0432  0700     E  	mov a,_builtin_holtek_mant1[0]
 106  0433  0080     E  	mov rd,a
 106  0434  0700     R  	mov a,_fun_SineWaveInit_2[4]
 106  0435  0080     E  	mov _builtin_holtek_mant12p[0],a
 106  0436  0700     R  	mov a,_fun_SineWaveInit_2[3]
 106  0437  0080     E  	mov _builtin_holtek_mant1[2],a
 106  0438  0700     R  	mov a,_fun_SineWaveInit_2[2]
 106  0439  0080     E  	mov _builtin_holtek_mant1[1],a
 106  043A  0700     R  	mov a,_fun_SineWaveInit_2[1]
 106  043B  0080     E  	mov _builtin_holtek_mant1[0],a
 106  043C  0700     E  	mov a,rg
 106  043D  0080     E  	mov _builtin_holtek_mant12p[1],a
 106  043E  0700     E  	mov a,rf
 106  043F  0080     E  	mov _builtin_holtek_mant2[2],a
 106  0440  0700     E  	mov a,re
 106  0441  0080     E  	mov _builtin_holtek_mant2[1],a
 106  0442  0700     E  	mov a,rd
 106  0443  0080     E  	mov _builtin_holtek_mant2[0],a
 106  0444              	fcall _builtin_holtek_dtmul
 106  044B  0700     E  	mov a,_builtin_holtek_mant12p[0]
 106  044C  0080     E  	mov rg,a
 106  044D  0700     E  	mov a,_builtin_holtek_mant1[2]
 106  044E  0080     E  	mov rf,a
 106  044F  0700     E  	mov a,_builtin_holtek_mant1[1]
 106  0450  0080     E  	mov re,a
 106  0451  0700     E  	mov a,_builtin_holtek_mant1[0]
 106  0452  0080     E  	mov rd,a
 106  0453  0700     E  	mov a,rg
 106  0454  0080     E  	mov _builtin_holtek_mant12p[0],a
 106  0455  0700     E  	mov a,rf
 106  0456  0080     E  	mov _builtin_holtek_mant1[2],a
 106  0457  0700     E  	mov a,re
 106  0458  0080     E  	mov _builtin_holtek_mant1[1],a
 106  0459  0700     E  	mov a,rd
 106  045A  0080     E  	mov _builtin_holtek_mant1[0],a
 106  045B              	fcall _builtin_holtek_dtol
 106  0462  0700     E  	mov a,_builtin_holtek_mant12p[0]
 106  0463  0080     E  	mov rg,a
 106  0464  0700     E  	mov a,_builtin_holtek_mant1[2]
 106  0465  0080     E  	mov rf,a
 106  0466  0700     E  	mov a,_builtin_holtek_mant1[1]
 106  0467  0080     E  	mov re,a
 106  0468  0700     E  	mov a,_builtin_holtek_mant1[0]
 106  0469  0080     E  	mov rd,a
 106  046A  0F00        	mov a,low offset _SinDataRam
 106  046B  0300     E  	add a,rb
 106  046C  0083        	mov mp,a
 106  046D  0F03        	mov a,high offset _SinDataRam
 106  046E  1300     E  	adc a,rc
 106  046F  0084        	mov sbp,a
 106  0470  0700     E  	mov a,rd
 106  0471  0082        	mov ir,a
 106  0472  1483        	inc mp
 106  0473  0700     E  	mov a,re
文件：sin.c        编译器版本 HGASM 0202 页次18

 106  0474  0082        	mov ir,a
 104  0475              #line 104 "c:\users\longshuangmin\desktop\worke_space\g-501\g-501\sin.c"
 104  0475  1480     E  	inc ra
 104  0476  1780     E  	sdz rh
 104  0477  2800     R  	jmp _L27
 108  0478              #line 108 "c:\users\longshuangmin\desktop\worke_space\g-501\g-501\sin.c"
 108  0478  0F04        	mov a,4
 108  0479  00F9        	mov [121],a
 108  047A  2800     R  	jmp _L43
 108  047B              _L9:
 113  047B              #line 113 "c:\users\longshuangmin\desktop\worke_space\g-501\g-501\sin.c"
 113  047B  0700     E  	mov a,_M_SinGain[0]
 113  047C  0080     E  	mov rd,a
 113  047D  1F00     E  	clr re
 113  047E  0700     E  	mov a,re
 113  047F  0080     E  	mov _builtin_holtek_mant1[1],a
 113  0480  0700     E  	mov a,rd
 113  0481  0080     E  	mov _builtin_holtek_mant1[0],a
 113  0482  3400     E  	clr _builtin_holtek_signs.0
 113  0483              	fcall _builtin_holtek_uitof
 113  048A  0700     E  	mov a,_builtin_holtek_mant1[2]
 113  048B  0080     E  	mov re,a
 113  048C  0700     E  	mov a,_builtin_holtek_mant1[1]
 113  048D  0080     E  	mov rd,a
 113  048E  0700     E  	mov a,_builtin_holtek_mant1[0]
 113  048F  0080     E  	mov rc,a
 113  0490  0700     E  	mov a,re
 113  0491  0080     E  	mov rg,a
 113  0492  0700     E  	mov a,rd
 113  0493  0080     E  	mov rf,a
 113  0494  0700     E  	mov a,rc
 113  0495  0080     E  	mov re,a
 113  0496  1F00     E  	clr rd
 113  0497  0700     E  	mov a,rg
 113  0498  0080     E  	mov _builtin_holtek_mant12p[0],a
 113  0499  0700     E  	mov a,rf
 113  049A  0080     E  	mov _builtin_holtek_mant1[2],a
 113  049B  0700     E  	mov a,re
 113  049C  0080     E  	mov _builtin_holtek_mant1[1],a
 113  049D  0700     E  	mov a,rd
 113  049E  0080     E  	mov _builtin_holtek_mant1[0],a
 113  049F  0F3C        	mov a,60
 113  04A0  0080     E  	mov _builtin_holtek_mant12p[1],a
 113  04A1  0F23        	mov a,35
 113  04A2  0080     E  	mov _builtin_holtek_mant2[2],a
 113  04A3  0FD7        	mov a,215
 113  04A4  0080     E  	mov _builtin_holtek_mant2[1],a
 113  04A5  0F0A        	mov a,10
 113  04A6  0080     E  	mov _builtin_holtek_mant2[0],a
 113  04A7              	fcall _builtin_holtek_dtmul
 113  04AE  0700     E  	mov a,_builtin_holtek_mant12p[0]
 113  04AF  0080     R  	mov _fun_SineWaveInit_2[4],a
 113  04B0  0700     E  	mov a,_builtin_holtek_mant1[2]
 113  04B1  0080     R  	mov _fun_SineWaveInit_2[3],a
 113  04B2  0700     E  	mov a,_builtin_holtek_mant1[1]
 113  04B3  0080     R  	mov _fun_SineWaveInit_2[2],a
 113  04B4  0700     E  	mov a,_builtin_holtek_mant1[0]
 113  04B5  0080     R  	mov _fun_SineWaveInit_2[1],a
 113  04B6  0F20        	mov a,32
 113  04B7  0080     E  	mov rh,a
文件：sin.c        编译器版本 HGASM 0202 页次19

 113  04B8  1F00     E  	clr ra
 113  04B9              _L29:
 113  04B9  0700     E  	mov a,ra
 113  04BA  0080     E  	mov rb,a
 113  04BB  1F00     E  	clr rc
 113  04BC  340A        	clr c
 113  04BD  1A80     E  	rlc rb
 113  04BE  1A80     E  	rlc rc
 113  04BF  0F00     R  	mov a,low offset _SinData_20
 113  04C0  0300     E  	add a,rb
 113  04C1  0083        	mov mp,a
 113  04C2  0F00     R  	mov a,high offset _SinData_20
 113  04C3  1300     E  	adc a,rc
 113  04C4  0084        	mov sbp,a
 113  04C5              	fcall _Crom2Prom
 113  04CC  0080     E  	mov rd,a
 113  04CD              	fcall _Crom2PromNext
 113  04D4  0080     E  	mov re,a
 113  04D5  0700     E  	mov a,re
 113  04D6  0080     E  	mov _builtin_holtek_mant1[1],a
 113  04D7  0700     E  	mov a,rd
 113  04D8  0080     E  	mov _builtin_holtek_mant1[0],a
 113  04D9  3400     E  	clr _builtin_holtek_signs.0
 113  04DA              	fcall _builtin_holtek_uitod
 113  04E1  0700     E  	mov a,_builtin_holtek_mant12p[0]
 113  04E2  0080     E  	mov rg,a
 113  04E3  0700     E  	mov a,_builtin_holtek_mant1[2]
 113  04E4  0080     E  	mov rf,a
 113  04E5  0700     E  	mov a,_builtin_holtek_mant1[1]
 113  04E6  0080     E  	mov re,a
 113  04E7  0700     E  	mov a,_builtin_holtek_mant1[0]
 113  04E8  0080     E  	mov rd,a
 113  04E9  0700     R  	mov a,_fun_SineWaveInit_2[4]
 113  04EA  0080     E  	mov _builtin_holtek_mant12p[0],a
 113  04EB  0700     R  	mov a,_fun_SineWaveInit_2[3]
 113  04EC  0080     E  	mov _builtin_holtek_mant1[2],a
 113  04ED  0700     R  	mov a,_fun_SineWaveInit_2[2]
 113  04EE  0080     E  	mov _builtin_holtek_mant1[1],a
 113  04EF  0700     R  	mov a,_fun_SineWaveInit_2[1]
 113  04F0  0080     E  	mov _builtin_holtek_mant1[0],a
 113  04F1  0700     E  	mov a,rg
 113  04F2  0080     E  	mov _builtin_holtek_mant12p[1],a
 113  04F3  0700     E  	mov a,rf
 113  04F4  0080     E  	mov _builtin_holtek_mant2[2],a
 113  04F5  0700     E  	mov a,re
 113  04F6  0080     E  	mov _builtin_holtek_mant2[1],a
 113  04F7  0700     E  	mov a,rd
 113  04F8  0080     E  	mov _builtin_holtek_mant2[0],a
 113  04F9              	fcall _builtin_holtek_dtmul
 113  0500  0700     E  	mov a,_builtin_holtek_mant12p[0]
 113  0501  0080     E  	mov rg,a
 113  0502  0700     E  	mov a,_builtin_holtek_mant1[2]
 113  0503  0080     E  	mov rf,a
 113  0504  0700     E  	mov a,_builtin_holtek_mant1[1]
 113  0505  0080     E  	mov re,a
 113  0506  0700     E  	mov a,_builtin_holtek_mant1[0]
 113  0507  0080     E  	mov rd,a
 113  0508  0700     E  	mov a,rg
 113  0509  0080     E  	mov _builtin_holtek_mant12p[0],a
 113  050A  0700     E  	mov a,rf
文件：sin.c        编译器版本 HGASM 0202 页次20

 113  050B  0080     E  	mov _builtin_holtek_mant1[2],a
 113  050C  0700     E  	mov a,re
 113  050D  0080     E  	mov _builtin_holtek_mant1[1],a
 113  050E  0700     E  	mov a,rd
 113  050F  0080     E  	mov _builtin_holtek_mant1[0],a
 113  0510              	fcall _builtin_holtek_dtol
 113  0517  0700     E  	mov a,_builtin_holtek_mant12p[0]
 113  0518  0080     E  	mov rg,a
 113  0519  0700     E  	mov a,_builtin_holtek_mant1[2]
 113  051A  0080     E  	mov rf,a
 113  051B  0700     E  	mov a,_builtin_holtek_mant1[1]
 113  051C  0080     E  	mov re,a
 113  051D  0700     E  	mov a,_builtin_holtek_mant1[0]
 113  051E  0080     E  	mov rd,a
 113  051F  0F00        	mov a,low offset _SinDataRam
 113  0520  0300     E  	add a,rb
 113  0521  0083        	mov mp,a
 113  0522  0F03        	mov a,high offset _SinDataRam
 113  0523  1300     E  	adc a,rc
 113  0524  0084        	mov sbp,a
 113  0525  0700     E  	mov a,rd
 113  0526  0082        	mov ir,a
 113  0527  1483        	inc mp
 113  0528  0700     E  	mov a,re
 113  0529  0082        	mov ir,a
 111  052A              #line 111 "c:\users\longshuangmin\desktop\worke_space\g-501\g-501\sin.c"
 111  052A  1480     E  	inc ra
 111  052B  1780     E  	sdz rh
 111  052C  2800     R  	jmp _L29
 115  052D              #line 115 "c:\users\longshuangmin\desktop\worke_space\g-501\g-501\sin.c"
 115  052D  0F03        	mov a,3
 115  052E  00F9        	mov [121],a
 115  052F  2800     R  	jmp _L43
 115  0530              _L10:
 120  0530              #line 120 "c:\users\longshuangmin\desktop\worke_space\g-501\g-501\sin.c"
 120  0530  0700     E  	mov a,_M_SinGain[0]
 120  0531  0080     E  	mov rd,a
 120  0532  1F00     E  	clr re
 120  0533  0700     E  	mov a,re
 120  0534  0080     E  	mov _builtin_holtek_mant1[1],a
 120  0535  0700     E  	mov a,rd
 120  0536  0080     E  	mov _builtin_holtek_mant1[0],a
 120  0537  3400     E  	clr _builtin_holtek_signs.0
 120  0538              	fcall _builtin_holtek_uitof
 120  053F  0700     E  	mov a,_builtin_holtek_mant1[2]
 120  0540  0080     E  	mov re,a
 120  0541  0700     E  	mov a,_builtin_holtek_mant1[1]
 120  0542  0080     E  	mov rd,a
 120  0543  0700     E  	mov a,_builtin_holtek_mant1[0]
 120  0544  0080     E  	mov rc,a
 120  0545  0700     E  	mov a,re
 120  0546  0080     E  	mov rg,a
 120  0547  0700     E  	mov a,rd
 120  0548  0080     E  	mov rf,a
 120  0549  0700     E  	mov a,rc
 120  054A  0080     E  	mov re,a
 120  054B  1F00     E  	clr rd
 120  054C  0700     E  	mov a,rg
 120  054D  0080     E  	mov _builtin_holtek_mant12p[0],a
 120  054E  0700     E  	mov a,rf
文件：sin.c        编译器版本 HGASM 0202 页次21

 120  054F  0080     E  	mov _builtin_holtek_mant1[2],a
 120  0550  0700     E  	mov a,re
 120  0551  0080     E  	mov _builtin_holtek_mant1[1],a
 120  0552  0700     E  	mov a,rd
 120  0553  0080     E  	mov _builtin_holtek_mant1[0],a
 120  0554  0F3C        	mov a,60
 120  0555  0080     E  	mov _builtin_holtek_mant12p[1],a
 120  0556  0F23        	mov a,35
 120  0557  0080     E  	mov _builtin_holtek_mant2[2],a
 120  0558  0FD7        	mov a,215
 120  0559  0080     E  	mov _builtin_holtek_mant2[1],a
 120  055A  0F0A        	mov a,10
 120  055B  0080     E  	mov _builtin_holtek_mant2[0],a
 120  055C              	fcall _builtin_holtek_dtmul
 120  0563  0700     E  	mov a,_builtin_holtek_mant12p[0]
 120  0564  0080     R  	mov _fun_SineWaveInit_2[4],a
 120  0565  0700     E  	mov a,_builtin_holtek_mant1[2]
 120  0566  0080     R  	mov _fun_SineWaveInit_2[3],a
 120  0567  0700     E  	mov a,_builtin_holtek_mant1[1]
 120  0568  0080     R  	mov _fun_SineWaveInit_2[2],a
 120  0569  0700     E  	mov a,_builtin_holtek_mant1[0]
 120  056A  0080     R  	mov _fun_SineWaveInit_2[1],a
 120  056B  0F20        	mov a,32
 120  056C  0080     E  	mov rh,a
 120  056D  1F00     E  	clr ra
 120  056E              _L31:
 120  056E  0700     E  	mov a,ra
 120  056F  0080     E  	mov rb,a
 120  0570  1F00     E  	clr rc
 120  0571  340A        	clr c
 120  0572  1A80     E  	rlc rb
 120  0573  1A80     E  	rlc rc
 120  0574  0F00     R  	mov a,low offset _SinData_20
 120  0575  0300     E  	add a,rb
 120  0576  0083        	mov mp,a
 120  0577  0F00     R  	mov a,high offset _SinData_20
 120  0578  1300     E  	adc a,rc
 120  0579  0084        	mov sbp,a
 120  057A              	fcall _Crom2Prom
 120  0581  0080     E  	mov rd,a
 120  0582              	fcall _Crom2PromNext
 120  0589  0080     E  	mov re,a
 120  058A  0700     E  	mov a,re
 120  058B  0080     E  	mov _builtin_holtek_mant1[1],a
 120  058C  0700     E  	mov a,rd
 120  058D  0080     E  	mov _builtin_holtek_mant1[0],a
 120  058E  3400     E  	clr _builtin_holtek_signs.0
 120  058F              	fcall _builtin_holtek_uitod
 120  0596  0700     E  	mov a,_builtin_holtek_mant12p[0]
 120  0597  0080     E  	mov rg,a
 120  0598  0700     E  	mov a,_builtin_holtek_mant1[2]
 120  0599  0080     E  	mov rf,a
 120  059A  0700     E  	mov a,_builtin_holtek_mant1[1]
 120  059B  0080     E  	mov re,a
 120  059C  0700     E  	mov a,_builtin_holtek_mant1[0]
 120  059D  0080     E  	mov rd,a
 120  059E  0700     R  	mov a,_fun_SineWaveInit_2[4]
 120  059F  0080     E  	mov _builtin_holtek_mant12p[0],a
 120  05A0  0700     R  	mov a,_fun_SineWaveInit_2[3]
 120  05A1  0080     E  	mov _builtin_holtek_mant1[2],a
文件：sin.c        编译器版本 HGASM 0202 页次22

 120  05A2  0700     R  	mov a,_fun_SineWaveInit_2[2]
 120  05A3  0080     E  	mov _builtin_holtek_mant1[1],a
 120  05A4  0700     R  	mov a,_fun_SineWaveInit_2[1]
 120  05A5  0080     E  	mov _builtin_holtek_mant1[0],a
 120  05A6  0700     E  	mov a,rg
 120  05A7  0080     E  	mov _builtin_holtek_mant12p[1],a
 120  05A8  0700     E  	mov a,rf
 120  05A9  0080     E  	mov _builtin_holtek_mant2[2],a
 120  05AA  0700     E  	mov a,re
 120  05AB  0080     E  	mov _builtin_holtek_mant2[1],a
 120  05AC  0700     E  	mov a,rd
 120  05AD  0080     E  	mov _builtin_holtek_mant2[0],a
 120  05AE              	fcall _builtin_holtek_dtmul
 120  05B5  0700     E  	mov a,_builtin_holtek_mant12p[0]
 120  05B6  0080     E  	mov rg,a
 120  05B7  0700     E  	mov a,_builtin_holtek_mant1[2]
 120  05B8  0080     E  	mov rf,a
 120  05B9  0700     E  	mov a,_builtin_holtek_mant1[1]
 120  05BA  0080     E  	mov re,a
 120  05BB  0700     E  	mov a,_builtin_holtek_mant1[0]
 120  05BC  0080     E  	mov rd,a
 120  05BD  0700     E  	mov a,rg
 120  05BE  0080     E  	mov _builtin_holtek_mant12p[0],a
 120  05BF  0700     E  	mov a,rf
 120  05C0  0080     E  	mov _builtin_holtek_mant1[2],a
 120  05C1  0700     E  	mov a,re
 120  05C2  0080     E  	mov _builtin_holtek_mant1[1],a
 120  05C3  0700     E  	mov a,rd
 120  05C4  0080     E  	mov _builtin_holtek_mant1[0],a
 120  05C5              	fcall _builtin_holtek_dtol
 120  05CC  0700     E  	mov a,_builtin_holtek_mant12p[0]
 120  05CD  0080     E  	mov rg,a
 120  05CE  0700     E  	mov a,_builtin_holtek_mant1[2]
 120  05CF  0080     E  	mov rf,a
 120  05D0  0700     E  	mov a,_builtin_holtek_mant1[1]
 120  05D1  0080     E  	mov re,a
 120  05D2  0700     E  	mov a,_builtin_holtek_mant1[0]
 120  05D3  0080     E  	mov rd,a
 120  05D4  0F00        	mov a,low offset _SinDataRam
 120  05D5  0300     E  	add a,rb
 120  05D6  0083        	mov mp,a
 120  05D7  0F03        	mov a,high offset _SinDataRam
 120  05D8  1300     E  	adc a,rc
 120  05D9  0084        	mov sbp,a
 120  05DA  0700     E  	mov a,rd
 120  05DB  0082        	mov ir,a
 120  05DC  1483        	inc mp
 120  05DD  0700     E  	mov a,re
 120  05DE  0082        	mov ir,a
 118  05DF              #line 118 "c:\users\longshuangmin\desktop\worke_space\g-501\g-501\sin.c"
 118  05DF  1480     E  	inc ra
 118  05E0  1780     E  	sdz rh
 118  05E1  2800     R  	jmp _L31
 122  05E2              #line 122 "c:\users\longshuangmin\desktop\worke_space\g-501\g-501\sin.c"
 122  05E2  0F01        	mov a,1
 122  05E3  00F9        	mov [121],a
 122  05E4  2800     R  	jmp _L43
 122  05E5              _L11:
 127  05E5              #line 127 "c:\users\longshuangmin\desktop\worke_space\g-501\g-501\sin.c"
 127  05E5  0700     E  	mov a,_M_SinGain[0]
文件：sin.c        编译器版本 HGASM 0202 页次23

 127  05E6  0080     E  	mov rd,a
 127  05E7  1F00     E  	clr re
 127  05E8  0700     E  	mov a,re
 127  05E9  0080     E  	mov _builtin_holtek_mant1[1],a
 127  05EA  0700     E  	mov a,rd
 127  05EB  0080     E  	mov _builtin_holtek_mant1[0],a
 127  05EC  3400     E  	clr _builtin_holtek_signs.0
 127  05ED              	fcall _builtin_holtek_uitof
 127  05F4  0700     E  	mov a,_builtin_holtek_mant1[2]
 127  05F5  0080     E  	mov re,a
 127  05F6  0700     E  	mov a,_builtin_holtek_mant1[1]
 127  05F7  0080     E  	mov rd,a
 127  05F8  0700     E  	mov a,_builtin_holtek_mant1[0]
 127  05F9  0080     E  	mov rc,a
 127  05FA  0700     E  	mov a,re
 127  05FB  0080     E  	mov rg,a
 127  05FC  0700     E  	mov a,rd
 127  05FD  0080     E  	mov rf,a
 127  05FE  0700     E  	mov a,rc
 127  05FF  0080     E  	mov re,a
 127  0600  1F00     E  	clr rd
 127  0601  0700     E  	mov a,rg
 127  0602  0080     E  	mov _builtin_holtek_mant12p[0],a
 127  0603  0700     E  	mov a,rf
 127  0604  0080     E  	mov _builtin_holtek_mant1[2],a
 127  0605  0700     E  	mov a,re
 127  0606  0080     E  	mov _builtin_holtek_mant1[1],a
 127  0607  0700     E  	mov a,rd
 127  0608  0080     E  	mov _builtin_holtek_mant1[0],a
 127  0609  0F3C        	mov a,60
 127  060A  0080     E  	mov _builtin_holtek_mant12p[1],a
 127  060B  0F23        	mov a,35
 127  060C  0080     E  	mov _builtin_holtek_mant2[2],a
 127  060D  0FD7        	mov a,215
 127  060E  0080     E  	mov _builtin_holtek_mant2[1],a
 127  060F  0F0A        	mov a,10
 127  0610  0080     E  	mov _builtin_holtek_mant2[0],a
 127  0611              	fcall _builtin_holtek_dtmul
 127  0618  0700     E  	mov a,_builtin_holtek_mant12p[0]
 127  0619  0080     R  	mov _fun_SineWaveInit_2[4],a
 127  061A  0700     E  	mov a,_builtin_holtek_mant1[2]
 127  061B  0080     R  	mov _fun_SineWaveInit_2[3],a
 127  061C  0700     E  	mov a,_builtin_holtek_mant1[1]
 127  061D  0080     R  	mov _fun_SineWaveInit_2[2],a
 127  061E  0700     E  	mov a,_builtin_holtek_mant1[0]
 127  061F  0080     R  	mov _fun_SineWaveInit_2[1],a
 127  0620  0F20        	mov a,32
 127  0621  0080     E  	mov rh,a
 127  0622  1F00     E  	clr ra
 127  0623              _L33:
 127  0623  0700     E  	mov a,ra
 127  0624  0080     E  	mov rb,a
 127  0625  1F00     E  	clr rc
 127  0626  340A        	clr c
 127  0627  1A80     E  	rlc rb
 127  0628  1A80     E  	rlc rc
 127  0629  0F00     R  	mov a,low offset _SinData_28
 127  062A  0300     E  	add a,rb
 127  062B  0083        	mov mp,a
 127  062C  0F00     R  	mov a,high offset _SinData_28
文件：sin.c        编译器版本 HGASM 0202 页次24

 127  062D  1300     E  	adc a,rc
 127  062E  0084        	mov sbp,a
 127  062F              	fcall _Crom2Prom
 127  0636  0080     E  	mov rd,a
 127  0637              	fcall _Crom2PromNext
 127  063E  0080     E  	mov re,a
 127  063F  0700     E  	mov a,re
 127  0640  0080     E  	mov _builtin_holtek_mant1[1],a
 127  0641  0700     E  	mov a,rd
 127  0642  0080     E  	mov _builtin_holtek_mant1[0],a
 127  0643  3400     E  	clr _builtin_holtek_signs.0
 127  0644              	fcall _builtin_holtek_uitod
 127  064B  0700     E  	mov a,_builtin_holtek_mant12p[0]
 127  064C  0080     E  	mov rg,a
 127  064D  0700     E  	mov a,_builtin_holtek_mant1[2]
 127  064E  0080     E  	mov rf,a
 127  064F  0700     E  	mov a,_builtin_holtek_mant1[1]
 127  0650  0080     E  	mov re,a
 127  0651  0700     E  	mov a,_builtin_holtek_mant1[0]
 127  0652  0080     E  	mov rd,a
 127  0653  0700     R  	mov a,_fun_SineWaveInit_2[4]
 127  0654  0080     E  	mov _builtin_holtek_mant12p[0],a
 127  0655  0700     R  	mov a,_fun_SineWaveInit_2[3]
 127  0656  0080     E  	mov _builtin_holtek_mant1[2],a
 127  0657  0700     R  	mov a,_fun_SineWaveInit_2[2]
 127  0658  0080     E  	mov _builtin_holtek_mant1[1],a
 127  0659  0700     R  	mov a,_fun_SineWaveInit_2[1]
 127  065A  0080     E  	mov _builtin_holtek_mant1[0],a
 127  065B  0700     E  	mov a,rg
 127  065C  0080     E  	mov _builtin_holtek_mant12p[1],a
 127  065D  0700     E  	mov a,rf
 127  065E  0080     E  	mov _builtin_holtek_mant2[2],a
 127  065F  0700     E  	mov a,re
 127  0660  0080     E  	mov _builtin_holtek_mant2[1],a
 127  0661  0700     E  	mov a,rd
 127  0662  0080     E  	mov _builtin_holtek_mant2[0],a
 127  0663              	fcall _builtin_holtek_dtmul
 127  066A  0700     E  	mov a,_builtin_holtek_mant12p[0]
 127  066B  0080     E  	mov rg,a
 127  066C  0700     E  	mov a,_builtin_holtek_mant1[2]
 127  066D  0080     E  	mov rf,a
 127  066E  0700     E  	mov a,_builtin_holtek_mant1[1]
 127  066F  0080     E  	mov re,a
 127  0670  0700     E  	mov a,_builtin_holtek_mant1[0]
 127  0671  0080     E  	mov rd,a
 127  0672  0700     E  	mov a,rg
 127  0673  0080     E  	mov _builtin_holtek_mant12p[0],a
 127  0674  0700     E  	mov a,rf
 127  0675  0080     E  	mov _builtin_holtek_mant1[2],a
 127  0676  0700     E  	mov a,re
 127  0677  0080     E  	mov _builtin_holtek_mant1[1],a
 127  0678  0700     E  	mov a,rd
 127  0679  0080     E  	mov _builtin_holtek_mant1[0],a
 127  067A              	fcall _builtin_holtek_dtol
 127  0681  0700     E  	mov a,_builtin_holtek_mant12p[0]
 127  0682  0080     E  	mov rg,a
 127  0683  0700     E  	mov a,_builtin_holtek_mant1[2]
 127  0684  0080     E  	mov rf,a
 127  0685  0700     E  	mov a,_builtin_holtek_mant1[1]
 127  0686  0080     E  	mov re,a
文件：sin.c        编译器版本 HGASM 0202 页次25

 127  0687  0700     E  	mov a,_builtin_holtek_mant1[0]
 127  0688  0080     E  	mov rd,a
 127  0689  0F00        	mov a,low offset _SinDataRam
 127  068A  0300     E  	add a,rb
 127  068B  0083        	mov mp,a
 127  068C  0F03        	mov a,high offset _SinDataRam
 127  068D  1300     E  	adc a,rc
 127  068E  0084        	mov sbp,a
 127  068F  0700     E  	mov a,rd
 127  0690  0082        	mov ir,a
 127  0691  1483        	inc mp
 127  0692  0700     E  	mov a,re
 127  0693  0082        	mov ir,a
 125  0694              #line 125 "c:\users\longshuangmin\desktop\worke_space\g-501\g-501\sin.c"
 125  0694  1480     E  	inc ra
 125  0695  1780     E  	sdz rh
 125  0696  2800     R  	jmp _L33
 129  0697              #line 129 "c:\users\longshuangmin\desktop\worke_space\g-501\g-501\sin.c"
 129  0697  1F79        	clr [121]
 129  0698  0F1B        	mov a,27
 129  0699  00FA        	mov [122],a
 130  069A              #line 130 "c:\users\longshuangmin\desktop\worke_space\g-501\g-501\sin.c"
 130  069A  2800     R  	jmp _L17
 130  069B              _L12:
 135  069B              #line 135 "c:\users\longshuangmin\desktop\worke_space\g-501\g-501\sin.c"
 135  069B  0700     E  	mov a,_M_SinGain[0]
 135  069C  0080     E  	mov rd,a
 135  069D  1F00     E  	clr re
 135  069E  0700     E  	mov a,re
 135  069F  0080     E  	mov _builtin_holtek_mant1[1],a
 135  06A0  0700     E  	mov a,rd
 135  06A1  0080     E  	mov _builtin_holtek_mant1[0],a
 135  06A2  3400     E  	clr _builtin_holtek_signs.0
 135  06A3              	fcall _builtin_holtek_uitof
 135  06AA  0700     E  	mov a,_builtin_holtek_mant1[2]
 135  06AB  0080     E  	mov re,a
 135  06AC  0700     E  	mov a,_builtin_holtek_mant1[1]
 135  06AD  0080     E  	mov rd,a
 135  06AE  0700     E  	mov a,_builtin_holtek_mant1[0]
 135  06AF  0080     E  	mov rc,a
 135  06B0  0700     E  	mov a,re
 135  06B1  0080     E  	mov rg,a
 135  06B2  0700     E  	mov a,rd
 135  06B3  0080     E  	mov rf,a
 135  06B4  0700     E  	mov a,rc
 135  06B5  0080     E  	mov re,a
 135  06B6  1F00     E  	clr rd
 135  06B7  0700     E  	mov a,rg
 135  06B8  0080     E  	mov _builtin_holtek_mant12p[0],a
 135  06B9  0700     E  	mov a,rf
 135  06BA  0080     E  	mov _builtin_holtek_mant1[2],a
 135  06BB  0700     E  	mov a,re
 135  06BC  0080     E  	mov _builtin_holtek_mant1[1],a
 135  06BD  0700     E  	mov a,rd
 135  06BE  0080     E  	mov _builtin_holtek_mant1[0],a
 135  06BF  0F3C        	mov a,60
 135  06C0  0080     E  	mov _builtin_holtek_mant12p[1],a
 135  06C1  0F23        	mov a,35
 135  06C2  0080     E  	mov _builtin_holtek_mant2[2],a
 135  06C3  0FD7        	mov a,215
文件：sin.c        编译器版本 HGASM 0202 页次26

 135  06C4  0080     E  	mov _builtin_holtek_mant2[1],a
 135  06C5  0F0A        	mov a,10
 135  06C6  0080     E  	mov _builtin_holtek_mant2[0],a
 135  06C7              	fcall _builtin_holtek_dtmul
 135  06CE  0700     E  	mov a,_builtin_holtek_mant12p[0]
 135  06CF  0080     R  	mov _fun_SineWaveInit_2[4],a
 135  06D0  0700     E  	mov a,_builtin_holtek_mant1[2]
 135  06D1  0080     R  	mov _fun_SineWaveInit_2[3],a
 135  06D2  0700     E  	mov a,_builtin_holtek_mant1[1]
 135  06D3  0080     R  	mov _fun_SineWaveInit_2[2],a
 135  06D4  0700     E  	mov a,_builtin_holtek_mant1[0]
 135  06D5  0080     R  	mov _fun_SineWaveInit_2[1],a
 135  06D6  0F20        	mov a,32
 135  06D7  0080     E  	mov rh,a
 135  06D8  1F00     E  	clr ra
 135  06D9              _L35:
 135  06D9  0700     E  	mov a,ra
 135  06DA  0080     E  	mov rb,a
 135  06DB  1F00     E  	clr rc
 135  06DC  340A        	clr c
 135  06DD  1A80     E  	rlc rb
 135  06DE  1A80     E  	rlc rc
 135  06DF  0F00     R  	mov a,low offset _SinData_20
 135  06E0  0300     E  	add a,rb
 135  06E1  0083        	mov mp,a
 135  06E2  0F00     R  	mov a,high offset _SinData_20
 135  06E3  1300     E  	adc a,rc
 135  06E4  0084        	mov sbp,a
 135  06E5              	fcall _Crom2Prom
 135  06EC  0080     E  	mov rd,a
 135  06ED              	fcall _Crom2PromNext
 135  06F4  0080     E  	mov re,a
 135  06F5  0700     E  	mov a,re
 135  06F6  0080     E  	mov _builtin_holtek_mant1[1],a
 135  06F7  0700     E  	mov a,rd
 135  06F8  0080     E  	mov _builtin_holtek_mant1[0],a
 135  06F9  3400     E  	clr _builtin_holtek_signs.0
 135  06FA              	fcall _builtin_holtek_uitod
 135  0701  0700     E  	mov a,_builtin_holtek_mant12p[0]
 135  0702  0080     E  	mov rg,a
 135  0703  0700     E  	mov a,_builtin_holtek_mant1[2]
 135  0704  0080     E  	mov rf,a
 135  0705  0700     E  	mov a,_builtin_holtek_mant1[1]
 135  0706  0080     E  	mov re,a
 135  0707  0700     E  	mov a,_builtin_holtek_mant1[0]
 135  0708  0080     E  	mov rd,a
 135  0709  0700     R  	mov a,_fun_SineWaveInit_2[4]
 135  070A  0080     E  	mov _builtin_holtek_mant12p[0],a
 135  070B  0700     R  	mov a,_fun_SineWaveInit_2[3]
 135  070C  0080     E  	mov _builtin_holtek_mant1[2],a
 135  070D  0700     R  	mov a,_fun_SineWaveInit_2[2]
 135  070E  0080     E  	mov _builtin_holtek_mant1[1],a
 135  070F  0700     R  	mov a,_fun_SineWaveInit_2[1]
 135  0710  0080     E  	mov _builtin_holtek_mant1[0],a
 135  0711  0700     E  	mov a,rg
 135  0712  0080     E  	mov _builtin_holtek_mant12p[1],a
 135  0713  0700     E  	mov a,rf
 135  0714  0080     E  	mov _builtin_holtek_mant2[2],a
 135  0715  0700     E  	mov a,re
 135  0716  0080     E  	mov _builtin_holtek_mant2[1],a
文件：sin.c        编译器版本 HGASM 0202 页次27

 135  0717  0700     E  	mov a,rd
 135  0718  0080     E  	mov _builtin_holtek_mant2[0],a
 135  0719              	fcall _builtin_holtek_dtmul
 135  0720  0700     E  	mov a,_builtin_holtek_mant12p[0]
 135  0721  0080     E  	mov rg,a
 135  0722  0700     E  	mov a,_builtin_holtek_mant1[2]
 135  0723  0080     E  	mov rf,a
 135  0724  0700     E  	mov a,_builtin_holtek_mant1[1]
 135  0725  0080     E  	mov re,a
 135  0726  0700     E  	mov a,_builtin_holtek_mant1[0]
 135  0727  0080     E  	mov rd,a
 135  0728  0700     E  	mov a,rg
 135  0729  0080     E  	mov _builtin_holtek_mant12p[0],a
 135  072A  0700     E  	mov a,rf
 135  072B  0080     E  	mov _builtin_holtek_mant1[2],a
 135  072C  0700     E  	mov a,re
 135  072D  0080     E  	mov _builtin_holtek_mant1[1],a
 135  072E  0700     E  	mov a,rd
 135  072F  0080     E  	mov _builtin_holtek_mant1[0],a
 135  0730              	fcall _builtin_holtek_dtol
 135  0737  0700     E  	mov a,_builtin_holtek_mant12p[0]
 135  0738  0080     E  	mov rg,a
 135  0739  0700     E  	mov a,_builtin_holtek_mant1[2]
 135  073A  0080     E  	mov rf,a
 135  073B  0700     E  	mov a,_builtin_holtek_mant1[1]
 135  073C  0080     E  	mov re,a
 135  073D  0700     E  	mov a,_builtin_holtek_mant1[0]
 135  073E  0080     E  	mov rd,a
 135  073F  0F00        	mov a,low offset _SinDataRam
 135  0740  0300     E  	add a,rb
 135  0741  0083        	mov mp,a
 135  0742  0F03        	mov a,high offset _SinDataRam
 135  0743  1300     E  	adc a,rc
 135  0744  0084        	mov sbp,a
 135  0745  0700     E  	mov a,rd
 135  0746  0082        	mov ir,a
 135  0747  1483        	inc mp
 135  0748  0700     E  	mov a,re
 135  0749  0082        	mov ir,a
 133  074A              #line 133 "c:\users\longshuangmin\desktop\worke_space\g-501\g-501\sin.c"
 133  074A  1480     E  	inc ra
 133  074B  1780     E  	sdz rh
 133  074C  2800     R  	jmp _L35
 137  074D              #line 137 "c:\users\longshuangmin\desktop\worke_space\g-501\g-501\sin.c"
 137  074D  1F79        	clr [121]
 137  074E  2800     R  	jmp _L43
 137  074F              _L13:
  61  074F              #line 61 "c:\users\longshuangmin\desktop\worke_space\g-501\g-501\sin.c"
  61  074F  0F20        	mov a,32
  61  0750  0080     E  	mov ra,a
  61  0751  1F00     E  	clr rh
  61  0752              _L37:
 151  0752              #line 151 "c:\users\longshuangmin\desktop\worke_space\g-501\g-501\sin.c"
 151  0752  0700     E  	mov a,rh
 151  0753  0080     E  	mov rb,a
 151  0754  1F00     E  	clr rc
 151  0755  340A        	clr c
 151  0756  1A80     E  	rlc rb
 151  0757  1A80     E  	rlc rc
 151  0758  0F00     R  	mov a,low offset _SinData_8
文件：sin.c        编译器版本 HGASM 0202 页次28

 151  0759  0300     E  	add a,rb
 151  075A  0083        	mov mp,a
 151  075B  0F00     R  	mov a,high offset _SinData_8
 151  075C  1300     E  	adc a,rc
 151  075D  0084        	mov sbp,a
 151  075E              	fcall _Crom2Prom
 151  0765  0080     E  	mov rd,a
 151  0766              	fcall _Crom2PromNext
 151  076D  0080     E  	mov re,a
 151  076E  0700     E  	mov a,re
 151  076F  0080     E  	mov _builtin_holtek_mant1[1],a
 151  0770  0700     E  	mov a,rd
 151  0771  0080     E  	mov _builtin_holtek_mant1[0],a
 151  0772  3400     E  	clr _builtin_holtek_signs.0
 151  0773              	fcall _builtin_holtek_uitod
 151  077A  0700     E  	mov a,_builtin_holtek_mant12p[0]
 151  077B  0080     E  	mov rg,a
 151  077C  0700     E  	mov a,_builtin_holtek_mant1[2]
 151  077D  0080     E  	mov rf,a
 151  077E  0700     E  	mov a,_builtin_holtek_mant1[1]
 151  077F  0080     E  	mov re,a
 151  0780  0700     E  	mov a,_builtin_holtek_mant1[0]
 151  0781  0080     E  	mov rd,a
 151  0782  0700     E  	mov a,rg
 151  0783  0080     E  	mov _builtin_holtek_mant12p[0],a
 151  0784  0700     E  	mov a,rf
 151  0785  0080     E  	mov _builtin_holtek_mant1[2],a
 151  0786  0700     E  	mov a,re
 151  0787  0080     E  	mov _builtin_holtek_mant1[1],a
 151  0788  0700     E  	mov a,rd
 151  0789  0080     E  	mov _builtin_holtek_mant1[0],a
 151  078A  0F3F        	mov a,63
 151  078B  0080     E  	mov _builtin_holtek_mant12p[1],a
 151  078C  0F00        	mov a,0
 151  078D  0080     E  	mov _builtin_holtek_mant2[2],a
 151  078E  0F00        	mov a,0
 151  078F  0080     E  	mov _builtin_holtek_mant2[1],a
 151  0790  0F00        	mov a,0
 151  0791  0080     E  	mov _builtin_holtek_mant2[0],a
 151  0792              	fcall _builtin_holtek_dtmul
 151  0799  0700     E  	mov a,_builtin_holtek_mant12p[0]
 151  079A  0080     E  	mov rg,a
 151  079B  0700     E  	mov a,_builtin_holtek_mant1[2]
 151  079C  0080     E  	mov rf,a
 151  079D  0700     E  	mov a,_builtin_holtek_mant1[1]
 151  079E  0080     E  	mov re,a
 151  079F  0700     E  	mov a,_builtin_holtek_mant1[0]
 151  07A0  0080     E  	mov rd,a
 151  07A1  0700     E  	mov a,rg
 151  07A2  0080     E  	mov _builtin_holtek_mant12p[0],a
 151  07A3  0700     E  	mov a,rf
 151  07A4  0080     E  	mov _builtin_holtek_mant1[2],a
 151  07A5  0700     E  	mov a,re
 151  07A6  0080     E  	mov _builtin_holtek_mant1[1],a
 151  07A7  0700     E  	mov a,rd
 151  07A8  0080     E  	mov _builtin_holtek_mant1[0],a
 151  07A9              	fcall _builtin_holtek_dtol
 151  07B0  0700     E  	mov a,_builtin_holtek_mant12p[0]
 151  07B1  0080     E  	mov rg,a
 151  07B2  0700     E  	mov a,_builtin_holtek_mant1[2]
文件：sin.c        编译器版本 HGASM 0202 页次29

 151  07B3  0080     E  	mov rf,a
 151  07B4  0700     E  	mov a,_builtin_holtek_mant1[1]
 151  07B5  0080     E  	mov re,a
 151  07B6  0700     E  	mov a,_builtin_holtek_mant1[0]
 151  07B7  0080     E  	mov rd,a
 151  07B8  0F00        	mov a,low offset _SinDataRam
 151  07B9  0300     E  	add a,rb
 151  07BA  0083        	mov mp,a
 151  07BB  0F03        	mov a,high offset _SinDataRam
 151  07BC  1300     E  	adc a,rc
 151  07BD  0084        	mov sbp,a
 151  07BE  0700     E  	mov a,rd
 151  07BF  0082        	mov ir,a
 151  07C0  1483        	inc mp
 151  07C1  0700     E  	mov a,re
 151  07C2  0082        	mov ir,a
 149  07C3              #line 149 "c:\users\longshuangmin\desktop\worke_space\g-501\g-501\sin.c"
 149  07C3  1480     E  	inc rh
 149  07C4  1780     E  	sdz ra
 149  07C5  2800     R  	jmp _L37
 153  07C6              #line 153 "c:\users\longshuangmin\desktop\worke_space\g-501\g-501\sin.c"
 153  07C6  1F79        	clr [121]
 153  07C7  0F07        	mov a,7
 153  07C8  00FA        	mov [122],a
 154  07C9              #line 154 "c:\users\longshuangmin\desktop\worke_space\g-501\g-501\sin.c"
 154  07C9  2800     R  	jmp _L17
 154  07CA              _L39:
 158  07CA              #line 158 "c:\users\longshuangmin\desktop\worke_space\g-501\g-501\sin.c"
 158  07CA  0700     E  	mov a,rh
 158  07CB  0080     E  	mov rb,a
 158  07CC  1F00     E  	clr rc
 158  07CD  340A        	clr c
 158  07CE  1A80     E  	rlc rb
 158  07CF  1A80     E  	rlc rc
 158  07D0  0F00     R  	mov a,low offset _SinData_4
 158  07D1  0300     E  	add a,rb
 158  07D2  0083        	mov mp,a
 158  07D3  0F00     R  	mov a,high offset _SinData_4
 158  07D4  1300     E  	adc a,rc
 158  07D5  0084        	mov sbp,a
 158  07D6              	fcall _Crom2Prom
 158  07DD  0080     E  	mov rd,a
 158  07DE              	fcall _Crom2PromNext
 158  07E5  0080     E  	mov re,a
 158  07E6  0700     E  	mov a,re
 158  07E7  0080     E  	mov _builtin_holtek_mant1[1],a
 158  07E8  0700     E  	mov a,rd
 158  07E9  0080     E  	mov _builtin_holtek_mant1[0],a
 158  07EA  3400     E  	clr _builtin_holtek_signs.0
 158  07EB              	fcall _builtin_holtek_uitod
 158  07F2  0700     E  	mov a,_builtin_holtek_mant12p[0]
 158  07F3  0080     E  	mov rg,a
 158  07F4  0700     E  	mov a,_builtin_holtek_mant1[2]
 158  07F5  0080     E  	mov rf,a
 158  07F6  0700     E  	mov a,_builtin_holtek_mant1[1]
 158  07F7  0080     E  	mov re,a
 158  07F8  0700     E  	mov a,_builtin_holtek_mant1[0]
 158  07F9  0080     E  	mov rd,a
 158  07FA  0700     E  	mov a,rg
 158  07FB  0080     E  	mov _builtin_holtek_mant12p[0],a
文件：sin.c        编译器版本 HGASM 0202 页次30

 158  07FC  0700     E  	mov a,rf
 158  07FD  0080     E  	mov _builtin_holtek_mant1[2],a
 158  07FE  0700     E  	mov a,re
 158  07FF  0080     E  	mov _builtin_holtek_mant1[1],a
 158  0800  0700     E  	mov a,rd
 158  0801  0080     E  	mov _builtin_holtek_mant1[0],a
 158  0802  0F3F        	mov a,63
 158  0803  0080     E  	mov _builtin_holtek_mant12p[1],a
 158  0804  0F00        	mov a,0
 158  0805  0080     E  	mov _builtin_holtek_mant2[2],a
 158  0806  0F00        	mov a,0
 158  0807  0080     E  	mov _builtin_holtek_mant2[1],a
 158  0808  0F00        	mov a,0
 158  0809  0080     E  	mov _builtin_holtek_mant2[0],a
 158  080A              	fcall _builtin_holtek_dtmul
 158  0811  0700     E  	mov a,_builtin_holtek_mant12p[0]
 158  0812  0080     E  	mov rg,a
 158  0813  0700     E  	mov a,_builtin_holtek_mant1[2]
 158  0814  0080     E  	mov rf,a
 158  0815  0700     E  	mov a,_builtin_holtek_mant1[1]
 158  0816  0080     E  	mov re,a
 158  0817  0700     E  	mov a,_builtin_holtek_mant1[0]
 158  0818  0080     E  	mov rd,a
 158  0819  0700     E  	mov a,rg
 158  081A  0080     E  	mov _builtin_holtek_mant12p[0],a
 158  081B  0700     E  	mov a,rf
 158  081C  0080     E  	mov _builtin_holtek_mant1[2],a
 158  081D  0700     E  	mov a,re
 158  081E  0080     E  	mov _builtin_holtek_mant1[1],a
 158  081F  0700     E  	mov a,rd
 158  0820  0080     E  	mov _builtin_holtek_mant1[0],a
 158  0821              	fcall _builtin_holtek_dtol
 158  0828  0700     E  	mov a,_builtin_holtek_mant12p[0]
 158  0829  0080     E  	mov rg,a
 158  082A  0700     E  	mov a,_builtin_holtek_mant1[2]
 158  082B  0080     E  	mov rf,a
 158  082C  0700     E  	mov a,_builtin_holtek_mant1[1]
 158  082D  0080     E  	mov re,a
 158  082E  0700     E  	mov a,_builtin_holtek_mant1[0]
 158  082F  0080     E  	mov rd,a
 158  0830  0F00        	mov a,low offset _SinDataRam
 158  0831  0300     E  	add a,rb
 158  0832  0083        	mov mp,a
 158  0833  0F03        	mov a,high offset _SinDataRam
 158  0834  1300     E  	adc a,rc
 158  0835  0084        	mov sbp,a
 158  0836  0700     E  	mov a,rd
 158  0837  0082        	mov ir,a
 158  0838  1483        	inc mp
 158  0839  0700     E  	mov a,re
 158  083A  0082        	mov ir,a
 156  083B              #line 156 "c:\users\longshuangmin\desktop\worke_space\g-501\g-501\sin.c"
 156  083B  1480     E  	inc rh
 156  083C  1780     E  	sdz ra
 156  083D  2800     R  	jmp _L39
 160  083E              #line 160 "c:\users\longshuangmin\desktop\worke_space\g-501\g-501\sin.c"
 160  083E  1F79        	clr [121]
 160  083F  0F03        	mov a,3
 160  0840  00FA        	mov [122],a
 160  0841              _L17:
文件：sin.c        编译器版本 HGASM 0202 页次31

 175  0841              #line 175 "c:\users\longshuangmin\desktop\worke_space\g-501\g-501\sin.c"
 175  0841  3570        	clr [112].2
 175  0842  34F0        	clr [112].1
 175  0843  3470        	clr [112].0
 176  0844              #line 176 "c:\users\longshuangmin\desktop\worke_space\g-501\g-501\sin.c"
 176  0844  3578        	clr [120].2
 176  0845  34F8        	clr [120].1
 176  0846  3278        	set [120].4
 178  0847              #line 178 "c:\users\longshuangmin\desktop\worke_space\g-501\g-501\sin.c"
 178  0847  377B        	clr [123].6
 180  0848              #line 180 "c:\users\longshuangmin\desktop\worke_space\g-501\g-501\sin.c"
 180  0848  33F8        	set [120].7
 180  0849  3078        	set [120].0
 180  084A  3478        	clr [120].0
 182  084B              #line 182 "c:\users\longshuangmin\desktop\worke_space\g-501\g-501\sin.c"
 182  084B  1F00     E  	clr ra
 182  084C  1F00     E  	clr rb
 182  084D  2800     R  	jmp _L2
 182  084E              _L41:
  64  084E              #line 64 "c:\users\longshuangmin\desktop\worke_space\g-501\g-501\sin.c"
  64  084E  0F01        	mov a,1
  64  084F  0080     E  	mov ra,a
  64  0850  1F00     E  	clr rb
  64  0851              _L2:
  64  0851  0003        	ret
  64  0852              _fun_SineWaveInit endp
  64  0852              #line 64 "c:\users\longshuangmin\desktop\worke_space\g-501\g-501\sin.c"
  64  0852              #pragma debug scope 1 1
  64  0852              public _SinData_4
  64  0000              @crom	.section 'crom'
  38  0000              #line 38 "c:\users\longshuangmin\desktop\worke_space\g-501\g-501\sin.c"
  38  0000              @crom	.section	'crom'
  38  0000              _SinData_4:
  38  0000              #pragma debug array 42 12 32 1
  38  0000              #pragma debug array 42 12 32 1
  38  0000              #pragma debug variable 42 1 _SinData_4 "SinData_4"
  38  0000  0000        	dc 0
  38  0001  0169        	dc 361
  38  0002  01FF        	dc 511
  38  0003  0169        	dc 361
  38  0004  0000        	dc 0
  38  0005  0000        	dc 0
  38  0006  0000        	dc 0
  38  0007  0000        	dc 0
  38  0008  0000        	dc 0
  38  0009  0000        	dc 0
  38  000A  0000        	dc 0
  38  000B  0000        	dc 0
  38  000C  0000        	dc 0
  38  000D  0000        	dc 0
  38  000E  0000        	dc 0
  38  000F  0000        	dc 0
  38  0010  0000        	dc 0
  38  0011  0000        	dc 0
  38  0012  0000        	dc 0
  38  0013  0000        	dc 0
  38  0014  0000        	dc 0
  38  0015  0000        	dc 0
  38  0016  0000        	dc 0
  38  0017  0000        	dc 0
文件：sin.c        编译器版本 HGASM 0202 页次32

  38  0018  0000        	dc 0
  38  0019  0000        	dc 0
  38  001A  0000        	dc 0
  38  001B  0000        	dc 0
  38  001C  0000        	dc 0
  38  001D  0000        	dc 0
  38  001E  0000        	dc 0
  38  001F  0000        	dc 0
  38  0020              public _SinData_8
  34  0020              #line 34 "c:\users\longshuangmin\desktop\worke_space\g-501\g-501\sin.c"
  34  0020              @crom	.section	'crom'
  34  0020              _SinData_8:
  34  0020              #pragma debug variable 42 1 _SinData_8 "SinData_8"
  34  0020  0000        	dc 0
  34  0021  00C4        	dc 196
  34  0022  0169        	dc 361
  34  0023  01D8        	dc 472
  34  0024  01FF        	dc 511
  34  0025  01D8        	dc 472
  34  0026  0169        	dc 361
  34  0027  00C4        	dc 196
  34  0028  0000        	dc 0
  34  0029  0000        	dc 0
  34  002A  0000        	dc 0
  34  002B  0000        	dc 0
  34  002C  0000        	dc 0
  34  002D  0000        	dc 0
  34  002E  0000        	dc 0
  34  002F  0000        	dc 0
  34  0030  0000        	dc 0
  34  0031  0000        	dc 0
  34  0032  0000        	dc 0
  34  0033  0000        	dc 0
  34  0034  0000        	dc 0
  34  0035  0000        	dc 0
  34  0036  0000        	dc 0
  34  0037  0000        	dc 0
  34  0038  0000        	dc 0
  34  0039  0000        	dc 0
  34  003A  0000        	dc 0
  34  003B  0000        	dc 0
  34  003C  0000        	dc 0
  34  003D  0000        	dc 0
  34  003E  0000        	dc 0
  34  003F  0000        	dc 0
  34  0040              public _SinData_12
  30  0040              #line 30 "c:\users\longshuangmin\desktop\worke_space\g-501\g-501\sin.c"
  30  0040              @crom	.section	'crom'
  30  0040              _SinData_12:
  30  0040              #pragma debug variable 42 1 _SinData_12 "SinData_12"
  30  0040  0000        	dc 0
  30  0041  0084        	dc 132
  30  0042  0100        	dc 256
  30  0043  0169        	dc 361
  30  0044  01BB        	dc 443
  30  0045  01EE        	dc 494
  30  0046  01FF        	dc 511
  30  0047  01EE        	dc 494
  30  0048  01BB        	dc 443
  30  0049  0169        	dc 361
文件：sin.c        编译器版本 HGASM 0202 页次33

  30  004A  0100        	dc 256
  30  004B  0084        	dc 132
  30  004C  0000        	dc 0
  30  004D  0000        	dc 0
  30  004E  0000        	dc 0
  30  004F  0000        	dc 0
  30  0050  0000        	dc 0
  30  0051  0000        	dc 0
  30  0052  0000        	dc 0
  30  0053  0000        	dc 0
  30  0054  0000        	dc 0
  30  0055  0000        	dc 0
  30  0056  0000        	dc 0
  30  0057  0000        	dc 0
  30  0058  0000        	dc 0
  30  0059  0000        	dc 0
  30  005A  0000        	dc 0
  30  005B  0000        	dc 0
  30  005C  0000        	dc 0
  30  005D  0000        	dc 0
  30  005E  0000        	dc 0
  30  005F  0000        	dc 0
  30  0060              public _SinData_16
  26  0060              #line 26 "c:\users\longshuangmin\desktop\worke_space\g-501\g-501\sin.c"
  26  0060              @crom	.section	'crom'
  26  0060              _SinData_16:
  26  0060              #pragma debug variable 42 1 _SinData_16 "SinData_16"
  26  0060  0000        	dc 0
  26  0061  0064        	dc 100
  26  0062  00C4        	dc 196
  26  0063  011C        	dc 284
  26  0064  0169        	dc 361
  26  0065  01A9        	dc 425
  26  0066  01D8        	dc 472
  26  0067  01F5        	dc 501
  26  0068  01FF        	dc 511
  26  0069  01F5        	dc 501
  26  006A  01D8        	dc 472
  26  006B  01A9        	dc 425
  26  006C  0169        	dc 361
  26  006D  011C        	dc 284
  26  006E  00C4        	dc 196
  26  006F  0064        	dc 100
  26  0070  0000        	dc 0
  26  0071  0000        	dc 0
  26  0072  0000        	dc 0
  26  0073  0000        	dc 0
  26  0074  0000        	dc 0
  26  0075  0000        	dc 0
  26  0076  0000        	dc 0
  26  0077  0000        	dc 0
  26  0078  0000        	dc 0
  26  0079  0000        	dc 0
  26  007A  0000        	dc 0
  26  007B  0000        	dc 0
  26  007C  0000        	dc 0
  26  007D  0000        	dc 0
  26  007E  0000        	dc 0
  26  007F  0000        	dc 0
  26  0080              public _SinData_20
文件：sin.c        编译器版本 HGASM 0202 页次34

  22  0080              #line 22 "c:\users\longshuangmin\desktop\worke_space\g-501\g-501\sin.c"
  22  0080              @crom	.section	'crom'
  22  0080              _SinData_20:
  22  0080              #pragma debug variable 42 1 _SinData_20 "SinData_20"
  22  0080  0000        	dc 0
  22  0081  0050        	dc 80
  22  0082  009E        	dc 158
  22  0083  00E8        	dc 232
  22  0084  012C        	dc 300
  22  0085  0169        	dc 361
  22  0086  019D        	dc 413
  22  0087  01C7        	dc 455
  22  0088  01E6        	dc 486
  22  0089  01F9        	dc 505
  22  008A  01FF        	dc 511
  22  008B  01F9        	dc 505
  22  008C  01E6        	dc 486
  22  008D  01C7        	dc 455
  22  008E  019D        	dc 413
  22  008F  0169        	dc 361
  22  0090  012C        	dc 300
  22  0091  00E8        	dc 232
  22  0092  009E        	dc 158
  22  0093  0050        	dc 80
  22  0094  0000        	dc 0
  22  0095  0000        	dc 0
  22  0096  0000        	dc 0
  22  0097  0000        	dc 0
  22  0098  0000        	dc 0
  22  0099  0000        	dc 0
  22  009A  0000        	dc 0
  22  009B  0000        	dc 0
  22  009C  0000        	dc 0
  22  009D  0000        	dc 0
  22  009E  0000        	dc 0
  22  009F  0000        	dc 0
  22  00A0              public _SinData_24
  18  00A0              #line 18 "c:\users\longshuangmin\desktop\worke_space\g-501\g-501\sin.c"
  18  00A0              @crom	.section	'crom'
  18  00A0              _SinData_24:
  18  00A0              #pragma debug variable 42 1 _SinData_24 "SinData_24"
  18  00A0  0000        	dc 0
  18  00A1  0043        	dc 67
  18  00A2  0084        	dc 132
  18  00A3  00C4        	dc 196
  18  00A4  0100        	dc 256
  18  00A5  0137        	dc 311
  18  00A6  0169        	dc 361
  18  00A7  0195        	dc 405
  18  00A8  01BB        	dc 443
  18  00A9  01D8        	dc 472
  18  00AA  01EE        	dc 494
  18  00AB  01FB        	dc 507
  18  00AC  01FF        	dc 511
  18  00AD  01FB        	dc 507
  18  00AE  01EE        	dc 494
  18  00AF  01D8        	dc 472
  18  00B0  01BB        	dc 443
  18  00B1  0195        	dc 405
  18  00B2  0169        	dc 361
文件：sin.c        编译器版本 HGASM 0202 页次35

  18  00B3  0137        	dc 311
  18  00B4  0100        	dc 256
  18  00B5  00C4        	dc 196
  18  00B6  0084        	dc 132
  18  00B7  0043        	dc 67
  18  00B8  0000        	dc 0
  18  00B9  0000        	dc 0
  18  00BA  0000        	dc 0
  18  00BB  0000        	dc 0
  18  00BC  0000        	dc 0
  18  00BD  0000        	dc 0
  18  00BE  0000        	dc 0
  18  00BF  0000        	dc 0
  18  00C0              public _SinData_28
  13  00C0              #line 13 "c:\users\longshuangmin\desktop\worke_space\g-501\g-501\sin.c"
  13  00C0              @crom	.section	'crom'
  13  00C0              _SinData_28:
  13  00C0              #pragma debug variable 42 1 _SinData_28 "SinData_28"
  13  00C0  0000        	dc 0
  13  00C1  0036        	dc 54
  13  00C2  006C        	dc 108
  13  00C3  00A0        	dc 160
  13  00C4  00D3        	dc 211
  13  00C5  0102        	dc 258
  13  00C6  012F        	dc 303
  13  00C7  0157        	dc 343
  13  00C8  017C        	dc 380
  13  00C9  019B        	dc 411
  13  00CA  01B5        	dc 437
  13  00CB  01CA        	dc 458
  13  00CC  01D9        	dc 473
  13  00CD  01E2        	dc 482
  13  00CE  01E5        	dc 485
  13  00CF  01E2        	dc 482
  13  00D0  01D9        	dc 473
  13  00D1  01CA        	dc 458
  13  00D2  01B5        	dc 437
  13  00D3  019B        	dc 411
  13  00D4  017C        	dc 380
  13  00D5  0157        	dc 343
  13  00D6  012F        	dc 303
  13  00D7  0102        	dc 258
  13  00D8  00D3        	dc 211
  13  00D9  00A0        	dc 160
  13  00DA  006C        	dc 108
  13  00DB  0036        	dc 54
  13  00DC  0000        	dc 0
  13  00DD  0000        	dc 0
  13  00DE  0000        	dc 0
  13  00DF  0000        	dc 0
  13  00E0              public _SinData_32
   8  00E0              #line 8 "c:\users\longshuangmin\desktop\worke_space\g-501\g-501\sin.c"
   8  00E0              @crom	.section	'crom'
   8  00E0              _SinData_32:
   8  00E0              #pragma debug variable 42 1 _SinData_32 "SinData_32"
   8  00E0  0000        	dc 0
   8  00E1  0032        	dc 50
   8  00E2  0064        	dc 100
   8  00E3  0094        	dc 148
   8  00E4  00C4        	dc 196
文件：sin.c        编译器版本 HGASM 0202 页次36

   8  00E5  00F1        	dc 241
   8  00E6  011C        	dc 284
   8  00E7  0144        	dc 324
   8  00E8  0169        	dc 361
   8  00E9  018B        	dc 395
   8  00EA  01A9        	dc 425
   8  00EB  01C3        	dc 451
   8  00EC  01D8        	dc 472
   8  00ED  01E9        	dc 489
   8  00EE  01F5        	dc 501
   8  00EF  01FD        	dc 509
   8  00F0  01FF        	dc 511
   8  00F1  01FD        	dc 509
   8  00F2  01F5        	dc 501
   8  00F3  01E9        	dc 489
   8  00F4  01D8        	dc 472
   8  00F5  01C3        	dc 451
   8  00F6  01A9        	dc 425
   8  00F7  018B        	dc 395
   8  00F8  0169        	dc 361
   8  00F9  0144        	dc 324
   8  00FA  011C        	dc 284
   8  00FB  00F1        	dc 241
   8  00FC  00C4        	dc 196
   8  00FD  0094        	dc 148
   8  00FE  0064        	dc 100
   8  00FF  0032        	dc 50
   8  0100              #pragma debug struct_end
   8  0100              #pragma debug struct_end
   8  0100              #pragma debug union_end
   8  0100              #pragma debug union_end
   8  0100              #pragma debug variable 44 1 ___gsc2 "__gsc2" 1
   8  0100              #pragma debug struct_end
   8  0100              #pragma debug struct_end
   8  0100              #pragma debug union_end
   8  0100              #pragma debug union_end
   8  0100              #pragma debug variable 46 1 ___sgc "__sgc" 1
   8  0100              #pragma debug variable 8 1 ___sgn "__sgn" 1
   8  0100              #pragma debug variable 8 1 ___sgdnr "__sgdnr" 1
   8  0100              #pragma debug struct_end
   8  0100              #pragma debug struct_end
   8  0100              #pragma debug union_end
   8  0100              #pragma debug union_end
   8  0100              #pragma debug variable 48 1 ___bopac0 "__bopac0" 1
   8  0100              #pragma debug struct_end
   8  0100              #pragma debug struct_end
   8  0100              #pragma debug union_end
   8  0100              #pragma debug union_end
   8  0100              #pragma debug variable 50 1 ___bopac1 "__bopac1" 1
   8  0100              #pragma debug variable 42 1 _SinDataRam "SinDataRam" 64
   8  0100              
   8  0100              ; output external variables
   8  0100              extern _M_SinGain:byte
   8  0100              extern _builtin_holtek_mant1:byte
   8  0100              extern _builtin_holtek_signs:byte
   8  0100              extern _builtin_holtek_uitof:near
   8  0100              extern _builtin_holtek_mant2:byte
   8  0100              extern _builtin_holtek_mant12p:byte
   8  0100              extern _builtin_holtek_dtmul:near
   8  0100              extern _builtin_holtek_uitod:near
文件：sin.c        编译器版本 HGASM 0202 页次37

   8  0100              extern _builtin_holtek_dtol:near
   8  0100              
   8  0100              ; 
   8  0100              ; Generated by holtek-gcc v3.19, Fri May 23 10:39:41 2025
   8  0100              ; Rebuild 718
   8  0100              ; end of file


        0 Errors, 0