文件：uart.c       编译器版本 HGASM 0202 页次1


   1  0000              ; Generated by holtek-gcc v3.19, Fri May 23 10:39:42 2025
   2  0000              ; 
   3  0000              ; Configuration:
   4  0000              ;       with long instruction
   5  0000              ;       Multi-ROM, Multi-RAM
   6  0000              ;       bits_per_rom_unit:16
   7  0000              ;       with mp1
   8  0000              ;       with tbhp, address(0x9)
   9  0000              ;          Use tabrd-const
  10  0000              ;       
  11  0000              ; SFR address of long-instruction arch:
  12  0000              ;    mp0 = -1,1,0
  13  0000              ;    mp1 = 4,3,2
  14  0000              ;    mp2 = 14,13,12
  15  0000              ;    tbp = 9,7,8
  16  0000              ;    acc = 5
  17  0000              ;    pcl = 6
  18  0000              ;    status = 10
  19  0000              ;    bp = 11
  20  0000              ;    intc = 32
  21  0000              ;       
  22  0000              ;       
  23  0000              ; use 'tabrdc' instead of 'tabrd'
  24  0000              ;       
  25  0000              
  26  0000              #pragma translator "holtek-gcc 4.6.4" "3.19" "build 20130711"
  27  0000              ; Rebuild 718
  28  0000              
  29  0000              ir equ [2]
  30  0000              mp equ [3]
  31  0000              sbp equ [4]
  32  0000              acc equ [5]
  33  0000              bp equ [11]
  34  0000              tblp equ [7]
  35  0000              tbhp equ [9]
  36  0000              status equ [10]
  37  0000              c equ [10].0
  38  0000              ac equ [10].1
  39  0000              z equ [10].2
  40  0000              ov equ [10].3
  41  0000              cz equ [10].6
  42  0000              sc equ [10].7
  43  0000              intc equ [32]
  44  0000              mduwr0 equ [59h]
  45  0000              mduwr1 equ [5ah]
  46  0000              mduwr2 equ [5bh]
  47  0000              mduwr3 equ [5ch]
  48  0000              mduwr4 equ [5dh]
  49  0000              mduwr5 equ [5eh]
  50  0000              mduwrctrl equ [5fh]
  51  0000              
  52  0000              extern ra:byte
  53  0000              extern rb:byte
  54  0000              extern rc:byte
  55  0000              extern rd:byte
  56  0000              extern re:byte
  57  0000              extern rf:byte
  58  0000              extern rg:byte
  59  0000              extern rh:byte
文件：uart.ASM     编译器版本 HGASM 0202 页次2

  60  0000              extern _Crom2Prom:near
  61  0000              extern _Crom2PromNext:near
  62  0000              
  63  0000              RAMBANK 0 @BITDATASEC, @BITDATASEC1
  64  0000              @HCCINIT	.section 'data'
  65  0000              @HCCINIT0	.section 'data'
  66  0000              @BITDATASEC	 .section 'data'
  67  0000              @BITDATASEC1	 .section 'data'
  68  0000              
  69  0000              #pragma debug scope 1 1
  70  0000              	extern __DELAY3:near
  71  0000              	extern __DELAYX3:near
  72  0000              	extern __DELAYX6:near
  73  0000              	extern __DELAYY5:near
  74  0000              	extern __DELAYY3:near
  75  0000              	extern _builtin_holtek_delay_2:byte
  76  0000              ___u0cr1 equ [48]
  77  0000              ___u0cr2 equ [49]
  78  0000              ___brg0 equ [51]
  79  0000              ___intc3 equ [35]
  80  0000              ___u0sr equ [47]
  81  0000              ___intc0 equ [32]
  82  0000              ___pds1 equ [346]
  83  0000              public _fun_UART0PowerOnInit
  84  0000              #pragma debug scope 2 1

   9  0000              #line 9 "c:\users\longshuangmin\desktop\worke_space\g-501\g-501\uart.c"
   9  0000              _fun_UART0PowerOnInit .section 'code'
   9  0000              _fun_UART0PowerOnInit proc
  10  0000              #line 10 "c:\users\longshuangmin\desktop\worke_space\g-501\g-501\uart.c"
  10  0000  1F30        	clr [48]
  12  0001              #line 12 "c:\users\longshuangmin\desktop\worke_space\g-501\g-501\uart.c"
  12  0001  32B1        	set [49].5
  12  0002  0F19        	mov a,25
  12  0003  00B3        	mov [51],a
  13  0004              #line 13 "c:\users\longshuangmin\desktop\worke_space\g-501\g-501\uart.c"
  13  0004  3631        	clr [49].4
  14  0005              #line 14 "c:\users\longshuangmin\desktop\worke_space\g-501\g-501\uart.c"
  14  0005  3131        	set [49].2
  15  0006              #line 15 "c:\users\longshuangmin\desktop\worke_space\g-501\g-501\uart.c"
  15  0006  30B1        	set [49].1
  16  0007              #line 16 "c:\users\longshuangmin\desktop\worke_space\g-501\g-501\uart.c"
  16  0007  3031        	set [49].0
  17  0008              #line 17 "c:\users\longshuangmin\desktop\worke_space\g-501\g-501\uart.c"
  17  0008  33B0        	set [48].7
  17  0009  3331        	set [49].6
  17  000A  33B1        	set [49].7
  17  000B  3623        	clr [35].4
  17  000C  342F        	clr [47].0
  17  000D  3023        	set [35].0
  17  000E  3020        	set [32].0
  19  000F              #line 19 "c:\users\longshuangmin\desktop\worke_space\g-501\g-501\uart.c"
  19  000F  0FF0        	mov a,240
  19  0010  86DA 0001   	landm a,[346]
  19  0012  0F05        	mov a,5
  19  0013  85DA 0001   	lorm a,[346]
  19  0015  0003        	ret
  19  0016              _fun_UART0PowerOnInit endp
  19  0016              #line 19 "c:\users\longshuangmin\desktop\worke_space\g-501\g-501\uart.c"
  19  0016              #pragma debug scope 1 1
文件：uart.c       编译器版本 HGASM 0202 页次3

  19  0016              ___u1cr1 equ [69]
  19  0016              ___u1cr2 equ [70]
  19  0016              ___brg1 equ [72]
  19  0016              ___u1sr equ [68]
  19  0016              ___pcs1 equ [344]
  19  0016              public _fun_UART1PowerOnInit
  19  0016              #pragma debug scope 3 1
  25  0016              #line 25 "c:\users\longshuangmin\desktop\worke_space\g-501\g-501\uart.c"
  25  0000              _fun_UART1PowerOnInit .section 'code'
  25  0000              _fun_UART1PowerOnInit proc
  27  0000              #line 27 "c:\users\longshuangmin\desktop\worke_space\g-501\g-501\uart.c"
  27  0000  1F45        	clr [69]
  28  0001              #line 28 "c:\users\longshuangmin\desktop\worke_space\g-501\g-501\uart.c"
  28  0001  32C6        	set [70].5
  28  0002  0F0C        	mov a,12
  28  0003  00C8        	mov [72],a
  29  0004              #line 29 "c:\users\longshuangmin\desktop\worke_space\g-501\g-501\uart.c"
  29  0004  3646        	clr [70].4
  30  0005              #line 30 "c:\users\longshuangmin\desktop\worke_space\g-501\g-501\uart.c"
  30  0005  3146        	set [70].2
  31  0006              #line 31 "c:\users\longshuangmin\desktop\worke_space\g-501\g-501\uart.c"
  31  0006  30C6        	set [70].1
  32  0007              #line 32 "c:\users\longshuangmin\desktop\worke_space\g-501\g-501\uart.c"
  32  0007  3046        	set [70].0
  33  0008              #line 33 "c:\users\longshuangmin\desktop\worke_space\g-501\g-501\uart.c"
  33  0008  33C5        	set [69].7
  33  0009  3346        	set [70].6
  33  000A  33C6        	set [70].7
  33  000B  37A3        	clr [35].7
  33  000C  3444        	clr [68].0
  33  000D  31A3        	set [35].3
  33  000E  3020        	set [32].0
  35  000F              #line 35 "c:\users\longshuangmin\desktop\worke_space\g-501\g-501\uart.c"
  35  000F  0F0A        	mov a,10
  35  0010  80D8 0001   	lmov [344],a
  35  0012  0003        	ret
  35  0013              _fun_UART1PowerOnInit endp
  35  0013              #line 35 "c:\users\longshuangmin\desktop\worke_space\g-501\g-501\uart.c"
  35  0013              #pragma debug scope 1 1
  35  0013              _M_UART_TxFIFO equ [8064]
  35  0013              ___txr_rxr1 equ [71]
  35  0013              public _fun_Uart1StartTx
  35  0013              #pragma debug scope 4 1
  51  0013              #line 51 "c:\users\longshuangmin\desktop\worke_space\g-501\g-501\uart.c"
  51  0000              _fun_Uart1StartTx .section 'code'
  51  0000              _fun_Uart1StartTx proc
  51  0000  00              local _fun_Uart1StartTx_2 db 1 dup(?)	; 0,1
  51  0000  0080     R  	mov _fun_Uart1StartTx_2[0],a
  51  0001              #pragma debug variable 8 4 _fun_Uart1StartTx_2+0 "TxLength"
  52  0001              #line 52 "c:\users\longshuangmin\desktop\worke_space\g-501\g-501\uart.c"
  52  0001  0700     R  	mov a,_fun_Uart1StartTx_2[0]
  52  0002  0380     E  	addm a,_M_UART_TxLength[0]
  57  0003              #line 57 "c:\users\longshuangmin\desktop\worke_space\g-501\g-501\uart.c"
  57  0003  1080     E  	sz _M_UART_TxIndex[0]
  57  0004  2800     R  	jmp _L4
  60  0005              #line 60 "c:\users\longshuangmin\desktop\worke_space\g-501\g-501\uart.c"
  60  0005  C700 001F   	lmov a,[8064]
  60  0007  00C7        	mov [71],a
  60  0008  2800     R  	jmp _L3
  60  0009              _L4:
文件：uart.c       编译器版本 HGASM 0202 页次4

  64  0009              #line 64 "c:\users\longshuangmin\desktop\worke_space\g-501\g-501\uart.c"
  64  0009  0700     E  	mov a,_M_UART_TxIndex[0]
  64  000A  0200     E  	sub a,_M_UART_TxIndex_Old[0]
  64  000B  390A        	snz z
  64  000C  2800     R  	jmp _L6
  66  000D              #line 66 "c:\users\longshuangmin\desktop\worke_space\g-501\g-501\uart.c"
  66  000D  1400     E  	inca _M_UART_Tx_ErrorCnt[0]
  66  000E  0080     E  	mov ra,a
  67  000F              #line 67 "c:\users\longshuangmin\desktop\worke_space\g-501\g-501\uart.c"
  67  000F  0F02        	mov a,2
  67  0010  0200     E  	sub a,ra
  67  0011  380A        	snz c
  67  0012  2800     R  	jmp _L7
  66  0013              #line 66 "c:\users\longshuangmin\desktop\worke_space\g-501\g-501\uart.c"
  66  0013  0700     E  	mov a,ra
  66  0014  0080     E  	mov _M_UART_Tx_ErrorCnt[0],a
  66  0015  2800     R  	jmp _L3
  66  0016              _L7:
  69  0016              #line 69 "c:\users\longshuangmin\desktop\worke_space\g-501\g-501\uart.c"
  69  0016  1F00     E  	clr _M_UART_Tx_ErrorCnt[0]
  70  0017              #line 70 "c:\users\longshuangmin\desktop\worke_space\g-501\g-501\uart.c"
  70  0017  0F80        	mov a,low offset _M_UART_TxFIFO
  70  0018  0300     E  	add a,_M_UART_TxIndex[0]
  70  0019  0083        	mov mp,a
  70  001A  0F1F        	mov a,high offset _M_UART_TxFIFO
  70  001B  1F04        	clr sbp
  70  001C  1384        	adcm a,sbp
  70  001D              	fcall _Crom2Prom
  70  0024  00C7        	mov [71],a
  70  0025              _L6:
  76  0025              #line 76 "c:\users\longshuangmin\desktop\worke_space\g-501\g-501\uart.c"
  76  0025  0700     E  	mov a,_M_UART_TxIndex[0]
  76  0026  0080     E  	mov _M_UART_TxIndex_Old[0],a
  76  0027              _L3:
  76  0027  0003        	ret
  76  0028              _fun_Uart1StartTx endp
  76  0028              #line 76 "c:\users\longshuangmin\desktop\worke_space\g-501\g-501\uart.c"
  76  0028              #pragma debug scope 1 1
  76  0028              public _fun_UART1WriteTxBufStart
  76  0028              #pragma debug scope 5 1
 119  0028              #line 119 "c:\users\longshuangmin\desktop\worke_space\g-501\g-501\uart.c"
 119  0000              _fun_UART1WriteTxBufStart .section 'code'
 119  0000              _fun_UART1WriteTxBufStart proc
 119  0000              public _fun_UART1WriteTxBufStart_2
 119  0000  0005[           local _fun_UART1WriteTxBufStart_2 db 5 dup(?)	; 3,2
            00
            ]
 119  0005              #pragma debug pointer 42 8 5
 119  0005              #pragma debug pointer 42 8 5
 119  0005              #pragma debug variable 42 5 _fun_UART1WriteTxBufStart_2+0 "src"
 119  0005              #pragma debug variable 8 5 _fun_UART1WriteTxBufStart_2+2 "len"
 122  0005              #line 122 "c:\users\longshuangmin\desktop\worke_space\g-501\g-501\uart.c"
 122  0000  0F80        	mov a,128
 122  0001  0200     R  	sub a,_fun_UART1WriteTxBufStart_2[2]
 122  0002  380A        	snz c
 122  0003  2800     R  	jmp _L15
 122  0004              #pragma debug scope 6 5
 122  0004              ;begin block, line: 122.-1
 122  0004              #pragma debug scope 7 6
 122  0004              ;begin block, line: 122.-1
文件：uart.c       编译器版本 HGASM 0202 页次5

 122  0004              #pragma debug variable 8 7 _fun_UART1WriteTxBufStart_2+4 "i"
 122  0004              #pragma debug variable 8 7 _fun_UART1WriteTxBufStart_2+3 "count"
 128  0004              #line 128 "c:\users\longshuangmin\desktop\worke_space\g-501\g-501\uart.c"
 128  0004  0700     E  	mov a,_M_UART_TxIndex[0]
 128  0005  0200     E  	sub a,_M_UART_TxLength[0]
 128  0006  3C0A        	sz c
 128  0007  2800     R  	jmp _L11
 129  0008              #line 129 "c:\users\longshuangmin\desktop\worke_space\g-501\g-501\uart.c"
 129  0008  0700     E  	mov a,_M_UART_TxLength[0]
 129  0009  0080     R  	mov _fun_UART1WriteTxBufStart_2[3],a
 129  000A  2800     R  	jmp _L12
 129  000B              _L11:
 132  000B              #line 132 "c:\users\longshuangmin\desktop\worke_space\g-501\g-501\uart.c"
 132  000B  1F00     R  	clr _fun_UART1WriteTxBufStart_2[3]
 133  000C              #line 133 "c:\users\longshuangmin\desktop\worke_space\g-501\g-501\uart.c"
 133  000C  1F00     E  	clr _M_UART_TxIndex[0]
 134  000D              #line 134 "c:\users\longshuangmin\desktop\worke_space\g-501\g-501\uart.c"
 134  000D  1F00     E  	clr _M_UART_TxLength[0]
 135  000E              #line 135 "c:\users\longshuangmin\desktop\worke_space\g-501\g-501\uart.c"
 135  000E  1F00     E  	clr _M_UART_TxIndex_Old[0]
 136  000F              #line 136 "c:\users\longshuangmin\desktop\worke_space\g-501\g-501\uart.c"
 136  000F  1F00     E  	clr _M_UART_Tx_ErrorCnt[0]
 136  0010              _L12:
 140  0010              #line 140 "c:\users\longshuangmin\desktop\worke_space\g-501\g-501\uart.c"
 140  0010  0700     R  	mov a,_fun_UART1WriteTxBufStart_2[3]
 140  0011  0080     R  	mov _fun_UART1WriteTxBufStart_2[4],a
 140  0012  0700     R  	mov a,_fun_UART1WriteTxBufStart_2[0]
 140  0013  0080     E  	mov rb,a
 140  0014  0700     R  	mov a,_fun_UART1WriteTxBufStart_2[1]
 140  0015  0080     E  	mov rc,a
 140  0016              _L13:
 140  0016  0700     R  	mov a,_fun_UART1WriteTxBufStart_2[4]
 140  0017  0080     E  	mov rf,a
 140  0018  1F00     E  	clr rg
 140  0019  0700     R  	mov a,_fun_UART1WriteTxBufStart_2[3]
 140  001A  0080     E  	mov rd,a
 140  001B  1F00     E  	clr re
 140  001C  0700     R  	mov a,_fun_UART1WriteTxBufStart_2[2]
 140  001D  0380     E  	addm a,rd
 140  001E  3C0A        	sz c
 140  001F  1480     E  	inc re
 140  0020  0700     E  	mov a,rf
 140  0021  0200     E  	sub a,rd
 140  0022  0700     E  	mov a,rg
 140  0023  1200     E  	sbc a,re
 140  0024  3B8A        	snz sc
 140  0025  2800     R  	jmp _L16
 142  0026              #line 142 "c:\users\longshuangmin\desktop\worke_space\g-501\g-501\uart.c"
 142  0026  0700     E  	mov a,rb
 142  0027  0083        	mov mp,a
 142  0028  0700     E  	mov a,rc
 142  0029  0084        	mov sbp,a
 142  002A              	fcall _Crom2Prom
 142  0031  0080     E  	mov ra,a
 142  0032  0F80        	mov a,low offset _M_UART_TxFIFO
 142  0033  0300     R  	add a,_fun_UART1WriteTxBufStart_2[4]
 142  0034  0083        	mov mp,a
 142  0035  0F1F        	mov a,high offset _M_UART_TxFIFO
 142  0036  1F04        	clr sbp
 142  0037  1384        	adcm a,sbp
文件：uart.c       编译器版本 HGASM 0202 页次6

 142  0038  0700     E  	mov a,ra
 142  0039  0082        	mov ir,a
 140  003A              #line 140 "c:\users\longshuangmin\desktop\worke_space\g-501\g-501\uart.c"
 140  003A  1480     R  	inc _fun_UART1WriteTxBufStart_2[4]
 140  003B  1480     E  	inc rb
 140  003C  3D0A        	sz z
 140  003D  1480     E  	inc rc
 140  003E  2800     R  	jmp _L13
 140  003F              _L16:
 145  003F              #line 145 "c:\users\longshuangmin\desktop\worke_space\g-501\g-501\uart.c"
 145  003F  0700     R  	mov a,_fun_UART1WriteTxBufStart_2[2]
 145  0040  0080     E  	mov ra,a
 145  0041  0700     E  	mov a,ra
 145  0042              	fcall _fun_Uart1StartTx
 145  0049  1F00     E  	clr ra
 145  004A  2800     R  	jmp _L10
 145  004B              _L15:
 145  004B              #pragma debug scope 6 5
 145  004B              #pragma debug scope 5 1
 124  004B              #line 124 "c:\users\longshuangmin\desktop\worke_space\g-501\g-501\uart.c"
 124  004B  0F02        	mov a,2
 124  004C  0080     E  	mov ra,a
 124  004D              _L10:
 157  004D              #line 157 "c:\users\longshuangmin\desktop\worke_space\g-501\g-501\uart.c"
 157  004D  0700     E  	mov a,ra
 157  004E  0003        	ret
 157  004F              _fun_UART1WriteTxBufStart endp
 157  004F              #line 157 "c:\users\longshuangmin\desktop\worke_space\g-501\g-501\uart.c"
 157  004F              #pragma debug scope 1 1
 157  004F              ___txr_rxr0 equ [50]
 157  004F              public _fun_Uart0StartTx
 157  004F              #pragma debug scope 8 1
 160  004F              #line 160 "c:\users\longshuangmin\desktop\worke_space\g-501\g-501\uart.c"
 160  0000              _fun_Uart0StartTx .section 'code'
 160  0000              _fun_Uart0StartTx proc
 160  0000  00              local _fun_Uart0StartTx_2 db 1 dup(?)	; 0,1
 160  0000  0080     R  	mov _fun_Uart0StartTx_2[0],a
 160  0001              #pragma debug variable 8 8 _fun_Uart0StartTx_2+0 "TxLength"
 168  0001              #line 168 "c:\users\longshuangmin\desktop\worke_space\g-501\g-501\uart.c"
 168  0001  0700     R  	mov a,_fun_Uart0StartTx_2[0]
 168  0002  0380     E  	addm a,_M_UART_TxLength[0]
 169  0003              #line 169 "c:\users\longshuangmin\desktop\worke_space\g-501\g-501\uart.c"
 169  0003  1080     E  	sz _M_UART_TxIndex[0]
 169  0004  2800     R  	jmp _L18
 172  0005              #line 172 "c:\users\longshuangmin\desktop\worke_space\g-501\g-501\uart.c"
 172  0005  C700 001F   	lmov a,[8064]
 172  0007  00B2        	mov [50],a
 172  0008  2800     R  	jmp _L17
 172  0009              _L18:
 176  0009              #line 176 "c:\users\longshuangmin\desktop\worke_space\g-501\g-501\uart.c"
 176  0009  0700     E  	mov a,_M_UART_TxIndex[0]
 176  000A  0200     E  	sub a,_M_UART_TxIndex_Old[0]
 176  000B  390A        	snz z
 176  000C  2800     R  	jmp _L20
 178  000D              #line 178 "c:\users\longshuangmin\desktop\worke_space\g-501\g-501\uart.c"
 178  000D  1400     E  	inca _M_UART_Tx_ErrorCnt[0]
 178  000E  0080     E  	mov ra,a
 179  000F              #line 179 "c:\users\longshuangmin\desktop\worke_space\g-501\g-501\uart.c"
 179  000F  0F02        	mov a,2
 179  0010  0200     E  	sub a,ra
文件：uart.c       编译器版本 HGASM 0202 页次7

 179  0011  380A        	snz c
 179  0012  2800     R  	jmp _L21
 178  0013              #line 178 "c:\users\longshuangmin\desktop\worke_space\g-501\g-501\uart.c"
 178  0013  0700     E  	mov a,ra
 178  0014  0080     E  	mov _M_UART_Tx_ErrorCnt[0],a
 178  0015  2800     R  	jmp _L17
 178  0016              _L21:
 181  0016              #line 181 "c:\users\longshuangmin\desktop\worke_space\g-501\g-501\uart.c"
 181  0016  1F00     E  	clr _M_UART_Tx_ErrorCnt[0]
 182  0017              #line 182 "c:\users\longshuangmin\desktop\worke_space\g-501\g-501\uart.c"
 182  0017  0F80        	mov a,low offset _M_UART_TxFIFO
 182  0018  0300     E  	add a,_M_UART_TxIndex[0]
 182  0019  0083        	mov mp,a
 182  001A  0F1F        	mov a,high offset _M_UART_TxFIFO
 182  001B  1F04        	clr sbp
 182  001C  1384        	adcm a,sbp
 182  001D              	fcall _Crom2Prom
 182  0024  00B2        	mov [50],a
 182  0025              _L20:
 188  0025              #line 188 "c:\users\longshuangmin\desktop\worke_space\g-501\g-501\uart.c"
 188  0025  0700     E  	mov a,_M_UART_TxIndex[0]
 188  0026  0080     E  	mov _M_UART_TxIndex_Old[0],a
 188  0027              _L17:
 188  0027  0003        	ret
 188  0028              _fun_Uart0StartTx endp
 188  0028              #line 188 "c:\users\longshuangmin\desktop\worke_space\g-501\g-501\uart.c"
 188  0028              #pragma debug scope 1 1
 188  0028              public _fun_UART0WriteTxBufStart
 188  0028              #pragma debug scope 9 1
 196  0028              #line 196 "c:\users\longshuangmin\desktop\worke_space\g-501\g-501\uart.c"
 196  0000              _fun_UART0WriteTxBufStart .section 'code'
 196  0000              _fun_UART0WriteTxBufStart proc
 196  0000              public _fun_UART0WriteTxBufStart_2
 196  0000  0005[           local _fun_UART0WriteTxBufStart_2 db 5 dup(?)	; 3,2
            00
            ]
 196  0005              #pragma debug pointer 43 7 9
 196  0005              #pragma debug pointer 43 7 9
 196  0005              #pragma debug variable 43 9 _fun_UART0WriteTxBufStart_2+0 "src"
 196  0005              #pragma debug variable 8 9 _fun_UART0WriteTxBufStart_2+2 "len"
 196  0005              #pragma debug variable 8 9 _fun_UART0WriteTxBufStart_2+4 "i"
 196  0005              #pragma debug variable 8 9 _fun_UART0WriteTxBufStart_2+3 "count"
 199  0005              #line 199 "c:\users\longshuangmin\desktop\worke_space\g-501\g-501\uart.c"
 199  0000  0F80        	mov a,128
 199  0001  0200     R  	sub a,_fun_UART0WriteTxBufStart_2[2]
 199  0002  380A        	snz c
 199  0003  2800     R  	jmp _L28
 205  0004              #line 205 "c:\users\longshuangmin\desktop\worke_space\g-501\g-501\uart.c"
 205  0004  0700     E  	mov a,_M_UART_TxIndex[0]
 205  0005  0200     E  	sub a,_M_UART_TxLength[0]
 205  0006  3C0A        	sz c
 205  0007  2800     R  	jmp _L24
 206  0008              #line 206 "c:\users\longshuangmin\desktop\worke_space\g-501\g-501\uart.c"
 206  0008  0700     E  	mov a,_M_UART_TxLength[0]
 206  0009  0080     R  	mov _fun_UART0WriteTxBufStart_2[3],a
 206  000A  2800     R  	jmp _L25
 206  000B              _L24:
 209  000B              #line 209 "c:\users\longshuangmin\desktop\worke_space\g-501\g-501\uart.c"
 209  000B  1F00     R  	clr _fun_UART0WriteTxBufStart_2[3]
 210  000C              #line 210 "c:\users\longshuangmin\desktop\worke_space\g-501\g-501\uart.c"
文件：uart.c       编译器版本 HGASM 0202 页次8

 210  000C  1F00     E  	clr _M_UART_TxIndex[0]
 211  000D              #line 211 "c:\users\longshuangmin\desktop\worke_space\g-501\g-501\uart.c"
 211  000D  1F00     E  	clr _M_UART_TxLength[0]
 212  000E              #line 212 "c:\users\longshuangmin\desktop\worke_space\g-501\g-501\uart.c"
 212  000E  1F00     E  	clr _M_UART_TxIndex_Old[0]
 213  000F              #line 213 "c:\users\longshuangmin\desktop\worke_space\g-501\g-501\uart.c"
 213  000F  1F00     E  	clr _M_UART_Tx_ErrorCnt[0]
 213  0010              _L25:
 217  0010              #line 217 "c:\users\longshuangmin\desktop\worke_space\g-501\g-501\uart.c"
 217  0010  0700     R  	mov a,_fun_UART0WriteTxBufStart_2[3]
 217  0011  0080     R  	mov _fun_UART0WriteTxBufStart_2[4],a
 217  0012  0700     R  	mov a,_fun_UART0WriteTxBufStart_2[0]
 217  0013  0080     E  	mov rb,a
 217  0014  0700     R  	mov a,_fun_UART0WriteTxBufStart_2[1]
 217  0015  0080     E  	mov rc,a
 217  0016              _L26:
 217  0016  0700     R  	mov a,_fun_UART0WriteTxBufStart_2[4]
 217  0017  0080     E  	mov rf,a
 217  0018  1F00     E  	clr rg
 217  0019  0700     R  	mov a,_fun_UART0WriteTxBufStart_2[3]
 217  001A  0080     E  	mov rd,a
 217  001B  1F00     E  	clr re
 217  001C  0700     R  	mov a,_fun_UART0WriteTxBufStart_2[2]
 217  001D  0380     E  	addm a,rd
 217  001E  3C0A        	sz c
 217  001F  1480     E  	inc re
 217  0020  0700     E  	mov a,rf
 217  0021  0200     E  	sub a,rd
 217  0022  0700     E  	mov a,rg
 217  0023  1200     E  	sbc a,re
 217  0024  3B8A        	snz sc
 217  0025  2800     R  	jmp _L29
 219  0026              #line 219 "c:\users\longshuangmin\desktop\worke_space\g-501\g-501\uart.c"
 219  0026  0700     E  	mov a,rb
 219  0027  0083        	mov mp,a
 219  0028  0700     E  	mov a,rc
 219  0029  0084        	mov sbp,a
 219  002A              	fcall _Crom2Prom
 219  0031  0080     E  	mov ra,a
 219  0032  0F80        	mov a,low offset _M_UART_TxFIFO
 219  0033  0300     R  	add a,_fun_UART0WriteTxBufStart_2[4]
 219  0034  0083        	mov mp,a
 219  0035  0F1F        	mov a,high offset _M_UART_TxFIFO
 219  0036  1F04        	clr sbp
 219  0037  1384        	adcm a,sbp
 219  0038  0700     E  	mov a,ra
 219  0039  0082        	mov ir,a
 217  003A              #line 217 "c:\users\longshuangmin\desktop\worke_space\g-501\g-501\uart.c"
 217  003A  1480     R  	inc _fun_UART0WriteTxBufStart_2[4]
 217  003B  1480     E  	inc rb
 217  003C  3D0A        	sz z
 217  003D  1480     E  	inc rc
 217  003E  2800     R  	jmp _L26
 217  003F              _L29:
 222  003F              #line 222 "c:\users\longshuangmin\desktop\worke_space\g-501\g-501\uart.c"
 222  003F  0700     R  	mov a,_fun_UART0WriteTxBufStart_2[2]
 222  0040  0080     E  	mov ra,a
 222  0041  0700     E  	mov a,ra
 222  0042              	fcall _fun_Uart0StartTx
 232  0049              #line 232 "c:\users\longshuangmin\desktop\worke_space\g-501\g-501\uart.c"
文件：uart.c       编译器版本 HGASM 0202 页次9

 232  0049  1F00     E  	clr ra
 232  004A  2800     R  	jmp _L23
 232  004B              _L28:
 201  004B              #line 201 "c:\users\longshuangmin\desktop\worke_space\g-501\g-501\uart.c"
 201  004B  0F02        	mov a,2
 201  004C  0080     E  	mov ra,a
 201  004D              _L23:
 234  004D              #line 234 "c:\users\longshuangmin\desktop\worke_space\g-501\g-501\uart.c"
 234  004D  0700     E  	mov a,ra
 234  004E  0003        	ret
 234  004F              _fun_UART0WriteTxBufStart endp
 234  004F              #line 234 "c:\users\longshuangmin\desktop\worke_space\g-501\g-501\uart.c"
 234  004F              #pragma debug scope 1 1
 234  0000              @crom	.section 'crom'
 234  0000              _LC0:
 234  0000              	db 02dh,00h
 234  0001              @crom	.section 'crom'
 234  0001              _LC1:
 234  0001              	db 030h,00h
 234  0002              public _fun_UART_SendValue
 234  0002              #pragma debug scope 10 1
 305  0002              #line 305 "c:\users\longshuangmin\desktop\worke_space\g-501\g-501\uart.c"
 305  0000              _fun_UART_SendValue .section 'code'
 305  0000              _fun_UART_SendValue proc
 305  0000              public _fun_UART_SendValue_2
 305  0000  0013[           local _fun_UART_SendValue_2 db 19 dup(?)	; 4,15
            00
            ]
 305  0013              #pragma debug variable 13 10 _fun_UART_SendValue_2+0 "tValue"
 305  0013              #pragma debug array 44 8 10 10
 305  0013              #pragma debug array 44 8 10 10
 305  0013              #pragma debug variable 44 10 _fun_UART_SendValue_2+4 "buff"
 305  0013              #pragma debug variable 8 10 _fun_UART_SendValue_2+18 "tmpValue"
 305  0013              #pragma debug variable 13 10 _fun_UART_SendValue_2+14 "value"
 306  0013              #line 306 "c:\users\longshuangmin\desktop\worke_space\g-501\g-501\uart.c"
 306  0000  1F00     R  	clr _fun_UART_SendValue_2[4]
 306  0001  1F00     R  	clr _fun_UART_SendValue_2[5]
 306  0002  1F00     R  	clr _fun_UART_SendValue_2[6]
 306  0003  1F00     R  	clr _fun_UART_SendValue_2[7]
 306  0004  1F00     R  	clr _fun_UART_SendValue_2[8]
 306  0005  1F00     R  	clr _fun_UART_SendValue_2[9]
 306  0006  1F00     R  	clr _fun_UART_SendValue_2[10]
 306  0007  1F00     R  	clr _fun_UART_SendValue_2[11]
 306  0008  1F00     R  	clr _fun_UART_SendValue_2[12]
 306  0009  1F00     R  	clr _fun_UART_SendValue_2[13]
 310  000A              #line 310 "c:\users\longshuangmin\desktop\worke_space\g-501\g-501\uart.c"
 310  000A  1F00     R  	clr _fun_UART_SendValue_2[14]
 310  000B  1F00     R  	clr _fun_UART_SendValue_2[15]
 310  000C  1F00     R  	clr _fun_UART_SendValue_2[16]
 310  000D  1F00     R  	clr _fun_UART_SendValue_2[17]
 312  000E              #line 312 "c:\users\longshuangmin\desktop\worke_space\g-501\g-501\uart.c"
 312  000E  3800     R  	snz _fun_UART_SendValue_2[3].7
 312  000F  2800     R  	jmp _L31
 315  0010              #line 315 "c:\users\longshuangmin\desktop\worke_space\g-501\g-501\uart.c"
 315  0010  0F00        	mov a,0
 315  0011  0200     R  	sub a,_fun_UART_SendValue_2[0]
 315  0012  0080     E  	mov ra,a
 315  0013  0F00        	mov a,0
 315  0014  1200     R  	sbc a,_fun_UART_SendValue_2[1]
 315  0015  0080     E  	mov rb,a
文件：uart.c       编译器版本 HGASM 0202 页次10

 315  0016  0F00        	mov a,0
 315  0017  1200     R  	sbc a,_fun_UART_SendValue_2[2]
 315  0018  0080     E  	mov rc,a
 315  0019  0F00        	mov a,0
 315  001A  1200     R  	sbc a,_fun_UART_SendValue_2[3]
 315  001B  0080     E  	mov rd,a
 315  001C  0700     E  	mov a,ra
 315  001D  0080     R  	mov _fun_UART_SendValue_2[14],a
 315  001E  0700     E  	mov a,rb
 315  001F  0080     R  	mov _fun_UART_SendValue_2[15],a
 315  0020  0700     E  	mov a,rc
 315  0021  0080     R  	mov _fun_UART_SendValue_2[16],a
 315  0022  0700     E  	mov a,rd
 315  0023  0080     R  	mov _fun_UART_SendValue_2[17],a
 314  0024              #line 314 "c:\users\longshuangmin\desktop\worke_space\g-501\g-501\uart.c"
 314  0024  0F01        	mov a,1
 314  0025  0080     E  	mov rh,a
 314  0026              _L33:
 319  0026              #line 319 "c:\users\longshuangmin\desktop\worke_space\g-501\g-501\uart.c"
 319  0026  1F00     R  	clr _fun_UART_SendValue_2[18]
 319  0027  0F0A        	mov a,10
 319  0028  0080     E  	mov ra,a
 327  0029              #line 327 "c:\users\longshuangmin\desktop\worke_space\g-501\g-501\uart.c"
 327  0029  0F00     R  	mov a,low offset _fun_UART_SendValue_2
 327  002A  0080     E  	mov rb,a
 327  002B  0F00     R  	mov a,high offset _fun_UART_SendValue_2
 327  002C  0080     E  	mov rc,a
 327  002D  0F04        	mov a,4
 327  002E  0380     E  	addm a,rb
 327  002F  0F00        	mov a,0
 327  0030  1380     E  	adcm a,rc
 327  0031  2800     R  	jmp _L32
 327  0032              _L31:
 320  0032              #line 320 "c:\users\longshuangmin\desktop\worke_space\g-501\g-501\uart.c"
 320  0032  0700     R  	mov a,_fun_UART_SendValue_2[0]
 320  0033  0080     R  	mov _fun_UART_SendValue_2[14],a
 320  0034  0700     R  	mov a,_fun_UART_SendValue_2[1]
 320  0035  0080     R  	mov _fun_UART_SendValue_2[15],a
 320  0036  0700     R  	mov a,_fun_UART_SendValue_2[2]
 320  0037  0080     R  	mov _fun_UART_SendValue_2[16],a
 320  0038  0700     R  	mov a,_fun_UART_SendValue_2[3]
 320  0039  0080     R  	mov _fun_UART_SendValue_2[17],a
 319  003A              #line 319 "c:\users\longshuangmin\desktop\worke_space\g-501\g-501\uart.c"
 319  003A  1F00     E  	clr rh
 319  003B  2800     R  	jmp _L33
 319  003C              _L39:
 335  003C              #line 335 "c:\users\longshuangmin\desktop\worke_space\g-501\g-501\uart.c"
 335  003C  1F00     R  	clr _fun_UART_SendValue_2[18]
 335  003D              _L34:
 324  003D              #line 324 "c:\users\longshuangmin\desktop\worke_space\g-501\g-501\uart.c"
 324  003D  1E00     E  	snz ra
 324  003E  2800     R  	jmp _L43
 324  003F              _L32:
 326  003F              #line 326 "c:\users\longshuangmin\desktop\worke_space\g-501\g-501\uart.c"
 326  003F  1580     E  	dec ra
 327  0040              #line 327 "c:\users\longshuangmin\desktop\worke_space\g-501\g-501\uart.c"
 327  0040  0700     R  	mov a,_fun_UART_SendValue_2[14]  
 327  0041  0080     E  	mov _builtin_holtek_udivmodsi4_2[0],a  
 327  0042  0700     R  	mov a,_fun_UART_SendValue_2[15]  
 327  0043  0080     E  	mov _builtin_holtek_udivmodsi4_2[1],a
文件：uart.c       编译器版本 HGASM 0202 页次11

 327  0044  0700     R  	mov a,_fun_UART_SendValue_2[16]  
 327  0045  0080     E  	mov _builtin_holtek_udivmodsi4_2[2],a  
 327  0046  0700     R  	mov a,_fun_UART_SendValue_2[17]  
 327  0047  0080     E  	mov _builtin_holtek_udivmodsi4_2[3],a
 327  0048  0F0A        	mov a,10  
 327  0049  0080     E  	mov _builtin_holtek_udivmodsi4_2[4],a  
 327  004A  0F00        	mov a,0  
 327  004B  0080     E  	mov _builtin_holtek_udivmodsi4_2[5],a
 327  004C  0F00        	mov a,0  
 327  004D  0080     E  	mov _builtin_holtek_udivmodsi4_2[6],a  
 327  004E  0F00        	mov a,0  
 327  004F  0080     E  	mov _builtin_holtek_udivmodsi4_2[7],a
 327  0050              	fcall _builtin_holtek_divmodsi4
 327  0057  0700     E  	mov a,_builtin_holtek_udivmodsi4_2[8]  
 327  0058  0080     E  	mov rd,a  
 327  0059  0700     E  	mov a,_builtin_holtek_udivmodsi4_2[9]  
 327  005A  0080     E  	mov re,a
 327  005B  0700     E  	mov a,_builtin_holtek_udivmodsi4_2[10] 
 327  005C  0080     E  	mov rf,a  
 327  005D  0700     E  	mov a,_builtin_holtek_udivmodsi4_2[11] 
 327  005E  0080     E  	mov rg,a
 327  005F  0F30        	mov a,48
 327  0060  0380     E  	addm a,rd
 327  0061  0700     E  	mov a,ra
 327  0062  0300     E  	add a,rb
 327  0063  0083        	mov mp,a
 327  0064  1F05        	clr acc
 327  0065  1300     E  	adc a,rc
 327  0066  0084        	mov sbp,a
 327  0067  0700     E  	mov a,rd
 327  0068  0082        	mov ir,a
 328  0069              #line 328 "c:\users\longshuangmin\desktop\worke_space\g-501\g-501\uart.c"
 328  0069  0700     R  	mov a,_fun_UART_SendValue_2[14]  
 328  006A  0080     E  	mov _builtin_holtek_udivmodsi4_2[0],a  
 328  006B  0700     R  	mov a,_fun_UART_SendValue_2[15]  
 328  006C  0080     E  	mov _builtin_holtek_udivmodsi4_2[1],a
 328  006D  0700     R  	mov a,_fun_UART_SendValue_2[16]  
 328  006E  0080     E  	mov _builtin_holtek_udivmodsi4_2[2],a  
 328  006F  0700     R  	mov a,_fun_UART_SendValue_2[17]  
 328  0070  0080     E  	mov _builtin_holtek_udivmodsi4_2[3],a
 328  0071  0F0A        	mov a,10  
 328  0072  0080     E  	mov _builtin_holtek_udivmodsi4_2[4],a  
 328  0073  0F00        	mov a,0  
 328  0074  0080     E  	mov _builtin_holtek_udivmodsi4_2[5],a
 328  0075  0F00        	mov a,0  
 328  0076  0080     E  	mov _builtin_holtek_udivmodsi4_2[6],a  
 328  0077  0F00        	mov a,0  
 328  0078  0080     E  	mov _builtin_holtek_udivmodsi4_2[7],a
 328  0079              	fcall _builtin_holtek_divmodsi4
 328  0080  0700     E  	mov a,_builtin_holtek_udivmodsi4_2[0]  
 328  0081  0080     R  	mov _fun_UART_SendValue_2[14],a  
 328  0082  0700     E  	mov a,_builtin_holtek_udivmodsi4_2[1]  
 328  0083  0080     R  	mov _fun_UART_SendValue_2[15],a
 328  0084  0700     E  	mov a,_builtin_holtek_udivmodsi4_2[2]  
 328  0085  0080     R  	mov _fun_UART_SendValue_2[16],a  
 328  0086  0700     E  	mov a,_builtin_holtek_udivmodsi4_2[3]  
 328  0087  0080     R  	mov _fun_UART_SendValue_2[17],a
 329  0088              #line 329 "c:\users\longshuangmin\desktop\worke_space\g-501\g-501\uart.c"
 329  0088  0700     E  	mov a,rd
 329  0089  0A30        	sub a,48
文件：uart.c       编译器版本 HGASM 0202 页次12

 329  008A  390A        	snz z
 329  008B  2800     R  	jmp _L39
 331  008C              #line 331 "c:\users\longshuangmin\desktop\worke_space\g-501\g-501\uart.c"
 331  008C  1480     R  	inc _fun_UART_SendValue_2[18]
 331  008D  2800     R  	jmp _L34
 331  008E              _L43:
 339  008E              #line 339 "c:\users\longshuangmin\desktop\worke_space\g-501\g-501\uart.c"
 339  008E  1E00     E  	snz rh
 339  008F  2800     R  	jmp _L36
 341  0090              #line 341 "c:\users\longshuangmin\desktop\worke_space\g-501\g-501\uart.c"
 341  0090  0F01        	mov a,1
 341  0091  0080     R  	mov _fun_UART1WriteTxBufStart_2[2],a
 341  0092  0F00     R  	mov a,low offset _LC0
 341  0093  0080     R  	mov _fun_UART1WriteTxBufStart_2[0],a
 341  0094  0F00     R  	mov a,high offset _LC0
 341  0095  0080     R  	mov _fun_UART1WriteTxBufStart_2[1],a
 341  0096              	fcall _fun_UART1WriteTxBufStart
 342  009D              #line 342 "c:\users\longshuangmin\desktop\worke_space\g-501\g-501\uart.c"
 342  009D              ;# 342 "c:\users\longshuangmin\desktop\worke_space\g-501\g-501\uart.c" 1
 342  009D              	IF 500>263690
 342  009D              ;# 342 "c:\users\longshuangmin\desktop\worke_space\g-501\g-501\uart.c" 1
 342  009D              	ERRMESSAGE 'the value 500of the argument exceeds the maxinum 263690'
 342  009D              	ENDIF
 342  009D              ;# 342 "c:\users\longshuangmin\desktop\worke_space\g-501\g-501\uart.c" 1
 342  009D              	IF 500<0
 342  009D              ;# 342 "c:\users\longshuangmin\desktop\worke_space\g-501\g-501\uart.c" 1
 342  009D              	ERRMESSAGE 'the value 500 of the argument exceeds the mininum 0'
 342  009D              	ENDIF
 342  009D              ;# 342 "c:\users\longshuangmin\desktop\worke_space\g-501\g-501\uart.c" 1
 342  009D              	IF 500==0
 342  009D              ;# 342 "c:\users\longshuangmin\desktop\worke_space\g-501\g-501\uart.c" 1
 342  009D              	JMP $
 342  009D              	ENDIF
 342  009D              ;# 342 "c:\users\longshuangmin\desktop\worke_space\g-501\g-501\uart.c" 1
 342  009D              	IF (500>=1) AND (500<( 4 + __PBP__ * 2))
 342  009D              ;# 342 "c:\users\longshuangmin\desktop\worke_space\g-501\g-501\uart.c" 1
 342  009D              	NOP
 342  009D              	ENDIF
 342  009D              ;# 342 "c:\users\longshuangmin\desktop\worke_space\g-501\g-501\uart.c" 1
 342  009D              	IF (500>=2) AND (500<( 4 + __PBP__ * 2))
 342  009D              ;# 342 "c:\users\longshuangmin\desktop\worke_space\g-501\g-501\uart.c" 1
 342  009D              	NOP
 342  009D              	ENDIF
 342  009D              ;# 342 "c:\users\longshuangmin\desktop\worke_space\g-501\g-501\uart.c" 1
 342  009D              	IF (500>=3) AND (500<( 4 + __PBP__ * 2))
 342  009D              ;# 342 "c:\users\longshuangmin\desktop\worke_space\g-501\g-501\uart.c" 1
 342  009D              	NOP
 342  009D              	ENDIF
 342  009D              ;# 342 "c:\users\longshuangmin\desktop\worke_space\g-501\g-501\uart.c" 1
 342  009D              	IF (500>=4) AND (500<( 4 + __PBP__ * 2)) AND ( __PBP__ > 0 )
 342  009D              ;# 342 "c:\users\longshuangmin\desktop\worke_space\g-501\g-501\uart.c" 1
 342  009D              	NOP
 342  009D              	ENDIF
 342  009D              ;# 342 "c:\users\longshuangmin\desktop\worke_space\g-501\g-501\uart.c" 1
 342  009D              	IF (500>=5) AND (500<( 4 + __PBP__ * 2)) AND ( __PBP__ > 0 )
 342  009D              ;# 342 "c:\users\longshuangmin\desktop\worke_space\g-501\g-501\uart.c" 1
 342  009D              	NOP
 342  009D              	ENDIF
 342  009D              ;# 342 "c:\users\longshuangmin\desktop\worke_space\g-501\g-501\uart.c" 1
 342  009D              	IF (500>=6) AND (500<( 4 + __PBP__ * 2))  AND ( __PBP__ > 1 )
文件：uart.c       编译器版本 HGASM 0202 页次13

 342  009D              ;# 342 "c:\users\longshuangmin\desktop\worke_space\g-501\g-501\uart.c" 1
 342  009D              	NOP
 342  009D              	ENDIF
 342  009D              ;# 342 "c:\users\longshuangmin\desktop\worke_space\g-501\g-501\uart.c" 1
 342  009D              	IF (500>=7) AND (500<( 4 + __PBP__ * 2))  AND ( __PBP__ > 1 )
 342  009D              ;# 342 "c:\users\longshuangmin\desktop\worke_space\g-501\g-501\uart.c" 1
 342  009D              	NOP
 342  009D              	ENDIF
 342  009D              ;# 342 "c:\users\longshuangmin\desktop\worke_space\g-501\g-501\uart.c" 1
 342  009D              	IF (500>=8) AND (500<( 4 + __PBP__ * 2))  AND ( __PBP__ > 2 )
 342  009D              ;# 342 "c:\users\longshuangmin\desktop\worke_space\g-501\g-501\uart.c" 1
 342  009D              	NOP
 342  009D              	ENDIF
 342  009D              ;# 342 "c:\users\longshuangmin\desktop\worke_space\g-501\g-501\uart.c" 1
 342  009D              	IF (500==9)  AND ( __PBP__ > 2 )
 342  009D              ;# 342 "c:\users\longshuangmin\desktop\worke_space\g-501\g-501\uart.c" 1
 342  009D              	NOP
 342  009D              	ENDIF
 342  009D              ;# 342 "c:\users\longshuangmin\desktop\worke_space\g-501\g-501\uart.c" 1
 342  009D              	IF (500< ( 8 + __PBP__ * 2)) AND (500>( 3 + __PBP__ * 2))
 342  009D              ;# 342 "c:\users\longshuangmin\desktop\worke_space\g-501\g-501\uart.c" 1
 342  009D              	fcall __DELAY3 + ( 7 + __PBP__ * 2) -500
 342  009D              	ENDIF
 342  009D              ;# 342 "c:\users\longshuangmin\desktop\worke_space\g-501\g-501\uart.c" 1
 342  009D              	IF (500< ( 0404h + __PBP__ * 2)) AND (500>( 7 + __PBP__ * 2))
 342  009D              ;# 342 "c:\users\longshuangmin\desktop\worke_space\g-501\g-501\uart.c" 1
 342  009D  0F7A        	MOV A,(500-( 4 + __PBP__ * 2))/4
 342  009E              ;# 342 "c:\users\longshuangmin\desktop\worke_space\g-501\g-501\uart.c" 1
 342  009E              	fcall __DELAYX3 + 3 -((500-( 4 + __PBP__ * 2)) MOD 4) 
 342  00A5              	ENDIF
 342  00A5              ;# 342 "c:\users\longshuangmin\desktop\worke_space\g-501\g-501\uart.c" 1
 342  00A5              	IF (500< ( 040bh + __PBP__ * 2)) AND (500> ( 0403h + __PBP__ * 2))
 342  00A5              ;# 342 "c:\users\longshuangmin\desktop\worke_space\g-501\g-501\uart.c" 1
 342  00A5              	MOV A,0 
 342  00A5              ;# 342 "c:\users\longshuangmin\desktop\worke_space\g-501\g-501\uart.c" 1
 342  00A5              	fcall __DELAYX6 + ( 040ah + __PBP__ * 2) -500
 342  00A5              	ENDIF
 342  00A5              ;# 342 "c:\users\longshuangmin\desktop\worke_space\g-501\g-501\uart.c" 1
 342  00A5              	IF (500 >= ( 040bh + __PBP__ * 2)) AND ((((500-( 9 + __PBP__ * 2))%0402h)/4+1)>256)
 342  00A5              ;# 342 "c:\users\longshuangmin\desktop\worke_space\g-501\g-501\uart.c" 1
 342  00A5              	MOV A,(500-( 9 + __PBP__ * 2))/0402h
 342  00A5              ;# 342 "c:\users\longshuangmin\desktop\worke_space\g-501\g-501\uart.c" 1
 342  00A5              	MOV _builtin_holtek_delay_2,A
 342  00A5              ;# 342 "c:\users\longshuangmin\desktop\worke_space\g-501\g-501\uart.c" 1
 342  00A5              	MOV A,0
 342  00A5              ;# 342 "c:\users\longshuangmin\desktop\worke_space\g-501\g-501\uart.c" 1
 342  00A5              	fcall __DELAYY5 +5- (((500-( 9 + __PBP__ * 2))%0402h)%6) 
 342  00A5              	ENDIF
 342  00A5              ;# 342 "c:\users\longshuangmin\desktop\worke_space\g-501\g-501\uart.c" 1
 342  00A5              	IF (500 >= ( 040bh + __PBP__ * 2)) AND ((((500-( 9 + __PBP__ * 2))%0402h)/4+1)<=256)
 342  00A5              ;# 342 "c:\users\longshuangmin\desktop\worke_space\g-501\g-501\uart.c" 1
 342  00A5              	MOV A,(500-( 9 + __PBP__ * 2))/0402h
 342  00A5              ;# 342 "c:\users\longshuangmin\desktop\worke_space\g-501\g-501\uart.c" 1
 342  00A5              	MOV _builtin_holtek_delay_2,A
 342  00A5              ;# 342 "c:\users\longshuangmin\desktop\worke_space\g-501\g-501\uart.c" 1
 342  00A5              	MOV A,((500-( 9 + __PBP__ * 2))%0402h)/4+1
 342  00A5              ;# 342 "c:\users\longshuangmin\desktop\worke_space\g-501\g-501\uart.c" 1
 342  00A5              	fcall __DELAYY3 +3-(((500-( 9 + __PBP__ * 2))%0402h)%4) 
 342  00A5              	ENDIF
 342  00A5              _L36:
文件：uart.c       编译器版本 HGASM 0202 页次14

 346  00A5              #line 346 "c:\users\longshuangmin\desktop\worke_space\g-501\g-501\uart.c"
 346  00A5  0F09        	mov a,9
 346  00A6  0200     R  	sub a,_fun_UART_SendValue_2[18]
 346  00A7  3C0A        	sz c
 346  00A8  2800     R  	jmp _L37
 348  00A9              #line 348 "c:\users\longshuangmin\desktop\worke_space\g-501\g-501\uart.c"
 348  00A9  0F01        	mov a,1
 348  00AA  0080     R  	mov _fun_UART1WriteTxBufStart_2[2],a
 348  00AB  0F00     R  	mov a,low offset _LC1
 348  00AC  0080     R  	mov _fun_UART1WriteTxBufStart_2[0],a
 348  00AD  0F00     R  	mov a,high offset _LC1
 348  00AE  0080     R  	mov _fun_UART1WriteTxBufStart_2[1],a
 348  00AF              	fcall _fun_UART1WriteTxBufStart
 349  00B6              #line 349 "c:\users\longshuangmin\desktop\worke_space\g-501\g-501\uart.c"
 349  00B6              ;# 349 "c:\users\longshuangmin\desktop\worke_space\g-501\g-501\uart.c" 1
 349  00B6              	IF 500>263690
 349  00B6              ;# 349 "c:\users\longshuangmin\desktop\worke_space\g-501\g-501\uart.c" 1
 349  00B6              	ERRMESSAGE 'the value 500of the argument exceeds the maxinum 263690'
 349  00B6              	ENDIF
 349  00B6              ;# 349 "c:\users\longshuangmin\desktop\worke_space\g-501\g-501\uart.c" 1
 349  00B6              	IF 500<0
 349  00B6              ;# 349 "c:\users\longshuangmin\desktop\worke_space\g-501\g-501\uart.c" 1
 349  00B6              	ERRMESSAGE 'the value 500 of the argument exceeds the mininum 0'
 349  00B6              	ENDIF
 349  00B6              ;# 349 "c:\users\longshuangmin\desktop\worke_space\g-501\g-501\uart.c" 1
 349  00B6              	IF 500==0
 349  00B6              ;# 349 "c:\users\longshuangmin\desktop\worke_space\g-501\g-501\uart.c" 1
 349  00B6              	JMP $
 349  00B6              	ENDIF
 349  00B6              ;# 349 "c:\users\longshuangmin\desktop\worke_space\g-501\g-501\uart.c" 1
 349  00B6              	IF (500>=1) AND (500<( 4 + __PBP__ * 2))
 349  00B6              ;# 349 "c:\users\longshuangmin\desktop\worke_space\g-501\g-501\uart.c" 1
 349  00B6              	NOP
 349  00B6              	ENDIF
 349  00B6              ;# 349 "c:\users\longshuangmin\desktop\worke_space\g-501\g-501\uart.c" 1
 349  00B6              	IF (500>=2) AND (500<( 4 + __PBP__ * 2))
 349  00B6              ;# 349 "c:\users\longshuangmin\desktop\worke_space\g-501\g-501\uart.c" 1
 349  00B6              	NOP
 349  00B6              	ENDIF
 349  00B6              ;# 349 "c:\users\longshuangmin\desktop\worke_space\g-501\g-501\uart.c" 1
 349  00B6              	IF (500>=3) AND (500<( 4 + __PBP__ * 2))
 349  00B6              ;# 349 "c:\users\longshuangmin\desktop\worke_space\g-501\g-501\uart.c" 1
 349  00B6              	NOP
 349  00B6              	ENDIF
 349  00B6              ;# 349 "c:\users\longshuangmin\desktop\worke_space\g-501\g-501\uart.c" 1
 349  00B6              	IF (500>=4) AND (500<( 4 + __PBP__ * 2)) AND ( __PBP__ > 0 )
 349  00B6              ;# 349 "c:\users\longshuangmin\desktop\worke_space\g-501\g-501\uart.c" 1
 349  00B6              	NOP
 349  00B6              	ENDIF
 349  00B6              ;# 349 "c:\users\longshuangmin\desktop\worke_space\g-501\g-501\uart.c" 1
 349  00B6              	IF (500>=5) AND (500<( 4 + __PBP__ * 2)) AND ( __PBP__ > 0 )
 349  00B6              ;# 349 "c:\users\longshuangmin\desktop\worke_space\g-501\g-501\uart.c" 1
 349  00B6              	NOP
 349  00B6              	ENDIF
 349  00B6              ;# 349 "c:\users\longshuangmin\desktop\worke_space\g-501\g-501\uart.c" 1
 349  00B6              	IF (500>=6) AND (500<( 4 + __PBP__ * 2))  AND ( __PBP__ > 1 )
 349  00B6              ;# 349 "c:\users\longshuangmin\desktop\worke_space\g-501\g-501\uart.c" 1
 349  00B6              	NOP
 349  00B6              	ENDIF
 349  00B6              ;# 349 "c:\users\longshuangmin\desktop\worke_space\g-501\g-501\uart.c" 1
文件：uart.c       编译器版本 HGASM 0202 页次15

 349  00B6              	IF (500>=7) AND (500<( 4 + __PBP__ * 2))  AND ( __PBP__ > 1 )
 349  00B6              ;# 349 "c:\users\longshuangmin\desktop\worke_space\g-501\g-501\uart.c" 1
 349  00B6              	NOP
 349  00B6              	ENDIF
 349  00B6              ;# 349 "c:\users\longshuangmin\desktop\worke_space\g-501\g-501\uart.c" 1
 349  00B6              	IF (500>=8) AND (500<( 4 + __PBP__ * 2))  AND ( __PBP__ > 2 )
 349  00B6              ;# 349 "c:\users\longshuangmin\desktop\worke_space\g-501\g-501\uart.c" 1
 349  00B6              	NOP
 349  00B6              	ENDIF
 349  00B6              ;# 349 "c:\users\longshuangmin\desktop\worke_space\g-501\g-501\uart.c" 1
 349  00B6              	IF (500==9)  AND ( __PBP__ > 2 )
 349  00B6              ;# 349 "c:\users\longshuangmin\desktop\worke_space\g-501\g-501\uart.c" 1
 349  00B6              	NOP
 349  00B6              	ENDIF
 349  00B6              ;# 349 "c:\users\longshuangmin\desktop\worke_space\g-501\g-501\uart.c" 1
 349  00B6              	IF (500< ( 8 + __PBP__ * 2)) AND (500>( 3 + __PBP__ * 2))
 349  00B6              ;# 349 "c:\users\longshuangmin\desktop\worke_space\g-501\g-501\uart.c" 1
 349  00B6              	fcall __DELAY3 + ( 7 + __PBP__ * 2) -500
 349  00B6              	ENDIF
 349  00B6              ;# 349 "c:\users\longshuangmin\desktop\worke_space\g-501\g-501\uart.c" 1
 349  00B6              	IF (500< ( 0404h + __PBP__ * 2)) AND (500>( 7 + __PBP__ * 2))
 349  00B6              ;# 349 "c:\users\longshuangmin\desktop\worke_space\g-501\g-501\uart.c" 1
 349  00B6  0F7A        	MOV A,(500-( 4 + __PBP__ * 2))/4
 349  00B7              ;# 349 "c:\users\longshuangmin\desktop\worke_space\g-501\g-501\uart.c" 1
 349  00B7              	fcall __DELAYX3 + 3 -((500-( 4 + __PBP__ * 2)) MOD 4) 
 349  00BE              	ENDIF
 349  00BE              ;# 349 "c:\users\longshuangmin\desktop\worke_space\g-501\g-501\uart.c" 1
 349  00BE              	IF (500< ( 040bh + __PBP__ * 2)) AND (500> ( 0403h + __PBP__ * 2))
 349  00BE              ;# 349 "c:\users\longshuangmin\desktop\worke_space\g-501\g-501\uart.c" 1
 349  00BE              	MOV A,0 
 349  00BE              ;# 349 "c:\users\longshuangmin\desktop\worke_space\g-501\g-501\uart.c" 1
 349  00BE              	fcall __DELAYX6 + ( 040ah + __PBP__ * 2) -500
 349  00BE              	ENDIF
 349  00BE              ;# 349 "c:\users\longshuangmin\desktop\worke_space\g-501\g-501\uart.c" 1
 349  00BE              	IF (500 >= ( 040bh + __PBP__ * 2)) AND ((((500-( 9 + __PBP__ * 2))%0402h)/4+1)>256)
 349  00BE              ;# 349 "c:\users\longshuangmin\desktop\worke_space\g-501\g-501\uart.c" 1
 349  00BE              	MOV A,(500-( 9 + __PBP__ * 2))/0402h
 349  00BE              ;# 349 "c:\users\longshuangmin\desktop\worke_space\g-501\g-501\uart.c" 1
 349  00BE              	MOV _builtin_holtek_delay_2,A
 349  00BE              ;# 349 "c:\users\longshuangmin\desktop\worke_space\g-501\g-501\uart.c" 1
 349  00BE              	MOV A,0
 349  00BE              ;# 349 "c:\users\longshuangmin\desktop\worke_space\g-501\g-501\uart.c" 1
 349  00BE              	fcall __DELAYY5 +5- (((500-( 9 + __PBP__ * 2))%0402h)%6) 
 349  00BE              	ENDIF
 349  00BE              ;# 349 "c:\users\longshuangmin\desktop\worke_space\g-501\g-501\uart.c" 1
 349  00BE              	IF (500 >= ( 040bh + __PBP__ * 2)) AND ((((500-( 9 + __PBP__ * 2))%0402h)/4+1)<=256)
 349  00BE              ;# 349 "c:\users\longshuangmin\desktop\worke_space\g-501\g-501\uart.c" 1
 349  00BE              	MOV A,(500-( 9 + __PBP__ * 2))/0402h
 349  00BE              ;# 349 "c:\users\longshuangmin\desktop\worke_space\g-501\g-501\uart.c" 1
 349  00BE              	MOV _builtin_holtek_delay_2,A
 349  00BE              ;# 349 "c:\users\longshuangmin\desktop\worke_space\g-501\g-501\uart.c" 1
 349  00BE              	MOV A,((500-( 9 + __PBP__ * 2))%0402h)/4+1
 349  00BE              ;# 349 "c:\users\longshuangmin\desktop\worke_space\g-501\g-501\uart.c" 1
 349  00BE              	fcall __DELAYY3 +3-(((500-( 9 + __PBP__ * 2))%0402h)%4) 
 349  00BE              	ENDIF
 349  00BE  2800     R  	jmp _L30
 349  00BF              _L37:
 353  00BF              #line 353 "c:\users\longshuangmin\desktop\worke_space\g-501\g-501\uart.c"
 353  00BF  0F0A        	mov a,10
 353  00C0  0200     R  	sub a,_fun_UART_SendValue_2[18]
文件：uart.c       编译器版本 HGASM 0202 页次16

 353  00C1  0080     R  	mov _fun_UART1WriteTxBufStart_2[2],a
 353  00C2  0F00     R  	mov a,low offset _fun_UART_SendValue_2
 353  00C3  0080     E  	mov rb,a
 353  00C4  0F00     R  	mov a,high offset _fun_UART_SendValue_2
 353  00C5  0080     E  	mov rc,a
 353  00C6  0F04        	mov a,4
 353  00C7  0380     E  	addm a,rb
 353  00C8  0F00        	mov a,0
 353  00C9  1380     E  	adcm a,rc
 353  00CA  0700     R  	mov a,_fun_UART_SendValue_2[18]
 353  00CB  0300     E  	add a,rb
 353  00CC  0080     R  	mov _fun_UART1WriteTxBufStart_2[0],a
 353  00CD  1F05        	clr acc
 353  00CE  1300     E  	adc a,rc
 353  00CF  0080     R  	mov _fun_UART1WriteTxBufStart_2[1],a
 353  00D0              	fcall _fun_UART1WriteTxBufStart
 353  00D7              _L30:
 353  00D7  0003        	ret
 353  00D8              _fun_UART_SendValue endp
 353  00D8              #line 353 "c:\users\longshuangmin\desktop\worke_space\g-501\g-501\uart.c"
 353  00D8              #pragma debug scope 1 1
 353  00D8              public _Table_Bootload
 353  0002              @crom	.section 'crom'
   3  0002              #line 3 "c:\users\longshuangmin\desktop\worke_space\g-501\g-501\uart.c"
   3  0002              @crom	.section	'crom'
   3  0002              _Table_Bootload:
   3  0002              #pragma debug array 45 8 9 1
   3  0002              #pragma debug array 45 8 9 1
   3  0002              #pragma debug variable 45 1 _Table_Bootload "Table_Bootload"
   3  0002              	db 042h,06fh,06fh,074h,06ch,06fh,061h,064h,00h
   3  0007              #pragma debug struct_end
   3  0007              #pragma debug struct_end
   3  0007              #pragma debug union_end
   3  0007              #pragma debug union_end
   3  0007              #pragma debug variable 47 1 ___intc0 "__intc0" 1
   3  0007              #pragma debug struct_end
   3  0007              #pragma debug struct_end
   3  0007              #pragma debug union_end
   3  0007              #pragma debug union_end
   3  0007              #pragma debug variable 49 1 ___intc3 "__intc3" 1
   3  0007              #pragma debug struct_end
   3  0007              #pragma debug struct_end
   3  0007              #pragma debug union_end
   3  0007              #pragma debug union_end
   3  0007              #pragma debug variable 51 1 ___u0sr "__u0sr" 1
   3  0007              #pragma debug struct_end
   3  0007              #pragma debug struct_end
   3  0007              #pragma debug union_end
   3  0007              #pragma debug union_end
   3  0007              #pragma debug variable 53 1 ___u0cr1 "__u0cr1" 1
   3  0007              #pragma debug struct_end
   3  0007              #pragma debug struct_end
   3  0007              #pragma debug union_end
   3  0007              #pragma debug union_end
   3  0007              #pragma debug variable 55 1 ___u0cr2 "__u0cr2" 1
   3  0007              #pragma debug struct_end
   3  0007              #pragma debug struct_end
   3  0007              #pragma debug union_end
   3  0007              #pragma debug union_end
   3  0007              #pragma debug variable 57 1 ___txr_rxr0 "__txr_rxr0" 1
文件：uart.c       编译器版本 HGASM 0202 页次17

   3  0007              #pragma debug struct_end
   3  0007              #pragma debug struct_end
   3  0007              #pragma debug union_end
   3  0007              #pragma debug union_end
   3  0007              #pragma debug variable 59 1 ___brg0 "__brg0" 1
   3  0007              #pragma debug struct_end
   3  0007              #pragma debug struct_end
   3  0007              #pragma debug union_end
   3  0007              #pragma debug union_end
   3  0007              #pragma debug variable 61 1 ___u1sr "__u1sr" 1
   3  0007              #pragma debug struct_end
   3  0007              #pragma debug struct_end
   3  0007              #pragma debug union_end
   3  0007              #pragma debug union_end
   3  0007              #pragma debug variable 63 1 ___u1cr1 "__u1cr1" 1
   3  0007              #pragma debug struct_end
   3  0007              #pragma debug struct_end
   3  0007              #pragma debug union_end
   3  0007              #pragma debug union_end
   3  0007              #pragma debug variable 65 1 ___u1cr2 "__u1cr2" 1
   3  0007              #pragma debug struct_end
   3  0007              #pragma debug struct_end
   3  0007              #pragma debug union_end
   3  0007              #pragma debug union_end
   3  0007              #pragma debug variable 67 1 ___txr_rxr1 "__txr_rxr1" 1
   3  0007              #pragma debug struct_end
   3  0007              #pragma debug struct_end
   3  0007              #pragma debug union_end
   3  0007              #pragma debug union_end
   3  0007              #pragma debug variable 69 1 ___brg1 "__brg1" 1
   3  0007              #pragma debug struct_end
   3  0007              #pragma debug struct_end
   3  0007              #pragma debug union_end
   3  0007              #pragma debug union_end
   3  0007              #pragma debug variable 71 1 ___pcs1 "__pcs1" 1
   3  0007              #pragma debug struct_end
   3  0007              #pragma debug struct_end
   3  0007              #pragma debug union_end
   3  0007              #pragma debug union_end
   3  0007              #pragma debug variable 73 1 ___pds1 "__pds1" 1
   3  0007              #pragma debug array 74 8 128 1
   3  0007              #pragma debug array 74 8 128 1
   3  0007              #pragma debug variable 74 1 _M_UART_TxFIFO "M_UART_TxFIFO" 128
   3  0007              
   3  0007              ; output external variables
   3  0007              extern _M_UART_Tx_ErrorCnt:byte
   3  0007              extern _M_UART_TxIndex_Old:byte
   3  0007              extern _M_UART_TxIndex:byte
   3  0007              extern _M_UART_TxLength:byte
   3  0007              extern _builtin_holtek_divmodsi4:near
   3  0007              extern _builtin_holtek_udivmodsi4_2:byte
   3  0007              extern _builtin_holtek_udivmodsi4:near
   3  0007              
   3  0007              ; 
   3  0007              ; Generated by holtek-gcc v3.19, Fri May 23 10:39:42 2025
   3  0007              ; Rebuild 718
   3  0007              ; end of file


        0 Errors, 0