文件：uart2.c      编译器版本 HGASM 0202 页次1


   1  0000              ; Generated by holtek-gcc v3.19, Fri May 23 10:39:49 2025
   2  0000              ; 
   3  0000              ; Configuration:
   4  0000              ;       with long instruction
   5  0000              ;       Multi-ROM, Multi-RAM
   6  0000              ;       bits_per_rom_unit:16
   7  0000              ;       with mp1
   8  0000              ;       with tbhp, address(0x9)
   9  0000              ;          Use tabrd-const
  10  0000              ;       
  11  0000              ; SFR address of long-instruction arch:
  12  0000              ;    mp0 = -1,1,0
  13  0000              ;    mp1 = 4,3,2
  14  0000              ;    mp2 = 14,13,12
  15  0000              ;    tbp = 9,7,8
  16  0000              ;    acc = 5
  17  0000              ;    pcl = 6
  18  0000              ;    status = 10
  19  0000              ;    bp = 11
  20  0000              ;    intc = 32
  21  0000              ;       
  22  0000              ;       
  23  0000              ; use 'tabrdc' instead of 'tabrd'
  24  0000              ;       
  25  0000              
  26  0000              #pragma translator "holtek-gcc 4.6.4" "3.19" "build 20130711"
  27  0000              ; Rebuild 718
  28  0000              
  29  0000              ir equ [2]
  30  0000              mp equ [3]
  31  0000              sbp equ [4]
  32  0000              acc equ [5]
  33  0000              bp equ [11]
  34  0000              tblp equ [7]
  35  0000              tbhp equ [9]
  36  0000              status equ [10]
  37  0000              c equ [10].0
  38  0000              ac equ [10].1
  39  0000              z equ [10].2
  40  0000              ov equ [10].3
  41  0000              cz equ [10].6
  42  0000              sc equ [10].7
  43  0000              intc equ [32]
  44  0000              mduwr0 equ [59h]
  45  0000              mduwr1 equ [5ah]
  46  0000              mduwr2 equ [5bh]
  47  0000              mduwr3 equ [5ch]
  48  0000              mduwr4 equ [5dh]
  49  0000              mduwr5 equ [5eh]
  50  0000              mduwrctrl equ [5fh]
  51  0000              
  52  0000              extern ra:byte
  53  0000              extern rb:byte
  54  0000              extern rc:byte
  55  0000              extern rd:byte
  56  0000              extern re:byte
  57  0000              extern rf:byte
  58  0000              extern rg:byte
  59  0000              extern rh:byte
文件：uart2.ASM    编译器版本 HGASM 0202 页次2

  60  0000              extern _Crom2Prom:near
  61  0000              extern _Crom2PromNext:near
  62  0000              
  63  0000              RAMBANK 0 @BITDATASEC, @BITDATASEC1
  64  0000              @HCCINIT	.section 'data'
  65  0000              @HCCINIT0	.section 'data'
  66  0000              @BITDATASEC	 .section 'data'
  67  0000              @BITDATASEC1	 .section 'data'
  68  0000              
  69  0000              #pragma debug scope 1 1
  70  0000              	extern __DELAY3:near
  71  0000              	extern __DELAYX3:near
  72  0000              	extern __DELAYX6:near
  73  0000              	extern __DELAYY5:near
  74  0000              	extern __DELAYY3:near
  75  0000              	extern _builtin_holtek_delay_2:byte
  76  0000              ___intc0 equ [32]
  77  0000              ___u0sr equ [47]
  78  0000              ___txr_rxr0 equ [50]
  79  0000              public _Send_data
  80  0000              #pragma debug scope 2 1

   4  0000              #line 4 "c:\users\longshuangmin\desktop\worke_space\g-501\g-501\uart2.c"
   4  0000              _Send_data .section 'code'
   4  0000              _Send_data proc
   4  0000  00              local _Send_data_2 db 1 dup(?)	; 0,1
   4  0000  0080     R  	mov _Send_data_2[0],a
   4  0001              #pragma debug variable 8 2 _Send_data_2+0 "data"
   5  0001              #line 5 "c:\users\longshuangmin\desktop\worke_space\g-501\g-501\uart2.c"
   5  0001  3420        	clr [32].0
   5  0002              _L2:
   6  0002              #line 6 "c:\users\longshuangmin\desktop\worke_space\g-501\g-501\uart2.c"
   6  0002  3CAF        	sz [47].1
   6  0003  2800     R  	jmp _L5
   8  0004              #line 8 "c:\users\longshuangmin\desktop\worke_space\g-501\g-501\uart2.c"
   8  0004              ;# 8 "c:\users\longshuangmin\desktop\worke_space\g-501\g-501\uart2.c" 1
   8  0004  0001        	clr wdt
   8  0005  2800     R  	jmp _L2
   8  0006              _L5:
  10  0006              #line 10 "c:\users\longshuangmin\desktop\worke_space\g-501\g-501\uart2.c"
  10  0006  0700     R  	mov a,_Send_data_2[0]
  10  0007  00B2        	mov [50],a
  10  0008  0003        	ret
  10  0009              _Send_data endp
  10  0009              #line 10 "c:\users\longshuangmin\desktop\worke_space\g-501\g-501\uart2.c"
  10  0009              #pragma debug scope 1 1
  10  0009              _k equ [4022]
  10  0009              _m equ [4736]
  10  0009              public _print_long
  10  0009              #pragma debug scope 3 1
  74  0009              #line 74 "c:\users\longshuangmin\desktop\worke_space\g-501\g-501\uart2.c"
  74  0000              _print_long .section 'code'
  74  0000              _print_long proc
  74  0000              public _print_long_2
  74  0000  0012[           local _print_long_2 db 18 dup(?)	; 4,14
            00
            ]
  74  0012              #pragma debug variable 13 3 _print_long_2+0 "dat"
  74  0012              #pragma debug variable 14 3 _print_long_2+14 "temp"
  74  0012              #pragma debug array 42 8 10 3
文件：uart2.c      编译器版本 HGASM 0202 页次3

  74  0012              #pragma debug array 42 8 10 3
  74  0012              #pragma debug variable 42 3 _print_long_2+4 "t"
  74  0012              #pragma debug variable 8 3 _print_long_2+14 "ret"
  82  0012              #line 82 "c:\users\longshuangmin\desktop\worke_space\g-501\g-501\uart2.c"
  82  0000  0700     R  	mov a,_print_long_2[0]
  82  0001  0500     R  	or a,_print_long_2[1]
  82  0002  0500     R  	or a,_print_long_2[2]
  82  0003  0500     R  	or a,_print_long_2[3]
  82  0004  390A        	snz z
  82  0005  2800     R  	jmp _L7
  84  0006              #line 84 "c:\users\longshuangmin\desktop\worke_space\g-501\g-501\uart2.c"
  84  0006  0F30        	mov a,48
  84  0007              	fcall _Send_data
  85  000E              #line 85 "c:\users\longshuangmin\desktop\worke_space\g-501\g-501\uart2.c"
  85  000E  0F01        	mov a,1
  85  000F  0080     R  	mov _print_long_2[14],a
  85  0010  2800     R  	jmp _L8
  85  0011              _L7:
  89  0011              #line 89 "c:\users\longshuangmin\desktop\worke_space\g-501\g-501\uart2.c"
  89  0011  3800     R  	snz _print_long_2[3].7
  89  0012  2800     R  	jmp _L9
  91  0013              #line 91 "c:\users\longshuangmin\desktop\worke_space\g-501\g-501\uart2.c"
  91  0013  0F2D        	mov a,45
  91  0014              	fcall _Send_data
  92  001B              #line 92 "c:\users\longshuangmin\desktop\worke_space\g-501\g-501\uart2.c"
  92  001B  0F00        	mov a,0
  92  001C  0200     R  	sub a,_print_long_2[0]
  92  001D  0080     E  	mov ra,a
  92  001E  0F00        	mov a,0
  92  001F  1200     R  	sbc a,_print_long_2[1]
  92  0020  0080     E  	mov rb,a
  92  0021  0F00        	mov a,0
  92  0022  1200     R  	sbc a,_print_long_2[2]
  92  0023  0080     E  	mov rc,a
  92  0024  0F00        	mov a,0
  92  0025  1200     R  	sbc a,_print_long_2[3]
  92  0026  0080     E  	mov rd,a
  92  0027  0700     E  	mov a,ra
  92  0028  0080     R  	mov _print_long_2[14],a
  92  0029  0700     E  	mov a,rb
  92  002A  0080     R  	mov _print_long_2[15],a
  92  002B  0700     E  	mov a,rc
  92  002C  0080     R  	mov _print_long_2[16],a
  92  002D  0700     E  	mov a,rd
  92  002E  0080     R  	mov _print_long_2[17],a
  92  002F  2800     R  	jmp _L10
  92  0030              _L9:
  96  0030              #line 96 "c:\users\longshuangmin\desktop\worke_space\g-501\g-501\uart2.c"
  96  0030  0700     R  	mov a,_print_long_2[0]
  96  0031  0080     R  	mov _print_long_2[14],a
  96  0032  0700     R  	mov a,_print_long_2[1]
  96  0033  0080     R  	mov _print_long_2[15],a
  96  0034  0700     R  	mov a,_print_long_2[2]
  96  0035  0080     R  	mov _print_long_2[16],a
  96  0036  0700     R  	mov a,_print_long_2[3]
  96  0037  0080     R  	mov _print_long_2[17],a
  96  0038              _L10:
  99  0038              #line 99 "c:\users\longshuangmin\desktop\worke_space\g-501\g-501\uart2.c"
  99  0038  0F0A        	mov a,10
  99  0039  0080     E  	mov _memset_2[4],a
文件：uart2.c      编译器版本 HGASM 0202 页次4

  99  003A  1F00     E  	clr _memset_2[5]
  99  003B  1F00     E  	clr _memset_2[2]
  99  003C  1F00     E  	clr _memset_2[3]
  99  003D  0F00     R  	mov a,low offset _print_long_2
  99  003E  0080     E  	mov rb,a
  99  003F  0F00     R  	mov a,high offset _print_long_2
  99  0040  0080     E  	mov rc,a
  99  0041  0F04        	mov a,4
  99  0042  0300     E  	add a,rb
  99  0043  0080     E  	mov _memset_2[0],a
  99  0044  0F00        	mov a,0
  99  0045  1300     E  	adc a,rc
  99  0046  0080     E  	mov _memset_2[1],a
  99  0047              	fcall _memset
 100  004E              #line 100 "c:\users\longshuangmin\desktop\worke_space\g-501\g-501\uart2.c"
 100  004E  0F09        	mov a,9
 100  004F  C0B6 000F   	lmov [4022],a
 103  0051              #line 103 "c:\users\longshuangmin\desktop\worke_space\g-501\g-501\uart2.c"
 103  0051  0F00     R  	mov a,low offset _print_long_2
 103  0052  0080     E  	mov rb,a
 103  0053  0F00     R  	mov a,high offset _print_long_2
 103  0054  0080     E  	mov rc,a
 103  0055  0F04        	mov a,4
 103  0056  0380     E  	addm a,rb
 103  0057  0F00        	mov a,0
 103  0058  1380     E  	adcm a,rc
 103  0059              _L12:
 103  0059  C736 000F   	lmov a,[4022]
 103  005B  0080     E  	mov ra,a
 103  005C  1500     E  	deca ra
 103  005D  C0B6 000F   	lmov [4022],a
 103  005F  1B20        	rrca intc
 103  0060  3420        	clr intc.0
 103  0061  0700     R  	mov a,_print_long_2[14]
 103  0062  00D9        	mov mduwr0,a
 103  0063  0700     R  	mov a,_print_long_2[15]
 103  0064  00DA        	mov mduwr1,a
 103  0065  0700     R  	mov a,_print_long_2[16]
 103  0066  00DB        	mov mduwr2,a
 103  0067  0700     R  	mov a,_print_long_2[17]
 103  0068  00DC        	mov mduwr3,a
 103  0069  0F0A        	mov a,10
 103  006A  00DD        	mov mduwr4,a
 103  006B  0F00        	mov a,0
 103  006C  00DE        	mov mduwr5,a
 103  006D  0F06        	mov a,6
 103  006E              _LI1:
 103  006E  1785        	sdz acc
 103  006F  2800     R  	jmp _LI1
 103  0070  075D        	mov a,mduwr4
 103  0071  0080     E  	mov rd,a
 103  0072  075E        	mov a,mduwr5
 103  0073  0080     E  	mov re,a
 103  0074  1F00     E  	clr rf
 103  0075  1F00     E  	clr rg
 103  0076  3C0A        	sz c
 103  0077  3020        	set intc.0
 103  0078  0F30        	mov a,48
 103  0079  0380     E  	addm a,rd
 103  007A  0700     E  	mov a,ra
文件：uart2.c      编译器版本 HGASM 0202 页次5

 103  007B  0300     E  	add a,rb
 103  007C  0083        	mov mp,a
 103  007D  1F05        	clr acc
 103  007E  1300     E  	adc a,rc
 103  007F  0084        	mov sbp,a
 103  0080  0700     E  	mov a,rd
 103  0081  0082        	mov ir,a
 104  0082              #line 104 "c:\users\longshuangmin\desktop\worke_space\g-501\g-501\uart2.c"
 104  0082  1B20        	rrca intc
 104  0083  3420        	clr intc.0
 104  0084  0700     R  	mov a,_print_long_2[14]
 104  0085  00D9        	mov mduwr0,a
 104  0086  0700     R  	mov a,_print_long_2[15]
 104  0087  00DA        	mov mduwr1,a
 104  0088  0700     R  	mov a,_print_long_2[16]
 104  0089  00DB        	mov mduwr2,a
 104  008A  0700     R  	mov a,_print_long_2[17]
 104  008B  00DC        	mov mduwr3,a
 104  008C  0F0A        	mov a,10
 104  008D  00DD        	mov mduwr4,a
 104  008E  0F00        	mov a,0
 104  008F  00DE        	mov mduwr5,a
 104  0090  0F06        	mov a,6
 104  0091              _LI2:
 104  0091  1785        	sdz acc
 104  0092  2800     R  	jmp _LI2
 104  0093  0759        	mov a,mduwr0
 104  0094  0080     R  	mov _print_long_2[14],a
 104  0095  075A        	mov a,mduwr1
 104  0096  0080     R  	mov _print_long_2[15],a
 104  0097  075B        	mov a,mduwr2
 104  0098  0080     R  	mov _print_long_2[16],a
 104  0099  075C        	mov a,mduwr3
 104  009A  0080     R  	mov _print_long_2[17],a
 104  009B  3C0A        	sz c
 104  009C  3020        	set intc.0
 101  009D              #line 101 "c:\users\longshuangmin\desktop\worke_space\g-501\g-501\uart2.c"
 101  009D  0700     R  	mov a,_print_long_2[14]
 101  009E  0500     R  	or a,_print_long_2[15]
 101  009F  0500     R  	or a,_print_long_2[16]
 101  00A0  0500     R  	or a,_print_long_2[17]
 101  00A1  390A        	snz z
 101  00A2  2800     R  	jmp _L12
 107  00A3              #line 107 "c:\users\longshuangmin\desktop\worke_space\g-501\g-501\uart2.c"
 107  00A3  DF00 0012   	lclr [4736]
  78  00A5              #line 78 "c:\users\longshuangmin\desktop\worke_space\g-501\g-501\uart2.c"
  78  00A5  1F00     R  	clr _print_long_2[14]
  78  00A6              _L13:
 107  00A6              #line 107 "c:\users\longshuangmin\desktop\worke_space\g-501\g-501\uart2.c"
 107  00A6  0F09        	mov a,9
 107  00A7  C200 0012   	lsub a,[4736]
 107  00A9  380A        	snz c
 107  00AA  2800     R  	jmp _L8
 110  00AB              #line 110 "c:\users\longshuangmin\desktop\worke_space\g-501\g-501\uart2.c"
 110  00AB  0F00     R  	mov a,low offset _print_long_2
 110  00AC  0080     E  	mov rb,a
 110  00AD  0F00     R  	mov a,high offset _print_long_2
 110  00AE  0080     E  	mov rc,a
 110  00AF  0F04        	mov a,4
 110  00B0  0380     E  	addm a,rb
文件：uart2.c      编译器版本 HGASM 0202 页次6

 110  00B1  0F00        	mov a,0
 110  00B2  1380     E  	adcm a,rc
 110  00B3  C700 0012   	lmov a,[4736]
 110  00B5  0300     E  	add a,rb
 110  00B6  0083        	mov mp,a
 110  00B7  1F05        	clr acc
 110  00B8  1300     E  	adc a,rc
 110  00B9  0084        	mov sbp,a
 110  00BA              	fcall _Crom2Prom
 110  00C1  0080     E  	mov ra,a
 110  00C2  1E00     E  	snz ra
 110  00C3  2800     R  	jmp _L14
 112  00C4              #line 112 "c:\users\longshuangmin\desktop\worke_space\g-501\g-501\uart2.c"
 112  00C4  C700 0012   	lmov a,[4736]
 112  00C6  0300     E  	add a,rb
 112  00C7  0083        	mov mp,a
 112  00C8  1F05        	clr acc
 112  00C9  1300     E  	adc a,rc
 112  00CA  0084        	mov sbp,a
 112  00CB              	fcall _Crom2Prom
 112  00D2              	fcall _Send_data
 113  00D9              #line 113 "c:\users\longshuangmin\desktop\worke_space\g-501\g-501\uart2.c"
 113  00D9  1480     R  	inc _print_long_2[14]
 113  00DA              _L14:
 107  00DA              #line 107 "c:\users\longshuangmin\desktop\worke_space\g-501\g-501\uart2.c"
 107  00DA  D480 0012   	linc [4736]
 107  00DC  2800     R  	jmp _L13
 107  00DD              _L8:
 122  00DD              #line 122 "c:\users\longshuangmin\desktop\worke_space\g-501\g-501\uart2.c"
 122  00DD  0700     R  	mov a,_print_long_2[14]
 122  00DE  0003        	ret
 122  00DF              _print_long endp
 122  00DF              #line 122 "c:\users\longshuangmin\desktop\worke_space\g-501\g-501\uart2.c"
 122  00DF              #pragma debug scope 1 1
 122  00DF              public _print_double
 122  00DF              #pragma debug scope 4 1
 126  00DF              #line 126 "c:\users\longshuangmin\desktop\worke_space\g-501\g-501\uart2.c"
 126  0000              _print_double .section 'code'
 126  0000              _print_double proc
 126  0000              public _print_double_2
 126  0000  0018[           local _print_double_2 db 24 dup(?)	; 4,20
            00
            ]
 126  0018              #pragma debug variable 29 4 _print_double_2+0 "dat"
 126  0018              #pragma debug variable 29 4 _print_double_2+18 "temp"
 126  0018              #pragma debug array 43 8 10 4
 126  0018              #pragma debug array 43 8 10 4
 126  0018              #pragma debug variable 43 4 _print_double_2+4 "t"
 126  0018              #pragma debug variable 14 4 _print_double_2+14 "inter"
 136  0018              #line 136 "c:\users\longshuangmin\desktop\worke_space\g-501\g-501\uart2.c"
 136  0000  0F0A        	mov a,10
 136  0001  0080     E  	mov _memset_2[4],a
 136  0002  1F00     E  	clr _memset_2[5]
 136  0003  1F00     E  	clr _memset_2[2]
 136  0004  1F00     E  	clr _memset_2[3]
 136  0005  0F00     R  	mov a,low offset _print_double_2
 136  0006  0080     E  	mov ra,a
 136  0007  0F00     R  	mov a,high offset _print_double_2
 136  0008  0080     E  	mov rb,a
 136  0009  0F04        	mov a,4
文件：uart2.c      编译器版本 HGASM 0202 页次7

 136  000A  0300     E  	add a,ra
 136  000B  0080     E  	mov _memset_2[0],a
 136  000C  0F00        	mov a,0
 136  000D  1300     E  	adc a,rb
 136  000E  0080     E  	mov _memset_2[1],a
 136  000F              	fcall _memset
 138  0016              #line 138 "c:\users\longshuangmin\desktop\worke_space\g-501\g-501\uart2.c"
 138  0016  0700     R  	mov a,_print_double_2[0]
 138  0017  0080     R  	mov _print_double_2[18],a
 138  0018  0700     R  	mov a,_print_double_2[1]
 138  0019  0080     R  	mov _print_double_2[19],a
 138  001A  0700     R  	mov a,_print_double_2[2]
 138  001B  0080     R  	mov _print_double_2[20],a
 138  001C  0700     R  	mov a,_print_double_2[3]
 138  001D  0080     R  	mov _print_double_2[21],a
 139  001E              #line 139 "c:\users\longshuangmin\desktop\worke_space\g-501\g-501\uart2.c"
 139  001E  0700     R  	mov a,_print_double_2[3]
 139  001F  0080     E  	mov _builtin_holtek_mant12p[0],a
 139  0020  0700     R  	mov a,_print_double_2[2]
 139  0021  0080     E  	mov _builtin_holtek_mant1[2],a
 139  0022  0700     R  	mov a,_print_double_2[1]
 139  0023  0080     E  	mov _builtin_holtek_mant1[1],a
 139  0024  0700     R  	mov a,_print_double_2[0]
 139  0025  0080     E  	mov _builtin_holtek_mant1[0],a
 139  0026  0F00        	mov a,0
 139  0027  0080     E  	mov _builtin_holtek_mant12p[1],a
 139  0028  0F00        	mov a,0
 139  0029  0080     E  	mov _builtin_holtek_mant2[2],a
 139  002A  0F00        	mov a,0
 139  002B  0080     E  	mov _builtin_holtek_mant2[1],a
 139  002C  0F00        	mov a,0
 139  002D  0080     E  	mov _builtin_holtek_mant2[0],a
 139  002E              	fcall _builtin_holtek_dtsub
 139  0035  3C00     E  	sz _builtin_holtek_mant12p[0].7
 139  0036  2800     R  	jmp _L29
 139  0037  2800     R  	jmp _L20
 139  0038              _L29:
 141  0038              #line 141 "c:\users\longshuangmin\desktop\worke_space\g-501\g-501\uart2.c"
 141  0038  0F2D        	mov a,45
 141  0039              	fcall _Send_data
 142  0040              #line 142 "c:\users\longshuangmin\desktop\worke_space\g-501\g-501\uart2.c"
 142  0040  0700     R  	mov a,_print_double_2[0]
 142  0041  0080     E  	mov ra,a
 142  0042  0700     R  	mov a,_print_double_2[1]
 142  0043  0080     E  	mov rb,a
 142  0044  0700     R  	mov a,_print_double_2[2]
 142  0045  0080     E  	mov rc,a
 142  0046  0700     R  	mov a,_print_double_2[3]
 142  0047  0080     E  	mov rd,a
 142  0048  0700     E  	mov a,rc
 142  0049  0500     E  	or a,rd
 142  004A  0F80        	mov a,80h
 142  004B  390A        	snz z
 142  004C  0480     E  	xorm a,rd
 142  004D  0700     E  	mov a,ra
 142  004E  0080     R  	mov _print_double_2[18],a
 142  004F  0700     E  	mov a,rb
 142  0050  0080     R  	mov _print_double_2[19],a
 142  0051  0700     E  	mov a,rc
 142  0052  0080     R  	mov _print_double_2[20],a
文件：uart2.c      编译器版本 HGASM 0202 页次8

 142  0053  0700     E  	mov a,rd
 142  0054  0080     R  	mov _print_double_2[21],a
 142  0055              _L20:
 146  0055              #line 146 "c:\users\longshuangmin\desktop\worke_space\g-501\g-501\uart2.c"
 146  0055  0700     R  	mov a,_print_double_2[18]
 146  0056  0080     E  	mov rd,a
 146  0057  0700     R  	mov a,_print_double_2[19]
 146  0058  0080     E  	mov re,a
 146  0059  0700     R  	mov a,_print_double_2[20]
 146  005A  0080     E  	mov rf,a
 146  005B  0700     R  	mov a,_print_double_2[21]
 146  005C  0080     E  	mov rg,a
 146  005D  0700     E  	mov a,rg
 146  005E  0080     E  	mov _builtin_holtek_mant12p[0],a
 146  005F  0700     E  	mov a,rf
 146  0060  0080     E  	mov _builtin_holtek_mant1[2],a
 146  0061  0700     E  	mov a,re
 146  0062  0080     E  	mov _builtin_holtek_mant1[1],a
 146  0063  0700     E  	mov a,rd
 146  0064  0080     E  	mov _builtin_holtek_mant1[0],a
 146  0065  0F4F        	mov a,79
 146  0066  0080     E  	mov _builtin_holtek_mant12p[1],a
 146  0067  0F00        	mov a,0
 146  0068  0080     E  	mov _builtin_holtek_mant2[2],a
 146  0069  0F00        	mov a,0
 146  006A  0080     E  	mov _builtin_holtek_mant2[1],a
 146  006B  0F00        	mov a,0
 146  006C  0080     E  	mov _builtin_holtek_mant2[0],a
 146  006D              	fcall _builtin_holtek_dtsub
 146  0074  3800     E  	snz _builtin_holtek_mant12p[0].7
 146  0075  2800     R  	jmp _L22
 146  0076  0700     E  	mov a,rg
 146  0077  0080     E  	mov _builtin_holtek_mant12p[0],a
 146  0078  0700     E  	mov a,rf
 146  0079  0080     E  	mov _builtin_holtek_mant1[2],a
 146  007A  0700     E  	mov a,re
 146  007B  0080     E  	mov _builtin_holtek_mant1[1],a
 146  007C  0700     E  	mov a,rd
 146  007D  0080     E  	mov _builtin_holtek_mant1[0],a
 146  007E              	fcall _builtin_holtek_dtol
 146  0085  0700     E  	mov a,_builtin_holtek_mant12p[0]
 146  0086  0080     E  	mov rg,a
 146  0087  0700     E  	mov a,_builtin_holtek_mant1[2]
 146  0088  0080     E  	mov rf,a
 146  0089  0700     E  	mov a,_builtin_holtek_mant1[1]
 146  008A  0080     E  	mov re,a
 146  008B  0700     E  	mov a,_builtin_holtek_mant1[0]
 146  008C  0080     E  	mov rd,a
 146  008D  2800     R  	jmp _L23
 146  008E              _L22:
 146  008E  0700     E  	mov a,rg
 146  008F  0080     E  	mov _builtin_holtek_mant12p[0],a
 146  0090  0700     E  	mov a,rf
 146  0091  0080     E  	mov _builtin_holtek_mant1[2],a
 146  0092  0700     E  	mov a,re
 146  0093  0080     E  	mov _builtin_holtek_mant1[1],a
 146  0094  0700     E  	mov a,rd
 146  0095  0080     E  	mov _builtin_holtek_mant1[0],a
 146  0096  0F4F        	mov a,79
 146  0097  0080     E  	mov _builtin_holtek_mant12p[1],a
文件：uart2.c      编译器版本 HGASM 0202 页次9

 146  0098  0F00        	mov a,0
 146  0099  0080     E  	mov _builtin_holtek_mant2[2],a
 146  009A  0F00        	mov a,0
 146  009B  0080     E  	mov _builtin_holtek_mant2[1],a
 146  009C  0F00        	mov a,0
 146  009D  0080     E  	mov _builtin_holtek_mant2[0],a
 146  009E              	fcall _builtin_holtek_dtsub
 146  00A5  0700     E  	mov a,_builtin_holtek_mant12p[0]
 146  00A6  0080     E  	mov rg,a
 146  00A7  0700     E  	mov a,_builtin_holtek_mant1[2]
 146  00A8  0080     E  	mov rf,a
 146  00A9  0700     E  	mov a,_builtin_holtek_mant1[1]
 146  00AA  0080     E  	mov re,a
 146  00AB  0700     E  	mov a,_builtin_holtek_mant1[0]
 146  00AC  0080     E  	mov rd,a
 146  00AD  0700     E  	mov a,rg
 146  00AE  0080     E  	mov _builtin_holtek_mant12p[0],a
 146  00AF  0700     E  	mov a,rf
 146  00B0  0080     E  	mov _builtin_holtek_mant1[2],a
 146  00B1  0700     E  	mov a,re
 146  00B2  0080     E  	mov _builtin_holtek_mant1[1],a
 146  00B3  0700     E  	mov a,rd
 146  00B4  0080     E  	mov _builtin_holtek_mant1[0],a
 146  00B5              	fcall _builtin_holtek_dtol
 146  00BC  0700     E  	mov a,_builtin_holtek_mant12p[0]
 146  00BD  0080     E  	mov rg,a
 146  00BE  0700     E  	mov a,_builtin_holtek_mant1[2]
 146  00BF  0080     E  	mov rf,a
 146  00C0  0700     E  	mov a,_builtin_holtek_mant1[1]
 146  00C1  0080     E  	mov re,a
 146  00C2  0700     E  	mov a,_builtin_holtek_mant1[0]
 146  00C3  0080     E  	mov rd,a
 146  00C4  0F00        	mov a,0
 146  00C5  0380     E  	addm a,rd
 146  00C6  1380     E  	adcm a,re
 146  00C7  1380     E  	adcm a,rf
 146  00C8  0F80        	mov a,128
 146  00C9  1380     E  	adcm a,rg
 146  00CA              _L23:
 146  00CA  0700     E  	mov a,rd
 146  00CB  0080     R  	mov _print_double_2[14],a
 146  00CC  0700     E  	mov a,re
 146  00CD  0080     R  	mov _print_double_2[15],a
 146  00CE  0700     E  	mov a,rf
 146  00CF  0080     R  	mov _print_double_2[16],a
 146  00D0  0700     E  	mov a,rg
 146  00D1  0080     R  	mov _print_double_2[17],a
 148  00D2              #line 148 "c:\users\longshuangmin\desktop\worke_space\g-501\g-501\uart2.c"
 148  00D2  0700     R  	mov a,_print_double_2[14]
 148  00D3  0080     R  	mov _print_long_2[0],a
 148  00D4  0700     R  	mov a,_print_double_2[15]
 148  00D5  0080     R  	mov _print_long_2[1],a
 148  00D6  0700     R  	mov a,_print_double_2[16]
 148  00D7  0080     R  	mov _print_long_2[2],a
 148  00D8  0700     R  	mov a,_print_double_2[17]
 148  00D9  0080     R  	mov _print_long_2[3],a
 148  00DA              	fcall _print_long
 148  00E1  0080     R  	mov _print_double_2[22],a
 149  00E2              #line 149 "c:\users\longshuangmin\desktop\worke_space\g-501\g-501\uart2.c"
 149  00E2  0F07        	mov a,7
文件：uart2.c      编译器版本 HGASM 0202 页次10

 149  00E3  0200     R  	sub a,_print_double_2[22]
 149  00E4  3C0A        	sz c
 149  00E5  2800     R  	jmp _L24
 149  00E6              _L27:
 169  00E6              #line 169 "c:\users\longshuangmin\desktop\worke_space\g-501\g-501\uart2.c"
 169  00E6  3020        	set [32].0
 169  00E7  2800     R  	jmp _L31
 169  00E8              _L24:
 152  00E8              #line 152 "c:\users\longshuangmin\desktop\worke_space\g-501\g-501\uart2.c"
 152  00E8  0F2E        	mov a,46
 152  00E9              	fcall _Send_data
 154  00F0              #line 154 "c:\users\longshuangmin\desktop\worke_space\g-501\g-501\uart2.c"
 154  00F0  0700     R  	mov a,_print_double_2[17]
 154  00F1  0080     E  	mov _builtin_holtek_mant12p[0],a
 154  00F2  0700     R  	mov a,_print_double_2[16]
 154  00F3  0080     E  	mov _builtin_holtek_mant1[2],a
 154  00F4  0700     R  	mov a,_print_double_2[15]
 154  00F5  0080     E  	mov _builtin_holtek_mant1[1],a
 154  00F6  0700     R  	mov a,_print_double_2[14]
 154  00F7  0080     E  	mov _builtin_holtek_mant1[0],a
 154  00F8  3400     E  	clr _builtin_holtek_signs.0
 154  00F9              	fcall _builtin_holtek_ultod
 154  0100  0700     E  	mov a,_builtin_holtek_mant12p[0]
 154  0101  0080     E  	mov rg,a
 154  0102  0700     E  	mov a,_builtin_holtek_mant1[2]
 154  0103  0080     E  	mov rf,a
 154  0104  0700     E  	mov a,_builtin_holtek_mant1[1]
 154  0105  0080     E  	mov re,a
 154  0106  0700     E  	mov a,_builtin_holtek_mant1[0]
 154  0107  0080     E  	mov rd,a
 154  0108  0700     R  	mov a,_print_double_2[21]
 154  0109  0080     E  	mov _builtin_holtek_mant12p[0],a
 154  010A  0700     R  	mov a,_print_double_2[20]
 154  010B  0080     E  	mov _builtin_holtek_mant1[2],a
 154  010C  0700     R  	mov a,_print_double_2[19]
 154  010D  0080     E  	mov _builtin_holtek_mant1[1],a
 154  010E  0700     R  	mov a,_print_double_2[18]
 154  010F  0080     E  	mov _builtin_holtek_mant1[0],a
 154  0110  0700     E  	mov a,rg
 154  0111  0080     E  	mov _builtin_holtek_mant12p[1],a
 154  0112  0700     E  	mov a,rf
 154  0113  0080     E  	mov _builtin_holtek_mant2[2],a
 154  0114  0700     E  	mov a,re
 154  0115  0080     E  	mov _builtin_holtek_mant2[1],a
 154  0116  0700     E  	mov a,rd
 154  0117  0080     E  	mov _builtin_holtek_mant2[0],a
 154  0118              	fcall _builtin_holtek_dtsub
 154  011F  0700     E  	mov a,_builtin_holtek_mant12p[0]
 154  0120  0080     R  	mov _print_double_2[21],a
 154  0121  0700     E  	mov a,_builtin_holtek_mant1[2]
 154  0122  0080     R  	mov _print_double_2[20],a
 154  0123  0700     E  	mov a,_builtin_holtek_mant1[1]
 154  0124  0080     R  	mov _print_double_2[19],a
 154  0125  0700     E  	mov a,_builtin_holtek_mant1[0]
 154  0126  0080     R  	mov _print_double_2[18],a
 156  0127              #line 156 "c:\users\longshuangmin\desktop\worke_space\g-501\g-501\uart2.c"
 156  0127  0F08        	mov a,8
 156  0128  0200     R  	sub a,_print_double_2[22]
 156  0129  0080     R  	mov _print_double_2[23],a
 157  012A              #line 157 "c:\users\longshuangmin\desktop\worke_space\g-501\g-501\uart2.c"
文件：uart2.c      编译器版本 HGASM 0202 页次11

 157  012A  1F00     E  	clr ra
 160  012B              #line 160 "c:\users\longshuangmin\desktop\worke_space\g-501\g-501\uart2.c"
 160  012B  0F00     R  	mov a,low offset _print_double_2
 160  012C  0080     E  	mov rb,a
 160  012D  0F00     R  	mov a,high offset _print_double_2
 160  012E  0080     E  	mov rc,a
 160  012F  0F04        	mov a,4
 160  0130  0380     E  	addm a,rb
 160  0131  0F00        	mov a,0
 160  0132  1380     E  	adcm a,rc
 160  0133              _L26:
 159  0133              #line 159 "c:\users\longshuangmin\desktop\worke_space\g-501\g-501\uart2.c"
 159  0133  0700     R  	mov a,_print_double_2[21]
 159  0134  0080     E  	mov _builtin_holtek_mant12p[0],a
 159  0135  0700     R  	mov a,_print_double_2[20]
 159  0136  0080     E  	mov _builtin_holtek_mant1[2],a
 159  0137  0700     R  	mov a,_print_double_2[19]
 159  0138  0080     E  	mov _builtin_holtek_mant1[1],a
 159  0139  0700     R  	mov a,_print_double_2[18]
 159  013A  0080     E  	mov _builtin_holtek_mant1[0],a
 159  013B  0F41        	mov a,65
 159  013C  0080     E  	mov _builtin_holtek_mant12p[1],a
 159  013D  0F20        	mov a,32
 159  013E  0080     E  	mov _builtin_holtek_mant2[2],a
 159  013F  0F00        	mov a,0
 159  0140  0080     E  	mov _builtin_holtek_mant2[1],a
 159  0141  0F00        	mov a,0
 159  0142  0080     E  	mov _builtin_holtek_mant2[0],a
 159  0143              	fcall _builtin_holtek_dtmul
 159  014A  0700     E  	mov a,_builtin_holtek_mant12p[0]
 159  014B  0080     R  	mov _print_double_2[21],a
 159  014C  0700     E  	mov a,_builtin_holtek_mant1[2]
 159  014D  0080     R  	mov _print_double_2[20],a
 159  014E  0700     E  	mov a,_builtin_holtek_mant1[1]
 159  014F  0080     R  	mov _print_double_2[19],a
 159  0150  0700     E  	mov a,_builtin_holtek_mant1[0]
 159  0151  0080     R  	mov _print_double_2[18],a
 160  0152              #line 160 "c:\users\longshuangmin\desktop\worke_space\g-501\g-501\uart2.c"
 160  0152  0700     R  	mov a,_print_double_2[21]
 160  0153  0080     E  	mov _builtin_holtek_mant12p[0],a
 160  0154  0700     R  	mov a,_print_double_2[20]
 160  0155  0080     E  	mov _builtin_holtek_mant1[2],a
 160  0156  0700     R  	mov a,_print_double_2[19]
 160  0157  0080     E  	mov _builtin_holtek_mant1[1],a
 160  0158  0700     R  	mov a,_print_double_2[18]
 160  0159  0080     E  	mov _builtin_holtek_mant1[0],a
 160  015A              	fcall _builtin_holtek_dtol
 160  0161  0700     E  	mov a,_builtin_holtek_mant12p[0]
 160  0162  0080     E  	mov rg,a
 160  0163  0700     E  	mov a,_builtin_holtek_mant1[2]
 160  0164  0080     E  	mov rf,a
 160  0165  0700     E  	mov a,_builtin_holtek_mant1[1]
 160  0166  0080     E  	mov re,a
 160  0167  0700     E  	mov a,_builtin_holtek_mant1[0]
 160  0168  0080     E  	mov rd,a
 160  0169  0700     E  	mov a,ra
 160  016A  0300     E  	add a,rb
 160  016B  0083        	mov mp,a
 160  016C  1F05        	clr acc
 160  016D  1300     E  	adc a,rc
文件：uart2.c      编译器版本 HGASM 0202 页次12

 160  016E  0084        	mov sbp,a
 160  016F  0700     E  	mov a,rd
 160  0170  0082        	mov ir,a
 161  0171              #line 161 "c:\users\longshuangmin\desktop\worke_space\g-501\g-501\uart2.c"
 161  0171  1F00     E  	clr re
 161  0172  0700     E  	mov a,re
 161  0173  0080     E  	mov _builtin_holtek_mant1[1],a
 161  0174  0700     E  	mov a,rd
 161  0175  0080     E  	mov _builtin_holtek_mant1[0],a
 161  0176              	fcall _builtin_holtek_itod
 161  017D  0700     E  	mov a,_builtin_holtek_mant12p[0]
 161  017E  0080     E  	mov rg,a
 161  017F  0700     E  	mov a,_builtin_holtek_mant1[2]
 161  0180  0080     E  	mov rf,a
 161  0181  0700     E  	mov a,_builtin_holtek_mant1[1]
 161  0182  0080     E  	mov re,a
 161  0183  0700     E  	mov a,_builtin_holtek_mant1[0]
 161  0184  0080     E  	mov rd,a
 161  0185  0700     R  	mov a,_print_double_2[21]
 161  0186  0080     E  	mov _builtin_holtek_mant12p[0],a
 161  0187  0700     R  	mov a,_print_double_2[20]
 161  0188  0080     E  	mov _builtin_holtek_mant1[2],a
 161  0189  0700     R  	mov a,_print_double_2[19]
 161  018A  0080     E  	mov _builtin_holtek_mant1[1],a
 161  018B  0700     R  	mov a,_print_double_2[18]
 161  018C  0080     E  	mov _builtin_holtek_mant1[0],a
 161  018D  0700     E  	mov a,rg
 161  018E  0080     E  	mov _builtin_holtek_mant12p[1],a
 161  018F  0700     E  	mov a,rf
 161  0190  0080     E  	mov _builtin_holtek_mant2[2],a
 161  0191  0700     E  	mov a,re
 161  0192  0080     E  	mov _builtin_holtek_mant2[1],a
 161  0193  0700     E  	mov a,rd
 161  0194  0080     E  	mov _builtin_holtek_mant2[0],a
 161  0195              	fcall _builtin_holtek_dtsub
 161  019C  0700     E  	mov a,_builtin_holtek_mant12p[0]
 161  019D  0080     R  	mov _print_double_2[21],a
 161  019E  0700     E  	mov a,_builtin_holtek_mant1[2]
 161  019F  0080     R  	mov _print_double_2[20],a
 161  01A0  0700     E  	mov a,_builtin_holtek_mant1[1]
 161  01A1  0080     R  	mov _print_double_2[19],a
 161  01A2  0700     E  	mov a,_builtin_holtek_mant1[0]
 161  01A3  0080     R  	mov _print_double_2[18],a
 157  01A4              #line 157 "c:\users\longshuangmin\desktop\worke_space\g-501\g-501\uart2.c"
 157  01A4  1480     E  	inc ra
 157  01A5  0700     E  	mov a,ra
 157  01A6  0200     R  	sub a,_print_double_2[23]
 157  01A7  380A        	snz c
 157  01A8  2800     R  	jmp _L26
 157  01A9  1F00     R  	clr _print_double_2[22]
 157  01AA              _L28:
 166  01AA              #line 166 "c:\users\longshuangmin\desktop\worke_space\g-501\g-501\uart2.c"
 166  01AA  0F00     R  	mov a,low offset _print_double_2
 166  01AB  0080     E  	mov rb,a
 166  01AC  0F00     R  	mov a,high offset _print_double_2
 166  01AD  0080     E  	mov rc,a
 166  01AE  0F04        	mov a,4
 166  01AF  0380     E  	addm a,rb
 166  01B0  0F00        	mov a,0
 166  01B1  1380     E  	adcm a,rc
文件：uart2.c      编译器版本 HGASM 0202 页次13

 166  01B2  0700     R  	mov a,_print_double_2[22]
 166  01B3  0300     E  	add a,rb
 166  01B4  0083        	mov mp,a
 166  01B5  1F05        	clr acc
 166  01B6  1300     E  	adc a,rc
 166  01B7  0084        	mov sbp,a
 166  01B8              	fcall _Crom2Prom
 166  01BF  0080     E  	mov ra,a
 166  01C0  0F30        	mov a,48
 166  01C1  0380     E  	addm a,ra
 166  01C2  0700     E  	mov a,ra
 166  01C3              	fcall _Send_data
 164  01CA              #line 164 "c:\users\longshuangmin\desktop\worke_space\g-501\g-501\uart2.c"
 164  01CA  1480     R  	inc _print_double_2[22]
 164  01CB  0700     R  	mov a,_print_double_2[22]
 164  01CC  0200     R  	sub a,_print_double_2[23]
 164  01CD  380A        	snz c
 164  01CE  2800     R  	jmp _L28
 164  01CF  2800     R  	jmp _L27
 164  01D0              _L31:
 164  01D0  0003        	ret
 164  01D1              _print_double endp
 164  01D1              #line 164 "c:\users\longshuangmin\desktop\worke_space\g-501\g-501\uart2.c"
 164  01D1              #pragma debug scope 1 1
 164  01D1              public _print_str
 164  01D1              #pragma debug scope 5 1
 176  01D1              #line 176 "c:\users\longshuangmin\desktop\worke_space\g-501\g-501\uart2.c"
 176  0000              _print_str .section 'code'
 176  0000              _print_str proc
 176  0000              public _print_str_2
 176  0000  0002[           local _print_str_2 db 2 dup(?)	; 2,0
            00
            ]
 176  0002              #pragma debug pointer 44 7 5
 176  0002              #pragma debug pointer 44 7 5
 176  0002              #pragma debug variable 44 5 _print_str_2+0 "p"
 178  0002              #line 178 "c:\users\longshuangmin\desktop\worke_space\g-501\g-501\uart2.c"
 178  0000  2800     R  	jmp _L33
 178  0001              _L34:
 180  0001              #line 180 "c:\users\longshuangmin\desktop\worke_space\g-501\g-501\uart2.c"
 180  0001  1480     R  	inc _print_str_2[0]
 180  0002  3D0A        	sz z
 180  0003  1480     R  	inc _print_str_2[1]
 180  0004  0700     E  	mov a,ra
 180  0005              	fcall _Send_data
 180  000C              _L33:
 178  000C              #line 178 "c:\users\longshuangmin\desktop\worke_space\g-501\g-501\uart2.c"
 178  000C  0700     R  	mov a,_print_str_2[0]
 178  000D  0083        	mov mp,a
 178  000E  0700     R  	mov a,_print_str_2[1]
 178  000F  0084        	mov sbp,a
 178  0010              	fcall _Crom2Prom
 178  0017  0080     E  	mov ra,a
 178  0018  1080     E  	sz ra
 178  0019  2800     R  	jmp _L34
 178  001A  0003        	ret
 178  001B              _print_str endp
 178  001B              #line 178 "c:\users\longshuangmin\desktop\worke_space\g-501\g-501\uart2.c"
 178  001B              #pragma debug scope 1 1
 178  001B              public _print_DataLen
文件：uart2.c      编译器版本 HGASM 0202 页次14

 178  001B              #pragma debug scope 6 1
 187  001B              #line 187 "c:\users\longshuangmin\desktop\worke_space\g-501\g-501\uart2.c"
 187  0000              _print_DataLen .section 'code'
 187  0000              _print_DataLen proc
 187  0000              public _print_DataLen_2
 187  0000  0006[           local _print_DataLen_2 db 6 dup(?)	; 4,2
            00
            ]
 187  0006              #pragma debug pointer 45 7 6
 187  0006              #pragma debug pointer 45 7 6
 187  0006              #pragma debug variable 45 6 _print_DataLen_2+0 "data"
 187  0006              #pragma debug variable 11 6 _print_DataLen_2+2 "len"
 187  0006              #pragma debug variable 11 6 _print_DataLen_2+4 "i"
 189  0006              #line 189 "c:\users\longshuangmin\desktop\worke_space\g-501\g-501\uart2.c"
 189  0000  1F00     R  	clr _print_DataLen_2[4]
 189  0001  1F00     R  	clr _print_DataLen_2[5]
 189  0002  2800     R  	jmp _L36
 189  0003              _L37:
 191  0003              #line 191 "c:\users\longshuangmin\desktop\worke_space\g-501\g-501\uart2.c"
 191  0003  0700     R  	mov a,_print_DataLen_2[4]
 191  0004  0300     R  	add a,_print_DataLen_2[0]
 191  0005  0083        	mov mp,a
 191  0006  0700     R  	mov a,_print_DataLen_2[5]
 191  0007  1300     R  	adc a,_print_DataLen_2[1]
 191  0008  0084        	mov sbp,a
 191  0009              	fcall _Crom2Prom
 191  0010              	fcall _Send_data
 189  0017              #line 189 "c:\users\longshuangmin\desktop\worke_space\g-501\g-501\uart2.c"
 189  0017  1480     R  	inc _print_DataLen_2[4]
 189  0018  3D0A        	sz z
 189  0019  1480     R  	inc _print_DataLen_2[5]
 189  001A              _L36:
 189  001A  0700     R  	mov a,_print_DataLen_2[4]
 189  001B  0200     R  	sub a,_print_DataLen_2[2]
 189  001C  0700     R  	mov a,_print_DataLen_2[5]
 189  001D  1200     R  	sbc a,_print_DataLen_2[3]
 189  001E  3F8A        	sz sc
 189  001F  2800     R  	jmp _L37
 189  0020  0003        	ret
 189  0021              _print_DataLen endp
 189  0021              #line 189 "c:\users\longshuangmin\desktop\worke_space\g-501\g-501\uart2.c"
 189  0021              #pragma debug scope 1 1
 189  0021              #pragma debug struct_end
 189  0021              #pragma debug struct_end
 189  0021              #pragma debug union_end
 189  0021              #pragma debug union_end
 189  0021              #pragma debug variable 47 1 ___intc0 "__intc0" 1
 189  0021              #pragma debug struct_end
 189  0021              #pragma debug struct_end
 189  0021              #pragma debug union_end
 189  0021              #pragma debug union_end
 189  0021              #pragma debug variable 49 1 ___u0sr "__u0sr" 1
 189  0021              #pragma debug struct_end
 189  0021              #pragma debug struct_end
 189  0021              #pragma debug union_end
 189  0021              #pragma debug union_end
 189  0021              #pragma debug variable 51 1 ___txr_rxr0 "__txr_rxr0" 1
 189  0021              #pragma debug variable 8 1 _k "k" 1
 189  0021              #pragma debug variable 8 1 _m "m" 1
 189  0021              extern _memset_2:byte
文件：uart2.c      编译器版本 HGASM 0202 页次15

 189  0021              extern _memset:near
 189  0021              extern _builtin_holtek_udivmodsi4_2:byte
 189  0021              extern _builtin_holtek_udivmodsi4:near
 189  0021              extern _builtin_holtek_mant1:byte
 189  0021              extern _builtin_holtek_mant2:byte
 189  0021              extern _builtin_holtek_mant12p:byte
 189  0021              extern _builtin_holtek_dtsub:near
 189  0021              extern _builtin_holtek_dtol:near
 189  0021              extern _builtin_holtek_signs:byte
 189  0021              extern _builtin_holtek_ultod:near
 189  0021              extern _builtin_holtek_dtmul:near
 189  0021              extern _builtin_holtek_itod:near
 189  0021              
 189  0021              ; 
 189  0021              ; Generated by holtek-gcc v3.19, Fri May 23 10:39:49 2025
 189  0021              ; Rebuild 718
 189  0021              ; end of file


        0 Errors, 0